
/home/jiangfang/workspace/re-prefetcher/store-stride-prefetcher/bin/test0-exist:     file format elf64-littleaarch64


Disassembly of section .init:

0000000000400250 <_init>:
  400250:	d503201f 	nop
  400254:	a9bf7bfd 	stp	x29, x30, [sp, #-16]!
  400258:	910003fd 	mov	x29, sp
  40025c:	9400010d 	bl	400690 <call_weak_fn>
  400260:	a8c17bfd 	ldp	x29, x30, [sp], #16
  400264:	d65f03c0 	ret

Disassembly of section .plt:

0000000000400270 <.plt>:
  400270:	90000490 	adrp	x16, 490000 <.got.plt+0x18>
  400274:	f9400211 	ldr	x17, [x16]
  400278:	91000210 	add	x16, x16, #0x0
  40027c:	d61f0220 	br	x17
  400280:	90000490 	adrp	x16, 490000 <.got.plt+0x18>
  400284:	f9400611 	ldr	x17, [x16, #8]
  400288:	91002210 	add	x16, x16, #0x8
  40028c:	d61f0220 	br	x17
  400290:	90000490 	adrp	x16, 490000 <.got.plt+0x18>
  400294:	f9400a11 	ldr	x17, [x16, #16]
  400298:	91004210 	add	x16, x16, #0x10
  40029c:	d61f0220 	br	x17
  4002a0:	90000490 	adrp	x16, 490000 <.got.plt+0x18>
  4002a4:	f9400e11 	ldr	x17, [x16, #24]
  4002a8:	91006210 	add	x16, x16, #0x18
  4002ac:	d61f0220 	br	x17
  4002b0:	90000490 	adrp	x16, 490000 <.got.plt+0x18>
  4002b4:	f9401211 	ldr	x17, [x16, #32]
  4002b8:	91008210 	add	x16, x16, #0x20
  4002bc:	d61f0220 	br	x17

Disassembly of section .text:

00000000004002c0 <abort>:
  4002c0:	d10343ff 	sub	sp, sp, #0xd0
  4002c4:	f0000460 	adrp	x0, 48f000 <tunable_list+0x880>
  4002c8:	f9462c00 	ldr	x0, [x0, #3160]
  4002cc:	a90a7bfd 	stp	x29, x30, [sp, #160]
  4002d0:	910283fd 	add	x29, sp, #0xa0
  4002d4:	a90b53f3 	stp	x19, x20, [sp, #176]
  4002d8:	b0000eb3 	adrp	x19, 5d5000 <user_memory_pressure_sink>
  4002dc:	d53bd054 	mrs	x20, tpidr_el0
  4002e0:	f90063f5 	str	x21, [sp, #192]
  4002e4:	91228275 	add	x21, x19, #0x8a0
  4002e8:	d11d0294 	sub	x20, x20, #0x740
  4002ec:	f9400002 	ldr	x2, [x0]
  4002f0:	f9004fe2 	str	x2, [sp, #152]
  4002f4:	d2800002 	mov	x2, #0x0                   	// #0
  4002f8:	f94006a1 	ldr	x1, [x21, #8]
  4002fc:	eb14003f 	cmp	x1, x20
  400300:	54000140 	b.eq	400328 <abort+0x68>  // b.none
  400304:	aa1503e2 	mov	x2, x21
  400308:	52800021 	mov	w1, #0x1                   	// #1
  40030c:	52800000 	mov	w0, #0x0                   	// #0
  400310:	9401327c 	bl	44cd00 <__aarch64_cas4_acq>
  400314:	34000060 	cbz	w0, 400320 <abort+0x60>
  400318:	aa1503e0 	mov	x0, x21
  40031c:	94002ed5 	bl	40be70 <__lll_lock_wait_private>
  400320:	91228260 	add	x0, x19, #0x8a0
  400324:	f9000414 	str	x20, [x0, #8]
  400328:	91228264 	add	x4, x19, #0x8a0
  40032c:	b9400480 	ldr	w0, [x4, #4]
  400330:	b9401081 	ldr	w1, [x4, #16]
  400334:	11000400 	add	w0, w0, #0x1
  400338:	b9000480 	str	w0, [x4, #4]
  40033c:	35000161 	cbnz	w1, 400368 <abort+0xa8>
  400340:	52800025 	mov	w5, #0x1                   	// #1
  400344:	d2800406 	mov	x6, #0x20                  	// #32
  400348:	d2800020 	mov	x0, #0x1                   	// #1
  40034c:	910003e1 	mov	x1, sp
  400350:	d2800002 	mov	x2, #0x0                   	// #0
  400354:	d2800103 	mov	x3, #0x8                   	// #8
  400358:	d28010e8 	mov	x8, #0x87                  	// #135
  40035c:	f90003e6 	str	x6, [sp]
  400360:	b9001085 	str	w5, [x4, #16]
  400364:	d4000001 	svc	#0x0
  400368:	91228275 	add	x21, x19, #0x8a0
  40036c:	b94012a0 	ldr	w0, [x21, #16]
  400370:	7100041f 	cmp	w0, #0x1
  400374:	54000421 	b.ne	4003f8 <abort+0x138>  // b.any
  400378:	b94006a0 	ldr	w0, [x21, #4]
  40037c:	b90012bf 	str	wzr, [x21, #16]
  400380:	51000400 	sub	w0, w0, #0x1
  400384:	b90006a0 	str	w0, [x21, #4]
  400388:	35000100 	cbnz	w0, 4003a8 <abort+0xe8>
  40038c:	aa1503e1 	mov	x1, x21
  400390:	f90006bf 	str	xzr, [x21, #8]
  400394:	94013307 	bl	44cfb0 <__aarch64_swp4_rel>
  400398:	7100041f 	cmp	w0, #0x1
  40039c:	5400006d 	b.le	4003a8 <abort+0xe8>
  4003a0:	aa1503e0 	mov	x0, x21
  4003a4:	94002ef3 	bl	40bf70 <__lll_lock_wake_private>
  4003a8:	91228275 	add	x21, x19, #0x8a0
  4003ac:	528000c0 	mov	w0, #0x6                   	// #6
  4003b0:	94009fec 	bl	428360 <raise>
  4003b4:	f94006a0 	ldr	x0, [x21, #8]
  4003b8:	eb00029f 	cmp	x20, x0
  4003bc:	54000140 	b.eq	4003e4 <abort+0x124>  // b.none
  4003c0:	aa1503e2 	mov	x2, x21
  4003c4:	52800021 	mov	w1, #0x1                   	// #1
  4003c8:	52800000 	mov	w0, #0x0                   	// #0
  4003cc:	9401324d 	bl	44cd00 <__aarch64_cas4_acq>
  4003d0:	34000060 	cbz	w0, 4003dc <abort+0x11c>
  4003d4:	aa1503e0 	mov	x0, x21
  4003d8:	94002ea6 	bl	40be70 <__lll_lock_wait_private>
  4003dc:	91228260 	add	x0, x19, #0x8a0
  4003e0:	f9000414 	str	x20, [x0, #8]
  4003e4:	91228261 	add	x1, x19, #0x8a0
  4003e8:	b9400420 	ldr	w0, [x1, #4]
  4003ec:	11000400 	add	w0, w0, #0x1
  4003f0:	b9000420 	str	w0, [x1, #4]
  4003f4:	14000003 	b	400400 <abort+0x140>
  4003f8:	7100081f 	cmp	w0, #0x2
  4003fc:	540001e1 	b.ne	400438 <abort+0x178>  // b.any
  400400:	91228264 	add	x4, x19, #0x8a0
  400404:	910003e3 	mov	x3, sp
  400408:	52800065 	mov	w5, #0x3                   	// #3
  40040c:	d2801302 	mov	x2, #0x98                  	// #152
  400410:	52800001 	mov	w1, #0x0                   	// #0
  400414:	aa0303e0 	mov	x0, x3
  400418:	b9001085 	str	w5, [x4, #16]
  40041c:	97ffffa1 	bl	4002a0 <.plt+0x30>
  400420:	92800004 	mov	x4, #0xffffffffffffffff    	// #-1
  400424:	aa0003e1 	mov	x1, x0
  400428:	d2800002 	mov	x2, #0x0                   	// #0
  40042c:	528000c0 	mov	w0, #0x6                   	// #6
  400430:	f90007e4 	str	x4, [sp, #8]
  400434:	94009fdf 	bl	4283b0 <__sigaction>
  400438:	91228261 	add	x1, x19, #0x8a0
  40043c:	b9401020 	ldr	w0, [x1, #16]
  400440:	71000c1f 	cmp	w0, #0x3
  400444:	540000a1 	b.ne	400458 <abort+0x198>  // b.any
  400448:	52800082 	mov	w2, #0x4                   	// #4
  40044c:	528000c0 	mov	w0, #0x6                   	// #6
  400450:	b9001022 	str	w2, [x1, #16]
  400454:	94009fc3 	bl	428360 <raise>
  400458:	91228260 	add	x0, x19, #0x8a0
  40045c:	b9401001 	ldr	w1, [x0, #16]
  400460:	7100103f 	cmp	w1, #0x4
  400464:	54000081 	b.ne	400474 <abort+0x1b4>  // b.any
  400468:	528000a1 	mov	w1, #0x5                   	// #5
  40046c:	b9001001 	str	w1, [x0, #16]
  400470:	d4207d00 	brk	#0x3e8
  400474:	91228273 	add	x19, x19, #0x8a0
  400478:	b9401260 	ldr	w0, [x19, #16]
  40047c:	7100141f 	cmp	w0, #0x5
  400480:	540000a1 	b.ne	400494 <abort+0x1d4>  // b.any
  400484:	528000c1 	mov	w1, #0x6                   	// #6
  400488:	52800fe0 	mov	w0, #0x7f                  	// #127
  40048c:	b9001261 	str	w1, [x19, #16]
  400490:	940056c8 	bl	415fb0 <_exit>
  400494:	d4207d00 	brk	#0x3e8
  400498:	17ffffff 	b	400494 <abort+0x1d4>

000000000040049c <_dl_start>:
  40049c:	a9bf7bfd 	stp	x29, x30, [sp, #-16]!
  4004a0:	910003fd 	mov	x29, sp
  4004a4:	97ffff87 	bl	4002c0 <abort>
  4004a8:	d503201f 	nop
  4004ac:	d503201f 	nop

00000000004004b0 <btree_release_tree_recursively>:
  4004b0:	d503233f 	paciasp
  4004b4:	a9bd7bfd 	stp	x29, x30, [sp, #-48]!
  4004b8:	910003fd 	mov	x29, sp
  4004bc:	a90153f3 	stp	x19, x20, [sp, #16]
  4004c0:	aa0103f3 	mov	x19, x1
  4004c4:	f90013f5 	str	x21, [sp, #32]
  4004c8:	aa0003f5 	mov	x21, x0
  4004cc:	aa0103e0 	mov	x0, x1
  4004d0:	940140c1 	bl	4507d4 <version_lock_lock_exclusive>
  4004d4:	b9400e74 	ldr	w20, [x19, #12]
  4004d8:	35000174 	cbnz	w20, 400504 <btree_release_tree_recursively+0x54>
  4004dc:	b9400a60 	ldr	w0, [x19, #8]
  4004e0:	34000120 	cbz	w0, 400504 <btree_release_tree_recursively+0x54>
  4004e4:	8b345261 	add	x1, x19, w20, uxtw #4
  4004e8:	aa1503e0 	mov	x0, x21
  4004ec:	11000694 	add	w20, w20, #0x1
  4004f0:	f9400c21 	ldr	x1, [x1, #24]
  4004f4:	97ffffef 	bl	4004b0 <btree_release_tree_recursively>
  4004f8:	b9400a60 	ldr	w0, [x19, #8]
  4004fc:	6b14001f 	cmp	w0, w20
  400500:	54ffff28 	b.hi	4004e4 <btree_release_tree_recursively+0x34>  // b.pmore
  400504:	52800040 	mov	w0, #0x2                   	// #2
  400508:	910022b5 	add	x21, x21, #0x8
  40050c:	b9000e60 	str	w0, [x19, #12]
  400510:	c8dffeb4 	ldar	x20, [x21]
  400514:	f9000e74 	str	x20, [x19, #24]
  400518:	aa1403e0 	mov	x0, x20
  40051c:	aa1503e2 	mov	x2, x21
  400520:	aa1303e1 	mov	x1, x19
  400524:	94014daf 	bl	453be0 <__aarch64_cas8_acq_rel>
  400528:	eb14001f 	cmp	x0, x20
  40052c:	aa0003f4 	mov	x20, x0
  400530:	54ffff21 	b.ne	400514 <btree_release_tree_recursively+0x64>  // b.any
  400534:	f94013f5 	ldr	x21, [sp, #32]
  400538:	aa1303e0 	mov	x0, x19
  40053c:	a94153f3 	ldp	x19, x20, [sp, #16]
  400540:	a8c37bfd 	ldp	x29, x30, [sp], #48
  400544:	d50323bf 	autiasp
  400548:	140141ce 	b	450c80 <version_lock_unlock_exclusive>
  40054c:	d503201f 	nop

0000000000400550 <btree_destroy>:
  400550:	d503233f 	paciasp
  400554:	a9be7bfd 	stp	x29, x30, [sp, #-32]!
  400558:	910003fd 	mov	x29, sp
  40055c:	a90153f3 	stp	x19, x20, [sp, #16]
  400560:	aa0003f4 	mov	x20, x0
  400564:	aa1403e1 	mov	x1, x20
  400568:	d2800000 	mov	x0, #0x0                   	// #0
  40056c:	94014dad 	bl	453c20 <__aarch64_swp8_acq_rel>
  400570:	b50001a0 	cbnz	x0, 4005a4 <btree_destroy+0x54>
  400574:	f9400693 	ldr	x19, [x20, #8]
  400578:	b40000f3 	cbz	x19, 400594 <btree_destroy+0x44>
  40057c:	d503201f 	nop
  400580:	aa1303e0 	mov	x0, x19
  400584:	f9400e73 	ldr	x19, [x19, #24]
  400588:	940042d6 	bl	4110e0 <__free>
  40058c:	f9000693 	str	x19, [x20, #8]
  400590:	b5ffff93 	cbnz	x19, 400580 <btree_destroy+0x30>
  400594:	a94153f3 	ldp	x19, x20, [sp, #16]
  400598:	a8c27bfd 	ldp	x29, x30, [sp], #32
  40059c:	d50323bf 	autiasp
  4005a0:	d65f03c0 	ret
  4005a4:	aa0003e1 	mov	x1, x0
  4005a8:	aa1403e0 	mov	x0, x20
  4005ac:	97ffffc1 	bl	4004b0 <btree_release_tree_recursively>
  4005b0:	17fffff1 	b	400574 <btree_destroy+0x24>

00000000004005b4 <release_registered_frames>:
  4005b4:	d503233f 	paciasp
  4005b8:	a9be7bfd 	stp	x29, x30, [sp, #-32]!
  4005bc:	910003fd 	mov	x29, sp
  4005c0:	f9000bf3 	str	x19, [sp, #16]
  4005c4:	d0000ed3 	adrp	x19, 5da000 <_nl_state_lock+0x18>
  4005c8:	910da273 	add	x19, x19, #0x368
  4005cc:	9101e260 	add	x0, x19, #0x78
  4005d0:	97ffffe0 	bl	400550 <btree_destroy>
  4005d4:	91018260 	add	x0, x19, #0x60
  4005d8:	97ffffde 	bl	400550 <btree_destroy>
  4005dc:	52800020 	mov	w0, #0x1                   	// #1
  4005e0:	39024260 	strb	w0, [x19, #144]
  4005e4:	f9400bf3 	ldr	x19, [sp, #16]
  4005e8:	a8c27bfd 	ldp	x29, x30, [sp], #32
  4005ec:	d50323bf 	autiasp
  4005f0:	d65f03c0 	ret
  4005f4:	d503201f 	nop
  4005f8:	d503201f 	nop
  4005fc:	d503201f 	nop

0000000000400600 <init_have_lse_atomics>:
  400600:	d503233f 	paciasp
  400604:	a9bf7bfd 	stp	x29, x30, [sp, #-16]!
  400608:	d2800200 	mov	x0, #0x10                  	// #16
  40060c:	910003fd 	mov	x29, sp
  400610:	94014d4c 	bl	453b40 <__getauxval>
  400614:	53082000 	ubfx	w0, w0, #8, #1
  400618:	d0000ec1 	adrp	x1, 5da000 <_nl_state_lock+0x18>
  40061c:	a8c17bfd 	ldp	x29, x30, [sp], #16
  400620:	d50323bf 	autiasp
  400624:	390be020 	strb	w0, [x1, #760]
  400628:	d65f03c0 	ret
  40062c:	d503201f 	nop
  400630:	d503201f 	nop
  400634:	d503201f 	nop
  400638:	d503201f 	nop
  40063c:	d503201f 	nop

0000000000400640 <_start>:
  400640:	d503201f 	nop
  400644:	d280001d 	mov	x29, #0x0                   	// #0
  400648:	d280001e 	mov	x30, #0x0                   	// #0
  40064c:	aa0003e5 	mov	x5, x0
  400650:	f94003e1 	ldr	x1, [sp]
  400654:	910023e2 	add	x2, sp, #0x8
  400658:	910003e6 	mov	x6, sp
  40065c:	90000000 	adrp	x0, 400000 <__ehdr_start>
  400660:	9119d000 	add	x0, x0, #0x674
  400664:	d2800003 	mov	x3, #0x0                   	// #0
  400668:	d2800004 	mov	x4, #0x0                   	// #0
  40066c:	94000256 	bl	400fc4 <__libc_start_main>
  400670:	97ffff14 	bl	4002c0 <abort>

0000000000400674 <__wrap_main>:
  400674:	d503201f 	nop
  400678:	14000095 	b	4008cc <main>
  40067c:	d503201f 	nop

0000000000400680 <_dl_relocate_static_pie>:
  400680:	a9bf7bfd 	stp	x29, x30, [sp, #-16]!
  400684:	910003fd 	mov	x29, sp
  400688:	a8c17bfd 	ldp	x29, x30, [sp], #16
  40068c:	d65f03c0 	ret

0000000000400690 <call_weak_fn>:
  400690:	f0000460 	adrp	x0, 48f000 <tunable_list+0x880>
  400694:	f947e800 	ldr	x0, [x0, #4048]
  400698:	b4000040 	cbz	x0, 4006a0 <call_weak_fn+0x10>
  40069c:	d503201f 	nop
  4006a0:	d65f03c0 	ret
  4006a4:	d503201f 	nop
  4006a8:	d503201f 	nop
  4006ac:	d503201f 	nop

00000000004006b0 <deregister_tm_clones>:
  4006b0:	b0000480 	adrp	x0, 491000 <_dl_main_map+0x20>
  4006b4:	91256000 	add	x0, x0, #0x958
  4006b8:	b0000481 	adrp	x1, 491000 <_dl_main_map+0x20>
  4006bc:	91256021 	add	x1, x1, #0x958
  4006c0:	eb00003f 	cmp	x1, x0
  4006c4:	540000c0 	b.eq	4006dc <deregister_tm_clones+0x2c>  // b.none
  4006c8:	f0000461 	adrp	x1, 48f000 <tunable_list+0x880>
  4006cc:	f9473821 	ldr	x1, [x1, #3696]
  4006d0:	b4000061 	cbz	x1, 4006dc <deregister_tm_clones+0x2c>
  4006d4:	aa0103f0 	mov	x16, x1
  4006d8:	d61f0200 	br	x16
  4006dc:	d65f03c0 	ret

00000000004006e0 <register_tm_clones>:
  4006e0:	b0000480 	adrp	x0, 491000 <_dl_main_map+0x20>
  4006e4:	91256000 	add	x0, x0, #0x958
  4006e8:	b0000481 	adrp	x1, 491000 <_dl_main_map+0x20>
  4006ec:	91256021 	add	x1, x1, #0x958
  4006f0:	cb000021 	sub	x1, x1, x0
  4006f4:	d37ffc22 	lsr	x2, x1, #63
  4006f8:	8b810c41 	add	x1, x2, x1, asr #3
  4006fc:	9341fc21 	asr	x1, x1, #1
  400700:	b40000c1 	cbz	x1, 400718 <register_tm_clones+0x38>
  400704:	f0000462 	adrp	x2, 48f000 <tunable_list+0x880>
  400708:	f946ec42 	ldr	x2, [x2, #3544]
  40070c:	b4000062 	cbz	x2, 400718 <register_tm_clones+0x38>
  400710:	aa0203f0 	mov	x16, x2
  400714:	d61f0200 	br	x16
  400718:	d65f03c0 	ret
  40071c:	d503201f 	nop

0000000000400720 <__do_global_dtors_aux>:
  400720:	d503233f 	paciasp
  400724:	a9be7bfd 	stp	x29, x30, [sp, #-32]!
  400728:	910003fd 	mov	x29, sp
  40072c:	f9000bf3 	str	x19, [sp, #16]
  400730:	d0000493 	adrp	x19, 492000 <completed.1>
  400734:	39400260 	ldrb	w0, [x19]
  400738:	37000140 	tbnz	w0, #0, 400760 <__do_global_dtors_aux+0x40>
  40073c:	97ffffdd 	bl	4006b0 <deregister_tm_clones>
  400740:	f0000460 	adrp	x0, 48f000 <tunable_list+0x880>
  400744:	f946e000 	ldr	x0, [x0, #3520]
  400748:	b4000080 	cbz	x0, 400758 <__do_global_dtors_aux+0x38>
  40074c:	d0000360 	adrp	x0, 46e000 <__tens+0x3630>
  400750:	9109c000 	add	x0, x0, #0x270
  400754:	9401491b 	bl	452bc0 <__deregister_frame_info>
  400758:	52800020 	mov	w0, #0x1                   	// #1
  40075c:	39000260 	strb	w0, [x19]
  400760:	f9400bf3 	ldr	x19, [sp, #16]
  400764:	a8c27bfd 	ldp	x29, x30, [sp], #32
  400768:	d50323bf 	autiasp
  40076c:	d65f03c0 	ret

0000000000400770 <frame_dummy>:
  400770:	d503245f 	bti	c
  400774:	f0000460 	adrp	x0, 48f000 <tunable_list+0x880>
  400778:	f947d400 	ldr	x0, [x0, #4008]
  40077c:	b4000180 	cbz	x0, 4007ac <frame_dummy+0x3c>
  400780:	d503233f 	paciasp
  400784:	a9bf7bfd 	stp	x29, x30, [sp, #-16]!
  400788:	d0000481 	adrp	x1, 492000 <completed.1>
  40078c:	910003fd 	mov	x29, sp
  400790:	91002021 	add	x1, x1, #0x8
  400794:	d0000360 	adrp	x0, 46e000 <__tens+0x3630>
  400798:	9109c000 	add	x0, x0, #0x270
  40079c:	94014856 	bl	4528f4 <__register_frame_info>
  4007a0:	a8c17bfd 	ldp	x29, x30, [sp], #16
  4007a4:	d50323bf 	autiasp
  4007a8:	17ffffce 	b	4006e0 <register_tm_clones>
  4007ac:	17ffffcd 	b	4006e0 <register_tm_clones>

00000000004007b0 <dummyAccesses>:
  4007b0:	d10043ff 	sub	sp, sp, #0x10
  4007b4:	b9000fff 	str	wzr, [sp, #12]
  4007b8:	1400000a 	b	4007e0 <dummyAccesses+0x30>
  4007bc:	b0000ea0 	adrp	x0, 5d5000 <user_memory_pressure_sink>
  4007c0:	9100e000 	add	x0, x0, #0x38
  4007c4:	f9400001 	ldr	x1, [x0]
  4007c8:	b9400fe0 	ldr	w0, [sp, #12]
  4007cc:	8b000020 	add	x0, x1, x0
  4007d0:	f9800000 	prfm	pldl1keep, [x0]
  4007d4:	b9400fe0 	ldr	w0, [sp, #12]
  4007d8:	11010000 	add	w0, w0, #0x40
  4007dc:	b9000fe0 	str	w0, [sp, #12]
  4007e0:	b9400fe1 	ldr	w1, [sp, #12]
  4007e4:	5293ffe0 	mov	w0, #0x9fff                	// #40959
  4007e8:	6b00003f 	cmp	w1, w0
  4007ec:	54fffe89 	b.ls	4007bc <dummyAccesses+0xc>  // b.plast
  4007f0:	d503201f 	nop
  4007f4:	d503201f 	nop
  4007f8:	910043ff 	add	sp, sp, #0x10
  4007fc:	d65f03c0 	ret

0000000000400800 <context_switch_before_trigger>:
  400800:	d503201f 	nop
  400804:	d65f03c0 	ret

0000000000400808 <user_memory_pressure_before_trigger>:
  400808:	d503201f 	nop
  40080c:	d65f03c0 	ret

0000000000400810 <busy_wait_before_trigger>:
  400810:	d503201f 	nop
  400814:	d65f03c0 	ret

0000000000400818 <print_busy_wait_time_stats>:
  400818:	d503201f 	nop
  40081c:	d65f03c0 	ret

0000000000400820 <print_user_memory_pressure_time_stats>:
  400820:	d503201f 	nop
  400824:	d65f03c0 	ret

0000000000400828 <print_test_header>:
  400828:	a9be7bfd 	stp	x29, x30, [sp, #-32]!
  40082c:	910003fd 	mov	x29, sp
  400830:	b9001fe0 	str	w0, [sp, #28]
  400834:	b9001be1 	str	w1, [sp, #24]
  400838:	f9000be2 	str	x2, [sp, #16]
  40083c:	f0000280 	adrp	x0, 453000 <_Unwind_Find_FDE+0x3f0>
  400840:	9131a002 	add	x2, x0, #0xc68
  400844:	f0000280 	adrp	x0, 453000 <_Unwind_Find_FDE+0x3f0>
  400848:	9131c001 	add	x1, x0, #0xc70
  40084c:	f0000280 	adrp	x0, 453000 <_Unwind_Find_FDE+0x3f0>
  400850:	9131e000 	add	x0, x0, #0xc78
  400854:	9400051b 	bl	401cc0 <_IO_printf>
  400858:	f0000280 	adrp	x0, 453000 <_Unwind_Find_FDE+0x3f0>
  40085c:	91328002 	add	x2, x0, #0xca0
  400860:	f0000280 	adrp	x0, 453000 <_Unwind_Find_FDE+0x3f0>
  400864:	9131a001 	add	x1, x0, #0xc68
  400868:	f0000280 	adrp	x0, 453000 <_Unwind_Find_FDE+0x3f0>
  40086c:	9132a000 	add	x0, x0, #0xca8
  400870:	94000514 	bl	401cc0 <_IO_printf>
  400874:	52800c84 	mov	w4, #0x64                  	// #100
  400878:	f9400be3 	ldr	x3, [sp, #16]
  40087c:	b9401be2 	ldr	w2, [sp, #24]
  400880:	b9401fe1 	ldr	w1, [sp, #28]
  400884:	f0000280 	adrp	x0, 453000 <_Unwind_Find_FDE+0x3f0>
  400888:	9133a000 	add	x0, x0, #0xce8
  40088c:	9400050d 	bl	401cc0 <_IO_printf>
  400890:	f0000280 	adrp	x0, 453000 <_Unwind_Find_FDE+0x3f0>
  400894:	9134a002 	add	x2, x0, #0xd28
  400898:	f0000280 	adrp	x0, 453000 <_Unwind_Find_FDE+0x3f0>
  40089c:	9134c001 	add	x1, x0, #0xd30
  4008a0:	f0000280 	adrp	x0, 453000 <_Unwind_Find_FDE+0x3f0>
  4008a4:	91354000 	add	x0, x0, #0xd50
  4008a8:	94000506 	bl	401cc0 <_IO_printf>
  4008ac:	f0000280 	adrp	x0, 453000 <_Unwind_Find_FDE+0x3f0>
  4008b0:	9134a001 	add	x1, x0, #0xd28
  4008b4:	f0000280 	adrp	x0, 453000 <_Unwind_Find_FDE+0x3f0>
  4008b8:	91358000 	add	x0, x0, #0xd60
  4008bc:	94000501 	bl	401cc0 <_IO_printf>
  4008c0:	d503201f 	nop
  4008c4:	a8c27bfd 	ldp	x29, x30, [sp], #32
  4008c8:	d65f03c0 	ret

00000000004008cc <main>:
  4008cc:	d10343ff 	sub	sp, sp, #0xd0
  4008d0:	a90b7bfd 	stp	x29, x30, [sp, #176]
  4008d4:	9102c3fd 	add	x29, sp, #0xb0
  4008d8:	f90063f3 	str	x19, [sp, #192]
  4008dc:	f0000460 	adrp	x0, 48f000 <tunable_list+0x880>
  4008e0:	f9462c00 	ldr	x0, [x0, #3160]
  4008e4:	f9400001 	ldr	x1, [x0]
  4008e8:	f90057e1 	str	x1, [sp, #168]
  4008ec:	d2800001 	mov	x1, #0x0                   	// #0
  4008f0:	b90023ff 	str	wzr, [sp, #32]
  4008f4:	d2a00142 	mov	x2, #0xa0000               	// #655360
  4008f8:	12800001 	mov	w1, #0xffffffff            	// #-1
  4008fc:	f0000480 	adrp	x0, 493000 <array2>
  400900:	91000000 	add	x0, x0, #0x0
  400904:	97fffe67 	bl	4002a0 <.plt+0x30>
  400908:	d2800005 	mov	x5, #0x0                   	// #0
  40090c:	52800004 	mov	w4, #0x0                   	// #0
  400910:	52900443 	mov	w3, #0x8022                	// #32802
  400914:	52800062 	mov	w2, #0x3                   	// #3
  400918:	d2940001 	mov	x1, #0xa000                	// #40960
  40091c:	d2800000 	mov	x0, #0x0                   	// #0
  400920:	94005970 	bl	416ee0 <__mmap64>
  400924:	aa0003e1 	mov	x1, x0
  400928:	b0000ea0 	adrp	x0, 5d5000 <user_memory_pressure_sink>
  40092c:	9100e000 	add	x0, x0, #0x38
  400930:	f9000001 	str	x1, [x0]
  400934:	b0000ea0 	adrp	x0, 5d5000 <user_memory_pressure_sink>
  400938:	9100e000 	add	x0, x0, #0x38
  40093c:	f9400000 	ldr	x0, [x0]
  400940:	b100041f 	cmn	x0, #0x1
  400944:	540000c1 	b.ne	40095c <main+0x90>  // b.any
  400948:	f0000280 	adrp	x0, 453000 <_Unwind_Find_FDE+0x3f0>
  40094c:	91362000 	add	x0, x0, #0xd88
  400950:	94001670 	bl	406310 <_IO_puts>
  400954:	52800020 	mov	w0, #0x1                   	// #1
  400958:	940004d2 	bl	401ca0 <exit>
  40095c:	b9000bff 	str	wzr, [sp, #8]
  400960:	14000011 	b	4009a4 <main+0xd8>
  400964:	b9400be0 	ldr	w0, [sp, #8]
  400968:	531a6400 	lsl	w0, w0, #6
  40096c:	93407c01 	sxtw	x1, w0
  400970:	f0000480 	adrp	x0, 493000 <array2>
  400974:	91000000 	add	x0, x0, #0x0
  400978:	8b000020 	add	x0, x1, x0
  40097c:	f90037e0 	str	x0, [sp, #104]
  400980:	f94037e0 	ldr	x0, [sp, #104]
  400984:	f9003be0 	str	x0, [sp, #112]
  400988:	f9403be1 	ldr	x1, [sp, #112]
  40098c:	39400020 	ldrb	w0, [x1]
  400990:	d503201f 	nop
  400994:	d503201f 	nop
  400998:	b9400be0 	ldr	w0, [sp, #8]
  40099c:	11000400 	add	w0, w0, #0x1
  4009a0:	b9000be0 	str	w0, [sp, #8]
  4009a4:	b9400be1 	ldr	w1, [sp, #8]
  4009a8:	5284ffe0 	mov	w0, #0x27ff                	// #10239
  4009ac:	6b00003f 	cmp	w1, w0
  4009b0:	54fffdad 	b.le	400964 <main+0x98>
  4009b4:	f9001bff 	str	xzr, [sp, #48]
  4009b8:	1400000c 	b	4009e8 <main+0x11c>
  4009bc:	f9401be1 	ldr	x1, [sp, #48]
  4009c0:	f0000480 	adrp	x0, 493000 <array2>
  4009c4:	91000000 	add	x0, x0, #0x0
  4009c8:	8b000020 	add	x0, x1, x0
  4009cc:	f9003fe0 	str	x0, [sp, #120]
  4009d0:	f9403fe0 	ldr	x0, [sp, #120]
  4009d4:	d50b7e20 	dc	civac, x0
  4009d8:	d503201f 	nop
  4009dc:	f9401be0 	ldr	x0, [sp, #48]
  4009e0:	91010000 	add	x0, x0, #0x40
  4009e4:	f9001be0 	str	x0, [sp, #48]
  4009e8:	f9401be1 	ldr	x1, [sp, #48]
  4009ec:	12bffec0 	mov	w0, #0x9ffff               	// #655359
  4009f0:	eb00003f 	cmp	x1, x0
  4009f4:	54fffe49 	b.ls	4009bc <main+0xf0>  // b.plast
  4009f8:	d5033f9f 	dsb	sy
  4009fc:	d5033fdf 	isb
  400a00:	d503201f 	nop
  400a04:	d2938800 	mov	x0, #0x9c40                	// #40000
  400a08:	f9002fe0 	str	x0, [sp, #88]
  400a0c:	52802800 	mov	w0, #0x140                 	// #320
  400a10:	b90027e0 	str	w0, [sp, #36]
  400a14:	528000c0 	mov	w0, #0x6                   	// #6
  400a18:	b9002be0 	str	w0, [sp, #40]
  400a1c:	b9402be0 	ldr	w0, [sp, #40]
  400a20:	7100001f 	cmp	w0, #0x0
  400a24:	5400018c 	b.gt	400a54 <main+0x188>
  400a28:	f0000460 	adrp	x0, 48f000 <tunable_list+0x880>
  400a2c:	f9477000 	ldr	x0, [x0, #3808]
  400a30:	f9400000 	ldr	x0, [x0]
  400a34:	aa0003e3 	mov	x3, x0
  400a38:	d2800382 	mov	x2, #0x1c                  	// #28
  400a3c:	d2800021 	mov	x1, #0x1                   	// #1
  400a40:	f0000280 	adrp	x0, 453000 <_Unwind_Find_FDE+0x3f0>
  400a44:	9136a000 	add	x0, x0, #0xda8
  400a48:	9400159a 	bl	4060b0 <_IO_fwrite>
  400a4c:	52800020 	mov	w0, #0x1                   	// #1
  400a50:	14000101 	b	400e54 <main+0x588>
  400a54:	b94027e0 	ldr	w0, [sp, #36]
  400a58:	7100001f 	cmp	w0, #0x0
  400a5c:	5400018c 	b.gt	400a8c <main+0x1c0>
  400a60:	f0000460 	adrp	x0, 48f000 <tunable_list+0x880>
  400a64:	f9477000 	ldr	x0, [x0, #3808]
  400a68:	f9400000 	ldr	x0, [x0]
  400a6c:	aa0003e3 	mov	x3, x0
  400a70:	d28003c2 	mov	x2, #0x1e                  	// #30
  400a74:	d2800021 	mov	x1, #0x1                   	// #1
  400a78:	f0000280 	adrp	x0, 453000 <_Unwind_Find_FDE+0x3f0>
  400a7c:	91372000 	add	x0, x0, #0xdc8
  400a80:	9400158c 	bl	4060b0 <_IO_fwrite>
  400a84:	52800020 	mov	w0, #0x1                   	// #1
  400a88:	140000f3 	b	400e54 <main+0x588>
  400a8c:	b9402be0 	ldr	w0, [sp, #40]
  400a90:	51000400 	sub	w0, w0, #0x1
  400a94:	93407c01 	sxtw	x1, w0
  400a98:	b98027e0 	ldrsw	x0, [sp, #36]
  400a9c:	9b007c21 	mul	x1, x1, x0
  400aa0:	12bffec0 	mov	w0, #0x9ffff               	// #655359
  400aa4:	eb00003f 	cmp	x1, x0
  400aa8:	54000189 	b.ls	400ad8 <main+0x20c>  // b.plast
  400aac:	f0000460 	adrp	x0, 48f000 <tunable_list+0x880>
  400ab0:	f9477000 	ldr	x0, [x0, #3808]
  400ab4:	f9400000 	ldr	x0, [x0]
  400ab8:	aa0003e3 	mov	x3, x0
  400abc:	d2800462 	mov	x2, #0x23                  	// #35
  400ac0:	d2800021 	mov	x1, #0x1                   	// #1
  400ac4:	f0000280 	adrp	x0, 453000 <_Unwind_Find_FDE+0x3f0>
  400ac8:	9137a000 	add	x0, x0, #0xde8
  400acc:	94001579 	bl	4060b0 <_IO_fwrite>
  400ad0:	52800020 	mov	w0, #0x1                   	// #1
  400ad4:	140000e0 	b	400e54 <main+0x588>
  400ad8:	f9001fff 	str	xzr, [sp, #56]
  400adc:	140000af 	b	400d98 <main+0x4cc>
  400ae0:	97ffff34 	bl	4007b0 <dummyAccesses>
  400ae4:	f90023ff 	str	xzr, [sp, #64]
  400ae8:	1400000c 	b	400b18 <main+0x24c>
  400aec:	f94023e1 	ldr	x1, [sp, #64]
  400af0:	f0000480 	adrp	x0, 493000 <array2>
  400af4:	91000000 	add	x0, x0, #0x0
  400af8:	8b000020 	add	x0, x1, x0
  400afc:	f90043e0 	str	x0, [sp, #128]
  400b00:	f94043e0 	ldr	x0, [sp, #128]
  400b04:	d50b7e20 	dc	civac, x0
  400b08:	d503201f 	nop
  400b0c:	f94023e0 	ldr	x0, [sp, #64]
  400b10:	91010000 	add	x0, x0, #0x40
  400b14:	f90023e0 	str	x0, [sp, #64]
  400b18:	f94023e1 	ldr	x1, [sp, #64]
  400b1c:	12bffec0 	mov	w0, #0x9ffff               	// #655359
  400b20:	eb00003f 	cmp	x1, x0
  400b24:	54fffe49 	b.ls	400aec <main+0x220>  // b.plast
  400b28:	b9000fff 	str	wzr, [sp, #12]
  400b2c:	14000019 	b	400b90 <main+0x2c4>
  400b30:	b90013ff 	str	wzr, [sp, #16]
  400b34:	1400000f 	b	400b70 <main+0x2a4>
  400b38:	b94013e1 	ldr	w1, [sp, #16]
  400b3c:	b94027e0 	ldr	w0, [sp, #36]
  400b40:	1b007c20 	mul	w0, w1, w0
  400b44:	93407c01 	sxtw	x1, w0
  400b48:	f0000480 	adrp	x0, 493000 <array2>
  400b4c:	91000000 	add	x0, x0, #0x0
  400b50:	8b000020 	add	x0, x1, x0
  400b54:	f90047e0 	str	x0, [sp, #136]
  400b58:	f94047e0 	ldr	x0, [sp, #136]
  400b5c:	940000cc 	bl	400e8c <mStore_noinline>
  400b60:	d503201f 	nop
  400b64:	b94013e0 	ldr	w0, [sp, #16]
  400b68:	11000400 	add	w0, w0, #0x1
  400b6c:	b90013e0 	str	w0, [sp, #16]
  400b70:	b9402be0 	ldr	w0, [sp, #40]
  400b74:	51000400 	sub	w0, w0, #0x1
  400b78:	b94013e1 	ldr	w1, [sp, #16]
  400b7c:	6b00003f 	cmp	w1, w0
  400b80:	54fffdcb 	b.lt	400b38 <main+0x26c>  // b.tstop
  400b84:	b9400fe0 	ldr	w0, [sp, #12]
  400b88:	11000400 	add	w0, w0, #0x1
  400b8c:	b9000fe0 	str	w0, [sp, #12]
  400b90:	b9400fe0 	ldr	w0, [sp, #12]
  400b94:	7100101f 	cmp	w0, #0x4
  400b98:	54fffccd 	b.le	400b30 <main+0x264>
  400b9c:	97ffff19 	bl	400800 <context_switch_before_trigger>
  400ba0:	b9402be0 	ldr	w0, [sp, #40]
  400ba4:	51000401 	sub	w1, w0, #0x1
  400ba8:	b94027e0 	ldr	w0, [sp, #36]
  400bac:	1b007c20 	mul	w0, w1, w0
  400bb0:	93407c01 	sxtw	x1, w0
  400bb4:	f0000480 	adrp	x0, 493000 <array2>
  400bb8:	91000000 	add	x0, x0, #0x0
  400bbc:	8b000020 	add	x0, x1, x0
  400bc0:	f9004be0 	str	x0, [sp, #144]
  400bc4:	f9404be0 	ldr	x0, [sp, #144]
  400bc8:	940000b1 	bl	400e8c <mStore_noinline>
  400bcc:	d503201f 	nop
  400bd0:	f90027ff 	str	xzr, [sp, #72]
  400bd4:	b90017ff 	str	wzr, [sp, #20]
  400bd8:	14000011 	b	400c1c <main+0x350>
  400bdc:	b94017e0 	ldr	w0, [sp, #20]
  400be0:	531a6402 	lsl	w2, w0, #6
  400be4:	f0000980 	adrp	x0, 533000 <latency_sum>
  400be8:	9112c001 	add	x1, x0, #0x4b0
  400bec:	93407c40 	sxtw	x0, w2
  400bf0:	38606820 	ldrb	w0, [x1, x0]
  400bf4:	92401c00 	and	x0, x0, #0xff
  400bf8:	f94027e1 	ldr	x1, [sp, #72]
  400bfc:	8b000020 	add	x0, x1, x0
  400c00:	f90027e0 	str	x0, [sp, #72]
  400c04:	d5033f9f 	dsb	sy
  400c08:	d5033fdf 	isb
  400c0c:	d503201f 	nop
  400c10:	b94017e0 	ldr	w0, [sp, #20]
  400c14:	11000400 	add	w0, w0, #0x1
  400c18:	b90017e0 	str	w0, [sp, #20]
  400c1c:	b94017e0 	ldr	w0, [sp, #20]
  400c20:	71018c1f 	cmp	w0, #0x63
  400c24:	54fffdcd 	b.le	400bdc <main+0x310>
  400c28:	b9001bff 	str	wzr, [sp, #24]
  400c2c:	14000006 	b	400c44 <main+0x378>
  400c30:	d503201f 	nop
  400c34:	d503201f 	nop
  400c38:	b9401be0 	ldr	w0, [sp, #24]
  400c3c:	11000400 	add	w0, w0, #0x1
  400c40:	b9001be0 	str	w0, [sp, #24]
  400c44:	b9401be0 	ldr	w0, [sp, #24]
  400c48:	71018c1f 	cmp	w0, #0x63
  400c4c:	54ffff2d 	b.le	400c30 <main+0x364>
  400c50:	f9401fe2 	ldr	x2, [sp, #56]
  400c54:	d342fc41 	lsr	x1, x2, #2
  400c58:	d29eb860 	mov	x0, #0xf5c3                	// #62915
  400c5c:	f2ab8500 	movk	x0, #0x5c28, lsl #16
  400c60:	f2d851e0 	movk	x0, #0xc28f, lsl #32
  400c64:	f2e51ea0 	movk	x0, #0x28f5, lsl #48
  400c68:	9bc07c20 	umulh	x0, x1, x0
  400c6c:	d342fc01 	lsr	x1, x0, #2
  400c70:	aa0103e0 	mov	x0, x1
  400c74:	d37ff800 	lsl	x0, x0, #1
  400c78:	8b010000 	add	x0, x0, x1
  400c7c:	d37df000 	lsl	x0, x0, #3
  400c80:	8b010000 	add	x0, x0, x1
  400c84:	d37ef400 	lsl	x0, x0, #2
  400c88:	cb000041 	sub	x1, x2, x0
  400c8c:	2a0103e0 	mov	w0, w1
  400c90:	b9002fe0 	str	w0, [sp, #44]
  400c94:	b9402fe0 	ldr	w0, [sp, #44]
  400c98:	531a6400 	lsl	w0, w0, #6
  400c9c:	93407c01 	sxtw	x1, w0
  400ca0:	f0000480 	adrp	x0, 493000 <array2>
  400ca4:	91000000 	add	x0, x0, #0x0
  400ca8:	8b000020 	add	x0, x1, x0
  400cac:	f90033e0 	str	x0, [sp, #96]
  400cb0:	d5033f9f 	dsb	sy
  400cb4:	d5033fdf 	isb
  400cb8:	910263e0 	add	x0, sp, #0x98
  400cbc:	aa0003e1 	mov	x1, x0
  400cc0:	52800020 	mov	w0, #0x1                   	// #1
  400cc4:	94005493 	bl	415f10 <__clock_gettime>
  400cc8:	d5033fdf 	isb
  400ccc:	d5033f9f 	dsb	sy
  400cd0:	f9404fe0 	ldr	x0, [sp, #152]
  400cd4:	aa0003e1 	mov	x1, x0
  400cd8:	d2994000 	mov	x0, #0xca00                	// #51712
  400cdc:	f2a77340 	movk	x0, #0x3b9a, lsl #16
  400ce0:	9b007c20 	mul	x0, x1, x0
  400ce4:	f94053e1 	ldr	x1, [sp, #160]
  400ce8:	8b010000 	add	x0, x0, x1
  400cec:	aa0003f3 	mov	x19, x0
  400cf0:	f94033e0 	ldr	x0, [sp, #96]
  400cf4:	39400000 	ldrb	w0, [x0]
  400cf8:	12001c00 	and	w0, w0, #0xff
  400cfc:	b90023e0 	str	w0, [sp, #32]
  400d00:	d5033f9f 	dsb	sy
  400d04:	d5033fdf 	isb
  400d08:	910263e0 	add	x0, sp, #0x98
  400d0c:	aa0003e1 	mov	x1, x0
  400d10:	52800020 	mov	w0, #0x1                   	// #1
  400d14:	9400547f 	bl	415f10 <__clock_gettime>
  400d18:	d5033fdf 	isb
  400d1c:	d5033f9f 	dsb	sy
  400d20:	f9404fe0 	ldr	x0, [sp, #152]
  400d24:	aa0003e1 	mov	x1, x0
  400d28:	d2994000 	mov	x0, #0xca00                	// #51712
  400d2c:	f2a77340 	movk	x0, #0x3b9a, lsl #16
  400d30:	9b007c20 	mul	x0, x1, x0
  400d34:	f94053e1 	ldr	x1, [sp, #160]
  400d38:	8b010000 	add	x0, x0, x1
  400d3c:	cb130013 	sub	x19, x0, x19
  400d40:	f0000980 	adrp	x0, 533000 <latency_sum>
  400d44:	91000000 	add	x0, x0, #0x0
  400d48:	b9802fe1 	ldrsw	x1, [sp, #44]
  400d4c:	f8617800 	ldr	x0, [x0, x1, lsl #3]
  400d50:	8b000260 	add	x0, x19, x0
  400d54:	aa0003e2 	mov	x2, x0
  400d58:	f0000980 	adrp	x0, 533000 <latency_sum>
  400d5c:	91000000 	add	x0, x0, #0x0
  400d60:	b9802fe1 	ldrsw	x1, [sp, #44]
  400d64:	f8217802 	str	x2, [x0, x1, lsl #3]
  400d68:	f0000980 	adrp	x0, 533000 <latency_sum>
  400d6c:	910c8000 	add	x0, x0, #0x320
  400d70:	b9802fe1 	ldrsw	x1, [sp, #44]
  400d74:	b8617800 	ldr	w0, [x0, x1, lsl #2]
  400d78:	11000402 	add	w2, w0, #0x1
  400d7c:	f0000980 	adrp	x0, 533000 <latency_sum>
  400d80:	910c8000 	add	x0, x0, #0x320
  400d84:	b9802fe1 	ldrsw	x1, [sp, #44]
  400d88:	b8217802 	str	w2, [x0, x1, lsl #2]
  400d8c:	f9401fe0 	ldr	x0, [sp, #56]
  400d90:	91000400 	add	x0, x0, #0x1
  400d94:	f9001fe0 	str	x0, [sp, #56]
  400d98:	f9401fe1 	ldr	x1, [sp, #56]
  400d9c:	f9402fe0 	ldr	x0, [sp, #88]
  400da0:	eb00003f 	cmp	x1, x0
  400da4:	54ffe9e3 	b.cc	400ae0 <main+0x214>  // b.lo, b.ul, b.last
  400da8:	b9001fff 	str	wzr, [sp, #28]
  400dac:	14000022 	b	400e34 <main+0x568>
  400db0:	f9002bff 	str	xzr, [sp, #80]
  400db4:	f0000980 	adrp	x0, 533000 <latency_sum>
  400db8:	910c8000 	add	x0, x0, #0x320
  400dbc:	b9801fe1 	ldrsw	x1, [sp, #28]
  400dc0:	b8617800 	ldr	w0, [x0, x1, lsl #2]
  400dc4:	7100001f 	cmp	w0, #0x0
  400dc8:	5400018d 	b.le	400df8 <main+0x52c>
  400dcc:	f0000980 	adrp	x0, 533000 <latency_sum>
  400dd0:	91000000 	add	x0, x0, #0x0
  400dd4:	b9801fe1 	ldrsw	x1, [sp, #28]
  400dd8:	f8617801 	ldr	x1, [x0, x1, lsl #3]
  400ddc:	f0000980 	adrp	x0, 533000 <latency_sum>
  400de0:	910c8000 	add	x0, x0, #0x320
  400de4:	b9801fe2 	ldrsw	x2, [sp, #28]
  400de8:	b8627800 	ldr	w0, [x0, x2, lsl #2]
  400dec:	93407c00 	sxtw	x0, w0
  400df0:	9ac00c20 	sdiv	x0, x1, x0
  400df4:	f9002be0 	str	x0, [sp, #80]
  400df8:	b9401fe0 	ldr	w0, [sp, #28]
  400dfc:	531a6402 	lsl	w2, w0, #6
  400e00:	f0000980 	adrp	x0, 533000 <latency_sum>
  400e04:	910c8000 	add	x0, x0, #0x320
  400e08:	b9801fe1 	ldrsw	x1, [sp, #28]
  400e0c:	b8617800 	ldr	w0, [x0, x1, lsl #2]
  400e10:	2a0003e4 	mov	w4, w0
  400e14:	f9402be3 	ldr	x3, [sp, #80]
  400e18:	b9401fe1 	ldr	w1, [sp, #28]
  400e1c:	f0000280 	adrp	x0, 453000 <_Unwind_Find_FDE+0x3f0>
  400e20:	91384000 	add	x0, x0, #0xe10
  400e24:	940003a7 	bl	401cc0 <_IO_printf>
  400e28:	b9401fe0 	ldr	w0, [sp, #28]
  400e2c:	11000400 	add	w0, w0, #0x1
  400e30:	b9001fe0 	str	w0, [sp, #28]
  400e34:	b9401fe0 	ldr	w0, [sp, #28]
  400e38:	71018c1f 	cmp	w0, #0x63
  400e3c:	54fffbad 	b.le	400db0 <main+0x4e4>
  400e40:	97fffe78 	bl	400820 <print_user_memory_pressure_time_stats>
  400e44:	97fffe75 	bl	400818 <print_busy_wait_time_stats>
  400e48:	52800140 	mov	w0, #0xa                   	// #10
  400e4c:	940015c5 	bl	406560 <putchar>
  400e50:	52800000 	mov	w0, #0x0                   	// #0
  400e54:	2a0003e1 	mov	w1, w0
  400e58:	f0000460 	adrp	x0, 48f000 <tunable_list+0x880>
  400e5c:	f9462c00 	ldr	x0, [x0, #3160]
  400e60:	f94057e3 	ldr	x3, [sp, #168]
  400e64:	f9400002 	ldr	x2, [x0]
  400e68:	eb020063 	subs	x3, x3, x2
  400e6c:	d2800002 	mov	x2, #0x0                   	// #0
  400e70:	54000040 	b.eq	400e78 <main+0x5ac>  // b.none
  400e74:	94005b93 	bl	417cc0 <__stack_chk_fail>
  400e78:	2a0103e0 	mov	w0, w1
  400e7c:	f94063f3 	ldr	x19, [sp, #192]
  400e80:	a94b7bfd 	ldp	x29, x30, [sp, #176]
  400e84:	910343ff 	add	sp, sp, #0xd0
  400e88:	d65f03c0 	ret

0000000000400e8c <mStore_noinline>:
  400e8c:	d10043ff 	sub	sp, sp, #0x10
  400e90:	f90007e0 	str	x0, [sp, #8]
  400e94:	f94007e1 	ldr	x1, [sp, #8]
  400e98:	39000020 	strb	w0, [x1]
  400e9c:	d503201f 	nop
  400ea0:	910043ff 	add	sp, sp, #0x10
  400ea4:	d65f03c0 	ret

0000000000400ea8 <mLoad_noinline>:
  400ea8:	d10043ff 	sub	sp, sp, #0x10
  400eac:	f90007e0 	str	x0, [sp, #8]
  400eb0:	f94007e1 	ldr	x1, [sp, #8]
  400eb4:	39400020 	ldrb	w0, [x1]
  400eb8:	d503201f 	nop
  400ebc:	910043ff 	add	sp, sp, #0x10
  400ec0:	d65f03c0 	ret

0000000000400ec4 <mPrefetch_noinline>:
  400ec4:	d10043ff 	sub	sp, sp, #0x10
  400ec8:	f90007e0 	str	x0, [sp, #8]
  400ecc:	f94007e0 	ldr	x0, [sp, #8]
  400ed0:	f9800000 	prfm	pldl1keep, [x0]
  400ed4:	d503201f 	nop
  400ed8:	910043ff 	add	sp, sp, #0x10
  400edc:	d65f03c0 	ret

0000000000400ee0 <call_fini>:
  400ee0:	a9be7bfd 	stp	x29, x30, [sp, #-32]!
  400ee4:	90000460 	adrp	x0, 48c000 <__FRAME_END__+0x116fc>
  400ee8:	910b4000 	add	x0, x0, #0x2d0
  400eec:	910003fd 	mov	x29, sp
  400ef0:	a90153f3 	stp	x19, x20, [sp, #16]
  400ef4:	90000473 	adrp	x19, 48c000 <__FRAME_END__+0x116fc>
  400ef8:	910b8273 	add	x19, x19, #0x2e0
  400efc:	cb000273 	sub	x19, x19, x0
  400f00:	9343fe73 	asr	x19, x19, #3
  400f04:	b40000f3 	cbz	x19, 400f20 <call_fini+0x40>
  400f08:	90000474 	adrp	x20, 48c000 <__FRAME_END__+0x116fc>
  400f0c:	910b2294 	add	x20, x20, #0x2c8
  400f10:	f8737a80 	ldr	x0, [x20, x19, lsl #3]
  400f14:	d63f0000 	blr	x0
  400f18:	f1000673 	subs	x19, x19, #0x1
  400f1c:	54ffffa1 	b.ne	400f10 <call_fini+0x30>  // b.any
  400f20:	a94153f3 	ldp	x19, x20, [sp, #16]
  400f24:	a8c27bfd 	ldp	x29, x30, [sp], #32
  400f28:	14014b49 	b	453c4c <_fini>
  400f2c:	d503201f 	nop

0000000000400f30 <__libc_start_call_main>:
  400f30:	a9af7bfd 	stp	x29, x30, [sp, #-272]!
  400f34:	910003fd 	mov	x29, sp
  400f38:	f9000fe0 	str	x0, [sp, #24]
  400f3c:	9100c3e0 	add	x0, sp, #0x30
  400f40:	b90027e1 	str	w1, [sp, #36]
  400f44:	f90017e2 	str	x2, [sp, #40]
  400f48:	940001ee 	bl	401700 <_setjmp>
  400f4c:	35000200 	cbnz	w0, 400f8c <__libc_start_call_main+0x5c>
  400f50:	d53bd040 	mrs	x0, tpidr_el0
  400f54:	b0000ec1 	adrp	x1, 5d9000 <__pthread_keys+0x32c0>
  400f58:	d1180003 	sub	x3, x0, #0x600
  400f5c:	d11d0000 	sub	x0, x0, #0x740
  400f60:	f946d022 	ldr	x2, [x1, #3488]
  400f64:	9100c3e1 	add	x1, sp, #0x30
  400f68:	3cdb8060 	ldur	q0, [x3, #-72]
  400f6c:	f9008001 	str	x1, [x0, #256]
  400f70:	f9400fe3 	ldr	x3, [sp, #24]
  400f74:	f94017e1 	ldr	x1, [sp, #40]
  400f78:	6e004000 	ext	v0.16b, v0.16b, v0.16b, #8
  400f7c:	b94027e0 	ldr	w0, [sp, #36]
  400f80:	3c8e83e0 	stur	q0, [sp, #232]
  400f84:	d63f0060 	blr	x3
  400f88:	94000346 	bl	401ca0 <exit>
  400f8c:	94002c0d 	bl	40bfc0 <__nptl_deallocate_tsd>
  400f90:	90000481 	adrp	x1, 490000 <.got.plt+0x18>
  400f94:	12800000 	mov	w0, #0xffffffff            	// #-1
  400f98:	91176021 	add	x1, x1, #0x5d8
  400f9c:	94012fa5 	bl	44ce30 <__aarch64_ldadd4_relax>
  400fa0:	7100041f 	cmp	w0, #0x1
  400fa4:	540000c0 	b.eq	400fbc <__libc_start_call_main+0x8c>  // b.none
  400fa8:	d2800ba8 	mov	x8, #0x5d                  	// #93
  400fac:	d503201f 	nop
  400fb0:	d2800000 	mov	x0, #0x0                   	// #0
  400fb4:	d4000001 	svc	#0x0
  400fb8:	17fffffe 	b	400fb0 <__libc_start_call_main+0x80>
  400fbc:	52800000 	mov	w0, #0x0                   	// #0
  400fc0:	94000338 	bl	401ca0 <exit>

0000000000400fc4 <__libc_start_main>:
  400fc4:	a9b77bfd 	stp	x29, x30, [sp, #-144]!
  400fc8:	910003fd 	mov	x29, sp
  400fcc:	a90153f3 	stp	x19, x20, [sp, #16]
  400fd0:	2a0103f3 	mov	w19, w1
  400fd4:	f0000461 	adrp	x1, 48f000 <tunable_list+0x880>
  400fd8:	a9046bf9 	stp	x25, x26, [sp, #64]
  400fdc:	b0000eda 	adrp	x26, 5d9000 <__pthread_keys+0x32c0>
  400fe0:	aa0203f4 	mov	x20, x2
  400fe4:	a90617e0 	stp	x0, x5, [sp, #96]
  400fe8:	8b33cc40 	add	x0, x2, w19, sxtw #3
  400fec:	91002000 	add	x0, x0, #0x8
  400ff0:	f903d426 	str	x6, [x1, #1960]
  400ff4:	f906d340 	str	x0, [x26, #3488]
  400ff8:	a9025bf5 	stp	x21, x22, [sp, #32]
  400ffc:	a90363f7 	stp	x23, x24, [sp, #48]
  401000:	a90573fb 	stp	x27, x28, [sp, #80]
  401004:	d503201f 	nop
  401008:	f8408401 	ldr	x1, [x0], #8
  40100c:	b5ffffe1 	cbnz	x1, 401008 <__libc_start_main+0x44>
  401010:	94006050 	bl	419150 <_dl_aux_init>
  401014:	9101e3f6 	add	x22, sp, #0x78
  401018:	f946d340 	ldr	x0, [x26, #3488]
  40101c:	94005f4e 	bl	418d54 <__tunables_init>
  401020:	aa1603e1 	mov	x1, x22
  401024:	d2800002 	mov	x2, #0x0                   	// #0
  401028:	528000a0 	mov	w0, #0x5                   	// #5
  40102c:	94005ff6 	bl	419004 <__tunable_get_val>
  401030:	f9403ff9 	ldr	x25, [sp, #120]
  401034:	b4000199 	cbz	x25, 401064 <__libc_start_main+0xa0>
  401038:	f9400738 	ldr	x24, [x25, #8]
  40103c:	f000045c 	adrp	x28, 48c000 <__FRAME_END__+0x116fc>
  401040:	910b8397 	add	x23, x28, #0x2e0
  401044:	52800015 	mov	w21, #0x0                   	// #0
  401048:	f94006e0 	ldr	x0, [x23, #8]
  40104c:	eb18001f 	cmp	x0, x24
  401050:	54000b20 	b.eq	4011b4 <__libc_start_main+0x1f0>  // b.none
  401054:	110006b5 	add	w21, w21, #0x1
  401058:	910062f7 	add	x23, x23, #0x18
  40105c:	710022bf 	cmp	w21, #0x8
  401060:	54ffff41 	b.ne	401048 <__libc_start_main+0x84>  // b.any
  401064:	90000ed7 	adrp	x23, 5d9000 <__pthread_keys+0x32c0>
  401068:	f946fee1 	ldr	x1, [x23, #3576]
  40106c:	92750020 	and	x0, x1, #0x800
  401070:	37580be1 	tbnz	w1, #11, 4011ec <__libc_start_main+0x228>
  401074:	90000ed8 	adrp	x24, 5d9000 <__pthread_keys+0x32c0>
  401078:	913b8302 	add	x2, x24, #0xee0
  40107c:	f9077300 	str	x0, [x24, #3808]
  401080:	d53b00e0 	mrs	x0, dczid_el0
  401084:	372000a0 	tbnz	w0, #4, 401098 <__libc_start_main+0xd4>
  401088:	12000c00 	and	w0, w0, #0xf
  40108c:	52800081 	mov	w1, #0x4                   	// #4
  401090:	1ac02020 	lsl	w0, w1, w0
  401094:	b9000840 	str	w0, [x2, #8]
  401098:	90000ed5 	adrp	x21, 5d9000 <__pthread_keys+0x32c0>
  40109c:	913b8319 	add	x25, x24, #0xee0
  4010a0:	aa1603e1 	mov	x1, x22
  4010a4:	d2800002 	mov	x2, #0x0                   	// #0
  4010a8:	f94702a3 	ldr	x3, [x21, #3584]
  4010ac:	528000c0 	mov	w0, #0x6                   	// #6
  4010b0:	3900373f 	strb	wzr, [x25, #13]
  4010b4:	53114463 	ubfx	w3, w3, #17, #1
  4010b8:	39003323 	strb	w3, [x25, #12]
  4010bc:	94005fd2 	bl	419004 <__tunable_get_val>
  4010c0:	f94702a5 	ldr	x5, [x21, #3584]
  4010c4:	aa1603e1 	mov	x1, x22
  4010c8:	b9407be4 	ldr	w4, [sp, #120]
  4010cc:	528000c0 	mov	w0, #0x6                   	// #6
  4010d0:	d2800003 	mov	x3, #0x0                   	// #0
  4010d4:	d2800002 	mov	x2, #0x0                   	// #0
  4010d8:	f26e00bf 	tst	x5, #0x40000
  4010dc:	1a8403e4 	csel	w4, wzr, w4, eq	// eq = none
  4010e0:	92401c84 	and	x4, x4, #0xff
  4010e4:	39003724 	strb	w4, [x25, #13]
  4010e8:	a907ffe4 	stp	x4, xzr, [sp, #120]
  4010ec:	94005f12 	bl	418d34 <__tunable_set_val>
  4010f0:	39403720 	ldrb	w0, [x25, #13]
  4010f4:	d29ffee1 	mov	x1, #0xfff7                	// #65527
  4010f8:	371000a0 	tbnz	w0, #2, 40110c <__libc_start_main+0x148>
  4010fc:	d29ffe61 	mov	x1, #0xfff3                	// #65523
  401100:	37080060 	tbnz	w0, #1, 40110c <__libc_start_main+0x148>
  401104:	34000100 	cbz	w0, 401124 <__libc_start_main+0x160>
  401108:	d29ffea1 	mov	x1, #0xfff5                	// #65525
  40110c:	52800004 	mov	w4, #0x0                   	// #0
  401110:	f2a000e1 	movk	x1, #0x7, lsl #16
  401114:	52800003 	mov	w3, #0x0                   	// #0
  401118:	52800002 	mov	w2, #0x0                   	// #0
  40111c:	528006e0 	mov	w0, #0x37                  	// #55
  401120:	94005808 	bl	417140 <__prctl>
  401124:	f946fee1 	ldr	x1, [x23, #3576]
  401128:	913b8318 	add	x24, x24, #0xee0
  40112c:	f94702a0 	ldr	x0, [x21, #3584]
  401130:	53165821 	ubfx	w1, w1, #22, #1
  401134:	39003b01 	strb	w1, [x24, #14]
  401138:	d36bac00 	ubfx	x0, x0, #43, #1
  40113c:	39003f00 	strb	w0, [x24, #15]
  401140:	d0000478 	adrp	x24, 48f000 <tunable_list+0x880>
  401144:	f9467318 	ldr	x24, [x24, #3296]
  401148:	97fffd4e 	bl	400680 <_dl_relocate_static_pie>
  40114c:	d0000462 	adrp	x2, 48f000 <tunable_list+0x880>
  401150:	f946a042 	ldr	x2, [x2, #3392]
  401154:	eb18005f 	cmp	x2, x24
  401158:	540004e2 	b.cs	4011f4 <__libc_start_main+0x230>  // b.hs, b.nlast
  40115c:	aa0203fc 	mov	x28, x2
  401160:	d2800319 	mov	x25, #0x18                  	// #24
  401164:	1400000d 	b	401198 <__libc_start_main+0x1d4>
  401168:	f9400b84 	ldr	x4, [x28, #16]
  40116c:	9100639c 	add	x28, x28, #0x18
  401170:	f946fee0 	ldr	x0, [x23, #3576]
  401174:	a90783f9 	stp	x25, x0, [sp, #120]
  401178:	f94702a1 	ldr	x1, [x21, #3584]
  40117c:	f90047e1 	str	x1, [sp, #136]
  401180:	b2420000 	orr	x0, x0, #0x4000000000000000
  401184:	aa1603e1 	mov	x1, x22
  401188:	d63f0080 	blr	x4
  40118c:	f9000360 	str	x0, [x27]
  401190:	eb18039f 	cmp	x28, x24
  401194:	54000302 	b.cs	4011f4 <__libc_start_main+0x230>  // b.hs, b.nlast
  401198:	b9400b80 	ldr	w0, [x28, #8]
  40119c:	f940039b 	ldr	x27, [x28]
  4011a0:	f110201f 	cmp	x0, #0x408
  4011a4:	54fffe20 	b.eq	401168 <__libc_start_main+0x1a4>  // b.none
  4011a8:	d0000280 	adrp	x0, 453000 <_Unwind_Find_FDE+0x3f0>
  4011ac:	9138a000 	add	x0, x0, #0xe28
  4011b0:	940015ec 	bl	406960 <__libc_fatal>
  4011b4:	f94002e1 	ldr	x1, [x23]
  4011b8:	aa1803e2 	mov	x2, x24
  4011bc:	f9400320 	ldr	x0, [x25]
  4011c0:	94004690 	bl	412c00 <__memcmpeq>
  4011c4:	35fff480 	cbnz	w0, 401054 <__libc_start_main+0x90>
  4011c8:	910b8383 	add	x3, x28, #0x2e0
  4011cc:	93407eb5 	sxtw	x21, w21
  4011d0:	d2800300 	mov	x0, #0x18                  	// #24
  4011d4:	9b000eb5 	madd	x21, x21, x0, x3
  4011d8:	f9400aa0 	ldr	x0, [x21, #16]
  4011dc:	b100041f 	cmn	x0, #0x1
  4011e0:	54fff420 	b.eq	401064 <__libc_start_main+0xa0>  // b.none
  4011e4:	90000ed7 	adrp	x23, 5d9000 <__pthread_keys+0x32c0>
  4011e8:	17ffffa3 	b	401074 <__libc_start_main+0xb0>
  4011ec:	d5380000 	mrs	x0, midr_el1
  4011f0:	17ffffa1 	b	401074 <__libc_start_main+0xb0>
  4011f4:	d0000476 	adrp	x22, 48f000 <tunable_list+0x880>
  4011f8:	9400008e 	bl	401430 <__libc_setup_tls>
  4011fc:	90000475 	adrp	x21, 48d000 <_nl_C_LC_COLLATE+0x30>
  401200:	f943c2c1 	ldr	x1, [x22, #1920]
  401204:	d0000460 	adrp	x0, 48f000 <tunable_list+0x880>
  401208:	f946f800 	ldr	x0, [x0, #3568]
  40120c:	f9400021 	ldr	x1, [x1]
  401210:	9278dc21 	and	x1, x1, #0xffffffffffffff00
  401214:	f906b2a1 	str	x1, [x21, #3424]
  401218:	b4000040 	cbz	x0, 401220 <__libc_start_main+0x25c>
  40121c:	d503201f 	nop
  401220:	f943c2c0 	ldr	x0, [x22, #1920]
  401224:	913582b5 	add	x21, x21, #0xd60
  401228:	f9400400 	ldr	x0, [x0, #8]
  40122c:	f90006a0 	str	x0, [x21, #8]
  401230:	f94037e0 	ldr	x0, [sp, #104]
  401234:	b4000080 	cbz	x0, 401244 <__libc_start_main+0x280>
  401238:	d2800002 	mov	x2, #0x0                   	// #0
  40123c:	d2800001 	mov	x1, #0x0                   	// #0
  401240:	94000204 	bl	401a50 <__cxa_atexit>
  401244:	52800020 	mov	w0, #0x1                   	// #1
  401248:	94006256 	bl	419ba0 <__libc_early_init>
  40124c:	f946d342 	ldr	x2, [x26, #3488]
  401250:	aa1403e1 	mov	x1, x20
  401254:	2a1303e0 	mov	w0, w19
  401258:	94006292 	bl	419ca0 <__libc_init_first>
  40125c:	f0ffffe0 	adrp	x0, 400000 <__ehdr_start>
  401260:	d2800002 	mov	x2, #0x0                   	// #0
  401264:	913b8000 	add	x0, x0, #0xee0
  401268:	d2800001 	mov	x1, #0x0                   	// #0
  40126c:	940001f9 	bl	401a50 <__cxa_atexit>
  401270:	90000480 	adrp	x0, 491000 <_dl_main_map+0x20>
  401274:	b9458000 	ldr	w0, [x0, #1408]
  401278:	350005a0 	cbnz	w0, 40132c <__libc_start_main+0x368>
  40127c:	f0000440 	adrp	x0, 48c000 <__FRAME_END__+0x116fc>
  401280:	f0000457 	adrp	x23, 48c000 <__FRAME_END__+0x116fc>
  401284:	910b0000 	add	x0, x0, #0x2c0
  401288:	910b02f7 	add	x23, x23, #0x2c0
  40128c:	cb170018 	sub	x24, x0, x23
  401290:	f946d356 	ldr	x22, [x26, #3488]
  401294:	9343ff18 	asr	x24, x24, #3
  401298:	eb17001f 	cmp	x0, x23
  40129c:	54000160 	b.eq	4012c8 <__libc_start_main+0x304>  // b.none
  4012a0:	d2800015 	mov	x21, #0x0                   	// #0
  4012a4:	d503201f 	nop
  4012a8:	f8757ae3 	ldr	x3, [x23, x21, lsl #3]
  4012ac:	aa1603e2 	mov	x2, x22
  4012b0:	aa1403e1 	mov	x1, x20
  4012b4:	2a1303e0 	mov	w0, w19
  4012b8:	910006b5 	add	x21, x21, #0x1
  4012bc:	d63f0060 	blr	x3
  4012c0:	eb1802bf 	cmp	x21, x24
  4012c4:	54ffff23 	b.cc	4012a8 <__libc_start_main+0x2e4>  // b.lo, b.ul, b.last
  4012c8:	97fffbe2 	bl	400250 <_init>
  4012cc:	f0000457 	adrp	x23, 48c000 <__FRAME_END__+0x116fc>
  4012d0:	f0000440 	adrp	x0, 48c000 <__FRAME_END__+0x116fc>
  4012d4:	910b02f7 	add	x23, x23, #0x2c0
  4012d8:	910b4000 	add	x0, x0, #0x2d0
  4012dc:	cb170018 	sub	x24, x0, x23
  4012e0:	9343ff18 	asr	x24, x24, #3
  4012e4:	eb17001f 	cmp	x0, x23
  4012e8:	54000140 	b.eq	401310 <__libc_start_main+0x34c>  // b.none
  4012ec:	d2800015 	mov	x21, #0x0                   	// #0
  4012f0:	f8757ae3 	ldr	x3, [x23, x21, lsl #3]
  4012f4:	aa1603e2 	mov	x2, x22
  4012f8:	aa1403e1 	mov	x1, x20
  4012fc:	2a1303e0 	mov	w0, w19
  401300:	910006b5 	add	x21, x21, #0x1
  401304:	d63f0060 	blr	x3
  401308:	eb15031f 	cmp	x24, x21
  40130c:	54ffff28 	b.hi	4012f0 <__libc_start_main+0x32c>  // b.pmore
  401310:	d2800001 	mov	x1, #0x0                   	// #0
  401314:	d2800000 	mov	x0, #0x0                   	// #0
  401318:	94005a93 	bl	417d64 <_dl_debug_initialize>
  40131c:	f94033e0 	ldr	x0, [sp, #96]
  401320:	aa1403e2 	mov	x2, x20
  401324:	2a1303e1 	mov	w1, w19
  401328:	97ffff02 	bl	400f30 <__libc_start_call_main>
  40132c:	94000035 	bl	401400 <__libc_check_standard_fds>
  401330:	17ffffd3 	b	40127c <__libc_start_main+0x2b8>
  401334:	d503201f 	nop
  401338:	d503201f 	nop
  40133c:	d503201f 	nop

0000000000401340 <check_one_fd>:
  401340:	a9b57bfd 	stp	x29, x30, [sp, #-176]!
  401344:	910003fd 	mov	x29, sp
  401348:	a90153f3 	stp	x19, x20, [sp, #16]
  40134c:	2a0103f4 	mov	w20, w1
  401350:	2a0003f3 	mov	w19, w0
  401354:	52800021 	mov	w1, #0x1                   	// #1
  401358:	9400542a 	bl	416400 <__fcntl64_nocancel>
  40135c:	3100041f 	cmn	w0, #0x1
  401360:	54000080 	b.eq	401370 <check_one_fd+0x30>  // b.none
  401364:	a94153f3 	ldp	x19, x20, [sp, #16]
  401368:	a8cb7bfd 	ldp	x29, x30, [sp], #176
  40136c:	d65f03c0 	ret
  401370:	d2a00000 	movz	x0, #0x0, lsl #16
  401374:	f2800500 	movk	x0, #0x28
  401378:	d53bd041 	mrs	x1, tpidr_el0
  40137c:	b8606820 	ldr	w0, [x1, x0]
  401380:	7100241f 	cmp	w0, #0x9
  401384:	54ffff01 	b.ne	401364 <check_one_fd+0x24>  // b.any
  401388:	f90013f5 	str	x21, [sp, #32]
  40138c:	7140229f 	cmp	w20, #0x8, lsl #12
  401390:	54000301 	b.ne	4013f0 <check_one_fd+0xb0>  // b.any
  401394:	d0000280 	adrp	x0, 453000 <_Unwind_Find_FDE+0x3f0>
  401398:	913b2000 	add	x0, x0, #0xec8
  40139c:	d2802075 	mov	x21, #0x103                 	// #259
  4013a0:	2a1403e1 	mov	w1, w20
  4013a4:	52800002 	mov	w2, #0x0                   	// #0
  4013a8:	94005486 	bl	4165c0 <__open64_nocancel>
  4013ac:	6b00027f 	cmp	w19, w0
  4013b0:	54000081 	b.ne	4013c0 <check_one_fd+0x80>  // b.any
  4013b4:	9100c3e1 	add	x1, sp, #0x30
  4013b8:	94005316 	bl	416010 <__fstat>
  4013bc:	34000080 	cbz	w0, 4013cc <check_one_fd+0x8c>
  4013c0:	d4207d00 	brk	#0x3e8
  4013c4:	d4207d00 	brk	#0x3e8
  4013c8:	17fffffe 	b	4013c0 <check_one_fd+0x80>
  4013cc:	b94043e0 	ldr	w0, [sp, #64]
  4013d0:	12140c00 	and	w0, w0, #0xf000
  4013d4:	7140081f 	cmp	w0, #0x2, lsl #12
  4013d8:	54ffff41 	b.ne	4013c0 <check_one_fd+0x80>  // b.any
  4013dc:	f9402be0 	ldr	x0, [sp, #80]
  4013e0:	eb15001f 	cmp	x0, x21
  4013e4:	54fffee1 	b.ne	4013c0 <check_one_fd+0x80>  // b.any
  4013e8:	f94013f5 	ldr	x21, [sp, #32]
  4013ec:	17ffffde 	b	401364 <check_one_fd+0x24>
  4013f0:	d0000280 	adrp	x0, 453000 <_Unwind_Find_FDE+0x3f0>
  4013f4:	d28020f5 	mov	x21, #0x107                 	// #263
  4013f8:	913ae000 	add	x0, x0, #0xeb8
  4013fc:	17ffffe9 	b	4013a0 <check_one_fd+0x60>

0000000000401400 <__libc_check_standard_fds>:
  401400:	a9bf7bfd 	stp	x29, x30, [sp, #-16]!
  401404:	52900021 	mov	w1, #0x8001                	// #32769
  401408:	52800000 	mov	w0, #0x0                   	// #0
  40140c:	910003fd 	mov	x29, sp
  401410:	97ffffcc 	bl	401340 <check_one_fd>
  401414:	52900001 	mov	w1, #0x8000                	// #32768
  401418:	52800020 	mov	w0, #0x1                   	// #1
  40141c:	97ffffc9 	bl	401340 <check_one_fd>
  401420:	a8c17bfd 	ldp	x29, x30, [sp], #16
  401424:	52900001 	mov	w1, #0x8000                	// #32768
  401428:	52800040 	mov	w0, #0x2                   	// #2
  40142c:	17ffffc5 	b	401340 <check_one_fd>

0000000000401430 <__libc_setup_tls>:
  401430:	d0000460 	adrp	x0, 48f000 <tunable_list+0x880>
  401434:	f947f000 	ldr	x0, [x0, #4064]
  401438:	a9b87bfd 	stp	x29, x30, [sp, #-128]!
  40143c:	910003fd 	mov	x29, sp
  401440:	a90153f3 	stp	x19, x20, [sp, #16]
  401444:	a9025bf5 	stp	x21, x22, [sp, #32]
  401448:	a90363f7 	stp	x23, x24, [sp, #48]
  40144c:	a9046bf9 	stp	x25, x26, [sp, #64]
  401450:	a90573fb 	stp	x27, x28, [sp, #80]
  401454:	f940001c 	ldr	x28, [x0]
  401458:	94005cfe 	bl	418850 <__tls_pre_init_tp>
  40145c:	d0000461 	adrp	x1, 48f000 <tunable_list+0x880>
  401460:	f9479c21 	ldr	x1, [x1, #3896]
  401464:	d0000460 	adrp	x0, 48f000 <tunable_list+0x880>
  401468:	f9472c00 	ldr	x0, [x0, #3672]
  40146c:	f9400021 	ldr	x1, [x1]
  401470:	f9400000 	ldr	x0, [x0]
  401474:	d37df022 	lsl	x2, x1, #3
  401478:	cb010042 	sub	x2, x2, x1
  40147c:	8b020c02 	add	x2, x0, x2, lsl #3
  401480:	eb02001f 	cmp	x0, x2
  401484:	540000a3 	b.cc	401498 <__libc_setup_tls+0x68>  // b.lo, b.ul, b.last
  401488:	14000073 	b	401654 <__libc_setup_tls+0x224>
  40148c:	9100e000 	add	x0, x0, #0x38
  401490:	eb02001f 	cmp	x0, x2
  401494:	54000ae2 	b.cs	4015f0 <__libc_setup_tls+0x1c0>  // b.hs, b.nlast
  401498:	b9400001 	ldr	w1, [x0]
  40149c:	71001c3f 	cmp	w1, #0x7
  4014a0:	54ffff61 	b.ne	40148c <__libc_setup_tls+0x5c>  // b.any
  4014a4:	a942e01b 	ldp	x27, x24, [x0, #40]
  4014a8:	d2800414 	mov	x20, #0x20                  	// #32
  4014ac:	f9400801 	ldr	x1, [x0, #16]
  4014b0:	f9400395 	ldr	x21, [x28]
  4014b4:	eb14031f 	cmp	x24, x20
  4014b8:	9a942314 	csel	x20, x24, x20, cs	// cs = hs, nlast
  4014bc:	f100031f 	cmp	x24, #0x0
  4014c0:	d1000682 	sub	x2, x20, #0x1
  4014c4:	f9003be2 	str	x2, [sp, #112]
  4014c8:	f9401002 	ldr	x2, [x0, #32]
  4014cc:	f90033e2 	str	x2, [sp, #96]
  4014d0:	cb1403e2 	neg	x2, x20
  4014d4:	9a9f1716 	csinc	x22, x24, xzr, ne	// ne = any
  4014d8:	8b0102b5 	add	x21, x21, x1
  4014dc:	d2800000 	mov	x0, #0x0                   	// #0
  4014e0:	f9003fe2 	str	x2, [sp, #120]
  4014e4:	94005aff 	bl	4180e0 <_dl_tls_static_surplus_init>
  4014e8:	b40008f8 	cbz	x24, 401604 <__libc_setup_tls+0x1d4>
  4014ec:	91003f05 	add	x5, x24, #0xf
  4014f0:	9ad808a5 	udiv	x5, x5, x24
  4014f4:	9b167cb9 	mul	x25, x5, x22
  4014f8:	aa1903e7 	mov	x7, x25
  4014fc:	90000eb7 	adrp	x23, 5d5000 <user_memory_pressure_sink>
  401500:	8b140361 	add	x1, x27, x20
  401504:	f90037e7 	str	x7, [sp, #104]
  401508:	f94022e0 	ldr	x0, [x23, #64]
  40150c:	911d0000 	add	x0, x0, #0x740
  401510:	8b010000 	add	x0, x0, x1
  401514:	8b190000 	add	x0, x0, x25
  401518:	94005ee6 	bl	4190b0 <_dl_early_allocate>
  40151c:	f94037e7 	ldr	x7, [sp, #104]
  401520:	aa0003e3 	mov	x3, x0
  401524:	b4000840 	cbz	x0, 40162c <__libc_setup_tls+0x1fc>
  401528:	f9403be0 	ldr	x0, [sp, #112]
  40152c:	911d0073 	add	x19, x3, #0x740
  401530:	f94033e2 	ldr	x2, [sp, #96]
  401534:	8b000273 	add	x19, x19, x0
  401538:	f9403fe0 	ldr	x0, [sp, #120]
  40153c:	910102fa 	add	x26, x23, #0x40
  401540:	f9024b87 	str	x7, [x28, #1168]
  401544:	d28007c7 	mov	x7, #0x3e                  	// #62
  401548:	8a000273 	and	x19, x19, x0
  40154c:	aa1503e1 	mov	x1, x21
  401550:	8b190260 	add	x0, x19, x25
  401554:	f9000747 	str	x7, [x26, #8]
  401558:	a902ff40 	stp	x0, xzr, [x26, #40]
  40155c:	97fffb49 	bl	400280 <.plt+0x10>
  401560:	91006340 	add	x0, x26, #0x18
  401564:	f9000260 	str	x0, [x19]
  401568:	d51bd053 	msr	tpidr_el0, x19
  40156c:	94005cc6 	bl	418884 <__tls_init_tp>
  401570:	f9021b5c 	str	x28, [x26, #1072]
  401574:	d2800803 	mov	x3, #0x40                  	// #64
  401578:	9111a384 	add	x4, x28, #0x468
  40157c:	f9020743 	str	x3, [x26, #1032]
  401580:	91206343 	add	x3, x26, #0x818
  401584:	8b180360 	add	x0, x27, x24
  401588:	f100031f 	cmp	x24, #0x0
  40158c:	d1000400 	sub	x0, x0, #0x1
  401590:	d2800021 	mov	x1, #0x1                   	// #1
  401594:	a9020474 	stp	x20, x1, [x3, #32]
  401598:	91102342 	add	x2, x26, #0x408
  40159c:	a94153f3 	ldp	x19, x20, [sp, #16]
  4015a0:	a901609b 	stp	x27, x24, [x4, #16]
  4015a4:	9a9b101b 	csel	x27, x0, x27, ne	// ne = any
  4015a8:	f94022e0 	ldr	x0, [x23, #64]
  4015ac:	a9000861 	stp	x1, x2, [x3]
  4015b0:	9ad60b7b 	udiv	x27, x27, x22
  4015b4:	91007c00 	add	x0, x0, #0x1f
  4015b8:	f94033e3 	ldr	x3, [sp, #96]
  4015bc:	a9000c95 	stp	x21, x3, [x4]
  4015c0:	9b16677b 	madd	x27, x27, x22, x25
  4015c4:	f9024f81 	str	x1, [x28, #1176]
  4015c8:	a9425bf5 	ldp	x21, x22, [sp, #32]
  4015cc:	8b1b0000 	add	x0, x0, x27
  4015d0:	a94363f7 	ldp	x23, x24, [sp, #48]
  4015d4:	927be800 	and	x0, x0, #0xffffffffffffffe0
  4015d8:	f9041740 	str	x0, [x26, #2088]
  4015dc:	f9041b5b 	str	x27, [x26, #2096]
  4015e0:	a9446bf9 	ldp	x25, x26, [sp, #64]
  4015e4:	a94573fb 	ldp	x27, x28, [sp, #80]
  4015e8:	a8c87bfd 	ldp	x29, x30, [sp], #128
  4015ec:	d65f03c0 	ret
  4015f0:	d2800000 	mov	x0, #0x0                   	// #0
  4015f4:	d2800015 	mov	x21, #0x0                   	// #0
  4015f8:	94005aba 	bl	4180e0 <_dl_tls_static_surplus_init>
  4015fc:	d280001b 	mov	x27, #0x0                   	// #0
  401600:	f90033ff 	str	xzr, [sp, #96]
  401604:	928003e0 	mov	x0, #0xffffffffffffffe0    	// #-32
  401608:	d2800207 	mov	x7, #0x10                  	// #16
  40160c:	d2800036 	mov	x22, #0x1                   	// #1
  401610:	aa0703f9 	mov	x25, x7
  401614:	d2800414 	mov	x20, #0x20                  	// #32
  401618:	d2800018 	mov	x24, #0x0                   	// #0
  40161c:	f9003fe0 	str	x0, [sp, #120]
  401620:	d28003e0 	mov	x0, #0x1f                  	// #31
  401624:	f9003be0 	str	x0, [sp, #112]
  401628:	17ffffb5 	b	4014fc <__libc_setup_tls+0xcc>
  40162c:	d0000281 	adrp	x1, 453000 <_Unwind_Find_FDE+0x3f0>
  401630:	d2800040 	mov	x0, #0x2                   	// #2
  401634:	913b6021 	add	x1, x1, #0xed8
  401638:	d28005a2 	mov	x2, #0x2d                  	// #45
  40163c:	d2800808 	mov	x8, #0x40                  	// #64
  401640:	d4000001 	svc	#0x0
  401644:	d2800fe0 	mov	x0, #0x7f                  	// #127
  401648:	d2800bc8 	mov	x8, #0x5e                  	// #94
  40164c:	d4000001 	svc	#0x0
  401650:	17ffffb6 	b	401528 <__libc_setup_tls+0xf8>
  401654:	d2800000 	mov	x0, #0x0                   	// #0
  401658:	94005aa2 	bl	4180e0 <_dl_tls_static_surplus_init>
  40165c:	928003e0 	mov	x0, #0xffffffffffffffe0    	// #-32
  401660:	d2800207 	mov	x7, #0x10                  	// #16
  401664:	d2800036 	mov	x22, #0x1                   	// #1
  401668:	aa0703f9 	mov	x25, x7
  40166c:	d2800414 	mov	x20, #0x20                  	// #32
  401670:	d2800018 	mov	x24, #0x0                   	// #0
  401674:	d2800015 	mov	x21, #0x0                   	// #0
  401678:	d280001b 	mov	x27, #0x0                   	// #0
  40167c:	f90033ff 	str	xzr, [sp, #96]
  401680:	f9003fe0 	str	x0, [sp, #120]
  401684:	d28003e0 	mov	x0, #0x1f                  	// #31
  401688:	f9003be0 	str	x0, [sp, #112]
  40168c:	17ffff9c 	b	4014fc <__libc_setup_tls+0xcc>

0000000000401690 <__tls_get_addr>:
  401690:	d53bd041 	mrs	x1, tpidr_el0
  401694:	a9bf7bfd 	stp	x29, x30, [sp, #-16]!
  401698:	910003fd 	mov	x29, sp
  40169c:	f9400021 	ldr	x1, [x1]
  4016a0:	f9400400 	ldr	x0, [x0, #8]
  4016a4:	f9400821 	ldr	x1, [x1, #16]
  4016a8:	a8c17bfd 	ldp	x29, x30, [sp], #16
  4016ac:	8b000020 	add	x0, x1, x0
  4016b0:	d65f03c0 	ret
  4016b4:	d503201f 	nop
  4016b8:	d503201f 	nop
  4016bc:	d503201f 	nop

00000000004016c0 <setjmp>:
  4016c0:	d503201f 	nop
  4016c4:	d2800021 	mov	x1, #0x1                   	// #1
  4016c8:	1400001f 	b	401744 <__sigsetjmp+0x4>
  4016cc:	d503201f 	nop
  4016d0:	d503201f 	nop
  4016d4:	d503201f 	nop
  4016d8:	d503201f 	nop
  4016dc:	d503201f 	nop
  4016e0:	d503201f 	nop
  4016e4:	d503201f 	nop
  4016e8:	d503201f 	nop
  4016ec:	d503201f 	nop
  4016f0:	d503201f 	nop
  4016f4:	d503201f 	nop
  4016f8:	d503201f 	nop
  4016fc:	d503201f 	nop

0000000000401700 <_setjmp>:
  401700:	d503201f 	nop
  401704:	d2800001 	mov	x1, #0x0                   	// #0
  401708:	1400000f 	b	401744 <__sigsetjmp+0x4>
  40170c:	d503201f 	nop
  401710:	d503201f 	nop
  401714:	d503201f 	nop
  401718:	d503201f 	nop
  40171c:	d503201f 	nop
  401720:	d503201f 	nop
  401724:	d503201f 	nop
  401728:	d503201f 	nop
  40172c:	d503201f 	nop
  401730:	d503201f 	nop
  401734:	d503201f 	nop
  401738:	d503201f 	nop
  40173c:	d503201f 	nop

0000000000401740 <__sigsetjmp>:
  401740:	d503201f 	nop
  401744:	a9005013 	stp	x19, x20, [x0]
  401748:	a9015815 	stp	x21, x22, [x0, #16]
  40174c:	a9026017 	stp	x23, x24, [x0, #32]
  401750:	a9036819 	stp	x25, x26, [x0, #48]
  401754:	a904701b 	stp	x27, x28, [x0, #64]
  401758:	90000462 	adrp	x2, 48d000 <_nl_C_LC_COLLATE+0x30>
  40175c:	f946b443 	ldr	x3, [x2, #3432]
  401760:	ca0303c4 	eor	x4, x30, x3
  401764:	a905101d 	stp	x29, x4, [x0, #80]
  401768:	d503201f 	nop
  40176c:	6d072408 	stp	d8, d9, [x0, #112]
  401770:	6d082c0a 	stp	d10, d11, [x0, #128]
  401774:	6d09340c 	stp	d12, d13, [x0, #144]
  401778:	6d0a3c0e 	stp	d14, d15, [x0, #160]
  40177c:	910003e4 	mov	x4, sp
  401780:	90000462 	adrp	x2, 48d000 <_nl_C_LC_COLLATE+0x30>
  401784:	f946b443 	ldr	x3, [x2, #3432]
  401788:	ca030085 	eor	x5, x4, x3
  40178c:	f9003405 	str	x5, [x0, #104]
  401790:	14000004 	b	4017a0 <__sigjmp_save>
  401794:	d503201f 	nop
  401798:	d503201f 	nop
  40179c:	d503201f 	nop

00000000004017a0 <__sigjmp_save>:
  4017a0:	a9be7bfd 	stp	x29, x30, [sp, #-32]!
  4017a4:	910003fd 	mov	x29, sp
  4017a8:	f9000bf3 	str	x19, [sp, #16]
  4017ac:	aa0003f3 	mov	x19, x0
  4017b0:	350000c1 	cbnz	w1, 4017c8 <__sigjmp_save+0x28>
  4017b4:	b900b261 	str	w1, [x19, #176]
  4017b8:	52800000 	mov	w0, #0x0                   	// #0
  4017bc:	f9400bf3 	ldr	x19, [sp, #16]
  4017c0:	a8c27bfd 	ldp	x29, x30, [sp], #32
  4017c4:	d65f03c0 	ret
  4017c8:	9102e002 	add	x2, x0, #0xb8
  4017cc:	d2800001 	mov	x1, #0x0                   	// #0
  4017d0:	52800000 	mov	w0, #0x0                   	// #0
  4017d4:	9400000b 	bl	401800 <__sigprocmask>
  4017d8:	7100001f 	cmp	w0, #0x0
  4017dc:	52800000 	mov	w0, #0x0                   	// #0
  4017e0:	1a9f17e1 	cset	w1, eq	// eq = none
  4017e4:	b900b261 	str	w1, [x19, #176]
  4017e8:	f9400bf3 	ldr	x19, [sp, #16]
  4017ec:	a8c27bfd 	ldp	x29, x30, [sp], #32
  4017f0:	d65f03c0 	ret
  4017f4:	d503201f 	nop
  4017f8:	d503201f 	nop
  4017fc:	d503201f 	nop

0000000000401800 <__sigprocmask>:
  401800:	a9bf7bfd 	stp	x29, x30, [sp, #-16]!
  401804:	910003fd 	mov	x29, sp
  401808:	94002a3a 	bl	40c0f0 <__pthread_sigmask>
  40180c:	35000060 	cbnz	w0, 401818 <__sigprocmask+0x18>
  401810:	a8c17bfd 	ldp	x29, x30, [sp], #16
  401814:	d65f03c0 	ret
  401818:	d2a00001 	movz	x1, #0x0, lsl #16
  40181c:	f2800501 	movk	x1, #0x28
  401820:	d53bd042 	mrs	x2, tpidr_el0
  401824:	b8216840 	str	w0, [x2, x1]
  401828:	12800000 	mov	w0, #0xffffffff            	// #-1
  40182c:	17fffff9 	b	401810 <__sigprocmask+0x10>

0000000000401830 <__new_exitfn>:
  401830:	a9be7bfd 	stp	x29, x30, [sp, #-32]!
  401834:	90000ea1 	adrp	x1, 5d5000 <user_memory_pressure_sink>
  401838:	910003fd 	mov	x29, sp
  40183c:	a90153f3 	stp	x19, x20, [sp, #16]
  401840:	aa0003f3 	mov	x19, x0
  401844:	39738020 	ldrb	w0, [x1, #3296]
  401848:	37000620 	tbnz	w0, #0, 40190c <__new_exitfn+0xdc>
  40184c:	f9400274 	ldr	x20, [x19]
  401850:	d2800006 	mov	x6, #0x0                   	// #0
  401854:	aa1403e5 	mov	x5, x20
  401858:	b4000634 	cbz	x20, 40191c <__new_exitfn+0xec>
  40185c:	d503201f 	nop
  401860:	f94004a1 	ldr	x1, [x5, #8]
  401864:	910040a4 	add	x4, x5, #0x10
  401868:	b4000101 	cbz	x1, 401888 <__new_exitfn+0x58>
  40186c:	d503201f 	nop
  401870:	d1000422 	sub	x2, x1, #0x1
  401874:	d37be843 	lsl	x3, x2, #5
  401878:	f8636883 	ldr	x3, [x4, x3]
  40187c:	b5000123 	cbnz	x3, 4018a0 <__new_exitfn+0x70>
  401880:	aa0203e1 	mov	x1, x2
  401884:	b5ffff61 	cbnz	x1, 401870 <__new_exitfn+0x40>
  401888:	f94000a1 	ldr	x1, [x5]
  40188c:	f90004bf 	str	xzr, [x5, #8]
  401890:	aa0503e6 	mov	x6, x5
  401894:	b4000341 	cbz	x1, 4018fc <__new_exitfn+0xcc>
  401898:	aa0103e5 	mov	x5, x1
  40189c:	17fffff1 	b	401860 <__new_exitfn+0x30>
  4018a0:	f100803f 	cmp	x1, #0x20
  4018a4:	540001c0 	b.eq	4018dc <__new_exitfn+0xac>  // b.none
  4018a8:	8b0114a0 	add	x0, x5, x1, lsl #5
  4018ac:	91000421 	add	x1, x1, #0x1
  4018b0:	91004000 	add	x0, x0, #0x10
  4018b4:	f90004a1 	str	x1, [x5, #8]
  4018b8:	90000ea2 	adrp	x2, 5d5000 <user_memory_pressure_sink>
  4018bc:	d2800021 	mov	x1, #0x1                   	// #1
  4018c0:	f9000001 	str	x1, [x0]
  4018c4:	f9446041 	ldr	x1, [x2, #2240]
  4018c8:	a94153f3 	ldp	x19, x20, [sp, #16]
  4018cc:	91000421 	add	x1, x1, #0x1
  4018d0:	a8c27bfd 	ldp	x29, x30, [sp], #32
  4018d4:	f9046041 	str	x1, [x2, #2240]
  4018d8:	d65f03c0 	ret
  4018dc:	b5000306 	cbnz	x6, 40193c <__new_exitfn+0x10c>
  4018e0:	d2808201 	mov	x1, #0x410                 	// #1040
  4018e4:	d2800020 	mov	x0, #0x1                   	// #1
  4018e8:	940040c2 	bl	411bf0 <__calloc>
  4018ec:	aa0003e5 	mov	x5, x0
  4018f0:	b40000e0 	cbz	x0, 40190c <__new_exitfn+0xdc>
  4018f4:	f9000014 	str	x20, [x0]
  4018f8:	f9000260 	str	x0, [x19]
  4018fc:	d2800021 	mov	x1, #0x1                   	// #1
  401900:	910040a0 	add	x0, x5, #0x10
  401904:	f90004a1 	str	x1, [x5, #8]
  401908:	17ffffec 	b	4018b8 <__new_exitfn+0x88>
  40190c:	a94153f3 	ldp	x19, x20, [sp, #16]
  401910:	d2800000 	mov	x0, #0x0                   	// #0
  401914:	a8c27bfd 	ldp	x29, x30, [sp], #32
  401918:	d65f03c0 	ret
  40191c:	d0000283 	adrp	x3, 453000 <_Unwind_Find_FDE+0x3f0>
  401920:	d0000281 	adrp	x1, 453000 <_Unwind_Find_FDE+0x3f0>
  401924:	d0000280 	adrp	x0, 453000 <_Unwind_Find_FDE+0x3f0>
  401928:	913ce063 	add	x3, x3, #0xf38
  40192c:	913c2021 	add	x1, x1, #0xf08
  401930:	913c6000 	add	x0, x0, #0xf18
  401934:	52800dc2 	mov	w2, #0x6e                  	// #110
  401938:	940088a6 	bl	423bd0 <__libc_assert_fail>
  40193c:	aa0603e5 	mov	x5, x6
  401940:	17ffffef 	b	4018fc <__new_exitfn+0xcc>

0000000000401944 <__internal_atexit>:
  401944:	a9bc7bfd 	stp	x29, x30, [sp, #-64]!
  401948:	910003fd 	mov	x29, sp
  40194c:	a90153f3 	stp	x19, x20, [sp, #16]
  401950:	a9025bf5 	stp	x21, x22, [sp, #32]
  401954:	a90363f7 	stp	x23, x24, [sp, #48]
  401958:	b40006a0 	cbz	x0, 401a2c <__internal_atexit+0xe8>
  40195c:	90000eb3 	adrp	x19, 5d5000 <user_memory_pressure_sink>
  401960:	91230275 	add	x21, x19, #0x8c0
  401964:	910022b5 	add	x21, x21, #0x8
  401968:	aa0003f4 	mov	x20, x0
  40196c:	aa0103f7 	mov	x23, x1
  401970:	aa0203f6 	mov	x22, x2
  401974:	aa0303f8 	mov	x24, x3
  401978:	aa1503e2 	mov	x2, x21
  40197c:	52800021 	mov	w1, #0x1                   	// #1
  401980:	52800000 	mov	w0, #0x0                   	// #0
  401984:	94012cdf 	bl	44cd00 <__aarch64_cas4_acq>
  401988:	35000340 	cbnz	w0, 4019f0 <__internal_atexit+0xac>
  40198c:	aa1803e0 	mov	x0, x24
  401990:	97ffffa8 	bl	401830 <__new_exitfn>
  401994:	b4000340 	cbz	x0, 4019fc <__internal_atexit+0xb8>
  401998:	90000461 	adrp	x1, 48d000 <_nl_C_LC_COLLATE+0x30>
  40199c:	91230273 	add	x19, x19, #0x8c0
  4019a0:	d2800082 	mov	x2, #0x4                   	// #4
  4019a4:	a9015817 	stp	x23, x22, [x0, #16]
  4019a8:	91002273 	add	x19, x19, #0x8
  4019ac:	f946b421 	ldr	x1, [x1, #3432]
  4019b0:	ca010294 	eor	x20, x20, x1
  4019b4:	a9005002 	stp	x2, x20, [x0]
  4019b8:	aa1303e1 	mov	x1, x19
  4019bc:	52800000 	mov	w0, #0x0                   	// #0
  4019c0:	94012d7c 	bl	44cfb0 <__aarch64_swp4_rel>
  4019c4:	7100041f 	cmp	w0, #0x1
  4019c8:	540000ec 	b.gt	4019e4 <__internal_atexit+0xa0>
  4019cc:	52800000 	mov	w0, #0x0                   	// #0
  4019d0:	a94153f3 	ldp	x19, x20, [sp, #16]
  4019d4:	a9425bf5 	ldp	x21, x22, [sp, #32]
  4019d8:	a94363f7 	ldp	x23, x24, [sp, #48]
  4019dc:	a8c47bfd 	ldp	x29, x30, [sp], #64
  4019e0:	d65f03c0 	ret
  4019e4:	aa1303e0 	mov	x0, x19
  4019e8:	94002962 	bl	40bf70 <__lll_lock_wake_private>
  4019ec:	17fffff8 	b	4019cc <__internal_atexit+0x88>
  4019f0:	aa1503e0 	mov	x0, x21
  4019f4:	9400291f 	bl	40be70 <__lll_lock_wait_private>
  4019f8:	17ffffe5 	b	40198c <__internal_atexit+0x48>
  4019fc:	91230273 	add	x19, x19, #0x8c0
  401a00:	91002273 	add	x19, x19, #0x8
  401a04:	aa1303e1 	mov	x1, x19
  401a08:	94012d6a 	bl	44cfb0 <__aarch64_swp4_rel>
  401a0c:	7100041f 	cmp	w0, #0x1
  401a10:	5400006c 	b.gt	401a1c <__internal_atexit+0xd8>
  401a14:	12800000 	mov	w0, #0xffffffff            	// #-1
  401a18:	17ffffee 	b	4019d0 <__internal_atexit+0x8c>
  401a1c:	aa1303e0 	mov	x0, x19
  401a20:	94002954 	bl	40bf70 <__lll_lock_wake_private>
  401a24:	12800000 	mov	w0, #0xffffffff            	// #-1
  401a28:	17ffffea 	b	4019d0 <__internal_atexit+0x8c>
  401a2c:	d0000283 	adrp	x3, 453000 <_Unwind_Find_FDE+0x3f0>
  401a30:	d0000281 	adrp	x1, 453000 <_Unwind_Find_FDE+0x3f0>
  401a34:	d0000280 	adrp	x0, 453000 <_Unwind_Find_FDE+0x3f0>
  401a38:	913d2063 	add	x3, x3, #0xf48
  401a3c:	913c2021 	add	x1, x1, #0xf08
  401a40:	913ca000 	add	x0, x0, #0xf28
  401a44:	52800522 	mov	w2, #0x29                  	// #41
  401a48:	94008862 	bl	423bd0 <__libc_assert_fail>
  401a4c:	d503201f 	nop

0000000000401a50 <__cxa_atexit>:
  401a50:	a9bf7bfd 	stp	x29, x30, [sp, #-16]!
  401a54:	f0000463 	adrp	x3, 490000 <.got.plt+0x18>
  401a58:	91014063 	add	x3, x3, #0x50
  401a5c:	910003fd 	mov	x29, sp
  401a60:	a8c17bfd 	ldp	x29, x30, [sp], #16
  401a64:	17ffffb8 	b	401944 <__internal_atexit>
  401a68:	d503201f 	nop
  401a6c:	d503201f 	nop

0000000000401a70 <__run_exit_handlers>:
  401a70:	a9ba7bfd 	stp	x29, x30, [sp, #-96]!
  401a74:	12001c63 	and	w3, w3, #0xff
  401a78:	d0000464 	adrp	x4, 48f000 <tunable_list+0x880>
  401a7c:	f947c484 	ldr	x4, [x4, #3976]
  401a80:	910003fd 	mov	x29, sp
  401a84:	a90153f3 	stp	x19, x20, [sp, #16]
  401a88:	f100009f 	cmp	x4, #0x0
  401a8c:	a9025bf5 	stp	x21, x22, [sp, #32]
  401a90:	7a401864 	ccmp	w3, #0x0, #0x4, ne	// ne = any
  401a94:	a90363f7 	stp	x23, x24, [sp, #48]
  401a98:	2a0003f7 	mov	w23, w0
  401a9c:	aa0103f8 	mov	x24, x1
  401aa0:	a9046bf9 	stp	x25, x26, [sp, #64]
  401aa4:	12001c59 	and	w25, w2, #0xff
  401aa8:	a90573fb 	stp	x27, x28, [sp, #80]
  401aac:	54000de1 	b.ne	401c68 <__run_exit_handlers+0x1f8>  // b.any
  401ab0:	d0000462 	adrp	x2, 48f000 <tunable_list+0x880>
  401ab4:	f9469c42 	ldr	x2, [x2, #3384]
  401ab8:	52800021 	mov	w1, #0x1                   	// #1
  401abc:	52800000 	mov	w0, #0x0                   	// #0
  401ac0:	94012c90 	bl	44cd00 <__aarch64_cas4_acq>
  401ac4:	35000e20 	cbnz	w0, 401c88 <__run_exit_handlers+0x218>
  401ac8:	f9400313 	ldr	x19, [x24]
  401acc:	b40004f3 	cbz	x19, 401b68 <__run_exit_handlers+0xf8>
  401ad0:	d0000475 	adrp	x21, 48f000 <tunable_list+0x880>
  401ad4:	f9469eb5 	ldr	x21, [x21, #3384]
  401ad8:	90000eb4 	adrp	x20, 5d5000 <user_memory_pressure_sink>
  401adc:	90000476 	adrp	x22, 48d000 <_nl_C_LC_COLLATE+0x30>
  401ae0:	f9400662 	ldr	x2, [x19, #8]
  401ae4:	b4000a62 	cbz	x2, 401c30 <__run_exit_handlers+0x1c0>
  401ae8:	d1000442 	sub	x2, x2, #0x1
  401aec:	f9000662 	str	x2, [x19, #8]
  401af0:	f944629a 	ldr	x26, [x20, #2240]
  401af4:	8b021662 	add	x2, x19, x2, lsl #5
  401af8:	f9400840 	ldr	x0, [x2, #16]
  401afc:	f1000c1f 	cmp	x0, #0x3
  401b00:	540007c0 	b.eq	401bf8 <__run_exit_handlers+0x188>  // b.none
  401b04:	f100101f 	cmp	x0, #0x4
  401b08:	54000500 	b.eq	401ba8 <__run_exit_handlers+0x138>  // b.none
  401b0c:	f100081f 	cmp	x0, #0x2
  401b10:	54fffe81 	b.ne	401ae0 <__run_exit_handlers+0x70>  // b.any
  401b14:	a941f05b 	ldp	x27, x28, [x2, #24]
  401b18:	aa1503e1 	mov	x1, x21
  401b1c:	f946b6c3 	ldr	x3, [x22, #3432]
  401b20:	52800000 	mov	w0, #0x0                   	// #0
  401b24:	ca03037b 	eor	x27, x27, x3
  401b28:	94012d22 	bl	44cfb0 <__aarch64_swp4_rel>
  401b2c:	7100041f 	cmp	w0, #0x1
  401b30:	5400096c 	b.gt	401c5c <__run_exit_handlers+0x1ec>
  401b34:	aa1c03e1 	mov	x1, x28
  401b38:	2a1703e0 	mov	w0, w23
  401b3c:	d63f0360 	blr	x27
  401b40:	aa1503e2 	mov	x2, x21
  401b44:	52800021 	mov	w1, #0x1                   	// #1
  401b48:	52800000 	mov	w0, #0x0                   	// #0
  401b4c:	94012c6d 	bl	44cd00 <__aarch64_cas4_acq>
  401b50:	350004e0 	cbnz	w0, 401bec <__run_exit_handlers+0x17c>
  401b54:	f9446280 	ldr	x0, [x20, #2240]
  401b58:	eb1a001f 	cmp	x0, x26
  401b5c:	54fffc20 	b.eq	401ae0 <__run_exit_handlers+0x70>  // b.none
  401b60:	f9400313 	ldr	x19, [x24]
  401b64:	b5fffbf3 	cbnz	x19, 401ae0 <__run_exit_handlers+0x70>
  401b68:	d0000461 	adrp	x1, 48f000 <tunable_list+0x880>
  401b6c:	f9469c21 	ldr	x1, [x1, #3384]
  401b70:	90000ea2 	adrp	x2, 5d5000 <user_memory_pressure_sink>
  401b74:	52800023 	mov	w3, #0x1                   	// #1
  401b78:	52800000 	mov	w0, #0x0                   	// #0
  401b7c:	39338043 	strb	w3, [x2, #3296]
  401b80:	94012d0c 	bl	44cfb0 <__aarch64_swp4_rel>
  401b84:	7100041f 	cmp	w0, #0x1
  401b88:	5400078c 	b.gt	401c78 <__run_exit_handlers+0x208>
  401b8c:	d0000460 	adrp	x0, 48f000 <tunable_list+0x880>
  401b90:	f946e400 	ldr	x0, [x0, #3528]
  401b94:	f100001f 	cmp	x0, #0x0
  401b98:	7a401b24 	ccmp	w25, #0x0, #0x4, ne	// ne = any
  401b9c:	540006a1 	b.ne	401c70 <__run_exit_handlers+0x200>  // b.any
  401ba0:	2a1703e0 	mov	w0, w23
  401ba4:	94005103 	bl	415fb0 <_exit>
  401ba8:	a941f05b 	ldp	x27, x28, [x2, #24]
  401bac:	f900085f 	str	xzr, [x2, #16]
  401bb0:	f946b6c0 	ldr	x0, [x22, #3432]
  401bb4:	aa1503e1 	mov	x1, x21
  401bb8:	ca00037b 	eor	x27, x27, x0
  401bbc:	52800000 	mov	w0, #0x0                   	// #0
  401bc0:	94012cfc 	bl	44cfb0 <__aarch64_swp4_rel>
  401bc4:	7100041f 	cmp	w0, #0x1
  401bc8:	5400044c 	b.gt	401c50 <__run_exit_handlers+0x1e0>
  401bcc:	aa1c03e0 	mov	x0, x28
  401bd0:	2a1703e1 	mov	w1, w23
  401bd4:	d63f0360 	blr	x27
  401bd8:	aa1503e2 	mov	x2, x21
  401bdc:	52800021 	mov	w1, #0x1                   	// #1
  401be0:	52800000 	mov	w0, #0x0                   	// #0
  401be4:	94012c47 	bl	44cd00 <__aarch64_cas4_acq>
  401be8:	34fffb60 	cbz	w0, 401b54 <__run_exit_handlers+0xe4>
  401bec:	aa1503e0 	mov	x0, x21
  401bf0:	940028a0 	bl	40be70 <__lll_lock_wait_private>
  401bf4:	17ffffd8 	b	401b54 <__run_exit_handlers+0xe4>
  401bf8:	f9400c5b 	ldr	x27, [x2, #24]
  401bfc:	aa1503e1 	mov	x1, x21
  401c00:	f946b6c2 	ldr	x2, [x22, #3432]
  401c04:	52800000 	mov	w0, #0x0                   	// #0
  401c08:	ca02037b 	eor	x27, x27, x2
  401c0c:	94012ce9 	bl	44cfb0 <__aarch64_swp4_rel>
  401c10:	7100041f 	cmp	w0, #0x1
  401c14:	5400006c 	b.gt	401c20 <__run_exit_handlers+0x1b0>
  401c18:	d63f0360 	blr	x27
  401c1c:	17ffffc9 	b	401b40 <__run_exit_handlers+0xd0>
  401c20:	aa1503e0 	mov	x0, x21
  401c24:	940028d3 	bl	40bf70 <__lll_lock_wake_private>
  401c28:	d63f0360 	blr	x27
  401c2c:	17ffffc5 	b	401b40 <__run_exit_handlers+0xd0>
  401c30:	f9400260 	ldr	x0, [x19]
  401c34:	f9000300 	str	x0, [x24]
  401c38:	b4fff980 	cbz	x0, 401b68 <__run_exit_handlers+0xf8>
  401c3c:	aa1303e0 	mov	x0, x19
  401c40:	94003d28 	bl	4110e0 <__free>
  401c44:	f9400313 	ldr	x19, [x24]
  401c48:	b5fff4d3 	cbnz	x19, 401ae0 <__run_exit_handlers+0x70>
  401c4c:	17ffffc7 	b	401b68 <__run_exit_handlers+0xf8>
  401c50:	aa1503e0 	mov	x0, x21
  401c54:	940028c7 	bl	40bf70 <__lll_lock_wake_private>
  401c58:	17ffffdd 	b	401bcc <__run_exit_handlers+0x15c>
  401c5c:	aa1503e0 	mov	x0, x21
  401c60:	940028c4 	bl	40bf70 <__lll_lock_wake_private>
  401c64:	17ffffb4 	b	401b34 <__run_exit_handlers+0xc4>
  401c68:	d503201f 	nop
  401c6c:	17ffff91 	b	401ab0 <__run_exit_handlers+0x40>
  401c70:	940023c8 	bl	40ab90 <_IO_cleanup>
  401c74:	17ffffcb 	b	401ba0 <__run_exit_handlers+0x130>
  401c78:	d0000460 	adrp	x0, 48f000 <tunable_list+0x880>
  401c7c:	f9469c00 	ldr	x0, [x0, #3384]
  401c80:	940028bc 	bl	40bf70 <__lll_lock_wake_private>
  401c84:	17ffffc2 	b	401b8c <__run_exit_handlers+0x11c>
  401c88:	d0000460 	adrp	x0, 48f000 <tunable_list+0x880>
  401c8c:	f9469c00 	ldr	x0, [x0, #3384]
  401c90:	94002878 	bl	40be70 <__lll_lock_wait_private>
  401c94:	17ffff8d 	b	401ac8 <__run_exit_handlers+0x58>
  401c98:	d503201f 	nop
  401c9c:	d503201f 	nop

0000000000401ca0 <exit>:
  401ca0:	a9bf7bfd 	stp	x29, x30, [sp, #-16]!
  401ca4:	f0000461 	adrp	x1, 490000 <.got.plt+0x18>
  401ca8:	52800023 	mov	w3, #0x1                   	// #1
  401cac:	910003fd 	mov	x29, sp
  401cb0:	91014021 	add	x1, x1, #0x50
  401cb4:	2a0303e2 	mov	w2, w3
  401cb8:	97ffff6e 	bl	401a70 <__run_exit_handlers>
  401cbc:	d503201f 	nop

0000000000401cc0 <_IO_printf>:
  401cc0:	d10483ff 	sub	sp, sp, #0x120
  401cc4:	128006ec 	mov	w12, #0xffffffc8            	// #-56
  401cc8:	d0000469 	adrp	x9, 48f000 <tunable_list+0x880>
  401ccc:	f9462d29 	ldr	x9, [x9, #3160]
  401cd0:	910383ed 	add	x13, sp, #0xe0
  401cd4:	a9057bfd 	stp	x29, x30, [sp, #80]
  401cd8:	910143fd 	add	x29, sp, #0x50
  401cdc:	12800feb 	mov	w11, #0xffffff80            	// #-128
  401ce0:	d000046a 	adrp	x10, 48f000 <tunable_list+0x880>
  401ce4:	f946254a 	ldr	x10, [x10, #3144]
  401ce8:	3d801be0 	str	q0, [sp, #96]
  401cec:	910003e8 	mov	x8, sp
  401cf0:	3d801fe1 	str	q1, [sp, #112]
  401cf4:	3d8023e2 	str	q2, [sp, #128]
  401cf8:	3d8027e3 	str	q3, [sp, #144]
  401cfc:	3d802be4 	str	q4, [sp, #160]
  401d00:	3d802fe5 	str	q5, [sp, #176]
  401d04:	3d8033e6 	str	q6, [sp, #192]
  401d08:	3d8037e7 	str	q7, [sp, #208]
  401d0c:	a90e8be1 	stp	x1, x2, [sp, #232]
  401d10:	aa0003e1 	mov	x1, x0
  401d14:	aa0803e2 	mov	x2, x8
  401d18:	a90f93e3 	stp	x3, x4, [sp, #248]
  401d1c:	52800003 	mov	w3, #0x0                   	// #0
  401d20:	a9109be5 	stp	x5, x6, [sp, #264]
  401d24:	f9008fe7 	str	x7, [sp, #280]
  401d28:	f9400140 	ldr	x0, [x10]
  401d2c:	f9400124 	ldr	x4, [x9]
  401d30:	f90027e4 	str	x4, [sp, #72]
  401d34:	d2800004 	mov	x4, #0x0                   	// #0
  401d38:	910483e4 	add	x4, sp, #0x120
  401d3c:	a90293e4 	stp	x4, x4, [sp, #40]
  401d40:	9100a3e4 	add	x4, sp, #0x28
  401d44:	f9001fed 	str	x13, [sp, #56]
  401d48:	29082fec 	stp	w12, w11, [sp, #64]
  401d4c:	ad400480 	ldp	q0, q1, [x4]
  401d50:	ad000500 	stp	q0, q1, [x8]
  401d54:	94000e07 	bl	405570 <__vfprintf_internal>
  401d58:	d0000461 	adrp	x1, 48f000 <tunable_list+0x880>
  401d5c:	f9462c21 	ldr	x1, [x1, #3160]
  401d60:	f94027e3 	ldr	x3, [sp, #72]
  401d64:	f9400022 	ldr	x2, [x1]
  401d68:	eb020063 	subs	x3, x3, x2
  401d6c:	d2800002 	mov	x2, #0x0                   	// #0
  401d70:	54000081 	b.ne	401d80 <_IO_printf+0xc0>  // b.any
  401d74:	a9457bfd 	ldp	x29, x30, [sp, #80]
  401d78:	910483ff 	add	sp, sp, #0x120
  401d7c:	d65f03c0 	ret
  401d80:	940057d0 	bl	417cc0 <__stack_chk_fail>
  401d84:	d503201f 	nop
  401d88:	d503201f 	nop
  401d8c:	d503201f 	nop

0000000000401d90 <read_int>:
  401d90:	a9bf7bfd 	stp	x29, x30, [sp, #-16]!
  401d94:	aa0003e4 	mov	x4, x0
  401d98:	910003fd 	mov	x29, sp
  401d9c:	f9400003 	ldr	x3, [x0]
  401da0:	aa0303e2 	mov	x2, x3
  401da4:	38401441 	ldrb	w1, [x2], #1
  401da8:	f9000002 	str	x2, [x0]
  401dac:	5100c020 	sub	w0, w1, #0x30
  401db0:	39400461 	ldrb	w1, [x3, #1]
  401db4:	5100c021 	sub	w1, w1, #0x30
  401db8:	7100243f 	cmp	w1, #0x9
  401dbc:	54000288 	b.hi	401e0c <read_int+0x7c>  // b.pmore
  401dc0:	52999987 	mov	w7, #0xcccc                	// #52428
  401dc4:	12800008 	mov	w8, #0xffffffff            	// #-1
  401dc8:	72a19987 	movk	w7, #0xccc, lsl #16
  401dcc:	12b00006 	mov	w6, #0x7fffffff            	// #2147483647
  401dd0:	37f80120 	tbnz	w0, #31, 401df4 <read_int+0x64>
  401dd4:	0b000803 	add	w3, w0, w0, lsl #2
  401dd8:	4b0100c5 	sub	w5, w6, w1
  401ddc:	6b07001f 	cmp	w0, w7
  401de0:	540001ac 	b.gt	401e14 <read_int+0x84>
  401de4:	531f7863 	lsl	w3, w3, #1
  401de8:	0b030021 	add	w1, w1, w3
  401dec:	6b05007f 	cmp	w3, w5
  401df0:	1a88d020 	csel	w0, w1, w8, le
  401df4:	91000442 	add	x2, x2, #0x1
  401df8:	f9000082 	str	x2, [x4]
  401dfc:	39400041 	ldrb	w1, [x2]
  401e00:	5100c021 	sub	w1, w1, #0x30
  401e04:	7100243f 	cmp	w1, #0x9
  401e08:	54fffe49 	b.ls	401dd0 <read_int+0x40>  // b.plast
  401e0c:	a8c17bfd 	ldp	x29, x30, [sp], #16
  401e10:	d65f03c0 	ret
  401e14:	12800000 	mov	w0, #0xffffffff            	// #-1
  401e18:	17fffff7 	b	401df4 <read_int+0x64>
  401e1c:	d503201f 	nop

0000000000401e20 <outstring_converted_wide_string>:
  401e20:	d10643ff 	sub	sp, sp, #0x190
  401e24:	12001c84 	and	w4, w4, #0xff
  401e28:	d0000465 	adrp	x5, 48f000 <tunable_list+0x880>
  401e2c:	f9462ca5 	ldr	x5, [x5, #3160]
  401e30:	7100007f 	cmp	w3, #0x0
  401e34:	a9137bfd 	stp	x29, x30, [sp, #304]
  401e38:	9104c3fd 	add	x29, sp, #0x130
  401e3c:	b90007e4 	str	w4, [sp, #4]
  401e40:	f90007e1 	str	x1, [sp, #8]
  401e44:	a91453f3 	stp	x19, x20, [sp, #320]
  401e48:	a9155bf5 	stp	x21, x22, [sp, #336]
  401e4c:	aa0003f6 	mov	x22, x0
  401e50:	2a0203f5 	mov	w21, w2
  401e54:	a91663f7 	stp	x23, x24, [sp, #352]
  401e58:	a9176bf9 	stp	x25, x26, [sp, #368]
  401e5c:	2a0303fa 	mov	w26, w3
  401e60:	a91873fb 	stp	x27, x28, [sp, #384]
  401e64:	f94000a3 	ldr	x3, [x5]
  401e68:	f90097e3 	str	x3, [sp, #296]
  401e6c:	d2800003 	mov	x3, #0x0                   	// #0
  401e70:	1a9fd7e5 	cset	w5, gt
  401e74:	52000083 	eor	w3, w4, #0x1
  401e78:	b90003e5 	str	w5, [sp]
  401e7c:	6a0300bf 	tst	w5, w3
  401e80:	540004a0 	b.eq	401f14 <outstring_converted_wide_string+0xf4>  // b.none
  401e84:	a901ffe1 	stp	x1, xzr, [sp, #24]
  401e88:	37f802e2 	tbnz	w2, #31, 401ee4 <outstring_converted_wide_string+0xc4>
  401e8c:	93407c59 	sxtw	x25, w2
  401e90:	d280001b 	mov	x27, #0x0                   	// #0
  401e94:	34000cc2 	cbz	w2, 40202c <outstring_converted_wide_string+0x20c>
  401e98:	910083f8 	add	x24, sp, #0x20
  401e9c:	910063f4 	add	x20, sp, #0x18
  401ea0:	9100a3f3 	add	x19, sp, #0x28
  401ea4:	d2802017 	mov	x23, #0x100                 	// #256
  401ea8:	b40002a1 	cbz	x1, 401efc <outstring_converted_wide_string+0xdc>
  401eac:	f104033f 	cmp	x25, #0x100
  401eb0:	aa1803e3 	mov	x3, x24
  401eb4:	9a979322 	csel	x2, x25, x23, ls	// ls = plast
  401eb8:	aa1403e1 	mov	x1, x20
  401ebc:	aa1303e0 	mov	x0, x19
  401ec0:	94004f5c 	bl	415c30 <__wcsrtombs>
  401ec4:	b100041f 	cmn	x0, #0x1
  401ec8:	54000700 	b.eq	401fa8 <outstring_converted_wide_string+0x188>  // b.none
  401ecc:	b4000180 	cbz	x0, 401efc <outstring_converted_wide_string+0xdc>
  401ed0:	8b00037b 	add	x27, x27, x0
  401ed4:	eb000339 	subs	x25, x25, x0
  401ed8:	54000120 	b.eq	401efc <outstring_converted_wide_string+0xdc>  // b.none
  401edc:	f9400fe1 	ldr	x1, [sp, #24]
  401ee0:	17fffff2 	b	401ea8 <outstring_converted_wide_string+0x88>
  401ee4:	910083e3 	add	x3, sp, #0x20
  401ee8:	910063e1 	add	x1, sp, #0x18
  401eec:	d2800002 	mov	x2, #0x0                   	// #0
  401ef0:	d2800000 	mov	x0, #0x0                   	// #0
  401ef4:	94004f4f 	bl	415c30 <__wcsrtombs>
  401ef8:	aa0003fb 	mov	x27, x0
  401efc:	93407f42 	sxtw	x2, w26
  401f00:	cb1b0042 	sub	x2, x2, x27
  401f04:	f100005f 	cmp	x2, #0x0
  401f08:	5400094c 	b.gt	402030 <outstring_converted_wide_string+0x210>
  401f0c:	b94022c0 	ldr	w0, [x22, #32]
  401f10:	340004e0 	cbz	w0, 401fac <outstring_converted_wide_string+0x18c>
  401f14:	f90013ff 	str	xzr, [sp, #32]
  401f18:	37f80695 	tbnz	w21, #31, 401fe8 <outstring_converted_wide_string+0x1c8>
  401f1c:	93407ebb 	sxtw	x27, w21
  401f20:	f100037f 	cmp	x27, #0x0
  401f24:	1a9f07e0 	cset	w0, ne	// ne = any
  401f28:	f94007e1 	ldr	x1, [sp, #8]
  401f2c:	f100003f 	cmp	x1, #0x0
  401f30:	7a401804 	ccmp	w0, #0x0, #0x4, ne	// ne = any
  401f34:	54000600 	b.eq	401ff4 <outstring_converted_wide_string+0x1d4>  // b.none
  401f38:	910083f9 	add	x25, sp, #0x20
  401f3c:	9100a3f3 	add	x19, sp, #0x28
  401f40:	910023f8 	add	x24, sp, #0x8
  401f44:	d2800014 	mov	x20, #0x0                   	// #0
  401f48:	d2802017 	mov	x23, #0x100                 	// #256
  401f4c:	1400000e 	b	401f84 <outstring_converted_wide_string+0x164>
  401f50:	b4000540 	cbz	x0, 401ff8 <outstring_converted_wide_string+0x1d8>
  401f54:	aa0003e2 	mov	x2, x0
  401f58:	aa1303e1 	mov	x1, x19
  401f5c:	aa1603e0 	mov	x0, x22
  401f60:	9400a28c 	bl	42a990 <__printf_buffer_write>
  401f64:	f94007e0 	ldr	x0, [sp, #8]
  401f68:	710002bf 	cmp	w21, #0x0
  401f6c:	cb1c0361 	sub	x1, x27, x28
  401f70:	8b1c0294 	add	x20, x20, x28
  401f74:	9a9ba03b 	csel	x27, x1, x27, ge	// ge = tcont
  401f78:	f100001f 	cmp	x0, #0x0
  401f7c:	fa401b64 	ccmp	x27, #0x0, #0x4, ne	// ne = any
  401f80:	540003c0 	b.eq	401ff8 <outstring_converted_wide_string+0x1d8>  // b.none
  401f84:	f104037f 	cmp	x27, #0x100
  401f88:	aa1903e3 	mov	x3, x25
  401f8c:	9a979362 	csel	x2, x27, x23, ls	// ls = plast
  401f90:	aa1803e1 	mov	x1, x24
  401f94:	aa1303e0 	mov	x0, x19
  401f98:	94004f26 	bl	415c30 <__wcsrtombs>
  401f9c:	aa0003fc 	mov	x28, x0
  401fa0:	b100041f 	cmn	x0, #0x1
  401fa4:	54fffd61 	b.ne	401f50 <outstring_converted_wide_string+0x130>  // b.any
  401fa8:	b90022df 	str	wzr, [x22, #32]
  401fac:	d0000460 	adrp	x0, 48f000 <tunable_list+0x880>
  401fb0:	f9462c00 	ldr	x0, [x0, #3160]
  401fb4:	f94097e2 	ldr	x2, [sp, #296]
  401fb8:	f9400001 	ldr	x1, [x0]
  401fbc:	eb010042 	subs	x2, x2, x1
  401fc0:	d2800001 	mov	x1, #0x0                   	// #0
  401fc4:	540003e1 	b.ne	402040 <outstring_converted_wide_string+0x220>  // b.any
  401fc8:	a9537bfd 	ldp	x29, x30, [sp, #304]
  401fcc:	a95453f3 	ldp	x19, x20, [sp, #320]
  401fd0:	a9555bf5 	ldp	x21, x22, [sp, #336]
  401fd4:	a95663f7 	ldp	x23, x24, [sp, #352]
  401fd8:	a9576bf9 	ldp	x25, x26, [sp, #368]
  401fdc:	a95873fb 	ldp	x27, x28, [sp, #384]
  401fe0:	910643ff 	add	sp, sp, #0x190
  401fe4:	d65f03c0 	ret
  401fe8:	52800020 	mov	w0, #0x1                   	// #1
  401fec:	9280001b 	mov	x27, #0xffffffffffffffff    	// #-1
  401ff0:	17ffffce 	b	401f28 <outstring_converted_wide_string+0x108>
  401ff4:	d2800014 	mov	x20, #0x0                   	// #0
  401ff8:	b94003e0 	ldr	w0, [sp]
  401ffc:	7100001f 	cmp	w0, #0x0
  402000:	b94007e0 	ldr	w0, [sp, #4]
  402004:	7a401804 	ccmp	w0, #0x0, #0x4, ne	// ne = any
  402008:	54fffd20 	b.eq	401fac <outstring_converted_wide_string+0x18c>  // b.none
  40200c:	93407f42 	sxtw	x2, w26
  402010:	cb140042 	sub	x2, x2, x20
  402014:	f100005f 	cmp	x2, #0x0
  402018:	54fffcad 	b.le	401fac <outstring_converted_wide_string+0x18c>
  40201c:	aa1603e0 	mov	x0, x22
  402020:	52800401 	mov	w1, #0x20                  	// #32
  402024:	9400a157 	bl	42a580 <__printf_buffer_pad_1>
  402028:	17ffffe1 	b	401fac <outstring_converted_wide_string+0x18c>
  40202c:	93407f42 	sxtw	x2, w26
  402030:	aa1603e0 	mov	x0, x22
  402034:	52800401 	mov	w1, #0x20                  	// #32
  402038:	9400a152 	bl	42a580 <__printf_buffer_pad_1>
  40203c:	17ffffb4 	b	401f0c <outstring_converted_wide_string+0xec>
  402040:	94005720 	bl	417cc0 <__stack_chk_fail>

0000000000402044 <group_number>:
  402044:	a9bb7bfd 	stp	x29, x30, [sp, #-80]!
  402048:	910003fd 	mov	x29, sp
  40204c:	a90153f3 	stp	x19, x20, [sp, #16]
  402050:	aa0003f4 	mov	x20, x0
  402054:	aa0203f3 	mov	x19, x2
  402058:	a9025bf5 	stp	x21, x22, [sp, #32]
  40205c:	aa0103f6 	mov	x22, x1
  402060:	aa0303f5 	mov	x21, x3
  402064:	a90363f7 	stp	x23, x24, [sp, #48]
  402068:	aa0403f7 	mov	x23, x4
  40206c:	360003c5 	tbz	w5, #0, 4020e4 <group_number+0xa0>
  402070:	f90023f9 	str	x25, [sp, #64]
  402074:	d53bd059 	mrs	x25, tpidr_el0
  402078:	d2a00018 	movz	x24, #0x0, lsl #16
  40207c:	f2800218 	movk	x24, #0x10
  402080:	eb03005f 	cmp	x2, x3
  402084:	54000281 	b.ne	4020d4 <group_number+0x90>  // b.any
  402088:	f94023f9 	ldr	x25, [sp, #64]
  40208c:	a94153f3 	ldp	x19, x20, [sp, #16]
  402090:	a9425bf5 	ldp	x21, x22, [sp, #32]
  402094:	a94363f7 	ldp	x23, x24, [sp, #48]
  402098:	a8c57bfd 	ldp	x29, x30, [sp], #80
  40209c:	d65f03c0 	ret
  4020a0:	aa1703e1 	mov	x1, x23
  4020a4:	aa1403e0 	mov	x0, x20
  4020a8:	9400a17e 	bl	42a6a0 <__printf_buffer_puts_1>
  4020ac:	f8786b21 	ldr	x1, [x25, x24]
  4020b0:	aa1403e0 	mov	x0, x20
  4020b4:	38401662 	ldrb	w2, [x19], #1
  4020b8:	f9400021 	ldr	x1, [x1]
  4020bc:	51001c42 	sub	w2, w2, #0x7
  4020c0:	8b222c22 	add	x2, x1, w2, uxth #3
  4020c4:	f9401c41 	ldr	x1, [x2, #56]
  4020c8:	9400a176 	bl	42a6a0 <__printf_buffer_puts_1>
  4020cc:	eb1302bf 	cmp	x21, x19
  4020d0:	54fffdc0 	b.eq	402088 <group_number+0x44>  // b.none
  4020d4:	aa1603e0 	mov	x0, x22
  4020d8:	9400a0ea 	bl	42a480 <__grouping_iterator_next>
  4020dc:	3607fe80 	tbz	w0, #0, 4020ac <group_number+0x68>
  4020e0:	17fffff0 	b	4020a0 <group_number+0x5c>
  4020e4:	eb03005f 	cmp	x2, x3
  4020e8:	54fffd20 	b.eq	40208c <group_number+0x48>  // b.none
  4020ec:	aa1603e0 	mov	x0, x22
  4020f0:	9400a0e4 	bl	42a480 <__grouping_iterator_next>
  4020f4:	370001c0 	tbnz	w0, #0, 40212c <group_number+0xe8>
  4020f8:	a9408282 	ldp	x2, x0, [x20, #8]
  4020fc:	39400261 	ldrb	w1, [x19]
  402100:	91000443 	add	x3, x2, #0x1
  402104:	eb00005f 	cmp	x2, x0
  402108:	54000220 	b.eq	40214c <group_number+0x108>  // b.none
  40210c:	f9000683 	str	x3, [x20, #8]
  402110:	39000041 	strb	w1, [x2]
  402114:	91000673 	add	x19, x19, #0x1
  402118:	eb1302bf 	cmp	x21, x19
  40211c:	54fffb80 	b.eq	40208c <group_number+0x48>  // b.none
  402120:	aa1603e0 	mov	x0, x22
  402124:	9400a0d7 	bl	42a480 <__grouping_iterator_next>
  402128:	3607fe80 	tbz	w0, #0, 4020f8 <group_number+0xb4>
  40212c:	aa1703e1 	mov	x1, x23
  402130:	aa1403e0 	mov	x0, x20
  402134:	9400a15b 	bl	42a6a0 <__printf_buffer_puts_1>
  402138:	a9408282 	ldp	x2, x0, [x20, #8]
  40213c:	39400261 	ldrb	w1, [x19]
  402140:	91000443 	add	x3, x2, #0x1
  402144:	eb00005f 	cmp	x2, x0
  402148:	54fffe21 	b.ne	40210c <group_number+0xc8>  // b.any
  40214c:	aa1403e0 	mov	x0, x20
  402150:	9400a138 	bl	42a630 <__printf_buffer_putc_1>
  402154:	17fffff0 	b	402114 <group_number+0xd0>
  402158:	d503201f 	nop
  40215c:	d503201f 	nop

0000000000402160 <printf_positional>:
  402160:	a9ba7bfd 	stp	x29, x30, [sp, #-96]!
  402164:	910003fd 	mov	x29, sp
  402168:	a90153f3 	stp	x19, x20, [sp, #16]
  40216c:	a9025bf5 	stp	x21, x22, [sp, #32]
  402170:	a90363f7 	stp	x23, x24, [sp, #48]
  402174:	a9046bf9 	stp	x25, x26, [sp, #64]
  402178:	a90573fb 	stp	x27, x28, [sp, #80]
  40217c:	d12483ff 	sub	sp, sp, #0x920
  402180:	f90203ff 	str	xzr, [sp, #1024]
  402184:	b0000463 	adrp	x3, 48f000 <tunable_list+0x880>
  402188:	f9462c63 	ldr	x3, [x3, #3160]
  40218c:	aa0003fb 	mov	x27, x0
  402190:	f944c7e8 	ldr	x8, [sp, #2440]
  402194:	f9400069 	ldr	x9, [x3]
  402198:	f9048fe9 	str	x9, [sp, #2328]
  40219c:	d2800009 	mov	x9, #0x0                   	// #0
  4021a0:	f944cbe0 	ldr	x0, [sp, #2448]
  4021a4:	911403ea 	add	x10, sp, #0x500
  4021a8:	a90203ea 	stp	x10, x0, [sp, #32]
  4021ac:	9103c3e9 	add	x9, sp, #0xf0
  4021b0:	b9499be0 	ldr	w0, [sp, #2456]
  4021b4:	d2808003 	mov	x3, #0x400                 	// #1024
  4021b8:	f90007e9 	str	x9, [sp, #8]
  4021bc:	b90013e0 	str	w0, [sp, #16]
  4021c0:	aa0403f8 	mov	x24, x4
  4021c4:	f9001be7 	str	x7, [sp, #48]
  4021c8:	aa0603f4 	mov	x20, x6
  4021cc:	b9003be5 	str	w5, [sp, #56]
  4021d0:	b90067e2 	str	w2, [sp, #100]
  4021d4:	f9003fe1 	str	x1, [sp, #120]
  4021d8:	f9005fff 	str	xzr, [sp, #184]
  4021dc:	a90e0fe9 	stp	x9, x3, [sp, #224]
  4021e0:	f9027bea 	str	x10, [sp, #1264]
  4021e4:	f9027fe3 	str	x3, [sp, #1272]
  4021e8:	b100051f 	cmn	x8, #0x1
  4021ec:	54001680 	b.eq	4024bc <printf_positional+0x35c>  // b.none
  4021f0:	39400280 	ldrb	w0, [x20]
  4021f4:	340092a0 	cbz	w0, 403448 <printf_positional+0x12e8>
  4021f8:	f94007f5 	ldr	x21, [sp, #8]
  4021fc:	d29c71fa 	mov	x26, #0xe38f                	// #58255
  402200:	d28001d3 	mov	x19, #0xe                   	// #14
  402204:	f2b1c71a 	movk	x26, #0x8e38, lsl #16
  402208:	f2c71c7a 	movk	x26, #0x38e3, lsl #32
  40220c:	910303f7 	add	x23, sp, #0xc0
  402210:	9102e3f6 	add	x22, sp, #0xb8
  402214:	f9000ff8 	str	x24, [sp, #24]
  402218:	aa1503f8 	mov	x24, x21
  40221c:	aa1303f5 	mov	x21, x19
  402220:	aa1403f3 	mov	x19, x20
  402224:	910383e0 	add	x0, sp, #0xe0
  402228:	d280001c 	mov	x28, #0x0                   	// #0
  40222c:	d2800019 	mov	x25, #0x0                   	// #0
  402230:	f2fc71da 	movk	x26, #0xe38e, lsl #48
  402234:	f90003e0 	str	x0, [sp]
  402238:	8b1c0f94 	add	x20, x28, x28, lsl #3
  40223c:	aa1903e1 	mov	x1, x25
  402240:	aa1303e0 	mov	x0, x19
  402244:	aa1703e4 	mov	x4, x23
  402248:	8b140f14 	add	x20, x24, x20, lsl #3
  40224c:	aa1603e3 	mov	x3, x22
  402250:	aa1403e2 	mov	x2, x20
  402254:	94000d9f 	bl	4058d0 <__parse_one_specmb>
  402258:	394303e1 	ldrb	w1, [sp, #192]
  40225c:	8b000339 	add	x25, x25, x0
  402260:	37000201 	tbnz	w1, #0, 4022a0 <printf_positional+0x140>
  402264:	f9401293 	ldr	x19, [x20, #32]
  402268:	9100079c 	add	x28, x28, #0x1
  40226c:	39400260 	ldrb	w0, [x19]
  402270:	340004c0 	cbz	w0, 402308 <printf_positional+0x1a8>
  402274:	eb1c02bf 	cmp	x21, x28
  402278:	54fffe01 	b.ne	402238 <printf_positional+0xd8>  // b.any
  40227c:	f94003e0 	ldr	x0, [sp]
  402280:	940041d8 	bl	4129e0 <__libc_scratch_buffer_grow_preserve>
  402284:	360000e0 	tbz	w0, #0, 4022a0 <printf_positional+0x140>
  402288:	a94e03f8 	ldp	x24, x0, [sp, #224]
  40228c:	9bda7c00 	umulh	x0, x0, x26
  402290:	d346fc15 	lsr	x21, x0, #6
  402294:	17ffffe9 	b	402238 <printf_positional+0xd8>
  402298:	aa1903fb 	mov	x27, x25
  40229c:	d503201f 	nop
  4022a0:	b900237f 	str	wzr, [x27, #32]
  4022a4:	f94013e1 	ldr	x1, [sp, #32]
  4022a8:	f9427be0 	ldr	x0, [sp, #1264]
  4022ac:	eb01001f 	cmp	x0, x1
  4022b0:	54000040 	b.eq	4022b8 <printf_positional+0x158>  // b.none
  4022b4:	94003b8b 	bl	4110e0 <__free>
  4022b8:	f94007e1 	ldr	x1, [sp, #8]
  4022bc:	f94073e0 	ldr	x0, [sp, #224]
  4022c0:	eb01001f 	cmp	x0, x1
  4022c4:	54000040 	b.eq	4022cc <printf_positional+0x16c>  // b.none
  4022c8:	94003b86 	bl	4110e0 <__free>
  4022cc:	b0000460 	adrp	x0, 48f000 <tunable_list+0x880>
  4022d0:	f9462c00 	ldr	x0, [x0, #3160]
  4022d4:	f9448fe2 	ldr	x2, [sp, #2328]
  4022d8:	f9400001 	ldr	x1, [x0]
  4022dc:	eb010042 	subs	x2, x2, x1
  4022e0:	d2800001 	mov	x1, #0x0                   	// #0
  4022e4:	5400b841 	b.ne	4039ec <printf_positional+0x188c>  // b.any
  4022e8:	912483ff 	add	sp, sp, #0x920
  4022ec:	a94153f3 	ldp	x19, x20, [sp, #16]
  4022f0:	a9425bf5 	ldp	x21, x22, [sp, #32]
  4022f4:	a94363f7 	ldp	x23, x24, [sp, #48]
  4022f8:	a9446bf9 	ldp	x25, x26, [sp, #64]
  4022fc:	a94573fb 	ldp	x27, x28, [sp, #80]
  402300:	a8c67bfd 	ldp	x29, x30, [sp], #96
  402304:	d65f03c0 	ret
  402308:	f9405fe7 	ldr	x7, [sp, #184]
  40230c:	aa1803f5 	mov	x21, x24
  402310:	f9400ff8 	ldr	x24, [sp, #24]
  402314:	eb1900ff 	cmp	x7, x25
  402318:	9a9920f7 	csel	x23, x7, x25, cs	// cs = hs, nlast
  40231c:	aa1703e1 	mov	x1, x23
  402320:	9113c3e0 	add	x0, sp, #0x4f0
  402324:	d2800302 	mov	x2, #0x18                  	// #24
  402328:	f90027e0 	str	x0, [sp, #72]
  40232c:	940041dd 	bl	412aa0 <__libc_scratch_buffer_set_array_size>
  402330:	12001c01 	and	w1, w0, #0xff
  402334:	b90097e1 	str	w1, [sp, #148]
  402338:	3607fb40 	tbz	w0, #0, 4022a0 <printf_positional+0x140>
  40233c:	f9427be3 	ldr	x3, [sp, #1264]
  402340:	d37ceee0 	lsl	x0, x23, #4
  402344:	b94013e1 	ldr	w1, [sp, #16]
  402348:	d37ef6e2 	lsl	x2, x23, #2
  40234c:	8b000076 	add	x22, x3, x0
  402350:	f9002be0 	str	x0, [sp, #80]
  402354:	721f0021 	ands	w1, w1, #0x2
  402358:	8b0202da 	add	x26, x22, x2
  40235c:	8b020340 	add	x0, x26, x2
  402360:	f90003e2 	str	x2, [sp]
  402364:	f9000fe3 	str	x3, [sp, #24]
  402368:	f90023e0 	str	x0, [sp, #64]
  40236c:	aa1a03e0 	mov	x0, x26
  402370:	b9009fe1 	str	w1, [sp, #156]
  402374:	52801fe1 	mov	w1, #0xff                  	// #255
  402378:	1a9f1021 	csel	w1, w1, wzr, ne	// ne = any
  40237c:	97fff7c9 	bl	4002a0 <.plt+0x30>
  402380:	f94003e2 	ldr	x2, [sp]
  402384:	f9400fe3 	ldr	x3, [sp, #24]
  402388:	b400899c 	cbz	x28, 4034b8 <printf_positional+0x1358>
  40238c:	aa1503f9 	mov	x25, x21
  402390:	d2800004 	mov	x4, #0x0                   	// #0
  402394:	90000ed3 	adrp	x19, 5da000 <_nl_state_lock+0x18>
  402398:	aa0403f4 	mov	x20, x4
  40239c:	f9000ff5 	str	x21, [sp, #24]
  4023a0:	aa1603f5 	mov	x21, x22
  4023a4:	aa1c03f6 	mov	x22, x28
  4023a8:	aa1a03fc 	mov	x28, x26
  4023ac:	aa1803fa 	mov	x26, x24
  4023b0:	aa1703f8 	mov	x24, x23
  4023b4:	aa0303f7 	mov	x23, x3
  4023b8:	1400000b 	b	4023e4 <printf_positional+0x284>
  4023bc:	b9803320 	ldrsw	x0, [x25, #48]
  4023c0:	b9403721 	ldr	w1, [x25, #52]
  4023c4:	b8207b81 	str	w1, [x28, x0, lsl #2]
  4023c8:	b9803320 	ldrsw	x0, [x25, #48]
  4023cc:	b9404321 	ldr	w1, [x25, #64]
  4023d0:	b8207aa1 	str	w1, [x21, x0, lsl #2]
  4023d4:	91000694 	add	x20, x20, #0x1
  4023d8:	91012339 	add	x25, x25, #0x48
  4023dc:	eb16029f 	cmp	x20, x22
  4023e0:	54000340 	b.eq	402448 <printf_positional+0x2e8>  // b.none
  4023e4:	b9402f20 	ldr	w0, [x25, #44]
  4023e8:	3100041f 	cmn	w0, #0x1
  4023ec:	54000040 	b.eq	4023f4 <printf_positional+0x294>  // b.none
  4023f0:	b820db9f 	str	wzr, [x28, w0, sxtw #2]
  4023f4:	b9402b20 	ldr	w0, [x25, #40]
  4023f8:	3100041f 	cmn	w0, #0x1
  4023fc:	54000040 	b.eq	402404 <printf_positional+0x2a4>  // b.none
  402400:	b820db9f 	str	wzr, [x28, w0, sxtw #2]
  402404:	f9401f21 	ldr	x1, [x25, #56]
  402408:	b4fffe61 	cbz	x1, 4023d4 <printf_positional+0x274>
  40240c:	f100043f 	cmp	x1, #0x1
  402410:	54fffd60 	b.eq	4023bc <printf_positional+0x25c>  // b.none
  402414:	f9409e63 	ldr	x3, [x19, #312]
  402418:	aa1903e0 	mov	x0, x25
  40241c:	b9400b26 	ldr	w6, [x25, #8]
  402420:	91000694 	add	x20, x20, #0x1
  402424:	b9803322 	ldrsw	x2, [x25, #48]
  402428:	91012339 	add	x25, x25, #0x48
  40242c:	f8667866 	ldr	x6, [x3, x6, lsl #3]
  402430:	d37ef442 	lsl	x2, x2, #2
  402434:	8b0202a3 	add	x3, x21, x2
  402438:	8b020382 	add	x2, x28, x2
  40243c:	d63f00c0 	blr	x6
  402440:	eb16029f 	cmp	x20, x22
  402444:	54fffd01 	b.ne	4023e4 <printf_positional+0x284>  // b.any
  402448:	f94003e2 	ldr	x2, [sp]
  40244c:	aa1703e3 	mov	x3, x23
  402450:	aa1803f7 	mov	x23, x24
  402454:	aa1a03f8 	mov	x24, x26
  402458:	aa1c03fa 	mov	x26, x28
  40245c:	aa1603fc 	mov	x28, x22
  402460:	aa1503f6 	mov	x22, x21
  402464:	f9400ff5 	ldr	x21, [sp, #24]
  402468:	b40007d7 	cbz	x23, 402560 <printf_positional+0x400>
  40246c:	d2800004 	mov	x4, #0x0                   	// #0
  402470:	d2800019 	mov	x25, #0x0                   	// #0
  402474:	d503201f 	nop
  402478:	b8797b40 	ldr	w0, [x26, x25, lsl #2]
  40247c:	d37ef733 	lsl	x19, x25, #2
  402480:	8b130341 	add	x1, x26, x19
  402484:	71001c1f 	cmp	w0, #0x7
  402488:	540002ac 	b.gt	4024dc <printf_positional+0x37c>
  40248c:	7100141f 	cmp	w0, #0x5
  402490:	5400196c 	b.gt	4027bc <printf_positional+0x65c>
  402494:	7100081f 	cmp	w0, #0x2
  402498:	54000300 	b.eq	4024f8 <printf_positional+0x398>  // b.none
  40249c:	540017cc 	b.gt	402794 <printf_positional+0x634>
  4024a0:	3100041f 	cmn	w0, #0x1
  4024a4:	540003e1 	b.ne	402520 <printf_positional+0x3c0>  // b.any
  4024a8:	b9409fe0 	ldr	w0, [sp, #156]
  4024ac:	34001c40 	cbz	w0, 402834 <printf_positional+0x6d4>
  4024b0:	b0000280 	adrp	x0, 453000 <_Unwind_Find_FDE+0x3f0>
  4024b4:	913ea000 	add	x0, x0, #0xfa8
  4024b8:	9400112a 	bl	406960 <__libc_fatal>
  4024bc:	d2a00000 	movz	x0, #0x0, lsl #16
  4024c0:	f2800300 	movk	x0, #0x18
  4024c4:	d53bd041 	mrs	x1, tpidr_el0
  4024c8:	f8606820 	ldr	x0, [x1, x0]
  4024cc:	f9400000 	ldr	x0, [x0]
  4024d0:	f9402000 	ldr	x0, [x0, #64]
  4024d4:	f90017e0 	str	x0, [sp, #40]
  4024d8:	17ffff46 	b	4021f0 <printf_positional+0x90>
  4024dc:	71041c1f 	cmp	w0, #0x107
  4024e0:	54001820 	b.eq	4027e4 <printf_positional+0x684>  // b.none
  4024e4:	54001d4d 	b.le	40288c <printf_positional+0x72c>
  4024e8:	7108001f 	cmp	w0, #0x200
  4024ec:	54000200 	b.eq	40252c <printf_positional+0x3cc>  // b.none
  4024f0:	7110001f 	cmp	w0, #0x400
  4024f4:	540001a1 	b.ne	402528 <printf_positional+0x3c8>  // b.any
  4024f8:	b9401b01 	ldr	w1, [x24, #24]
  4024fc:	8b040065 	add	x5, x3, x4
  402500:	f9400300 	ldr	x0, [x24]
  402504:	37f84661 	tbnz	w1, #31, 402dd0 <printf_positional+0xc70>
  402508:	91002c01 	add	x1, x0, #0xb
  40250c:	927df021 	and	x1, x1, #0xfffffffffffffff8
  402510:	f9000301 	str	x1, [x24]
  402514:	b9400000 	ldr	w0, [x0]
  402518:	b90000a0 	str	w0, [x5]
  40251c:	1400000d 	b	402550 <printf_positional+0x3f0>
  402520:	7100041f 	cmp	w0, #0x1
  402524:	54fffea9 	b.ls	4024f8 <printf_positional+0x398>  // b.plast
  402528:	36581b60 	tbz	w0, #11, 402894 <printf_positional+0x734>
  40252c:	b9401b01 	ldr	w1, [x24, #24]
  402530:	8b040065 	add	x5, x3, x4
  402534:	f9400300 	ldr	x0, [x24]
  402538:	37f84861 	tbnz	w1, #31, 402e44 <printf_positional+0xce4>
  40253c:	91003c01 	add	x1, x0, #0xf
  402540:	927df021 	and	x1, x1, #0xfffffffffffffff8
  402544:	f9000301 	str	x1, [x24]
  402548:	f9400000 	ldr	x0, [x0]
  40254c:	f90000a0 	str	x0, [x5]
  402550:	91000739 	add	x25, x25, #0x1
  402554:	91004084 	add	x4, x4, #0x10
  402558:	eb17033f 	cmp	x25, x23
  40255c:	54fff8e3 	b.cc	402478 <printf_positional+0x318>  // b.lo, b.ul, b.last
  402560:	b9403be1 	ldr	w1, [sp, #56]
  402564:	93407c38 	sxtw	x24, w1
  402568:	eb1c031f 	cmp	x24, x28
  40256c:	54ffe9c2 	b.cs	4022a4 <printf_positional+0x144>  // b.hs, b.nlast
  402570:	52800906 	mov	w6, #0x48                  	// #72
  402574:	b94013e2 	ldr	w2, [sp, #16]
  402578:	d0000440 	adrp	x0, 48c000 <__FRAME_END__+0x116fc>
  40257c:	aa1b03f9 	mov	x25, x27
  402580:	9b26543a 	smaddl	x26, w1, w6, x21
  402584:	910e8000 	add	x0, x0, #0x3a0
  402588:	12000042 	and	w2, w2, #0x1
  40258c:	aa0303f5 	mov	x21, x3
  402590:	f9001ffc 	str	x28, [sp, #56]
  402594:	aa1a03fc 	mov	x28, x26
  402598:	f90037e0 	str	x0, [sp, #104]
  40259c:	b900afe2 	str	w2, [sp, #172]
  4025a0:	1400001d 	b	402614 <printf_positional+0x4b4>
  4025a4:	f9401f83 	ldr	x3, [x28, #56]
  4025a8:	aa1c03e4 	mov	x4, x28
  4025ac:	b9803382 	ldrsw	x2, [x28, #48]
  4025b0:	aa1903e0 	mov	x0, x25
  4025b4:	b90043e6 	str	w6, [sp, #64]
  4025b8:	b9004bec 	str	w12, [sp, #72]
  4025bc:	8b0212a2 	add	x2, x21, x2, lsl #4
  4025c0:	b90053ea 	str	w10, [sp, #80]
  4025c4:	b9005beb 	str	w11, [sp, #88]
  4025c8:	b90073e5 	str	w5, [sp, #112]
  4025cc:	9400ac7d 	bl	42d7c0 <__printf_function_invoke>
  4025d0:	b94043e6 	ldr	w6, [sp, #64]
  4025d4:	3100081f 	cmn	w0, #0x2
  4025d8:	b9404bec 	ldr	w12, [sp, #72]
  4025dc:	b94053ea 	ldr	w10, [sp, #80]
  4025e0:	b9405beb 	ldr	w11, [sp, #88]
  4025e4:	b94073e5 	ldr	w5, [sp, #112]
  4025e8:	54000660 	b.eq	4026b4 <printf_positional+0x554>  // b.none
  4025ec:	37ffe560 	tbnz	w0, #31, 402298 <printf_positional+0x138>
  4025f0:	a9418b81 	ldp	x1, x2, [x28, #24]
  4025f4:	aa1903e0 	mov	x0, x25
  4025f8:	91000718 	add	x24, x24, #0x1
  4025fc:	9101239c 	add	x28, x28, #0x48
  402600:	cb010042 	sub	x2, x2, x1
  402604:	9400a0e3 	bl	42a990 <__printf_buffer_write>
  402608:	f9401fe0 	ldr	x0, [sp, #56]
  40260c:	eb18001f 	cmp	x0, x24
  402610:	54ffe4a9 	b.ls	4022a4 <printf_positional+0x144>  // b.plast
  402614:	b9402320 	ldr	w0, [x25, #32]
  402618:	34ffe460 	cbz	w0, 4022a4 <printf_positional+0x144>
  40261c:	f9400793 	ldr	x19, [x28, #8]
  402620:	b9400b94 	ldr	w20, [x28, #8]
  402624:	b9402f80 	ldr	w0, [x28, #44]
  402628:	d3649261 	ubfx	x1, x19, #36, #1
  40262c:	f9000fe1 	str	x1, [sp, #24]
  402630:	d3659661 	ubfx	x1, x19, #37, #1
  402634:	f90003e1 	str	x1, [sp]
  402638:	d3669a61 	ubfx	x1, x19, #38, #1
  40263c:	f9000be1 	str	x1, [sp, #16]
  402640:	d3638e66 	ubfx	x6, x19, #35, #1
  402644:	d3679e7b 	ubfx	x27, x19, #39, #1
  402648:	d361866c 	ubfx	x12, x19, #33, #1
  40264c:	d369a66a 	ubfx	x10, x19, #41, #1
  402650:	d3628a7a 	ubfx	x26, x19, #34, #1
  402654:	b940138b 	ldr	w11, [x28, #16]
  402658:	29405b85 	ldp	w5, w22, [x28]
  40265c:	12001e97 	and	w23, w20, #0xff
  402660:	d36bae73 	ubfx	x19, x19, #43, #1
  402664:	3100041f 	cmn	w0, #0x1
  402668:	540000a0 	b.eq	40267c <printf_positional+0x51c>  // b.none
  40266c:	937c7c00 	sbfiz	x0, x0, #4, #32
  402670:	b8606ab6 	ldr	w22, [x21, x0]
  402674:	37f83516 	tbnz	w22, #31, 402d14 <printf_positional+0xbb4>
  402678:	b9000796 	str	w22, [x28, #4]
  40267c:	b9402b80 	ldr	w0, [x28, #40]
  402680:	3100041f 	cmn	w0, #0x1
  402684:	540000c0 	b.eq	40269c <printf_positional+0x53c>  // b.none
  402688:	937c7c00 	sbfiz	x0, x0, #4, #32
  40268c:	b8606aa5 	ldr	w5, [x21, x0]
  402690:	710000bf 	cmp	w5, #0x0
  402694:	5a9fa0a5 	csinv	w5, w5, wzr, ge	// ge = tcont
  402698:	b9000385 	str	w5, [x28]
  40269c:	90000ec0 	adrp	x0, 5da000 <_nl_state_lock+0x18>
  4026a0:	f9409800 	ldr	x0, [x0, #304]
  4026a4:	b4000080 	cbz	x0, 4026b4 <printf_positional+0x554>
  4026a8:	2a1703e1 	mov	w1, w23
  4026ac:	f8617801 	ldr	x1, [x0, x1, lsl #3]
  4026b0:	b5fff7a1 	cbnz	x1, 4025a4 <printf_positional+0x444>
  4026b4:	510082e0 	sub	w0, w23, #0x20
  4026b8:	12001c00 	and	w0, w0, #0xff
  4026bc:	7101681f 	cmp	w0, #0x5a
  4026c0:	54000f69 	b.ls	4028ac <printf_positional+0x74c>  // b.plast
  4026c4:	a9408720 	ldp	x0, x1, [x25, #8]
  4026c8:	eb01001f 	cmp	x0, x1
  4026cc:	54008320 	b.eq	403730 <printf_positional+0x15d0>  // b.none
  4026d0:	91000401 	add	x1, x0, #0x1
  4026d4:	f9000721 	str	x1, [x25, #8]
  4026d8:	528004a1 	mov	w1, #0x25                  	// #37
  4026dc:	39000001 	strb	w1, [x0]
  4026e0:	79401b80 	ldrh	w0, [x28, #12]
  4026e4:	37186240 	tbnz	w0, #3, 40332c <printf_positional+0x11cc>
  4026e8:	373860e0 	tbnz	w0, #7, 403304 <printf_positional+0x11a4>
  4026ec:	37305fa0 	tbnz	w0, #6, 4032e0 <printf_positional+0x1180>
  4026f0:	37206580 	tbnz	w0, #4, 4033a0 <printf_positional+0x1240>
  4026f4:	37287060 	tbnz	w0, #5, 403500 <printf_positional+0x13a0>
  4026f8:	b9401381 	ldr	w1, [x28, #16]
  4026fc:	7100c03f 	cmp	w1, #0x30
  402700:	54007960 	b.eq	40362c <printf_positional+0x14cc>  // b.none
  402704:	79401b80 	ldrh	w0, [x28, #12]
  402708:	37587380 	tbnz	w0, #11, 403578 <printf_positional+0x1418>
  40270c:	b9400780 	ldr	w0, [x28, #4]
  402710:	35007080 	cbnz	w0, 403520 <printf_positional+0x13c0>
  402714:	b9400380 	ldr	w0, [x28]
  402718:	3100041f 	cmn	w0, #0x1
  40271c:	54006640 	b.eq	4033e4 <printf_positional+0x1284>  // b.none
  402720:	a9408720 	ldp	x0, x1, [x25, #8]
  402724:	eb01001f 	cmp	x0, x1
  402728:	54008a00 	b.eq	403868 <printf_positional+0x1708>  // b.none
  40272c:	91000401 	add	x1, x0, #0x1
  402730:	f9000721 	str	x1, [x25, #8]
  402734:	528005c1 	mov	w1, #0x2e                  	// #46
  402738:	39000001 	strb	w1, [x0]
  40273c:	b9800380 	ldrsw	x0, [x28]
  402740:	912453f4 	add	x20, sp, #0x914
  402744:	aa1403e1 	mov	x1, x20
  402748:	52800003 	mov	w3, #0x0                   	// #0
  40274c:	52800142 	mov	w2, #0xa                   	// #10
  402750:	94009e90 	bl	42a190 <_itoa_word>
  402754:	aa0003f3 	mov	x19, x0
  402758:	eb14001f 	cmp	x0, x20
  40275c:	540000e3 	b.cc	402778 <printf_positional+0x618>  // b.lo, b.ul, b.last
  402760:	14000321 	b	4033e4 <printf_positional+0x1284>
  402764:	91000440 	add	x0, x2, #0x1
  402768:	f9000720 	str	x0, [x25, #8]
  40276c:	39000041 	strb	w1, [x2]
  402770:	eb14027f 	cmp	x19, x20
  402774:	54006380 	b.eq	4033e4 <printf_positional+0x1284>  // b.none
  402778:	a9408322 	ldp	x2, x0, [x25, #8]
  40277c:	38401661 	ldrb	w1, [x19], #1
  402780:	eb00005f 	cmp	x2, x0
  402784:	54ffff01 	b.ne	402764 <printf_positional+0x604>  // b.any
  402788:	aa1903e0 	mov	x0, x25
  40278c:	94009fa9 	bl	42a630 <__printf_buffer_putc_1>
  402790:	17fffff8 	b	402770 <printf_positional+0x610>
  402794:	f9400301 	ldr	x1, [x24]
  402798:	8b040066 	add	x6, x3, x4
  40279c:	b9401b05 	ldr	w5, [x24, #24]
  4027a0:	91003c20 	add	x0, x1, #0xf
  4027a4:	927df000 	and	x0, x0, #0xfffffffffffffff8
  4027a8:	37f80385 	tbnz	w5, #31, 402818 <printf_positional+0x6b8>
  4027ac:	f9000300 	str	x0, [x24]
  4027b0:	f9400020 	ldr	x0, [x1]
  4027b4:	f90000c0 	str	x0, [x6]
  4027b8:	17ffff66 	b	402550 <printf_positional+0x3f0>
  4027bc:	b9401f01 	ldr	w1, [x24, #28]
  4027c0:	8b040065 	add	x5, x3, x4
  4027c4:	f9400300 	ldr	x0, [x24]
  4027c8:	37f80461 	tbnz	w1, #31, 402854 <printf_positional+0x6f4>
  4027cc:	91003c01 	add	x1, x0, #0xf
  4027d0:	927df021 	and	x1, x1, #0xfffffffffffffff8
  4027d4:	f9000301 	str	x1, [x24]
  4027d8:	fd400000 	ldr	d0, [x0]
  4027dc:	fd0000a0 	str	d0, [x5]
  4027e0:	17ffff5c 	b	402550 <printf_positional+0x3f0>
  4027e4:	f9400be7 	ldr	x7, [sp, #16]
  4027e8:	8b040066 	add	x6, x3, x4
  4027ec:	f9400305 	ldr	x5, [x24]
  4027f0:	b9401f00 	ldr	w0, [x24, #28]
  4027f4:	37006727 	tbnz	w7, #0, 4034d8 <printf_positional+0x1378>
  4027f8:	37f803c0 	tbnz	w0, #31, 402870 <printf_positional+0x710>
  4027fc:	91003ca5 	add	x5, x5, #0xf
  402800:	927ceca0 	and	x0, x5, #0xfffffffffffffff0
  402804:	91004001 	add	x1, x0, #0x10
  402808:	f9000301 	str	x1, [x24]
  40280c:	3dc00000 	ldr	q0, [x0]
  402810:	3d8000c0 	str	q0, [x6]
  402814:	17ffff4f 	b	402550 <printf_positional+0x3f0>
  402818:	110020a7 	add	w7, w5, #0x8
  40281c:	b9001b07 	str	w7, [x24, #24]
  402820:	710000ff 	cmp	w7, #0x0
  402824:	54fffc4c 	b.gt	4027ac <printf_positional+0x64c>
  402828:	f9400701 	ldr	x1, [x24, #8]
  40282c:	8b25c021 	add	x1, x1, w5, sxtw
  402830:	17ffffe0 	b	4027b0 <printf_positional+0x650>
  402834:	d0000283 	adrp	x3, 454000 <__PRETTY_FUNCTION__.1>
  402838:	b0000281 	adrp	x1, 453000 <_Unwind_Find_FDE+0x3f0>
  40283c:	b0000280 	adrp	x0, 453000 <_Unwind_Find_FDE+0x3f0>
  402840:	91000063 	add	x3, x3, #0x0
  402844:	913da021 	add	x1, x1, #0xf68
  402848:	913e0000 	add	x0, x0, #0xf80
  40284c:	52809ea2 	mov	w2, #0x4f5                 	// #1269
  402850:	940084e0 	bl	423bd0 <__libc_assert_fail>
  402854:	11004026 	add	w6, w1, #0x10
  402858:	b9001f06 	str	w6, [x24, #28]
  40285c:	710000df 	cmp	w6, #0x0
  402860:	54fffb6c 	b.gt	4027cc <printf_positional+0x66c>
  402864:	f9400b00 	ldr	x0, [x24, #16]
  402868:	8b21c000 	add	x0, x0, w1, sxtw
  40286c:	17ffffdb 	b	4027d8 <printf_positional+0x678>
  402870:	11004001 	add	w1, w0, #0x10
  402874:	b9001f01 	str	w1, [x24, #28]
  402878:	7100003f 	cmp	w1, #0x0
  40287c:	54fffc0c 	b.gt	4027fc <printf_positional+0x69c>
  402880:	f9400b01 	ldr	x1, [x24, #16]
  402884:	8b20c020 	add	x0, x1, w0, sxtw
  402888:	17ffffe1 	b	40280c <printf_positional+0x6ac>
  40288c:	7104001f 	cmp	w0, #0x100
  402890:	54ffe4e0 	b.eq	40252c <printf_positional+0x3cc>  // b.none
  402894:	90000ed4 	adrp	x20, 5da000 <_nl_state_lock+0x18>
  402898:	f940a681 	ldr	x1, [x20, #328]
  40289c:	b5007521 	cbnz	x1, 403740 <printf_positional+0x15e0>
  4028a0:	8b040060 	add	x0, x3, x4
  4028a4:	a9007c1f 	stp	xzr, xzr, [x0]
  4028a8:	17ffff2a 	b	402550 <printf_positional+0x3f0>
  4028ac:	12001e94 	and	w20, w20, #0xff
  4028b0:	900002c0 	adrp	x0, 45a000 <__PRETTY_FUNCTION__.0+0x1c0>
  4028b4:	51008294 	sub	w20, w20, #0x20
  4028b8:	91250000 	add	x0, x0, #0x940
  4028bc:	f94037e1 	ldr	x1, [sp, #104]
  4028c0:	2a1a03e4 	mov	w4, w26
  4028c4:	3874c800 	ldrb	w0, [x0, w20, sxtw]
  4028c8:	b90053e6 	str	w6, [sp, #80]
  4028cc:	f8607820 	ldr	x0, [x1, x0, lsl #3]
  4028d0:	d61f0000 	br	x0
  4028d4:	b9803380 	ldrsw	x0, [x28, #48]
  4028d8:	8b0012a0 	add	x0, x21, x0, lsl #4
  4028dc:	f90063e0 	str	x0, [sp, #192]
  4028e0:	b940afe0 	ldr	w0, [sp, #172]
  4028e4:	35006980 	cbnz	w0, 403614 <printf_positional+0x14b4>
  4028e8:	79401b83 	ldrh	w3, [x28, #12]
  4028ec:	d53bd042 	mrs	x2, tpidr_el0
  4028f0:	d2a00001 	movz	x1, #0x0, lsl #16
  4028f4:	f2800401 	movk	x1, #0x20
  4028f8:	b9400b80 	ldr	w0, [x28, #8]
  4028fc:	12137863 	and	w3, w3, #0xffffefff
  402900:	79001b83 	strh	w3, [x28, #12]
  402904:	910303e3 	add	x3, sp, #0xc0
  402908:	121a7800 	and	w0, w0, #0xffffffdf
  40290c:	f8616841 	ldr	x1, [x2, x1]
  402910:	7101041f 	cmp	w0, #0x41
  402914:	aa1c03e2 	mov	x2, x28
  402918:	aa1903e0 	mov	x0, x25
  40291c:	54003961 	b.ne	403048 <printf_positional+0xee8>  // b.any
  402920:	9400ab49 	bl	42d644 <__printf_fphex_l_buffer>
  402924:	17ffff33 	b	4025f0 <printf_positional+0x490>
  402928:	340043da 	cbz	w26, 4031a0 <printf_positional+0x1040>
  40292c:	f9006fff 	str	xzr, [sp, #216]
  402930:	912423f3 	add	x19, sp, #0x908
  402934:	aa1303e0 	mov	x0, x19
  402938:	910363e2 	add	x2, sp, #0xd8
  40293c:	b9803381 	ldrsw	x1, [x28, #48]
  402940:	d37cec21 	lsl	x1, x1, #4
  402944:	b8616aa1 	ldr	w1, [x21, x1]
  402948:	94004b4a 	bl	415670 <__wcrtomb>
  40294c:	aa0003f4 	mov	x20, x0
  402950:	b100041f 	cmn	x0, #0x1
  402954:	54ffca20 	b.eq	402298 <printf_positional+0x138>  // b.none
  402958:	4b0002d6 	sub	w22, w22, w0
  40295c:	b94003e0 	ldr	w0, [sp]
  402960:	35004500 	cbnz	w0, 403200 <printf_positional+0x10a0>
  402964:	710002df 	cmp	w22, #0x0
  402968:	540000ad 	b.le	40297c <printf_positional+0x81c>
  40296c:	2a1603e2 	mov	w2, w22
  402970:	aa1903e0 	mov	x0, x25
  402974:	52800401 	mov	w1, #0x20                  	// #32
  402978:	94009f02 	bl	42a580 <__printf_buffer_pad_1>
  40297c:	aa1403e2 	mov	x2, x20
  402980:	aa1303e1 	mov	x1, x19
  402984:	aa1903e0 	mov	x0, x25
  402988:	9400a002 	bl	42a990 <__printf_buffer_write>
  40298c:	17ffff19 	b	4025f0 <printf_positional+0x490>
  402990:	b9803380 	ldrsw	x0, [x28, #48]
  402994:	5200035a 	eor	w26, w26, #0x1
  402998:	d37cec00 	lsl	x0, x0, #4
  40299c:	f8606ab4 	ldr	x20, [x21, x0]
  4029a0:	b5003254 	cbnz	x20, 402fe8 <printf_positional+0xe88>
  4029a4:	710014bf 	cmp	w5, #0x5
  4029a8:	3a41d8a4 	ccmn	w5, #0x1, #0x4, le
  4029ac:	54004d41 	b.ne	403354 <printf_positional+0x11f4>  // b.any
  4029b0:	d0000294 	adrp	x20, 454000 <__PRETTY_FUNCTION__.1>
  4029b4:	528000c1 	mov	w1, #0x6                   	// #6
  4029b8:	91006294 	add	x20, x20, #0x18
  4029bc:	d28000d7 	mov	x23, #0x6                   	// #6
  4029c0:	14000194 	b	403010 <printf_positional+0xeb0>
  4029c4:	b90043e6 	str	w6, [sp, #64]
  4029c8:	b9004beb 	str	w11, [sp, #72]
  4029cc:	b9005be5 	str	w5, [sp, #88]
  4029d0:	350044a6 	cbnz	w6, 403264 <printf_positional+0x1104>
  4029d4:	f9401be1 	ldr	x1, [sp, #48]
  4029d8:	d2807d02 	mov	x2, #0x3e8                 	// #1000
  4029dc:	b94983e0 	ldr	w0, [sp, #2432]
  4029e0:	94004064 	bl	412b70 <__strerror_r>
  4029e4:	aa0003f4 	mov	x20, x0
  4029e8:	b94043e6 	ldr	w6, [sp, #64]
  4029ec:	b9404beb 	ldr	w11, [sp, #72]
  4029f0:	b9405be5 	ldr	w5, [sp, #88]
  4029f4:	b94097fa 	ldr	w26, [sp, #148]
  4029f8:	b5002f94 	cbnz	x20, 402fe8 <printf_positional+0xe88>
  4029fc:	52800141 	mov	w1, #0xa                   	// #10
  402a00:	b90043e1 	str	w1, [sp, #64]
  402a04:	b94983e1 	ldr	w1, [sp, #2432]
  402a08:	52800004 	mov	w4, #0x0                   	// #0
  402a0c:	b98983e0 	ldrsw	x0, [sp, #2432]
  402a10:	f90027e0 	str	x0, [sp, #72]
  402a14:	36f804c1 	tbz	w1, #31, 402aac <printf_positional+0x94c>
  402a18:	cb0003e0 	neg	x0, x0
  402a1c:	52800024 	mov	w4, #0x1                   	// #1
  402a20:	f90027e0 	str	x0, [sp, #72]
  402a24:	14000022 	b	402aac <printf_positional+0x94c>
  402a28:	b9409fe0 	ldr	w0, [sp, #156]
  402a2c:	340015a0 	cbz	w0, 402ce0 <printf_positional+0xb80>
  402a30:	b94067e0 	ldr	w0, [sp, #100]
  402a34:	34005d60 	cbz	w0, 4035e0 <printf_positional+0x1480>
  402a38:	b94067e0 	ldr	w0, [sp, #100]
  402a3c:	36f81520 	tbz	w0, #31, 402ce0 <printf_positional+0xb80>
  402a40:	b0000280 	adrp	x0, 453000 <_Unwind_Find_FDE+0x3f0>
  402a44:	913f4000 	add	x0, x0, #0xfd0
  402a48:	94000fc6 	bl	406960 <__libc_fatal>
  402a4c:	b9803380 	ldrsw	x0, [x28, #48]
  402a50:	d37cec00 	lsl	x0, x0, #4
  402a54:	f8606aa0 	ldr	x0, [x21, x0]
  402a58:	b4004880 	cbz	x0, 403368 <printf_positional+0x1208>
  402a5c:	f90027e0 	str	x0, [sp, #72]
  402a60:	52800020 	mov	w0, #0x1                   	// #1
  402a64:	b94097e6 	ldr	w6, [sp, #148]
  402a68:	52800f17 	mov	w23, #0x78                  	// #120
  402a6c:	5280001b 	mov	w27, #0x0                   	// #0
  402a70:	52800004 	mov	w4, #0x0                   	// #0
  402a74:	b90053e0 	str	w0, [sp, #80]
  402a78:	52800200 	mov	w0, #0x10                  	// #16
  402a7c:	b90043e0 	str	w0, [sp, #64]
  402a80:	1400000b 	b	402aac <printf_positional+0x94c>
  402a84:	52800140 	mov	w0, #0xa                   	// #10
  402a88:	b90043e0 	str	w0, [sp, #64]
  402a8c:	b9803380 	ldrsw	x0, [x28, #48]
  402a90:	d37cec00 	lsl	x0, x0, #4
  402a94:	34001e7a 	cbz	w26, 402e60 <printf_positional+0xd00>
  402a98:	f8606aa0 	ldr	x0, [x21, x0]
  402a9c:	52800004 	mov	w4, #0x0                   	// #0
  402aa0:	b90013ff 	str	wzr, [sp, #16]
  402aa4:	b9001bff 	str	wzr, [sp, #24]
  402aa8:	f90027e0 	str	x0, [sp, #72]
  402aac:	f9401be0 	ldr	x0, [sp, #48]
  402ab0:	910fa000 	add	x0, x0, #0x3e8
  402ab4:	f9002fe0 	str	x0, [sp, #88]
  402ab8:	710000bf 	cmp	w5, #0x0
  402abc:	5400254b 	b.lt	402f64 <printf_positional+0xe04>  // b.tstop
  402ac0:	54001960 	b.eq	402dec <printf_positional+0xc8c>  // b.none
  402ac4:	93407cb4 	sxtw	x20, w5
  402ac8:	52800400 	mov	w0, #0x20                  	// #32
  402acc:	b9009be0 	str	w0, [sp, #152]
  402ad0:	f94027e0 	ldr	x0, [sp, #72]
  402ad4:	710162ff 	cmp	w23, #0x58
  402ad8:	b94043e2 	ldr	w2, [sp, #64]
  402adc:	1a9f17e3 	cset	w3, eq	// eq = none
  402ae0:	f9402ffa 	ldr	x26, [sp, #88]
  402ae4:	b90083e6 	str	w6, [sp, #128]
  402ae8:	b9008be4 	str	w4, [sp, #136]
  402aec:	aa1a03e1 	mov	x1, x26
  402af0:	b90093e5 	str	w5, [sp, #144]
  402af4:	94009da7 	bl	42a190 <_itoa_word>
  402af8:	cb00035a 	sub	x26, x26, x0
  402afc:	b94083e6 	ldr	w6, [sp, #128]
  402b00:	b9408be4 	ldr	w4, [sp, #136]
  402b04:	b94093e5 	ldr	w5, [sp, #144]
  402b08:	f9003be0 	str	x0, [sp, #112]
  402b0c:	b94043e0 	ldr	w0, [sp, #64]
  402b10:	7100281f 	cmp	w0, #0xa
  402b14:	1a9f17e0 	cset	w0, eq	// eq = none
  402b18:	0a000273 	and	w19, w19, w0
  402b1c:	35001b1b 	cbnz	w27, 402e7c <printf_positional+0xd1c>
  402b20:	34002113 	cbz	w19, 402f40 <printf_positional+0xde0>
  402b24:	2a1a03e1 	mov	w1, w26
  402b28:	910303e0 	add	x0, sp, #0xc0
  402b2c:	b90083e6 	str	w6, [sp, #128]
  402b30:	b9008be4 	str	w4, [sp, #136]
  402b34:	b90093e5 	str	w5, [sp, #144]
  402b38:	94009e12 	bl	42a380 <__grouping_iterator_init_none>
  402b3c:	d2a00000 	movz	x0, #0x0, lsl #16
  402b40:	f2800400 	movk	x0, #0x20
  402b44:	d53bd043 	mrs	x3, tpidr_el0
  402b48:	f9402fe2 	ldr	x2, [sp, #88]
  402b4c:	f9403be1 	ldr	x1, [sp, #112]
  402b50:	f8606860 	ldr	x0, [x3, x0]
  402b54:	9400acff 	bl	42df50 <__translated_number_width>
  402b58:	2a0003fb 	mov	w27, w0
  402b5c:	b94093e5 	ldr	w5, [sp, #144]
  402b60:	eb1a028a 	subs	x10, x20, x26
  402b64:	9a9f514a 	csel	x10, x10, xzr, pl	// pl = nfrst
  402b68:	b94083e6 	ldr	w6, [sp, #128]
  402b6c:	6b05001f 	cmp	w0, w5
  402b70:	b9408be4 	ldr	w4, [sp, #136]
  402b74:	2a0a03f4 	mov	w20, w10
  402b78:	2a1303e3 	mov	w3, w19
  402b7c:	1a9fb7e1 	cset	w1, ge	// ge = tcont
  402b80:	f94027e0 	ldr	x0, [sp, #72]
  402b84:	52800005 	mov	w5, #0x0                   	// #0
  402b88:	f100001f 	cmp	x0, #0x0
  402b8c:	1a9f07e0 	cset	w0, ne	// ne = any
  402b90:	7100001f 	cmp	w0, #0x0
  402b94:	7a401824 	ccmp	w1, #0x0, #0x4, ne	// ne = any
  402b98:	54001c81 	b.ne	402f28 <printf_positional+0xdc8>  // b.any
  402b9c:	0a060009 	and	w9, w0, w6
  402ba0:	b94003e0 	ldr	w0, [sp]
  402ba4:	35000c80 	cbnz	w0, 402d34 <printf_positional+0xbd4>
  402ba8:	0b140362 	add	w2, w27, w20
  402bac:	1200013b 	and	w27, w9, #0x1
  402bb0:	4b0202c2 	sub	w2, w22, w2
  402bb4:	35002ca9 	cbnz	w9, 403148 <printf_positional+0xfe8>
  402bb8:	b9401be0 	ldr	w0, [sp, #24]
  402bbc:	4b050042 	sub	w2, w2, w5
  402bc0:	b94013e1 	ldr	w1, [sp, #16]
  402bc4:	2a000080 	orr	w0, w4, w0
  402bc8:	2a010000 	orr	w0, w0, w1
  402bcc:	35001e60 	cbnz	w0, 402f98 <printf_positional+0xe38>
  402bd0:	b9409be0 	ldr	w0, [sp, #152]
  402bd4:	7100801f 	cmp	w0, #0x20
  402bd8:	540045a0 	b.eq	40348c <printf_positional+0x132c>  // b.none
  402bdc:	0b020294 	add	w20, w20, w2
  402be0:	350028fb 	cbnz	w27, 4030fc <printf_positional+0xf9c>
  402be4:	7100029f 	cmp	w20, #0x0
  402be8:	5400016c 	b.gt	402c14 <printf_positional+0xab4>
  402bec:	35000265 	cbnz	w5, 402c38 <printf_positional+0xad8>
  402bf0:	36000343 	tbz	w3, #0, 402c58 <printf_positional+0xaf8>
  402bf4:	f94017e4 	ldr	x4, [sp, #40]
  402bf8:	2a1303e5 	mov	w5, w19
  402bfc:	f9402fe3 	ldr	x3, [sp, #88]
  402c00:	910303e1 	add	x1, sp, #0xc0
  402c04:	f9403be2 	ldr	x2, [sp, #112]
  402c08:	aa1903e0 	mov	x0, x25
  402c0c:	97fffd0e 	bl	402044 <group_number>
  402c10:	17fffe78 	b	4025f0 <printf_positional+0x490>
  402c14:	2a1403e2 	mov	w2, w20
  402c18:	aa1903e0 	mov	x0, x25
  402c1c:	52800601 	mov	w1, #0x30                  	// #48
  402c20:	b90003e5 	str	w5, [sp]
  402c24:	b90013e3 	str	w3, [sp, #16]
  402c28:	94009e56 	bl	42a580 <__printf_buffer_pad_1>
  402c2c:	b94003e5 	ldr	w5, [sp]
  402c30:	b94013e3 	ldr	w3, [sp, #16]
  402c34:	34fffde5 	cbz	w5, 402bf0 <printf_positional+0xa90>
  402c38:	a9408720 	ldp	x0, x1, [x25, #8]
  402c3c:	eb01001f 	cmp	x0, x1
  402c40:	54005140 	b.eq	403668 <printf_positional+0x1508>  // b.none
  402c44:	91000401 	add	x1, x0, #0x1
  402c48:	f9000721 	str	x1, [x25, #8]
  402c4c:	52800601 	mov	w1, #0x30                  	// #48
  402c50:	39000001 	strb	w1, [x0]
  402c54:	3707fd03 	tbnz	w3, #0, 402bf4 <printf_positional+0xa94>
  402c58:	f9403be1 	ldr	x1, [sp, #112]
  402c5c:	aa1a03e2 	mov	x2, x26
  402c60:	aa1903e0 	mov	x0, x25
  402c64:	94009f4b 	bl	42a990 <__printf_buffer_write>
  402c68:	17fffe62 	b	4025f0 <printf_positional+0x490>
  402c6c:	b9803380 	ldrsw	x0, [x28, #48]
  402c70:	d37cec00 	lsl	x0, x0, #4
  402c74:	3500307a 	cbnz	w26, 403280 <printf_positional+0x1120>
  402c78:	b8606aa0 	ldr	w0, [x21, x0]
  402c7c:	340048ea 	cbz	w10, 403598 <printf_positional+0x1438>
  402c80:	93401c00 	sxtb	x0, w0
  402c84:	b7f841e0 	tbnz	x0, #63, 4034c0 <printf_positional+0x1360>
  402c88:	52800004 	mov	w4, #0x0                   	// #0
  402c8c:	f90027e0 	str	x0, [sp, #72]
  402c90:	52800140 	mov	w0, #0xa                   	// #10
  402c94:	b90043e0 	str	w0, [sp, #64]
  402c98:	17ffff85 	b	402aac <printf_positional+0x94c>
  402c9c:	a9408720 	ldp	x0, x1, [x25, #8]
  402ca0:	eb01001f 	cmp	x0, x1
  402ca4:	54004ee0 	b.eq	403680 <printf_positional+0x1520>  // b.none
  402ca8:	91000401 	add	x1, x0, #0x1
  402cac:	f9000721 	str	x1, [x25, #8]
  402cb0:	528004a1 	mov	w1, #0x25                  	// #37
  402cb4:	39000001 	strb	w1, [x0]
  402cb8:	17fffe4e 	b	4025f0 <printf_positional+0x490>
  402cbc:	52800200 	mov	w0, #0x10                  	// #16
  402cc0:	b90043e0 	str	w0, [sp, #64]
  402cc4:	17ffff72 	b	402a8c <printf_positional+0x92c>
  402cc8:	52800100 	mov	w0, #0x8                   	// #8
  402ccc:	b90043e0 	str	w0, [sp, #64]
  402cd0:	17ffff6f 	b	402a8c <printf_positional+0x92c>
  402cd4:	52800040 	mov	w0, #0x2                   	// #2
  402cd8:	b90043e0 	str	w0, [sp, #64]
  402cdc:	17ffff6c 	b	402a8c <printf_positional+0x92c>
  402ce0:	b9803381 	ldrsw	x1, [x28, #48]
  402ce4:	aa1903e0 	mov	x0, x25
  402ce8:	b90003ec 	str	w12, [sp]
  402cec:	b90013ea 	str	w10, [sp, #16]
  402cf0:	d37cec21 	lsl	x1, x1, #4
  402cf4:	f8616ab3 	ldr	x19, [x21, x1]
  402cf8:	94009e06 	bl	42a510 <__printf_buffer_done>
  402cfc:	b94003ec 	ldr	w12, [sp]
  402d00:	b94013ea 	ldr	w10, [sp, #16]
  402d04:	35002cda 	cbnz	w26, 40329c <printf_positional+0x113c>
  402d08:	3400452a 	cbz	w10, 4035ac <printf_positional+0x144c>
  402d0c:	39000260 	strb	w0, [x19]
  402d10:	17fffe38 	b	4025f0 <printf_positional+0x490>
  402d14:	79401b80 	ldrh	w0, [x28, #12]
  402d18:	52800021 	mov	w1, #0x1                   	// #1
  402d1c:	b90003e1 	str	w1, [sp]
  402d20:	4b1603f6 	neg	w22, w22
  402d24:	321b0000 	orr	w0, w0, #0x20
  402d28:	b9000796 	str	w22, [x28, #4]
  402d2c:	79001b80 	strh	w0, [x28, #12]
  402d30:	17fffe53 	b	40267c <printf_positional+0x51c>
  402d34:	35001aa4 	cbnz	w4, 403088 <printf_positional+0xf28>
  402d38:	b94013e0 	ldr	w0, [sp, #16]
  402d3c:	35003680 	cbnz	w0, 40340c <printf_positional+0x12ac>
  402d40:	b9401be0 	ldr	w0, [sp, #24]
  402d44:	35002b20 	cbnz	w0, 4032a8 <printf_positional+0x1148>
  402d48:	35001b29 	cbnz	w9, 4030ac <printf_positional+0xf4c>
  402d4c:	0b140374 	add	w20, w27, w20
  402d50:	92407d42 	and	x2, x10, #0xffffffff
  402d54:	34001125 	cbz	w5, 402f78 <printf_positional+0xe18>
  402d58:	b40000c2 	cbz	x2, 402d70 <printf_positional+0xc10>
  402d5c:	aa1903e0 	mov	x0, x25
  402d60:	52800601 	mov	w1, #0x30                  	// #48
  402d64:	b90003e3 	str	w3, [sp]
  402d68:	94009e06 	bl	42a580 <__printf_buffer_pad_1>
  402d6c:	b94003e3 	ldr	w3, [sp]
  402d70:	a9408720 	ldp	x0, x1, [x25, #8]
  402d74:	eb01001f 	cmp	x0, x1
  402d78:	54004d00 	b.eq	403718 <printf_positional+0x15b8>  // b.none
  402d7c:	91000401 	add	x1, x0, #0x1
  402d80:	f9000721 	str	x1, [x25, #8]
  402d84:	52800601 	mov	w1, #0x30                  	// #48
  402d88:	39000001 	strb	w1, [x0]
  402d8c:	510006c8 	sub	w8, w22, #0x1
  402d90:	4b140114 	sub	w20, w8, w20
  402d94:	36000f83 	tbz	w3, #0, 402f84 <printf_positional+0xe24>
  402d98:	f94017e4 	ldr	x4, [sp, #40]
  402d9c:	2a1303e5 	mov	w5, w19
  402da0:	f9402fe3 	ldr	x3, [sp, #88]
  402da4:	910303e1 	add	x1, sp, #0xc0
  402da8:	f9403be2 	ldr	x2, [sp, #112]
  402dac:	aa1903e0 	mov	x0, x25
  402db0:	97fffca5 	bl	402044 <group_number>
  402db4:	7100029f 	cmp	w20, #0x0
  402db8:	54ffc1cd 	b.le	4025f0 <printf_positional+0x490>
  402dbc:	93407e82 	sxtw	x2, w20
  402dc0:	aa1903e0 	mov	x0, x25
  402dc4:	52800401 	mov	w1, #0x20                  	// #32
  402dc8:	94009dee 	bl	42a580 <__printf_buffer_pad_1>
  402dcc:	17fffe09 	b	4025f0 <printf_positional+0x490>
  402dd0:	11002026 	add	w6, w1, #0x8
  402dd4:	b9001b06 	str	w6, [x24, #24]
  402dd8:	710000df 	cmp	w6, #0x0
  402ddc:	54ffb96c 	b.gt	402508 <printf_positional+0x3a8>
  402de0:	f9400700 	ldr	x0, [x24, #8]
  402de4:	8b21c000 	add	x0, x0, w1, sxtw
  402de8:	17fffdcb 	b	402514 <printf_positional+0x3b4>
  402dec:	f94027e0 	ldr	x0, [sp, #72]
  402df0:	b5000f40 	cbnz	x0, 402fd8 <printf_positional+0xe78>
  402df4:	b94043e0 	ldr	w0, [sp, #64]
  402df8:	b94053e2 	ldr	w2, [sp, #80]
  402dfc:	7100201f 	cmp	w0, #0x8
  402e00:	1a9f17e0 	cset	w0, eq	// eq = none
  402e04:	0a000041 	and	w1, w2, w0
  402e08:	6a00005f 	tst	w2, w0
  402e0c:	540021e0 	b.eq	403248 <printf_positional+0x10e8>  // b.none
  402e10:	f9401be2 	ldr	x2, [sp, #48]
  402e14:	52800600 	mov	w0, #0x30                  	// #48
  402e18:	390f9c40 	strb	w0, [x2, #999]
  402e1c:	910f9c40 	add	x0, x2, #0x3e7
  402e20:	f9003be0 	str	x0, [sp, #112]
  402e24:	3500451b 	cbnz	w27, 4036c4 <printf_positional+0x1564>
  402e28:	52800400 	mov	w0, #0x20                  	// #32
  402e2c:	5280003b 	mov	w27, #0x1                   	// #1
  402e30:	52800014 	mov	w20, #0x0                   	// #0
  402e34:	d280000a 	mov	x10, #0x0                   	// #0
  402e38:	d280003a 	mov	x26, #0x1                   	// #1
  402e3c:	b9009be0 	str	w0, [sp, #152]
  402e40:	14000046 	b	402f58 <printf_positional+0xdf8>
  402e44:	11002026 	add	w6, w1, #0x8
  402e48:	b9001b06 	str	w6, [x24, #24]
  402e4c:	710000df 	cmp	w6, #0x0
  402e50:	54ffb76c 	b.gt	40253c <printf_positional+0x3dc>
  402e54:	f9400700 	ldr	x0, [x24, #8]
  402e58:	8b21c000 	add	x0, x0, w1, sxtw
  402e5c:	17fffdbb 	b	402548 <printf_positional+0x3e8>
  402e60:	b8606aa0 	ldr	w0, [x21, x0]
  402e64:	34000f6a 	cbz	w10, 403050 <printf_positional+0xef0>
  402e68:	92401c00 	and	x0, x0, #0xff
  402e6c:	b90013ff 	str	wzr, [sp, #16]
  402e70:	b9001bff 	str	wzr, [sp, #24]
  402e74:	f90027e0 	str	x0, [sp, #72]
  402e78:	17ffff0d 	b	402aac <printf_positional+0x94c>
  402e7c:	d2a0000b 	movz	x11, #0x0, lsl #16
  402e80:	f280040b 	movk	x11, #0x20
  402e84:	d53bd04c 	mrs	x12, tpidr_el0
  402e88:	2a1a03e3 	mov	w3, w26
  402e8c:	910303e0 	add	x0, sp, #0xc0
  402e90:	52800021 	mov	w1, #0x1                   	// #1
  402e94:	a9082fec 	stp	x12, x11, [sp, #128]
  402e98:	2a1a03fb 	mov	w27, w26
  402e9c:	f86b6982 	ldr	x2, [x12, x11]
  402ea0:	b90093e6 	str	w6, [sp, #144]
  402ea4:	b900a3e4 	str	w4, [sp, #160]
  402ea8:	b900abe5 	str	w5, [sp, #168]
  402eac:	94009d3d 	bl	42a3a0 <__grouping_iterator_init>
  402eb0:	eb1a028a 	subs	x10, x20, x26
  402eb4:	b94093e6 	ldr	w6, [sp, #144]
  402eb8:	9a9f514a 	csel	x10, x10, xzr, pl	// pl = nfrst
  402ebc:	b940a3e4 	ldr	w4, [sp, #160]
  402ec0:	a9482fec 	ldp	x12, x11, [sp, #128]
  402ec4:	2a0a03f4 	mov	w20, w10
  402ec8:	b940abe5 	ldr	w5, [sp, #168]
  402ecc:	350014f3 	cbnz	w19, 403168 <printf_positional+0x1008>
  402ed0:	52800013 	mov	w19, #0x0                   	// #0
  402ed4:	f94017e0 	ldr	x0, [sp, #40]
  402ed8:	b90083e6 	str	w6, [sp, #128]
  402edc:	b9008be4 	str	w4, [sp, #136]
  402ee0:	b90093e5 	str	w5, [sp, #144]
  402ee4:	f90053ea 	str	x10, [sp, #160]
  402ee8:	97fff4f2 	bl	4002b0 <.plt+0x40>
  402eec:	b940d7e1 	ldr	w1, [sp, #212]
  402ef0:	29520fe5 	ldp	w5, w3, [sp, #144]
  402ef4:	f94053ea 	ldr	x10, [sp, #160]
  402ef8:	1b006c3b 	madd	w27, w1, w0, w27
  402efc:	f94027e0 	ldr	x0, [sp, #72]
  402f00:	6b05037f 	cmp	w27, w5
  402f04:	1a9fb7e1 	cset	w1, ge	// ge = tcont
  402f08:	b94083e6 	ldr	w6, [sp, #128]
  402f0c:	f100001f 	cmp	x0, #0x0
  402f10:	b9408be4 	ldr	w4, [sp, #136]
  402f14:	1a9f07e0 	cset	w0, ne	// ne = any
  402f18:	52800005 	mov	w5, #0x0                   	// #0
  402f1c:	7100001f 	cmp	w0, #0x0
  402f20:	7a401824 	ccmp	w1, #0x0, #0x4, ne	// ne = any
  402f24:	54ffe3c0 	b.eq	402b9c <printf_positional+0xa3c>  // b.none
  402f28:	b94043e1 	ldr	w1, [sp, #64]
  402f2c:	7100203f 	cmp	w1, #0x8
  402f30:	b94053e1 	ldr	w1, [sp, #80]
  402f34:	1a9f17e5 	cset	w5, eq	// eq = none
  402f38:	0a050025 	and	w5, w1, w5
  402f3c:	17ffff18 	b	402b9c <printf_positional+0xa3c>
  402f40:	6b1a00bf 	cmp	w5, w26
  402f44:	2a1a03fb 	mov	w27, w26
  402f48:	1a9fc7e1 	cset	w1, le
  402f4c:	eb1a028a 	subs	x10, x20, x26
  402f50:	9a9f514a 	csel	x10, x10, xzr, pl	// pl = nfrst
  402f54:	2a0a03f4 	mov	w20, w10
  402f58:	52800003 	mov	w3, #0x0                   	// #0
  402f5c:	52800013 	mov	w19, #0x0                   	// #0
  402f60:	17ffff08 	b	402b80 <printf_positional+0xa20>
  402f64:	12001d60 	and	w0, w11, #0xff
  402f68:	d2800034 	mov	x20, #0x1                   	// #1
  402f6c:	2a1403e5 	mov	w5, w20
  402f70:	b9009be0 	str	w0, [sp, #152]
  402f74:	17fffed7 	b	402ad0 <printf_positional+0x970>
  402f78:	b50015a2 	cbnz	x2, 40322c <printf_positional+0x10cc>
  402f7c:	4b1402d4 	sub	w20, w22, w20
  402f80:	3707f0c3 	tbnz	w3, #0, 402d98 <printf_positional+0xc38>
  402f84:	f9403be1 	ldr	x1, [sp, #112]
  402f88:	aa1a03e2 	mov	x2, x26
  402f8c:	aa1903e0 	mov	x0, x25
  402f90:	94009e80 	bl	42a990 <__printf_buffer_write>
  402f94:	17ffff88 	b	402db4 <printf_positional+0xc54>
  402f98:	b9409be0 	ldr	w0, [sp, #152]
  402f9c:	51000442 	sub	w2, w2, #0x1
  402fa0:	7100801f 	cmp	w0, #0x20
  402fa4:	540025a0 	b.eq	403458 <printf_positional+0x12f8>  // b.none
  402fa8:	0b020294 	add	w20, w20, w2
  402fac:	350005e4 	cbnz	w4, 403068 <printf_positional+0xf08>
  402fb0:	b94013e0 	ldr	w0, [sp, #16]
  402fb4:	34003020 	cbz	w0, 4035b8 <printf_positional+0x1458>
  402fb8:	a9408720 	ldp	x0, x1, [x25, #8]
  402fbc:	eb01001f 	cmp	x0, x1
  402fc0:	54002020 	b.eq	4033c4 <printf_positional+0x1264>  // b.none
  402fc4:	91000401 	add	x1, x0, #0x1
  402fc8:	f9000721 	str	x1, [x25, #8]
  402fcc:	52800561 	mov	w1, #0x2b                  	// #43
  402fd0:	39000001 	strb	w1, [x0]
  402fd4:	17ffff03 	b	402be0 <printf_positional+0xa80>
  402fd8:	52800400 	mov	w0, #0x20                  	// #32
  402fdc:	d2800014 	mov	x20, #0x0                   	// #0
  402fe0:	b9009be0 	str	w0, [sp, #152]
  402fe4:	17fffebb 	b	402ad0 <printf_positional+0x970>
  402fe8:	71014eff 	cmp	w23, #0x53
  402fec:	7a401b44 	ccmp	w26, #0x0, #0x4, ne	// ne = any
  402ff0:	54001ca0 	b.eq	403384 <printf_positional+0x1224>  // b.none
  402ff4:	310004bf 	cmn	w5, #0x1
  402ff8:	540016a0 	b.eq	4032cc <printf_positional+0x116c>  // b.none
  402ffc:	93407ca1 	sxtw	x1, w5
  403000:	aa1403e0 	mov	x0, x20
  403004:	9400405f 	bl	413180 <__strnlen>
  403008:	aa0003f7 	mov	x23, x0
  40300c:	2a0003e1 	mov	w1, w0
  403010:	6b0102d6 	subs	w22, w22, w1
  403014:	54000104 	b.mi	403034 <printf_positional+0xed4>  // b.first
  403018:	b94003e0 	ldr	w0, [sp]
  40301c:	350020a0 	cbnz	w0, 403430 <printf_positional+0x12d0>
  403020:	340000b6 	cbz	w22, 403034 <printf_positional+0xed4>
  403024:	2a1603e2 	mov	w2, w22
  403028:	aa1903e0 	mov	x0, x25
  40302c:	52800401 	mov	w1, #0x20                  	// #32
  403030:	94009d54 	bl	42a580 <__printf_buffer_pad_1>
  403034:	aa1703e2 	mov	x2, x23
  403038:	aa1403e1 	mov	x1, x20
  40303c:	aa1903e0 	mov	x0, x25
  403040:	94009e54 	bl	42a990 <__printf_buffer_write>
  403044:	17fffd6b 	b	4025f0 <printf_positional+0x490>
  403048:	9400a59a 	bl	42c6b0 <__printf_fp_l_buffer>
  40304c:	17fffd69 	b	4025f0 <printf_positional+0x490>
  403050:	350011cc 	cbnz	w12, 403288 <printf_positional+0x1128>
  403054:	2a0003e0 	mov	w0, w0
  403058:	b90013ff 	str	wzr, [sp, #16]
  40305c:	b9001bff 	str	wzr, [sp, #24]
  403060:	f90027e0 	str	x0, [sp, #72]
  403064:	17fffe92 	b	402aac <printf_positional+0x94c>
  403068:	a9408720 	ldp	x0, x1, [x25, #8]
  40306c:	eb01001f 	cmp	x0, x1
  403070:	54002ec0 	b.eq	403648 <printf_positional+0x14e8>  // b.none
  403074:	91000401 	add	x1, x0, #0x1
  403078:	f9000721 	str	x1, [x25, #8]
  40307c:	528005a1 	mov	w1, #0x2d                  	// #45
  403080:	39000001 	strb	w1, [x0]
  403084:	17fffed7 	b	402be0 <printf_positional+0xa80>
  403088:	a9408720 	ldp	x0, x1, [x25, #8]
  40308c:	eb01001f 	cmp	x0, x1
  403090:	54003000 	b.eq	403690 <printf_positional+0x1530>  // b.none
  403094:	91000401 	add	x1, x0, #0x1
  403098:	f9000721 	str	x1, [x25, #8]
  40309c:	510006d6 	sub	w22, w22, #0x1
  4030a0:	528005a1 	mov	w1, #0x2d                  	// #45
  4030a4:	39000001 	strb	w1, [x0]
  4030a8:	17ffff28 	b	402d48 <printf_positional+0xbe8>
  4030ac:	b94043e0 	ldr	w0, [sp, #64]
  4030b0:	51000801 	sub	w1, w0, #0x2
  4030b4:	d2880020 	mov	x0, #0x4001                	// #16385
  4030b8:	9ac12400 	lsr	x0, x0, x1
  4030bc:	3607e480 	tbz	w0, #0, 402d4c <printf_positional+0xbec>
  4030c0:	a9408720 	ldp	x0, x1, [x25, #8]
  4030c4:	eb01001f 	cmp	x0, x1
  4030c8:	54004380 	b.eq	403938 <printf_positional+0x17d8>  // b.none
  4030cc:	91000401 	add	x1, x0, #0x1
  4030d0:	f9000721 	str	x1, [x25, #8]
  4030d4:	52800601 	mov	w1, #0x30                  	// #48
  4030d8:	39000001 	strb	w1, [x0]
  4030dc:	a9408720 	ldp	x0, x1, [x25, #8]
  4030e0:	eb01001f 	cmp	x0, x1
  4030e4:	54004140 	b.eq	40390c <printf_positional+0x17ac>  // b.none
  4030e8:	91000401 	add	x1, x0, #0x1
  4030ec:	f9000721 	str	x1, [x25, #8]
  4030f0:	51000ad6 	sub	w22, w22, #0x2
  4030f4:	39000017 	strb	w23, [x0]
  4030f8:	17ffff15 	b	402d4c <printf_positional+0xbec>
  4030fc:	b94043e0 	ldr	w0, [sp, #64]
  403100:	51000801 	sub	w1, w0, #0x2
  403104:	d2880020 	mov	x0, #0x4001                	// #16385
  403108:	9ac12400 	lsr	x0, x0, x1
  40310c:	3607d6c0 	tbz	w0, #0, 402be4 <printf_positional+0xa84>
  403110:	a9408720 	ldp	x0, x1, [x25, #8]
  403114:	eb01001f 	cmp	x0, x1
  403118:	54004340 	b.eq	403980 <printf_positional+0x1820>  // b.none
  40311c:	91000401 	add	x1, x0, #0x1
  403120:	f9000721 	str	x1, [x25, #8]
  403124:	52800601 	mov	w1, #0x30                  	// #48
  403128:	39000001 	strb	w1, [x0]
  40312c:	a9408720 	ldp	x0, x1, [x25, #8]
  403130:	eb01001f 	cmp	x0, x1
  403134:	54004160 	b.eq	403960 <printf_positional+0x1800>  // b.none
  403138:	91000401 	add	x1, x0, #0x1
  40313c:	f9000721 	str	x1, [x25, #8]
  403140:	39000017 	strb	w23, [x0]
  403144:	17fffea8 	b	402be4 <printf_positional+0xa84>
  403148:	b94043e0 	ldr	w0, [sp, #64]
  40314c:	51000841 	sub	w1, w2, #0x2
  403150:	51000808 	sub	w8, w0, #0x2
  403154:	d2880020 	mov	x0, #0x4001                	// #16385
  403158:	9ac82400 	lsr	x0, x0, x8
  40315c:	f240001f 	tst	x0, #0x1
  403160:	1a821022 	csel	w2, w1, w2, ne	// ne = any
  403164:	17fffe95 	b	402bb8 <printf_positional+0xa58>
  403168:	f86b6980 	ldr	x0, [x12, x11]
  40316c:	b90083e6 	str	w6, [sp, #128]
  403170:	f9402fe2 	ldr	x2, [sp, #88]
  403174:	b9008be4 	str	w4, [sp, #136]
  403178:	f9403be1 	ldr	x1, [sp, #112]
  40317c:	b90093e5 	str	w5, [sp, #144]
  403180:	f90053ea 	str	x10, [sp, #160]
  403184:	9400ab73 	bl	42df50 <__translated_number_width>
  403188:	2a0003fb 	mov	w27, w0
  40318c:	f94053ea 	ldr	x10, [sp, #160]
  403190:	b94083e6 	ldr	w6, [sp, #128]
  403194:	b9408be4 	ldr	w4, [sp, #136]
  403198:	b94093e5 	ldr	w5, [sp, #144]
  40319c:	17ffff4e 	b	402ed4 <printf_positional+0xd74>
  4031a0:	b94003e0 	ldr	w0, [sp]
  4031a4:	510006d6 	sub	w22, w22, #0x1
  4031a8:	710002df 	cmp	w22, #0x0
  4031ac:	1a9fd7f3 	cset	w19, gt
  4031b0:	52000000 	eor	w0, w0, #0x1
  4031b4:	6a00027f 	tst	w19, w0
  4031b8:	540031c1 	b.ne	4037f0 <printf_positional+0x1690>  // b.any
  4031bc:	a9408b20 	ldp	x0, x2, [x25, #8]
  4031c0:	b9803381 	ldrsw	x1, [x28, #48]
  4031c4:	d37cec21 	lsl	x1, x1, #4
  4031c8:	38616aa1 	ldrb	w1, [x21, x1]
  4031cc:	eb02001f 	cmp	x0, x2
  4031d0:	540031e0 	b.eq	40380c <printf_positional+0x16ac>  // b.none
  4031d4:	91000402 	add	x2, x0, #0x1
  4031d8:	f9000722 	str	x2, [x25, #8]
  4031dc:	39000001 	strb	w1, [x0]
  4031e0:	b94003e0 	ldr	w0, [sp]
  4031e4:	6a00027f 	tst	w19, w0
  4031e8:	54ffa040 	b.eq	4025f0 <printf_positional+0x490>  // b.none
  4031ec:	93407ec2 	sxtw	x2, w22
  4031f0:	aa1903e0 	mov	x0, x25
  4031f4:	52800401 	mov	w1, #0x20                  	// #32
  4031f8:	94009ce2 	bl	42a580 <__printf_buffer_pad_1>
  4031fc:	17fffcfd 	b	4025f0 <printf_positional+0x490>
  403200:	aa1403e2 	mov	x2, x20
  403204:	aa1303e1 	mov	x1, x19
  403208:	aa1903e0 	mov	x0, x25
  40320c:	94009de1 	bl	42a990 <__printf_buffer_write>
  403210:	710002df 	cmp	w22, #0x0
  403214:	54ff9eed 	b.le	4025f0 <printf_positional+0x490>
  403218:	2a1603e2 	mov	w2, w22
  40321c:	aa1903e0 	mov	x0, x25
  403220:	52800401 	mov	w1, #0x20                  	// #32
  403224:	94009cd7 	bl	42a580 <__printf_buffer_pad_1>
  403228:	17fffcf2 	b	4025f0 <printf_positional+0x490>
  40322c:	aa1903e0 	mov	x0, x25
  403230:	52800601 	mov	w1, #0x30                  	// #48
  403234:	b90003e3 	str	w3, [sp]
  403238:	94009cd2 	bl	42a580 <__printf_buffer_pad_1>
  40323c:	b94003e3 	ldr	w3, [sp]
  403240:	4b1402d4 	sub	w20, w22, w20
  403244:	17ffff4f 	b	402f80 <printf_positional+0xe20>
  403248:	f9402fe0 	ldr	x0, [sp, #88]
  40324c:	d2800014 	mov	x20, #0x0                   	// #0
  403250:	d280001a 	mov	x26, #0x0                   	// #0
  403254:	f9003be0 	str	x0, [sp, #112]
  403258:	52800400 	mov	w0, #0x20                  	// #32
  40325c:	b9009be0 	str	w0, [sp, #152]
  403260:	17fffe2b 	b	402b0c <printf_positional+0x9ac>
  403264:	b94983e0 	ldr	w0, [sp, #2432]
  403268:	94000962 	bl	4057f0 <__get_errname>
  40326c:	aa0003f4 	mov	x20, x0
  403270:	b94043e6 	ldr	w6, [sp, #64]
  403274:	b9404beb 	ldr	w11, [sp, #72]
  403278:	b9405be5 	ldr	w5, [sp, #88]
  40327c:	17fffdde 	b	4029f4 <printf_positional+0x894>
  403280:	f8606aa0 	ldr	x0, [x21, x0]
  403284:	17fffe80 	b	402c84 <printf_positional+0xb24>
  403288:	92403c00 	and	x0, x0, #0xffff
  40328c:	b90013ff 	str	wzr, [sp, #16]
  403290:	b9001bff 	str	wzr, [sp, #24]
  403294:	f90027e0 	str	x0, [sp, #72]
  403298:	17fffe05 	b	402aac <printf_positional+0x94c>
  40329c:	2a0003e0 	mov	w0, w0
  4032a0:	f9000260 	str	x0, [x19]
  4032a4:	17fffcd3 	b	4025f0 <printf_positional+0x490>
  4032a8:	a9408720 	ldp	x0, x1, [x25, #8]
  4032ac:	eb01001f 	cmp	x0, x1
  4032b0:	54002c00 	b.eq	403830 <printf_positional+0x16d0>  // b.none
  4032b4:	91000401 	add	x1, x0, #0x1
  4032b8:	f9000721 	str	x1, [x25, #8]
  4032bc:	510006d6 	sub	w22, w22, #0x1
  4032c0:	52800401 	mov	w1, #0x20                  	// #32
  4032c4:	39000001 	strb	w1, [x0]
  4032c8:	17fffea0 	b	402d48 <printf_positional+0xbe8>
  4032cc:	aa1403e0 	mov	x0, x20
  4032d0:	97fff3f8 	bl	4002b0 <.plt+0x40>
  4032d4:	aa0003f7 	mov	x23, x0
  4032d8:	2a0003e1 	mov	w1, w0
  4032dc:	17ffff4d 	b	403010 <printf_positional+0xeb0>
  4032e0:	a9408720 	ldp	x0, x1, [x25, #8]
  4032e4:	eb01001f 	cmp	x0, x1
  4032e8:	54002f80 	b.eq	4038d8 <printf_positional+0x1778>  // b.none
  4032ec:	91000401 	add	x1, x0, #0x1
  4032f0:	f9000721 	str	x1, [x25, #8]
  4032f4:	52800561 	mov	w1, #0x2b                  	// #43
  4032f8:	39000001 	strb	w1, [x0]
  4032fc:	79401b80 	ldrh	w0, [x28, #12]
  403300:	17fffcfd 	b	4026f4 <printf_positional+0x594>
  403304:	a9408720 	ldp	x0, x1, [x25, #8]
  403308:	eb01001f 	cmp	x0, x1
  40330c:	54002ca0 	b.eq	4038a0 <printf_positional+0x1740>  // b.none
  403310:	91000401 	add	x1, x0, #0x1
  403314:	f9000721 	str	x1, [x25, #8]
  403318:	528004e1 	mov	w1, #0x27                  	// #39
  40331c:	39000001 	strb	w1, [x0]
  403320:	79401b80 	ldrh	w0, [x28, #12]
  403324:	36379e60 	tbz	w0, #6, 4026f0 <printf_positional+0x590>
  403328:	17ffffee 	b	4032e0 <printf_positional+0x1180>
  40332c:	a9408720 	ldp	x0, x1, [x25, #8]
  403330:	eb01001f 	cmp	x0, x1
  403334:	54002aa0 	b.eq	403888 <printf_positional+0x1728>  // b.none
  403338:	91000401 	add	x1, x0, #0x1
  40333c:	f9000721 	str	x1, [x25, #8]
  403340:	52800461 	mov	w1, #0x23                  	// #35
  403344:	39000001 	strb	w1, [x0]
  403348:	79401b80 	ldrh	w0, [x28, #12]
  40334c:	363f9d00 	tbz	w0, #7, 4026ec <printf_positional+0x58c>
  403350:	17ffffed 	b	403304 <printf_positional+0x11a4>
  403354:	f00002b4 	adrp	x20, 45a000 <__PRETTY_FUNCTION__.0+0x1c0>
  403358:	52800001 	mov	w1, #0x0                   	// #0
  40335c:	911fa294 	add	x20, x20, #0x7e8
  403360:	d2800017 	mov	x23, #0x0                   	// #0
  403364:	17ffff2b 	b	403010 <printf_positional+0xeb0>
  403368:	710014bf 	cmp	w5, #0x5
  40336c:	528000a0 	mov	w0, #0x5                   	// #5
  403370:	90000294 	adrp	x20, 453000 <_Unwind_Find_FDE+0x3f0>
  403374:	1a80a0a5 	csel	w5, w5, w0, ge	// ge = tcont
  403378:	913d8294 	add	x20, x20, #0xf60
  40337c:	71014eff 	cmp	w23, #0x53
  403380:	54ffe3e1 	b.ne	402ffc <printf_positional+0xe9c>  // b.any
  403384:	394003e4 	ldrb	w4, [sp]
  403388:	2a1603e3 	mov	w3, w22
  40338c:	2a0503e2 	mov	w2, w5
  403390:	aa1403e1 	mov	x1, x20
  403394:	aa1903e0 	mov	x0, x25
  403398:	97fffaa2 	bl	401e20 <outstring_converted_wide_string>
  40339c:	17fffc95 	b	4025f0 <printf_positional+0x490>
  4033a0:	a9408720 	ldp	x0, x1, [x25, #8]
  4033a4:	eb01001f 	cmp	x0, x1
  4033a8:	54002a80 	b.eq	4038f8 <printf_positional+0x1798>  // b.none
  4033ac:	91000401 	add	x1, x0, #0x1
  4033b0:	f9000721 	str	x1, [x25, #8]
  4033b4:	52800401 	mov	w1, #0x20                  	// #32
  4033b8:	39000001 	strb	w1, [x0]
  4033bc:	79401b80 	ldrh	w0, [x28, #12]
  4033c0:	17fffccd 	b	4026f4 <printf_positional+0x594>
  4033c4:	aa1903e0 	mov	x0, x25
  4033c8:	52800561 	mov	w1, #0x2b                  	// #43
  4033cc:	b90003e5 	str	w5, [sp]
  4033d0:	b90013e3 	str	w3, [sp, #16]
  4033d4:	94009c97 	bl	42a630 <__printf_buffer_putc_1>
  4033d8:	b94003e5 	ldr	w5, [sp]
  4033dc:	b94013e3 	ldr	w3, [sp, #16]
  4033e0:	17fffe00 	b	402be0 <printf_positional+0xa80>
  4033e4:	b9400b80 	ldr	w0, [x28, #8]
  4033e8:	34ff9040 	cbz	w0, 4025f0 <printf_positional+0x490>
  4033ec:	a9408b21 	ldp	x1, x2, [x25, #8]
  4033f0:	12001c00 	and	w0, w0, #0xff
  4033f4:	eb02003f 	cmp	x1, x2
  4033f8:	54002400 	b.eq	403878 <printf_positional+0x1718>  // b.none
  4033fc:	91000422 	add	x2, x1, #0x1
  403400:	f9000722 	str	x2, [x25, #8]
  403404:	39000020 	strb	w0, [x1]
  403408:	17fffc7a 	b	4025f0 <printf_positional+0x490>
  40340c:	a9408720 	ldp	x0, x1, [x25, #8]
  403410:	eb01001f 	cmp	x0, x1
  403414:	54002020 	b.eq	403818 <printf_positional+0x16b8>  // b.none
  403418:	91000401 	add	x1, x0, #0x1
  40341c:	f9000721 	str	x1, [x25, #8]
  403420:	510006d6 	sub	w22, w22, #0x1
  403424:	52800561 	mov	w1, #0x2b                  	// #43
  403428:	39000001 	strb	w1, [x0]
  40342c:	17fffe47 	b	402d48 <printf_positional+0xbe8>
  403430:	aa1703e2 	mov	x2, x23
  403434:	aa1403e1 	mov	x1, x20
  403438:	aa1903e0 	mov	x0, x25
  40343c:	94009d55 	bl	42a990 <__printf_buffer_write>
  403440:	34ff8d96 	cbz	w22, 4025f0 <printf_positional+0x490>
  403444:	17ffff75 	b	403218 <printf_positional+0x10b8>
  403448:	f94007f5 	ldr	x21, [sp, #8]
  40344c:	d2800017 	mov	x23, #0x0                   	// #0
  403450:	d280001c 	mov	x28, #0x0                   	// #0
  403454:	17fffbb2 	b	40231c <printf_positional+0x1bc>
  403458:	7100005f 	cmp	w2, #0x0
  40345c:	54ffda8d 	b.le	402fac <printf_positional+0xe4c>
  403460:	394263e1 	ldrb	w1, [sp, #152]
  403464:	93407c42 	sxtw	x2, w2
  403468:	aa1903e0 	mov	x0, x25
  40346c:	b90003e4 	str	w4, [sp]
  403470:	b9004be5 	str	w5, [sp, #72]
  403474:	b90053e3 	str	w3, [sp, #80]
  403478:	94009c42 	bl	42a580 <__printf_buffer_pad_1>
  40347c:	b94003e4 	ldr	w4, [sp]
  403480:	b9404be5 	ldr	w5, [sp, #72]
  403484:	b94053e3 	ldr	w3, [sp, #80]
  403488:	17fffec9 	b	402fac <printf_positional+0xe4c>
  40348c:	7100005f 	cmp	w2, #0x0
  403490:	54ffba8d 	b.le	402be0 <printf_positional+0xa80>
  403494:	394263e1 	ldrb	w1, [sp, #152]
  403498:	93407c42 	sxtw	x2, w2
  40349c:	aa1903e0 	mov	x0, x25
  4034a0:	b90003e5 	str	w5, [sp]
  4034a4:	b9004be3 	str	w3, [sp, #72]
  4034a8:	94009c36 	bl	42a580 <__printf_buffer_pad_1>
  4034ac:	b94003e5 	ldr	w5, [sp]
  4034b0:	b9404be3 	ldr	w3, [sp, #72]
  4034b4:	17fffebf 	b	402fb0 <printf_positional+0xe50>
  4034b8:	b5ff7db7 	cbnz	x23, 40246c <printf_positional+0x30c>
  4034bc:	17fffb7a 	b	4022a4 <printf_positional+0x144>
  4034c0:	cb0003e0 	neg	x0, x0
  4034c4:	52800024 	mov	w4, #0x1                   	// #1
  4034c8:	f90027e0 	str	x0, [sp, #72]
  4034cc:	52800140 	mov	w0, #0xa                   	// #10
  4034d0:	b90043e0 	str	w0, [sp, #64]
  4034d4:	17fffd76 	b	402aac <printf_positional+0x94c>
  4034d8:	37f817e0 	tbnz	w0, #31, 4037d4 <printf_positional+0x1674>
  4034dc:	91003ca0 	add	x0, x5, #0xf
  4034e0:	927df000 	and	x0, x0, #0xfffffffffffffff8
  4034e4:	f9000300 	str	x0, [x24]
  4034e8:	fd4000a0 	ldr	d0, [x5]
  4034ec:	fd0000c0 	str	d0, [x6]
  4034f0:	b9400020 	ldr	w0, [x1]
  4034f4:	12177800 	and	w0, w0, #0xfffffeff
  4034f8:	b9000020 	str	w0, [x1]
  4034fc:	17fffc15 	b	402550 <printf_positional+0x3f0>
  403500:	a9408720 	ldp	x0, x1, [x25, #8]
  403504:	eb01001f 	cmp	x0, x1
  403508:	54001d80 	b.eq	4038b8 <printf_positional+0x1758>  // b.none
  40350c:	91000401 	add	x1, x0, #0x1
  403510:	f9000721 	str	x1, [x25, #8]
  403514:	528005a1 	mov	w1, #0x2d                  	// #45
  403518:	39000001 	strb	w1, [x0]
  40351c:	17fffc77 	b	4026f8 <printf_positional+0x598>
  403520:	912453f4 	add	x20, sp, #0x914
  403524:	93407c00 	sxtw	x0, w0
  403528:	aa1403e1 	mov	x1, x20
  40352c:	52800003 	mov	w3, #0x0                   	// #0
  403530:	52800142 	mov	w2, #0xa                   	// #10
  403534:	94009b17 	bl	42a190 <_itoa_word>
  403538:	aa0003f3 	mov	x19, x0
  40353c:	eb14001f 	cmp	x0, x20
  403540:	540000e3 	b.cc	40355c <printf_positional+0x13fc>  // b.lo, b.ul, b.last
  403544:	17fffc74 	b	402714 <printf_positional+0x5b4>
  403548:	91000440 	add	x0, x2, #0x1
  40354c:	f9000720 	str	x0, [x25, #8]
  403550:	39000041 	strb	w1, [x2]
  403554:	eb14027f 	cmp	x19, x20
  403558:	54ff8de0 	b.eq	402714 <printf_positional+0x5b4>  // b.none
  40355c:	a9408322 	ldp	x2, x0, [x25, #8]
  403560:	38401661 	ldrb	w1, [x19], #1
  403564:	eb00005f 	cmp	x2, x0
  403568:	54ffff01 	b.ne	403548 <printf_positional+0x13e8>  // b.any
  40356c:	aa1903e0 	mov	x0, x25
  403570:	94009c30 	bl	42a630 <__printf_buffer_putc_1>
  403574:	17fffff8 	b	403554 <printf_positional+0x13f4>
  403578:	a9408720 	ldp	x0, x1, [x25, #8]
  40357c:	eb01001f 	cmp	x0, x1
  403580:	54001a40 	b.eq	4038c8 <printf_positional+0x1768>  // b.none
  403584:	91000401 	add	x1, x0, #0x1
  403588:	f9000721 	str	x1, [x25, #8]
  40358c:	52800921 	mov	w1, #0x49                  	// #73
  403590:	39000001 	strb	w1, [x0]
  403594:	17fffc5e 	b	40270c <printf_positional+0x5ac>
  403598:	93407c01 	sxtw	x1, w0
  40359c:	7100019f 	cmp	w12, #0x0
  4035a0:	93403c00 	sxth	x0, w0
  4035a4:	9a811000 	csel	x0, x0, x1, ne	// ne = any
  4035a8:	17fffdb7 	b	402c84 <printf_positional+0xb24>
  4035ac:	350012cc 	cbnz	w12, 403804 <printf_positional+0x16a4>
  4035b0:	b9000260 	str	w0, [x19]
  4035b4:	17fffc0f 	b	4025f0 <printf_positional+0x490>
  4035b8:	b9401be0 	ldr	w0, [sp, #24]
  4035bc:	34ffb120 	cbz	w0, 402be0 <printf_positional+0xa80>
  4035c0:	a9408720 	ldp	x0, x1, [x25, #8]
  4035c4:	eb01001f 	cmp	x0, x1
  4035c8:	54001400 	b.eq	403848 <printf_positional+0x16e8>  // b.none
  4035cc:	91000401 	add	x1, x0, #0x1
  4035d0:	f9000721 	str	x1, [x25, #8]
  4035d4:	52800401 	mov	w1, #0x20                  	// #32
  4035d8:	39000001 	strb	w1, [x0]
  4035dc:	17fffd81 	b	402be0 <printf_positional+0xa80>
  4035e0:	f9403ff3 	ldr	x19, [sp, #120]
  4035e4:	b90003ec 	str	w12, [sp]
  4035e8:	b90013ea 	str	w10, [sp, #16]
  4035ec:	aa1303e0 	mov	x0, x19
  4035f0:	97fff330 	bl	4002b0 <.plt+0x40>
  4035f4:	aa0003e1 	mov	x1, x0
  4035f8:	aa1303e0 	mov	x0, x19
  4035fc:	91000421 	add	x1, x1, #0x1
  403600:	94005120 	bl	417a80 <__readonly_area>
  403604:	b94003ec 	ldr	w12, [sp]
  403608:	b94013ea 	ldr	w10, [sp, #16]
  40360c:	b90067e0 	str	w0, [sp, #100]
  403610:	17fffd0a 	b	402a38 <printf_positional+0x8d8>
  403614:	79401b80 	ldrh	w0, [x28, #12]
  403618:	528000e1 	mov	w1, #0x7                   	// #7
  40361c:	b9003781 	str	w1, [x28, #52]
  403620:	121f7800 	and	w0, w0, #0xfffffffe
  403624:	79001b80 	strh	w0, [x28, #12]
  403628:	17fffcb0 	b	4028e8 <printf_positional+0x788>
  40362c:	a9408b20 	ldp	x0, x2, [x25, #8]
  403630:	eb02001f 	cmp	x0, x2
  403634:	540015c0 	b.eq	4038ec <printf_positional+0x178c>  // b.none
  403638:	91000402 	add	x2, x0, #0x1
  40363c:	f9000722 	str	x2, [x25, #8]
  403640:	39000001 	strb	w1, [x0]
  403644:	17fffc30 	b	402704 <printf_positional+0x5a4>
  403648:	aa1903e0 	mov	x0, x25
  40364c:	528005a1 	mov	w1, #0x2d                  	// #45
  403650:	b90003e5 	str	w5, [sp]
  403654:	b90013e3 	str	w3, [sp, #16]
  403658:	94009bf6 	bl	42a630 <__printf_buffer_putc_1>
  40365c:	b94003e5 	ldr	w5, [sp]
  403660:	b94013e3 	ldr	w3, [sp, #16]
  403664:	17fffd5f 	b	402be0 <printf_positional+0xa80>
  403668:	aa1903e0 	mov	x0, x25
  40366c:	52800601 	mov	w1, #0x30                  	// #48
  403670:	b90003e3 	str	w3, [sp]
  403674:	94009bef 	bl	42a630 <__printf_buffer_putc_1>
  403678:	b94003e3 	ldr	w3, [sp]
  40367c:	17fffd5d 	b	402bf0 <printf_positional+0xa90>
  403680:	aa1903e0 	mov	x0, x25
  403684:	528004a1 	mov	w1, #0x25                  	// #37
  403688:	94009bea 	bl	42a630 <__printf_buffer_putc_1>
  40368c:	17fffbd9 	b	4025f0 <printf_positional+0x490>
  403690:	528005a1 	mov	w1, #0x2d                  	// #45
  403694:	b90003e5 	str	w5, [sp]
  403698:	b90013e3 	str	w3, [sp, #16]
  40369c:	f9000fea 	str	x10, [sp, #24]
  4036a0:	b9004be9 	str	w9, [sp, #72]
  4036a4:	aa1903e0 	mov	x0, x25
  4036a8:	94009be2 	bl	42a630 <__printf_buffer_putc_1>
  4036ac:	f9400fea 	ldr	x10, [sp, #24]
  4036b0:	510006d6 	sub	w22, w22, #0x1
  4036b4:	b94003e5 	ldr	w5, [sp]
  4036b8:	b94013e3 	ldr	w3, [sp, #16]
  4036bc:	b9404be9 	ldr	w9, [sp, #72]
  4036c0:	17fffda2 	b	402d48 <printf_positional+0xbe8>
  4036c4:	d2a00002 	movz	x2, #0x0, lsl #16
  4036c8:	f2800402 	movk	x2, #0x20
  4036cc:	d53bd04a 	mrs	x10, tpidr_el0
  4036d0:	52800023 	mov	w3, #0x1                   	// #1
  4036d4:	910303e0 	add	x0, sp, #0xc0
  4036d8:	2a0303e1 	mov	w1, w3
  4036dc:	b90083e6 	str	w6, [sp, #128]
  4036e0:	b9008be4 	str	w4, [sp, #136]
  4036e4:	d280003a 	mov	x26, #0x1                   	// #1
  4036e8:	f8626942 	ldr	x2, [x10, x2]
  4036ec:	b90093e5 	str	w5, [sp, #144]
  4036f0:	2a1a03fb 	mov	w27, w26
  4036f4:	52800014 	mov	w20, #0x0                   	// #0
  4036f8:	94009b2a 	bl	42a3a0 <__grouping_iterator_init>
  4036fc:	52800400 	mov	w0, #0x20                  	// #32
  403700:	b94083e6 	ldr	w6, [sp, #128]
  403704:	b9408be4 	ldr	w4, [sp, #136]
  403708:	d280000a 	mov	x10, #0x0                   	// #0
  40370c:	b94093e5 	ldr	w5, [sp, #144]
  403710:	b9009be0 	str	w0, [sp, #152]
  403714:	17fffdef 	b	402ed0 <printf_positional+0xd70>
  403718:	aa1903e0 	mov	x0, x25
  40371c:	52800601 	mov	w1, #0x30                  	// #48
  403720:	b90003e3 	str	w3, [sp]
  403724:	94009bc3 	bl	42a630 <__printf_buffer_putc_1>
  403728:	b94003e3 	ldr	w3, [sp]
  40372c:	17fffd98 	b	402d8c <printf_positional+0xc2c>
  403730:	aa1903e0 	mov	x0, x25
  403734:	528004a1 	mov	w1, #0x25                  	// #37
  403738:	94009bbe 	bl	42a630 <__printf_buffer_putc_1>
  40373c:	17fffbe9 	b	4026e0 <printf_positional+0x580>
  403740:	8b20cc20 	add	x0, x1, w0, sxtw #3
  403744:	f85c0000 	ldur	x0, [x0, #-64]
  403748:	b4ff8ac0 	cbz	x0, 4028a0 <printf_positional+0x740>
  40374c:	f9427be1 	ldr	x1, [sp, #1264]
  403750:	8b1302c5 	add	x5, x22, x19
  403754:	f9427fe6 	ldr	x6, [sp, #1272]
  403758:	b8b36ac0 	ldrsw	x0, [x22, x19]
  40375c:	8b060021 	add	x1, x1, x6
  403760:	f94023e6 	ldr	x6, [sp, #64]
  403764:	8b0000c0 	add	x0, x6, x0
  403768:	eb00003f 	cmp	x1, x0
  40376c:	54000243 	b.cc	4037b4 <printf_positional+0x1654>  // b.lo, b.ul, b.last
  403770:	1400008c 	b	4039a0 <printf_positional+0x1840>
  403774:	f94003e2 	ldr	x2, [sp]
  403778:	f9402be4 	ldr	x4, [sp, #80]
  40377c:	8b160040 	add	x0, x2, x22
  403780:	f9427be3 	ldr	x3, [sp, #1264]
  403784:	f9427fe1 	ldr	x1, [sp, #1272]
  403788:	8b040076 	add	x22, x3, x4
  40378c:	8b0202da 	add	x26, x22, x2
  403790:	8b1302c5 	add	x5, x22, x19
  403794:	8b000344 	add	x4, x26, x0
  403798:	8b010060 	add	x0, x3, x1
  40379c:	b8b36ac1 	ldrsw	x1, [x22, x19]
  4037a0:	f90023e4 	str	x4, [sp, #64]
  4037a4:	8b010081 	add	x1, x4, x1
  4037a8:	f9400fe4 	ldr	x4, [sp, #24]
  4037ac:	eb00003f 	cmp	x1, x0
  4037b0:	54000f89 	b.ls	4039a0 <printf_positional+0x1840>  // b.plast
  4037b4:	a94403e1 	ldp	x1, x0, [sp, #64]
  4037b8:	8b020356 	add	x22, x26, x2
  4037bc:	f90003e2 	str	x2, [sp]
  4037c0:	f9000fe4 	str	x4, [sp, #24]
  4037c4:	cb160036 	sub	x22, x1, x22
  4037c8:	94003c86 	bl	4129e0 <__libc_scratch_buffer_grow_preserve>
  4037cc:	3707fd40 	tbnz	w0, #0, 403774 <printf_positional+0x1614>
  4037d0:	17fffab4 	b	4022a0 <printf_positional+0x140>
  4037d4:	11004007 	add	w7, w0, #0x10
  4037d8:	b9001f07 	str	w7, [x24, #28]
  4037dc:	710000ff 	cmp	w7, #0x0
  4037e0:	54ffe7ec 	b.gt	4034dc <printf_positional+0x137c>
  4037e4:	f9400b05 	ldr	x5, [x24, #16]
  4037e8:	8b20c0a5 	add	x5, x5, w0, sxtw
  4037ec:	17ffff3f 	b	4034e8 <printf_positional+0x1388>
  4037f0:	93407ec2 	sxtw	x2, w22
  4037f4:	aa1903e0 	mov	x0, x25
  4037f8:	52800401 	mov	w1, #0x20                  	// #32
  4037fc:	94009b61 	bl	42a580 <__printf_buffer_pad_1>
  403800:	17fffe6f 	b	4031bc <printf_positional+0x105c>
  403804:	79000260 	strh	w0, [x19]
  403808:	17fffb7a 	b	4025f0 <printf_positional+0x490>
  40380c:	aa1903e0 	mov	x0, x25
  403810:	94009b88 	bl	42a630 <__printf_buffer_putc_1>
  403814:	17fffe73 	b	4031e0 <printf_positional+0x1080>
  403818:	52800561 	mov	w1, #0x2b                  	// #43
  40381c:	b90003e5 	str	w5, [sp]
  403820:	b90013e3 	str	w3, [sp, #16]
  403824:	f9000fea 	str	x10, [sp, #24]
  403828:	b9004be9 	str	w9, [sp, #72]
  40382c:	17ffff9e 	b	4036a4 <printf_positional+0x1544>
  403830:	52800401 	mov	w1, #0x20                  	// #32
  403834:	b90003e5 	str	w5, [sp]
  403838:	b90013e3 	str	w3, [sp, #16]
  40383c:	f9000fea 	str	x10, [sp, #24]
  403840:	b9004be9 	str	w9, [sp, #72]
  403844:	17ffff98 	b	4036a4 <printf_positional+0x1544>
  403848:	aa1903e0 	mov	x0, x25
  40384c:	52800401 	mov	w1, #0x20                  	// #32
  403850:	b90003e5 	str	w5, [sp]
  403854:	b90013e3 	str	w3, [sp, #16]
  403858:	94009b76 	bl	42a630 <__printf_buffer_putc_1>
  40385c:	b94003e5 	ldr	w5, [sp]
  403860:	b94013e3 	ldr	w3, [sp, #16]
  403864:	17fffcdf 	b	402be0 <printf_positional+0xa80>
  403868:	aa1903e0 	mov	x0, x25
  40386c:	528005c1 	mov	w1, #0x2e                  	// #46
  403870:	94009b70 	bl	42a630 <__printf_buffer_putc_1>
  403874:	17fffbb2 	b	40273c <printf_positional+0x5dc>
  403878:	2a0003e1 	mov	w1, w0
  40387c:	aa1903e0 	mov	x0, x25
  403880:	94009b6c 	bl	42a630 <__printf_buffer_putc_1>
  403884:	17fffb5b 	b	4025f0 <printf_positional+0x490>
  403888:	aa1903e0 	mov	x0, x25
  40388c:	52800461 	mov	w1, #0x23                  	// #35
  403890:	94009b68 	bl	42a630 <__printf_buffer_putc_1>
  403894:	79401b80 	ldrh	w0, [x28, #12]
  403898:	363f72a0 	tbz	w0, #7, 4026ec <printf_positional+0x58c>
  40389c:	17fffe9a 	b	403304 <printf_positional+0x11a4>
  4038a0:	aa1903e0 	mov	x0, x25
  4038a4:	528004e1 	mov	w1, #0x27                  	// #39
  4038a8:	94009b62 	bl	42a630 <__printf_buffer_putc_1>
  4038ac:	79401b80 	ldrh	w0, [x28, #12]
  4038b0:	36377200 	tbz	w0, #6, 4026f0 <printf_positional+0x590>
  4038b4:	17fffe8b 	b	4032e0 <printf_positional+0x1180>
  4038b8:	aa1903e0 	mov	x0, x25
  4038bc:	528005a1 	mov	w1, #0x2d                  	// #45
  4038c0:	94009b5c 	bl	42a630 <__printf_buffer_putc_1>
  4038c4:	17fffb8d 	b	4026f8 <printf_positional+0x598>
  4038c8:	aa1903e0 	mov	x0, x25
  4038cc:	52800921 	mov	w1, #0x49                  	// #73
  4038d0:	94009b58 	bl	42a630 <__printf_buffer_putc_1>
  4038d4:	17fffb8e 	b	40270c <printf_positional+0x5ac>
  4038d8:	aa1903e0 	mov	x0, x25
  4038dc:	52800561 	mov	w1, #0x2b                  	// #43
  4038e0:	94009b54 	bl	42a630 <__printf_buffer_putc_1>
  4038e4:	79401b80 	ldrh	w0, [x28, #12]
  4038e8:	17fffb83 	b	4026f4 <printf_positional+0x594>
  4038ec:	aa1903e0 	mov	x0, x25
  4038f0:	94009b50 	bl	42a630 <__printf_buffer_putc_1>
  4038f4:	17fffb84 	b	402704 <printf_positional+0x5a4>
  4038f8:	aa1903e0 	mov	x0, x25
  4038fc:	52800401 	mov	w1, #0x20                  	// #32
  403900:	94009b4c 	bl	42a630 <__printf_buffer_putc_1>
  403904:	79401b80 	ldrh	w0, [x28, #12]
  403908:	17fffb7b 	b	4026f4 <printf_positional+0x594>
  40390c:	2a1703e1 	mov	w1, w23
  403910:	aa1903e0 	mov	x0, x25
  403914:	b90003e5 	str	w5, [sp]
  403918:	51000ad6 	sub	w22, w22, #0x2
  40391c:	b90013e3 	str	w3, [sp, #16]
  403920:	f9000fea 	str	x10, [sp, #24]
  403924:	94009b43 	bl	42a630 <__printf_buffer_putc_1>
  403928:	f9400fea 	ldr	x10, [sp, #24]
  40392c:	b94003e5 	ldr	w5, [sp]
  403930:	b94013e3 	ldr	w3, [sp, #16]
  403934:	17fffd06 	b	402d4c <printf_positional+0xbec>
  403938:	aa1903e0 	mov	x0, x25
  40393c:	52800601 	mov	w1, #0x30                  	// #48
  403940:	b90003e5 	str	w5, [sp]
  403944:	b90013e3 	str	w3, [sp, #16]
  403948:	f9000fea 	str	x10, [sp, #24]
  40394c:	94009b39 	bl	42a630 <__printf_buffer_putc_1>
  403950:	f9400fea 	ldr	x10, [sp, #24]
  403954:	b94003e5 	ldr	w5, [sp]
  403958:	b94013e3 	ldr	w3, [sp, #16]
  40395c:	17fffde0 	b	4030dc <printf_positional+0xf7c>
  403960:	2a1703e1 	mov	w1, w23
  403964:	aa1903e0 	mov	x0, x25
  403968:	b90003e5 	str	w5, [sp]
  40396c:	b90013e3 	str	w3, [sp, #16]
  403970:	94009b30 	bl	42a630 <__printf_buffer_putc_1>
  403974:	b94003e5 	ldr	w5, [sp]
  403978:	b94013e3 	ldr	w3, [sp, #16]
  40397c:	17fffc9a 	b	402be4 <printf_positional+0xa84>
  403980:	aa1903e0 	mov	x0, x25
  403984:	52800601 	mov	w1, #0x30                  	// #48
  403988:	b90003e5 	str	w5, [sp]
  40398c:	b90013e3 	str	w3, [sp, #16]
  403990:	94009b28 	bl	42a630 <__printf_buffer_putc_1>
  403994:	b94003e5 	ldr	w5, [sp]
  403998:	b94013e3 	ldr	w3, [sp, #16]
  40399c:	17fffde4 	b	40312c <printf_positional+0xfcc>
  4039a0:	f94023e0 	ldr	x0, [sp, #64]
  4039a4:	f8246860 	str	x0, [x3, x4]
  4039a8:	928007e1 	mov	x1, #0xffffffffffffffc0    	// #-64
  4039ac:	f90003e3 	str	x3, [sp]
  4039b0:	b8736b46 	ldr	w6, [x26, x19]
  4039b4:	f940a687 	ldr	x7, [x20, #328]
  4039b8:	f9000fe4 	str	x4, [sp, #24]
  4039bc:	8b26cc26 	add	x6, x1, w6, sxtw #3
  4039c0:	b98000b3 	ldrsw	x19, [x5]
  4039c4:	aa1803e1 	mov	x1, x24
  4039c8:	f9002fe2 	str	x2, [sp, #88]
  4039cc:	8b130013 	add	x19, x0, x19
  4039d0:	f86668e5 	ldr	x5, [x7, x6]
  4039d4:	d63f00a0 	blr	x5
  4039d8:	f90023f3 	str	x19, [sp, #64]
  4039dc:	f94003e3 	ldr	x3, [sp]
  4039e0:	f9400fe4 	ldr	x4, [sp, #24]
  4039e4:	f9402fe2 	ldr	x2, [sp, #88]
  4039e8:	17fffada 	b	402550 <printf_positional+0x3f0>
  4039ec:	940050b5 	bl	417cc0 <__stack_chk_fail>

00000000004039f0 <__printf_buffer>:
  4039f0:	a9ba7bfd 	stp	x29, x30, [sp, #-96]!
  4039f4:	910003fd 	mov	x29, sp
  4039f8:	a90153f3 	stp	x19, x20, [sp, #16]
  4039fc:	a9025bf5 	stp	x21, x22, [sp, #32]
  403a00:	d11583ff 	sub	sp, sp, #0x560
  403a04:	f90203ff 	str	xzr, [sp, #1024]
  403a08:	aa0203f4 	mov	x20, x2
  403a0c:	d2a00005 	movz	x5, #0x0, lsl #16
  403a10:	f2800505 	movk	x5, #0x28
  403a14:	d53bd046 	mrs	x6, tpidr_el0
  403a18:	aa0003f3 	mov	x19, x0
  403a1c:	9104e3e4 	add	x4, sp, #0x138
  403a20:	a9400296 	ldp	x22, x0, [x20]
  403a24:	f90053e0 	str	x0, [sp, #160]
  403a28:	f9400a80 	ldr	x0, [x20, #16]
  403a2c:	a90c17e4 	stp	x4, x5, [sp, #192]
  403a30:	b86568c5 	ldr	w5, [x6, x5]
  403a34:	90000462 	adrp	x2, 48f000 <tunable_list+0x880>
  403a38:	f9462c42 	ldr	x2, [x2, #3160]
  403a3c:	f90033e6 	str	x6, [sp, #96]
  403a40:	b9007be3 	str	w3, [sp, #120]
  403a44:	aa0103f5 	mov	x21, x1
  403a48:	f90057e0 	str	x0, [sp, #168]
  403a4c:	f9005be1 	str	x1, [sp, #176]
  403a50:	b900d3e5 	str	w5, [sp, #208]
  403a54:	ad400680 	ldp	q0, q1, [x20]
  403a58:	f9400040 	ldr	x0, [x2]
  403a5c:	f902afe0 	str	x0, [sp, #1368]
  403a60:	d2800000 	mov	x0, #0x0                   	// #0
  403a64:	b9401a80 	ldr	w0, [x20, #24]
  403a68:	b9002be0 	str	w0, [sp, #40]
  403a6c:	aa0103e0 	mov	x0, x1
  403a70:	b9401e81 	ldr	w1, [x20, #28]
  403a74:	ad000480 	stp	q0, q1, [x4]
  403a78:	b9008be1 	str	w1, [sp, #136]
  403a7c:	528004a1 	mov	w1, #0x25                  	// #37
  403a80:	94003d80 	bl	413080 <__strchrnul>
  403a84:	cb150002 	sub	x2, x0, x21
  403a88:	aa1503e1 	mov	x1, x21
  403a8c:	aa0003f5 	mov	x21, x0
  403a90:	f9005fe0 	str	x0, [sp, #184]
  403a94:	f90083e0 	str	x0, [sp, #256]
  403a98:	aa1303e0 	mov	x0, x19
  403a9c:	94009bbd 	bl	42a990 <__printf_buffer_write>
  403aa0:	b9402260 	ldr	w0, [x19, #32]
  403aa4:	340008e0 	cbz	w0, 403bc0 <__printf_buffer+0x1d0>
  403aa8:	394002a0 	ldrb	w0, [x21]
  403aac:	340008a0 	cbz	w0, 403bc0 <__printf_buffer+0x1d0>
  403ab0:	f0000ea0 	adrp	x0, 5da000 <_nl_state_lock+0x18>
  403ab4:	f9409800 	ldr	x0, [x0, #304]
  403ab8:	f9003be0 	str	x0, [sp, #112]
  403abc:	b500b220 	cbnz	x0, 405100 <__printf_buffer+0x1710>
  403ac0:	f0000ea0 	adrp	x0, 5da000 <_nl_state_lock+0x18>
  403ac4:	f9409000 	ldr	x0, [x0, #288]
  403ac8:	b50090a0 	cbnz	x0, 404cdc <__printf_buffer+0x12ec>
  403acc:	f0000ea0 	adrp	x0, 5da000 <_nl_state_lock+0x18>
  403ad0:	f940a400 	ldr	x0, [x0, #328]
  403ad4:	b5009040 	cbnz	x0, 404cdc <__printf_buffer+0x12ec>
  403ad8:	b0000440 	adrp	x0, 48c000 <__FRAME_END__+0x116fc>
  403adc:	910e8000 	add	x0, x0, #0x3a0
  403ae0:	91040000 	add	x0, x0, #0x100
  403ae4:	f9004be0 	str	x0, [sp, #144]
  403ae8:	f00002a0 	adrp	x0, 45a000 <__PRETTY_FUNCTION__.0+0x1c0>
  403aec:	91250000 	add	x0, x0, #0x940
  403af0:	b90027ff 	str	wzr, [sp, #36]
  403af4:	f9004fe0 	str	x0, [sp, #152]
  403af8:	92800000 	mov	x0, #0xffffffffffffffff    	// #-1
  403afc:	b900d7ff 	str	wzr, [sp, #212]
  403b00:	f9006fe0 	str	x0, [sp, #216]
  403b04:	f902cbf7 	str	x23, [sp, #1424]
  403b08:	f902cff8 	str	x24, [sp, #1432]
  403b0c:	f902d3f9 	str	x25, [sp, #1440]
  403b10:	f902d7fa 	str	x26, [sp, #1448]
  403b14:	f902dbfb 	str	x27, [sp, #1456]
  403b18:	f902dffc 	str	x28, [sp, #1464]
  403b1c:	d503201f 	nop
  403b20:	394006a4 	ldrb	w4, [x21, #1]
  403b24:	910006b5 	add	x21, x21, #0x1
  403b28:	f90083f5 	str	x21, [sp, #256]
  403b2c:	51008080 	sub	w0, w4, #0x20
  403b30:	12001c01 	and	w1, w0, #0xff
  403b34:	7101683f 	cmp	w1, #0x5a
  403b38:	540005c9 	b.ls	403bf0 <__printf_buffer+0x200>  // b.plast
  403b3c:	34005f84 	cbz	w4, 40472c <__printf_buffer+0xd3c>
  403b40:	f942cbf7 	ldr	x23, [sp, #1424]
  403b44:	f942cff8 	ldr	x24, [sp, #1432]
  403b48:	f942d3f9 	ldr	x25, [sp, #1440]
  403b4c:	f942d7fa 	ldr	x26, [sp, #1448]
  403b50:	f942dbfb 	ldr	x27, [sp, #1456]
  403b54:	f942dffc 	ldr	x28, [sp, #1464]
  403b58:	910383e3 	add	x3, sp, #0xe0
  403b5c:	f94053e0 	ldr	x0, [sp, #160]
  403b60:	a9000296 	stp	x22, x0, [x20]
  403b64:	b94027e5 	ldr	w5, [sp, #36]
  403b68:	f94057e0 	ldr	x0, [sp, #168]
  403b6c:	f9000a80 	str	x0, [x20, #16]
  403b70:	b9402be0 	ldr	w0, [sp, #40]
  403b74:	b9001a80 	str	w0, [x20, #24]
  403b78:	b9408be0 	ldr	w0, [sp, #136]
  403b7c:	b9001e80 	str	w0, [x20, #28]
  403b80:	b940d3e0 	ldr	w0, [sp, #208]
  403b84:	a94b1be1 	ldp	x1, x6, [sp, #176]
  403b88:	b90003e0 	str	w0, [sp]
  403b8c:	f94063e4 	ldr	x4, [sp, #192]
  403b90:	ad400680 	ldp	q0, q1, [x20]
  403b94:	f9406fe0 	ldr	x0, [sp, #216]
  403b98:	f90007e0 	str	x0, [sp, #8]
  403b9c:	b940d7e2 	ldr	w2, [sp, #212]
  403ba0:	f9403be0 	ldr	x0, [sp, #112]
  403ba4:	f9000be0 	str	x0, [sp, #16]
  403ba8:	b9407be7 	ldr	w7, [sp, #120]
  403bac:	aa1303e0 	mov	x0, x19
  403bb0:	b9001be7 	str	w7, [sp, #24]
  403bb4:	9105c3e7 	add	x7, sp, #0x170
  403bb8:	ad000460 	stp	q0, q1, [x3]
  403bbc:	97fff969 	bl	402160 <printf_positional>
  403bc0:	90000460 	adrp	x0, 48f000 <tunable_list+0x880>
  403bc4:	f9462c00 	ldr	x0, [x0, #3160]
  403bc8:	f942afe2 	ldr	x2, [sp, #1368]
  403bcc:	f9400001 	ldr	x1, [x0]
  403bd0:	eb010042 	subs	x2, x2, x1
  403bd4:	d2800001 	mov	x1, #0x0                   	// #0
  403bd8:	5400cb81 	b.ne	405548 <__printf_buffer+0x1b58>  // b.any
  403bdc:	911583ff 	add	sp, sp, #0x560
  403be0:	a94153f3 	ldp	x19, x20, [sp, #16]
  403be4:	a9425bf5 	ldp	x21, x22, [sp, #32]
  403be8:	a8c67bfd 	ldp	x29, x30, [sp], #96
  403bec:	d65f03c0 	ret
  403bf0:	f9404fe1 	ldr	x1, [sp, #152]
  403bf4:	1280001c 	mov	w28, #0xffffffff            	// #-1
  403bf8:	52800018 	mov	w24, #0x0                   	// #0
  403bfc:	5280001b 	mov	w27, #0x0                   	// #0
  403c00:	52800017 	mov	w23, #0x0                   	// #0
  403c04:	52800009 	mov	w9, #0x0                   	// #0
  403c08:	3860c820 	ldrb	w0, [x1, w0, sxtw]
  403c0c:	52800401 	mov	w1, #0x20                  	// #32
  403c10:	b90043e1 	str	w1, [sp, #64]
  403c14:	52800008 	mov	w8, #0x0                   	// #0
  403c18:	f9404be1 	ldr	x1, [sp, #144]
  403c1c:	2905ffff 	stp	wzr, wzr, [sp, #44]
  403c20:	29097fff 	stp	wzr, wzr, [sp, #72]
  403c24:	b90053ff 	str	wzr, [sp, #80]
  403c28:	f8607821 	ldr	x1, [x1, x0, lsl #3]
  403c2c:	b9006bff 	str	wzr, [sp, #104]
  403c30:	d61f0020 	br	x1
  403c34:	f94083e0 	ldr	x0, [sp, #256]
  403c38:	91000401 	add	x1, x0, #0x1
  403c3c:	f90083e1 	str	x1, [sp, #256]
  403c40:	39400404 	ldrb	w4, [x0, #1]
  403c44:	51008080 	sub	w0, w4, #0x20
  403c48:	12001c01 	and	w1, w0, #0xff
  403c4c:	7101683f 	cmp	w1, #0x5a
  403c50:	54fff768 	b.hi	403b3c <__printf_buffer+0x14c>  // b.pmore
  403c54:	f00002a1 	adrp	x1, 45a000 <__PRETTY_FUNCTION__.0+0x1c0>
  403c58:	91250022 	add	x2, x1, #0x940
  403c5c:	b0000441 	adrp	x1, 48c000 <__FRAME_END__+0x116fc>
  403c60:	910e8021 	add	x1, x1, #0x3a0
  403c64:	91140021 	add	x1, x1, #0x500
  403c68:	5280003b 	mov	w27, #0x1                   	// #1
  403c6c:	3860c840 	ldrb	w0, [x2, w0, sxtw]
  403c70:	52800009 	mov	w9, #0x0                   	// #0
  403c74:	f8607821 	ldr	x1, [x1, x0, lsl #3]
  403c78:	d61f0020 	br	x1
  403c7c:	f9403fe0 	ldr	x0, [sp, #120]
  403c80:	3700acc0 	tbnz	w0, #0, 405218 <__printf_buffer+0x1828>
  403c84:	2a0903e0 	mov	w0, w9
  403c88:	b9404fe1 	ldr	w1, [sp, #76]
  403c8c:	9104a3e2 	add	x2, sp, #0x128
  403c90:	2a170400 	orr	w0, w0, w23, lsl #1
  403c94:	2a1b0800 	orr	w0, w0, w27, lsl #2
  403c98:	2a010c00 	orr	w0, w0, w1, lsl #3
  403c9c:	b9402fe1 	ldr	w1, [sp, #44]
  403ca0:	293f045c 	stp	w28, w1, [x2, #-8]
  403ca4:	b9406be1 	ldr	w1, [sp, #104]
  403ca8:	29007c44 	stp	w4, wzr, [x2]
  403cac:	2a011000 	orr	w0, w0, w1, lsl #4
  403cb0:	b94033e1 	ldr	w1, [sp, #48]
  403cb4:	2a011400 	orr	w0, w0, w1, lsl #5
  403cb8:	b94043e1 	ldr	w1, [sp, #64]
  403cbc:	b90133e1 	str	w1, [sp, #304]
  403cc0:	b9404be1 	ldr	w1, [sp, #72]
  403cc4:	2a011800 	orr	w0, w0, w1, lsl #6
  403cc8:	b94053e1 	ldr	w1, [sp, #80]
  403ccc:	2a081c00 	orr	w0, w0, w8, lsl #7
  403cd0:	2a012c1c 	orr	w28, w0, w1, lsl #11
  403cd4:	79025bfc 	strh	w28, [sp, #300]
  403cd8:	b9408be0 	ldr	w0, [sp, #136]
  403cdc:	35000969 	cbnz	w9, 403e08 <__printf_buffer+0x418>
  403ce0:	37f88660 	tbnz	w0, #31, 404dac <__printf_buffer+0x13bc>
  403ce4:	91003ec1 	add	x1, x22, #0xf
  403ce8:	aa1603e0 	mov	x0, x22
  403cec:	927df036 	and	x22, x1, #0xfffffffffffffff8
  403cf0:	fd400000 	ldr	d0, [x0]
  403cf4:	fd008be0 	str	d0, [sp, #272]
  403cf8:	910443e1 	add	x1, sp, #0x110
  403cfc:	d2a00000 	movz	x0, #0x0, lsl #16
  403d00:	f2800400 	movk	x0, #0x20
  403d04:	f90087e1 	str	x1, [sp, #264]
  403d08:	121a7884 	and	w4, w4, #0xffffffdf
  403d0c:	f94033e1 	ldr	x1, [sp, #96]
  403d10:	910423e3 	add	x3, sp, #0x108
  403d14:	910483e2 	add	x2, sp, #0x120
  403d18:	f8606821 	ldr	x1, [x1, x0]
  403d1c:	aa1303e0 	mov	x0, x19
  403d20:	7101049f 	cmp	w4, #0x41
  403d24:	54006c81 	b.ne	404ab4 <__printf_buffer+0x10c4>  // b.any
  403d28:	9400a647 	bl	42d644 <__printf_fphex_l_buffer>
  403d2c:	d503201f 	nop
  403d30:	f94083f7 	ldr	x23, [sp, #256]
  403d34:	528004a1 	mov	w1, #0x25                  	// #37
  403d38:	b94027e0 	ldr	w0, [sp, #36]
  403d3c:	910006f7 	add	x23, x23, #0x1
  403d40:	11000400 	add	w0, w0, #0x1
  403d44:	b90027e0 	str	w0, [sp, #36]
  403d48:	aa1703e0 	mov	x0, x23
  403d4c:	94003ccd 	bl	413080 <__strchrnul>
  403d50:	aa0003f5 	mov	x21, x0
  403d54:	aa1703e1 	mov	x1, x23
  403d58:	aa1303e0 	mov	x0, x19
  403d5c:	cb1702a2 	sub	x2, x21, x23
  403d60:	f90083f5 	str	x21, [sp, #256]
  403d64:	94009b0b 	bl	42a990 <__printf_buffer_write>
  403d68:	394002a0 	ldrb	w0, [x21]
  403d6c:	34000060 	cbz	w0, 403d78 <__printf_buffer+0x388>
  403d70:	b9402260 	ldr	w0, [x19, #32]
  403d74:	35ffed60 	cbnz	w0, 403b20 <__printf_buffer+0x130>
  403d78:	f942cbf7 	ldr	x23, [sp, #1424]
  403d7c:	f942cff8 	ldr	x24, [sp, #1432]
  403d80:	f942d3f9 	ldr	x25, [sp, #1440]
  403d84:	f942d7fa 	ldr	x26, [sp, #1448]
  403d88:	f942dbfb 	ldr	x27, [sp, #1456]
  403d8c:	f942dffc 	ldr	x28, [sp, #1464]
  403d90:	17ffff8c 	b	403bc0 <__printf_buffer+0x1d0>
  403d94:	b9402be0 	ldr	w0, [sp, #40]
  403d98:	910563e2 	add	x2, sp, #0x158
  403d9c:	f900afff 	str	xzr, [sp, #344]
  403da0:	37f80420 	tbnz	w0, #31, 403e24 <__printf_buffer+0x434>
  403da4:	91002ec1 	add	x1, x22, #0xb
  403da8:	aa1603e0 	mov	x0, x22
  403dac:	927df036 	and	x22, x1, #0xfffffffffffffff8
  403db0:	b9400001 	ldr	w1, [x0]
  403db4:	910583f7 	add	x23, sp, #0x160
  403db8:	aa1703e0 	mov	x0, x23
  403dbc:	9400462d 	bl	415670 <__wcrtomb>
  403dc0:	aa0003f5 	mov	x21, x0
  403dc4:	b100041f 	cmn	x0, #0x1
  403dc8:	54004ba0 	b.eq	40473c <__printf_buffer+0xd4c>  // b.none
  403dcc:	b9402fe0 	ldr	w0, [sp, #44]
  403dd0:	4b150018 	sub	w24, w0, w21
  403dd4:	b94033e0 	ldr	w0, [sp, #48]
  403dd8:	35006c20 	cbnz	w0, 404b5c <__printf_buffer+0x116c>
  403ddc:	7100031f 	cmp	w24, #0x0
  403de0:	540000ad 	b.le	403df4 <__printf_buffer+0x404>
  403de4:	2a1803e2 	mov	w2, w24
  403de8:	aa1303e0 	mov	x0, x19
  403dec:	52800401 	mov	w1, #0x20                  	// #32
  403df0:	940099e4 	bl	42a580 <__printf_buffer_pad_1>
  403df4:	aa1503e2 	mov	x2, x21
  403df8:	aa1703e1 	mov	x1, x23
  403dfc:	aa1303e0 	mov	x0, x19
  403e00:	94009ae4 	bl	42a990 <__printf_buffer_write>
  403e04:	17ffffcb 	b	403d30 <__printf_buffer+0x340>
  403e08:	37f87940 	tbnz	w0, #31, 404d30 <__printf_buffer+0x1340>
  403e0c:	91003ec0 	add	x0, x22, #0xf
  403e10:	927cec00 	and	x0, x0, #0xfffffffffffffff0
  403e14:	91004016 	add	x22, x0, #0x10
  403e18:	3dc00000 	ldr	q0, [x0]
  403e1c:	3d8047e0 	str	q0, [sp, #272]
  403e20:	17ffffb6 	b	403cf8 <__printf_buffer+0x308>
  403e24:	b9402be0 	ldr	w0, [sp, #40]
  403e28:	11002001 	add	w1, w0, #0x8
  403e2c:	7100003f 	cmp	w1, #0x0
  403e30:	5400974d 	b.le	405118 <__printf_buffer+0x1728>
  403e34:	91002ec3 	add	x3, x22, #0xb
  403e38:	aa1603e0 	mov	x0, x22
  403e3c:	927df076 	and	x22, x3, #0xfffffffffffffff8
  403e40:	b9002be1 	str	w1, [sp, #40]
  403e44:	17ffffdb 	b	403db0 <__printf_buffer+0x3c0>
  403e48:	b9402be0 	ldr	w0, [sp, #40]
  403e4c:	37f879e0 	tbnz	w0, #31, 404d88 <__printf_buffer+0x1398>
  403e50:	91003ec1 	add	x1, x22, #0xf
  403e54:	aa1603e0 	mov	x0, x22
  403e58:	927df036 	and	x22, x1, #0xfffffffffffffff8
  403e5c:	f9400015 	ldr	x21, [x0]
  403e60:	52000360 	eor	w0, w27, #0x1
  403e64:	b5000815 	cbnz	x21, 403f64 <__printf_buffer+0x574>
  403e68:	7100179f 	cmp	w28, #0x5
  403e6c:	3a41db84 	ccmn	w28, #0x1, #0x4, le
  403e70:	540086a0 	b.eq	404f44 <__printf_buffer+0x1554>  // b.none
  403e74:	f00002b5 	adrp	x21, 45a000 <__PRETTY_FUNCTION__.0+0x1c0>
  403e78:	911fa2b5 	add	x21, x21, #0x7e8
  403e7c:	52800001 	mov	w1, #0x0                   	// #0
  403e80:	d2800018 	mov	x24, #0x0                   	// #0
  403e84:	d503201f 	nop
  403e88:	b9402fe0 	ldr	w0, [sp, #44]
  403e8c:	6b010017 	subs	w23, w0, w1
  403e90:	54000104 	b.mi	403eb0 <__printf_buffer+0x4c0>  // b.first
  403e94:	b94033e0 	ldr	w0, [sp, #48]
  403e98:	35006780 	cbnz	w0, 404b88 <__printf_buffer+0x1198>
  403e9c:	340000b7 	cbz	w23, 403eb0 <__printf_buffer+0x4c0>
  403ea0:	2a1703e2 	mov	w2, w23
  403ea4:	aa1303e0 	mov	x0, x19
  403ea8:	52800401 	mov	w1, #0x20                  	// #32
  403eac:	940099b5 	bl	42a580 <__printf_buffer_pad_1>
  403eb0:	aa1803e2 	mov	x2, x24
  403eb4:	aa1503e1 	mov	x1, x21
  403eb8:	aa1303e0 	mov	x0, x19
  403ebc:	94009ab5 	bl	42a990 <__printf_buffer_write>
  403ec0:	17ffff9c 	b	403d30 <__printf_buffer+0x340>
  403ec4:	35fff69b 	cbnz	w27, 403d94 <__printf_buffer+0x3a4>
  403ec8:	b9402fe0 	ldr	w0, [sp, #44]
  403ecc:	51000417 	sub	w23, w0, #0x1
  403ed0:	b94033e0 	ldr	w0, [sp, #48]
  403ed4:	710002ff 	cmp	w23, #0x0
  403ed8:	1a9fd7f5 	cset	w21, gt
  403edc:	52000000 	eor	w0, w0, #0x1
  403ee0:	6a0002bf 	tst	w21, w0
  403ee4:	5400a061 	b.ne	4052f0 <__printf_buffer+0x1900>  // b.any
  403ee8:	b9402be0 	ldr	w0, [sp, #40]
  403eec:	37f88f80 	tbnz	w0, #31, 4050dc <__printf_buffer+0x16ec>
  403ef0:	91002ec0 	add	x0, x22, #0xb
  403ef4:	aa1603e1 	mov	x1, x22
  403ef8:	927df016 	and	x22, x0, #0xfffffffffffffff8
  403efc:	a9408a60 	ldp	x0, x2, [x19, #8]
  403f00:	39400021 	ldrb	w1, [x1]
  403f04:	eb02001f 	cmp	x0, x2
  403f08:	5400a260 	b.eq	405354 <__printf_buffer+0x1964>  // b.none
  403f0c:	91000402 	add	x2, x0, #0x1
  403f10:	f9000662 	str	x2, [x19, #8]
  403f14:	39000001 	strb	w1, [x0]
  403f18:	b94033e0 	ldr	w0, [sp, #48]
  403f1c:	6a0002bf 	tst	w21, w0
  403f20:	54fff080 	b.eq	403d30 <__printf_buffer+0x340>  // b.none
  403f24:	93407ee2 	sxtw	x2, w23
  403f28:	aa1303e0 	mov	x0, x19
  403f2c:	52800401 	mov	w1, #0x20                  	// #32
  403f30:	94009994 	bl	42a580 <__printf_buffer_pad_1>
  403f34:	17ffff7f 	b	403d30 <__printf_buffer+0x340>
  403f38:	b9404fe0 	ldr	w0, [sp, #76]
  403f3c:	b9003be8 	str	w8, [sp, #56]
  403f40:	b9005be4 	str	w4, [sp, #88]
  403f44:	34006940 	cbz	w0, 404c6c <__printf_buffer+0x127c>
  403f48:	b940d3e0 	ldr	w0, [sp, #208]
  403f4c:	94000629 	bl	4057f0 <__get_errname>
  403f50:	aa0003f5 	mov	x21, x0
  403f54:	b9403be8 	ldr	w8, [sp, #56]
  403f58:	b9405be4 	ldr	w4, [sp, #88]
  403f5c:	52800020 	mov	w0, #0x1                   	// #1
  403f60:	b4007fd5 	cbz	x21, 404f58 <__printf_buffer+0x1568>
  403f64:	71014c9f 	cmp	w4, #0x53
  403f68:	7a401804 	ccmp	w0, #0x0, #0x4, ne	// ne = any
  403f6c:	54006aa0 	b.eq	404cc0 <__printf_buffer+0x12d0>  // b.none
  403f70:	3100079f 	cmn	w28, #0x1
  403f74:	54007c20 	b.eq	404ef8 <__printf_buffer+0x1508>  // b.none
  403f78:	93407f81 	sxtw	x1, w28
  403f7c:	aa1503e0 	mov	x0, x21
  403f80:	94003c80 	bl	413180 <__strnlen>
  403f84:	aa0003f8 	mov	x24, x0
  403f88:	2a0003e1 	mov	w1, w0
  403f8c:	17ffffbf 	b	403e88 <__printf_buffer+0x498>
  403f90:	f9403fe0 	ldr	x0, [sp, #120]
  403f94:	360800a0 	tbz	w0, #1, 403fa8 <__printf_buffer+0x5b8>
  403f98:	b940d7e0 	ldr	w0, [sp, #212]
  403f9c:	34008c80 	cbz	w0, 40512c <__printf_buffer+0x173c>
  403fa0:	b940d7e0 	ldr	w0, [sp, #212]
  403fa4:	37f8ae00 	tbnz	w0, #31, 405564 <__printf_buffer+0x1b74>
  403fa8:	b9402be0 	ldr	w0, [sp, #40]
  403fac:	37f86a20 	tbnz	w0, #31, 404cf0 <__printf_buffer+0x1300>
  403fb0:	91003ed5 	add	x21, x22, #0xf
  403fb4:	927df2b5 	and	x21, x21, #0xfffffffffffffff8
  403fb8:	f94002d6 	ldr	x22, [x22]
  403fbc:	aa1303e0 	mov	x0, x19
  403fc0:	94009954 	bl	42a510 <__printf_buffer_done>
  403fc4:	3400665b 	cbz	w27, 404c8c <__printf_buffer+0x129c>
  403fc8:	2a0003e0 	mov	w0, w0
  403fcc:	f90002c0 	str	x0, [x22]
  403fd0:	aa1503f6 	mov	x22, x21
  403fd4:	17ffff57 	b	403d30 <__printf_buffer+0x340>
  403fd8:	f94083e0 	ldr	x0, [sp, #256]
  403fdc:	91000401 	add	x1, x0, #0x1
  403fe0:	f90093e1 	str	x1, [sp, #288]
  403fe4:	f90083e1 	str	x1, [sp, #256]
  403fe8:	39400404 	ldrb	w4, [x0, #1]
  403fec:	5100c080 	sub	w0, w4, #0x30
  403ff0:	7100241f 	cmp	w0, #0x9
  403ff4:	54007669 	b.ls	404ec0 <__printf_buffer+0x14d0>  // b.plast
  403ff8:	b9402be0 	ldr	w0, [sp, #40]
  403ffc:	37f86ea0 	tbnz	w0, #31, 404dd0 <__printf_buffer+0x13e0>
  404000:	91002ec1 	add	x1, x22, #0xb
  404004:	aa1603e0 	mov	x0, x22
  404008:	927df036 	and	x22, x1, #0xfffffffffffffff8
  40400c:	b9400000 	ldr	w0, [x0]
  404010:	b9002fe0 	str	w0, [sp, #44]
  404014:	36f800e0 	tbz	w0, #31, 404030 <__printf_buffer+0x640>
  404018:	4b0003e0 	neg	w0, w0
  40401c:	b9002fe0 	str	w0, [sp, #44]
  404020:	52800400 	mov	w0, #0x20                  	// #32
  404024:	b90043e0 	str	w0, [sp, #64]
  404028:	52800020 	mov	w0, #0x1                   	// #1
  40402c:	b90033e0 	str	w0, [sp, #48]
  404030:	51008080 	sub	w0, w4, #0x20
  404034:	12001c01 	and	w1, w0, #0xff
  404038:	7101683f 	cmp	w1, #0x5a
  40403c:	54ffd808 	b.hi	403b3c <__printf_buffer+0x14c>  // b.pmore
  404040:	d00002a1 	adrp	x1, 45a000 <__PRETTY_FUNCTION__.0+0x1c0>
  404044:	91250022 	add	x2, x1, #0x940
  404048:	90000441 	adrp	x1, 48c000 <__FRAME_END__+0x116fc>
  40404c:	910e8021 	add	x1, x1, #0x3a0
  404050:	91080021 	add	x1, x1, #0x200
  404054:	3860c840 	ldrb	w0, [x2, w0, sxtw]
  404058:	f8607821 	ldr	x1, [x1, x0, lsl #3]
  40405c:	d61f0020 	br	x1
  404060:	f94083e0 	ldr	x0, [sp, #256]
  404064:	91000401 	add	x1, x0, #0x1
  404068:	f90083e1 	str	x1, [sp, #256]
  40406c:	39400404 	ldrb	w4, [x0, #1]
  404070:	51008080 	sub	w0, w4, #0x20
  404074:	12001c01 	and	w1, w0, #0xff
  404078:	7101683f 	cmp	w1, #0x5a
  40407c:	54ffd608 	b.hi	403b3c <__printf_buffer+0x14c>  // b.pmore
  404080:	d00002a1 	adrp	x1, 45a000 <__PRETTY_FUNCTION__.0+0x1c0>
  404084:	91250022 	add	x2, x1, #0x940
  404088:	90000441 	adrp	x1, 48c000 <__FRAME_END__+0x116fc>
  40408c:	910e8021 	add	x1, x1, #0x3a0
  404090:	91040021 	add	x1, x1, #0x100
  404094:	52800023 	mov	w3, #0x1                   	// #1
  404098:	3860c840 	ldrb	w0, [x2, w0, sxtw]
  40409c:	b90053e3 	str	w3, [sp, #80]
  4040a0:	f8607821 	ldr	x1, [x1, x0, lsl #3]
  4040a4:	d61f0020 	br	x1
  4040a8:	f9406fe0 	ldr	x0, [sp, #216]
  4040ac:	b100041f 	cmn	x0, #0x1
  4040b0:	540072e0 	b.eq	404f0c <__printf_buffer+0x151c>  // b.none
  4040b4:	f94083e0 	ldr	x0, [sp, #256]
  4040b8:	91000401 	add	x1, x0, #0x1
  4040bc:	f90083e1 	str	x1, [sp, #256]
  4040c0:	39400404 	ldrb	w4, [x0, #1]
  4040c4:	51008080 	sub	w0, w4, #0x20
  4040c8:	12001c01 	and	w1, w0, #0xff
  4040cc:	7101683f 	cmp	w1, #0x5a
  4040d0:	54ffd368 	b.hi	403b3c <__printf_buffer+0x14c>  // b.pmore
  4040d4:	d00002a1 	adrp	x1, 45a000 <__PRETTY_FUNCTION__.0+0x1c0>
  4040d8:	91250022 	add	x2, x1, #0x940
  4040dc:	90000441 	adrp	x1, 48c000 <__FRAME_END__+0x116fc>
  4040e0:	910e8021 	add	x1, x1, #0x3a0
  4040e4:	91040021 	add	x1, x1, #0x100
  4040e8:	52800028 	mov	w8, #0x1                   	// #1
  4040ec:	3860c840 	ldrb	w0, [x2, w0, sxtw]
  4040f0:	f8607821 	ldr	x1, [x1, x0, lsl #3]
  4040f4:	d61f0020 	br	x1
  4040f8:	f94083e0 	ldr	x0, [sp, #256]
  4040fc:	b94033e1 	ldr	w1, [sp, #48]
  404100:	b94043e2 	ldr	w2, [sp, #64]
  404104:	7100003f 	cmp	w1, #0x0
  404108:	39400404 	ldrb	w4, [x0, #1]
  40410c:	52800601 	mov	w1, #0x30                  	// #48
  404110:	1a811041 	csel	w1, w2, w1, ne	// ne = any
  404114:	b90043e1 	str	w1, [sp, #64]
  404118:	91000401 	add	x1, x0, #0x1
  40411c:	51008080 	sub	w0, w4, #0x20
  404120:	f90083e1 	str	x1, [sp, #256]
  404124:	12001c01 	and	w1, w0, #0xff
  404128:	7101683f 	cmp	w1, #0x5a
  40412c:	54ffd088 	b.hi	403b3c <__printf_buffer+0x14c>  // b.pmore
  404130:	d00002a1 	adrp	x1, 45a000 <__PRETTY_FUNCTION__.0+0x1c0>
  404134:	91250022 	add	x2, x1, #0x940
  404138:	90000441 	adrp	x1, 48c000 <__FRAME_END__+0x116fc>
  40413c:	910e8021 	add	x1, x1, #0x3a0
  404140:	91040021 	add	x1, x1, #0x100
  404144:	3860c840 	ldrb	w0, [x2, w0, sxtw]
  404148:	f8607821 	ldr	x1, [x1, x0, lsl #3]
  40414c:	d61f0020 	br	x1
  404150:	f94083e0 	ldr	x0, [sp, #256]
  404154:	91000401 	add	x1, x0, #0x1
  404158:	f90083e1 	str	x1, [sp, #256]
  40415c:	39400404 	ldrb	w4, [x0, #1]
  404160:	51008080 	sub	w0, w4, #0x20
  404164:	12001c01 	and	w1, w0, #0xff
  404168:	7101683f 	cmp	w1, #0x5a
  40416c:	54ffce88 	b.hi	403b3c <__printf_buffer+0x14c>  // b.pmore
  404170:	d00002a1 	adrp	x1, 45a000 <__PRETTY_FUNCTION__.0+0x1c0>
  404174:	91250022 	add	x2, x1, #0x940
  404178:	90000441 	adrp	x1, 48c000 <__FRAME_END__+0x116fc>
  40417c:	910e8021 	add	x1, x1, #0x3a0
  404180:	91040021 	add	x1, x1, #0x100
  404184:	52800023 	mov	w3, #0x1                   	// #1
  404188:	3860c840 	ldrb	w0, [x2, w0, sxtw]
  40418c:	b9004fe3 	str	w3, [sp, #76]
  404190:	f8607821 	ldr	x1, [x1, x0, lsl #3]
  404194:	d61f0020 	br	x1
  404198:	f94083e0 	ldr	x0, [sp, #256]
  40419c:	91000401 	add	x1, x0, #0x1
  4041a0:	f90083e1 	str	x1, [sp, #256]
  4041a4:	39400404 	ldrb	w4, [x0, #1]
  4041a8:	51008080 	sub	w0, w4, #0x20
  4041ac:	12001c01 	and	w1, w0, #0xff
  4041b0:	7101683f 	cmp	w1, #0x5a
  4041b4:	54ffcc48 	b.hi	403b3c <__printf_buffer+0x14c>  // b.pmore
  4041b8:	d00002a1 	adrp	x1, 45a000 <__PRETTY_FUNCTION__.0+0x1c0>
  4041bc:	91250022 	add	x2, x1, #0x940
  4041c0:	90000441 	adrp	x1, 48c000 <__FRAME_END__+0x116fc>
  4041c4:	910e8021 	add	x1, x1, #0x3a0
  4041c8:	91040021 	add	x1, x1, #0x100
  4041cc:	52800403 	mov	w3, #0x20                  	// #32
  4041d0:	3860c840 	ldrb	w0, [x2, w0, sxtw]
  4041d4:	52800022 	mov	w2, #0x1                   	// #1
  4041d8:	b90033e2 	str	w2, [sp, #48]
  4041dc:	b90043e3 	str	w3, [sp, #64]
  4041e0:	f8607821 	ldr	x1, [x1, x0, lsl #3]
  4041e4:	d61f0020 	br	x1
  4041e8:	f94083e0 	ldr	x0, [sp, #256]
  4041ec:	91000401 	add	x1, x0, #0x1
  4041f0:	f90083e1 	str	x1, [sp, #256]
  4041f4:	39400404 	ldrb	w4, [x0, #1]
  4041f8:	51008080 	sub	w0, w4, #0x20
  4041fc:	12001c01 	and	w1, w0, #0xff
  404200:	7101683f 	cmp	w1, #0x5a
  404204:	54ffc9c8 	b.hi	403b3c <__printf_buffer+0x14c>  // b.pmore
  404208:	d00002a1 	adrp	x1, 45a000 <__PRETTY_FUNCTION__.0+0x1c0>
  40420c:	91250022 	add	x2, x1, #0x940
  404210:	90000441 	adrp	x1, 48c000 <__FRAME_END__+0x116fc>
  404214:	910e8021 	add	x1, x1, #0x3a0
  404218:	91040021 	add	x1, x1, #0x100
  40421c:	52800023 	mov	w3, #0x1                   	// #1
  404220:	3860c840 	ldrb	w0, [x2, w0, sxtw]
  404224:	b9004be3 	str	w3, [sp, #72]
  404228:	f8607821 	ldr	x1, [x1, x0, lsl #3]
  40422c:	d61f0020 	br	x1
  404230:	f94083e0 	ldr	x0, [sp, #256]
  404234:	91000401 	add	x1, x0, #0x1
  404238:	f90083e1 	str	x1, [sp, #256]
  40423c:	39400404 	ldrb	w4, [x0, #1]
  404240:	51008080 	sub	w0, w4, #0x20
  404244:	12001c01 	and	w1, w0, #0xff
  404248:	7101683f 	cmp	w1, #0x5a
  40424c:	54ffc788 	b.hi	403b3c <__printf_buffer+0x14c>  // b.pmore
  404250:	d00002a1 	adrp	x1, 45a000 <__PRETTY_FUNCTION__.0+0x1c0>
  404254:	91250022 	add	x2, x1, #0x940
  404258:	90000441 	adrp	x1, 48c000 <__FRAME_END__+0x116fc>
  40425c:	910e8021 	add	x1, x1, #0x3a0
  404260:	91040021 	add	x1, x1, #0x100
  404264:	52800023 	mov	w3, #0x1                   	// #1
  404268:	3860c840 	ldrb	w0, [x2, w0, sxtw]
  40426c:	b9006be3 	str	w3, [sp, #104]
  404270:	f8607821 	ldr	x1, [x1, x0, lsl #3]
  404274:	d61f0020 	br	x1
  404278:	b9402be0 	ldr	w0, [sp, #40]
  40427c:	37f854a0 	tbnz	w0, #31, 404d10 <__printf_buffer+0x1320>
  404280:	91003ec0 	add	x0, x22, #0xf
  404284:	927df000 	and	x0, x0, #0xfffffffffffffff8
  404288:	f94002d9 	ldr	x25, [x22]
  40428c:	b40050b9 	cbz	x25, 404ca0 <__printf_buffer+0x12b0>
  404290:	aa0003f6 	mov	x22, x0
  404294:	52800020 	mov	w0, #0x1                   	// #1
  404298:	52800f04 	mov	w4, #0x78                  	// #120
  40429c:	52800008 	mov	w8, #0x0                   	// #0
  4042a0:	5280001b 	mov	w27, #0x0                   	// #0
  4042a4:	b9004fe0 	str	w0, [sp, #76]
  4042a8:	b9006fe0 	str	w0, [sp, #108]
  4042ac:	52800200 	mov	w0, #0x10                  	// #16
  4042b0:	b9003be0 	str	w0, [sp, #56]
  4042b4:	7100039f 	cmp	w28, #0x0
  4042b8:	54000e8b 	b.lt	404488 <__printf_buffer+0xa98>  // b.tstop
  4042bc:	54002e20 	b.eq	404880 <__printf_buffer+0xe90>  // b.none
  4042c0:	93407f95 	sxtw	x21, w28
  4042c4:	52800400 	mov	w0, #0x20                  	// #32
  4042c8:	b90043e0 	str	w0, [sp, #64]
  4042cc:	b9403be2 	ldr	w2, [sp, #56]
  4042d0:	7101609f 	cmp	w4, #0x58
  4042d4:	911563fa 	add	x26, sp, #0x558
  4042d8:	1a9f17e3 	cset	w3, eq	// eq = none
  4042dc:	aa1a03e1 	mov	x1, x26
  4042e0:	aa1903e0 	mov	x0, x25
  4042e4:	b90083e4 	str	w4, [sp, #128]
  4042e8:	b9008fe8 	str	w8, [sp, #140]
  4042ec:	940097a9 	bl	42a190 <_itoa_word>
  4042f0:	b94083e4 	ldr	w4, [sp, #128]
  4042f4:	cb000358 	sub	x24, x26, x0
  4042f8:	b9408fe8 	ldr	w8, [sp, #140]
  4042fc:	f9002fe0 	str	x0, [sp, #88]
  404300:	b9403be0 	ldr	w0, [sp, #56]
  404304:	7100281f 	cmp	w0, #0xa
  404308:	b94053e0 	ldr	w0, [sp, #80]
  40430c:	1a9f17f7 	cset	w23, eq	// eq = none
  404310:	0a0002f7 	and	w23, w23, w0
  404314:	35002fa8 	cbnz	w8, 404908 <__printf_buffer+0xf18>
  404318:	340034b7 	cbz	w23, 4049ac <__printf_buffer+0xfbc>
  40431c:	2a1803e1 	mov	w1, w24
  404320:	910483e0 	add	x0, sp, #0x120
  404324:	b90053e4 	str	w4, [sp, #80]
  404328:	94009816 	bl	42a380 <__grouping_iterator_init_none>
  40432c:	a9458fe1 	ldp	x1, x3, [sp, #88]
  404330:	aa1a03e2 	mov	x2, x26
  404334:	d2a00000 	movz	x0, #0x0, lsl #16
  404338:	f2800400 	movk	x0, #0x20
  40433c:	f8606860 	ldr	x0, [x3, x0]
  404340:	9400a704 	bl	42df50 <__translated_number_width>
  404344:	6b00039f 	cmp	w28, w0
  404348:	1a9fc7e1 	cset	w1, le
  40434c:	eb1802a8 	subs	x8, x21, x24
  404350:	9a9f5108 	csel	x8, x8, xzr, pl	// pl = nfrst
  404354:	b94053e4 	ldr	w4, [sp, #80]
  404358:	2a0003fa 	mov	w26, w0
  40435c:	2a1703e3 	mov	w3, w23
  404360:	2a0803f5 	mov	w21, w8
  404364:	f100033f 	cmp	x25, #0x0
  404368:	5280001c 	mov	w28, #0x0                   	// #0
  40436c:	1a9f07e0 	cset	w0, ne	// ne = any
  404370:	7100001f 	cmp	w0, #0x0
  404374:	7a401824 	ccmp	w1, #0x0, #0x4, ne	// ne = any
  404378:	54002bc1 	b.ne	4048f0 <__printf_buffer+0xf00>  // b.any
  40437c:	b9406fe1 	ldr	w1, [sp, #108]
  404380:	0a010019 	and	w25, w0, w1
  404384:	b94033e0 	ldr	w0, [sp, #48]
  404388:	35001ea0 	cbnz	w0, 40475c <__printf_buffer+0xd6c>
  40438c:	b9402fe0 	ldr	w0, [sp, #44]
  404390:	0b1a02a2 	add	w2, w21, w26
  404394:	1200033a 	and	w26, w25, #0x1
  404398:	4b020002 	sub	w2, w0, w2
  40439c:	35003c19 	cbnz	w25, 404b1c <__printf_buffer+0x112c>
  4043a0:	b9406be0 	ldr	w0, [sp, #104]
  4043a4:	4b1c0042 	sub	w2, w2, w28
  4043a8:	b9404be1 	ldr	w1, [sp, #72]
  4043ac:	2a000360 	orr	w0, w27, w0
  4043b0:	2a010000 	orr	w0, w0, w1
  4043b4:	35003260 	cbnz	w0, 404a00 <__printf_buffer+0x1010>
  4043b8:	b94043e0 	ldr	w0, [sp, #64]
  4043bc:	7100801f 	cmp	w0, #0x20
  4043c0:	54004180 	b.eq	404bf0 <__printf_buffer+0x1200>  // b.none
  4043c4:	0b0202b5 	add	w21, w21, w2
  4043c8:	350033da 	cbnz	w26, 404a40 <__printf_buffer+0x1050>
  4043cc:	710002bf 	cmp	w21, #0x0
  4043d0:	5400016c 	b.gt	4043fc <__printf_buffer+0xa0c>
  4043d4:	3500023c 	cbnz	w28, 404418 <__printf_buffer+0xa28>
  4043d8:	36000303 	tbz	w3, #0, 404438 <__printf_buffer+0xa48>
  4043dc:	f9402fe2 	ldr	x2, [sp, #88]
  4043e0:	2a1703e5 	mov	w5, w23
  4043e4:	f9403be4 	ldr	x4, [sp, #112]
  4043e8:	911563e3 	add	x3, sp, #0x558
  4043ec:	910483e1 	add	x1, sp, #0x120
  4043f0:	aa1303e0 	mov	x0, x19
  4043f4:	97fff714 	bl	402044 <group_number>
  4043f8:	17fffe4e 	b	403d30 <__printf_buffer+0x340>
  4043fc:	2a1503e2 	mov	w2, w21
  404400:	aa1303e0 	mov	x0, x19
  404404:	52800601 	mov	w1, #0x30                  	// #48
  404408:	b9002fe3 	str	w3, [sp, #44]
  40440c:	9400985d 	bl	42a580 <__printf_buffer_pad_1>
  404410:	b9402fe3 	ldr	w3, [sp, #44]
  404414:	34fffe3c 	cbz	w28, 4043d8 <__printf_buffer+0x9e8>
  404418:	a9408660 	ldp	x0, x1, [x19, #8]
  40441c:	eb01001f 	cmp	x0, x1
  404420:	54007300 	b.eq	405280 <__printf_buffer+0x1890>  // b.none
  404424:	91000401 	add	x1, x0, #0x1
  404428:	f9000661 	str	x1, [x19, #8]
  40442c:	52800601 	mov	w1, #0x30                  	// #48
  404430:	39000001 	strb	w1, [x0]
  404434:	3707fd43 	tbnz	w3, #0, 4043dc <__printf_buffer+0x9ec>
  404438:	f9402fe1 	ldr	x1, [sp, #88]
  40443c:	aa1803e2 	mov	x2, x24
  404440:	aa1303e0 	mov	x0, x19
  404444:	94009953 	bl	42a990 <__printf_buffer_write>
  404448:	17fffe3a 	b	403d30 <__printf_buffer+0x340>
  40444c:	aa1603e0 	mov	x0, x22
  404450:	52800041 	mov	w1, #0x2                   	// #2
  404454:	b9003be1 	str	w1, [sp, #56]
  404458:	b9402be1 	ldr	w1, [sp, #40]
  40445c:	3400027b 	cbz	w27, 4044a8 <__printf_buffer+0xab8>
  404460:	37f834e1 	tbnz	w1, #31, 404afc <__printf_buffer+0x110c>
  404464:	91003ed6 	add	x22, x22, #0xf
  404468:	927df2d6 	and	x22, x22, #0xfffffffffffffff8
  40446c:	f9400019 	ldr	x25, [x0]
  404470:	b9004bff 	str	wzr, [sp, #72]
  404474:	b9404fe0 	ldr	w0, [sp, #76]
  404478:	5280001b 	mov	w27, #0x0                   	// #0
  40447c:	290d03ff 	stp	wzr, w0, [sp, #104]
  404480:	7100039f 	cmp	w28, #0x0
  404484:	54fff1ca 	b.ge	4042bc <__printf_buffer+0x8cc>  // b.tcont
  404488:	d2800035 	mov	x21, #0x1                   	// #1
  40448c:	2a1503fc 	mov	w28, w21
  404490:	17ffff8f 	b	4042cc <__printf_buffer+0x8dc>
  404494:	52800201 	mov	w1, #0x10                  	// #16
  404498:	b9003be1 	str	w1, [sp, #56]
  40449c:	aa1603e0 	mov	x0, x22
  4044a0:	b9402be1 	ldr	w1, [sp, #40]
  4044a4:	35fffdfb 	cbnz	w27, 404460 <__printf_buffer+0xa70>
  4044a8:	34002fb8 	cbz	w24, 404a9c <__printf_buffer+0x10ac>
  4044ac:	37f84541 	tbnz	w1, #31, 404d54 <__printf_buffer+0x1364>
  4044b0:	91002ed6 	add	x22, x22, #0xb
  4044b4:	927df2d6 	and	x22, x22, #0xfffffffffffffff8
  4044b8:	39400019 	ldrb	w25, [x0]
  4044bc:	b9404fe0 	ldr	w0, [sp, #76]
  4044c0:	b9004bff 	str	wzr, [sp, #72]
  4044c4:	290d03ff 	stp	wzr, w0, [sp, #104]
  4044c8:	17ffff7b 	b	4042b4 <__printf_buffer+0x8c4>
  4044cc:	52800101 	mov	w1, #0x8                   	// #8
  4044d0:	aa1603e0 	mov	x0, x22
  4044d4:	b9003be1 	str	w1, [sp, #56]
  4044d8:	17ffffe0 	b	404458 <__printf_buffer+0xa68>
  4044dc:	52800141 	mov	w1, #0xa                   	// #10
  4044e0:	aa1603e0 	mov	x0, x22
  4044e4:	b9003be1 	str	w1, [sp, #56]
  4044e8:	17ffffdc 	b	404458 <__printf_buffer+0xa68>
  4044ec:	b9402be0 	ldr	w0, [sp, #40]
  4044f0:	34003a5b 	cbz	w27, 404c38 <__printf_buffer+0x1248>
  4044f4:	37f865c0 	tbnz	w0, #31, 4051ac <__printf_buffer+0x17bc>
  4044f8:	91003ec1 	add	x1, x22, #0xf
  4044fc:	aa1603e0 	mov	x0, x22
  404500:	927df036 	and	x22, x1, #0xfffffffffffffff8
  404504:	f9400019 	ldr	x25, [x0]
  404508:	b9404fe0 	ldr	w0, [sp, #76]
  40450c:	b9006fe0 	str	w0, [sp, #108]
  404510:	b7f84339 	tbnz	x25, #63, 404d74 <__printf_buffer+0x1384>
  404514:	52800140 	mov	w0, #0xa                   	// #10
  404518:	5280001b 	mov	w27, #0x0                   	// #0
  40451c:	b9003be0 	str	w0, [sp, #56]
  404520:	17ffff65 	b	4042b4 <__printf_buffer+0x8c4>
  404524:	a9408660 	ldp	x0, x1, [x19, #8]
  404528:	eb01001f 	cmp	x0, x1
  40452c:	54006a20 	b.eq	405270 <__printf_buffer+0x1880>  // b.none
  404530:	91000401 	add	x1, x0, #0x1
  404534:	f9000661 	str	x1, [x19, #8]
  404538:	528004a1 	mov	w1, #0x25                  	// #37
  40453c:	39000001 	strb	w1, [x0]
  404540:	17fffdfc 	b	403d30 <__printf_buffer+0x340>
  404544:	f94083e0 	ldr	x0, [sp, #256]
  404548:	91000401 	add	x1, x0, #0x1
  40454c:	f90083e1 	str	x1, [sp, #256]
  404550:	39400404 	ldrb	w4, [x0, #1]
  404554:	51008080 	sub	w0, w4, #0x20
  404558:	12001c01 	and	w1, w0, #0xff
  40455c:	7101683f 	cmp	w1, #0x5a
  404560:	54ffaee8 	b.hi	403b3c <__printf_buffer+0x14c>  // b.pmore
  404564:	17fffdbc 	b	403c54 <__printf_buffer+0x264>
  404568:	f94083e0 	ldr	x0, [sp, #256]
  40456c:	91000401 	add	x1, x0, #0x1
  404570:	f90083e1 	str	x1, [sp, #256]
  404574:	39400404 	ldrb	w4, [x0, #1]
  404578:	51008080 	sub	w0, w4, #0x20
  40457c:	12001c01 	and	w1, w0, #0xff
  404580:	7101683f 	cmp	w1, #0x5a
  404584:	54ffadc8 	b.hi	403b3c <__printf_buffer+0x14c>  // b.pmore
  404588:	d00002a1 	adrp	x1, 45a000 <__PRETTY_FUNCTION__.0+0x1c0>
  40458c:	91250022 	add	x2, x1, #0x940
  404590:	90000441 	adrp	x1, 48c000 <__FRAME_END__+0x116fc>
  404594:	910e8021 	add	x1, x1, #0x3a0
  404598:	91140021 	add	x1, x1, #0x500
  40459c:	5280003b 	mov	w27, #0x1                   	// #1
  4045a0:	3860c840 	ldrb	w0, [x2, w0, sxtw]
  4045a4:	2a1b03e9 	mov	w9, w27
  4045a8:	f8607821 	ldr	x1, [x1, x0, lsl #3]
  4045ac:	d61f0020 	br	x1
  4045b0:	f94083e0 	ldr	x0, [sp, #256]
  4045b4:	91000401 	add	x1, x0, #0x1
  4045b8:	f90083e1 	str	x1, [sp, #256]
  4045bc:	39400404 	ldrb	w4, [x0, #1]
  4045c0:	51008080 	sub	w0, w4, #0x20
  4045c4:	12001c01 	and	w1, w0, #0xff
  4045c8:	7101683f 	cmp	w1, #0x5a
  4045cc:	54ffab88 	b.hi	403b3c <__printf_buffer+0x14c>  // b.pmore
  4045d0:	d00002a1 	adrp	x1, 45a000 <__PRETTY_FUNCTION__.0+0x1c0>
  4045d4:	91250022 	add	x2, x1, #0x940
  4045d8:	90000441 	adrp	x1, 48c000 <__FRAME_END__+0x116fc>
  4045dc:	910e8021 	add	x1, x1, #0x3a0
  4045e0:	91180021 	add	x1, x1, #0x600
  4045e4:	5280003b 	mov	w27, #0x1                   	// #1
  4045e8:	3860c840 	ldrb	w0, [x2, w0, sxtw]
  4045ec:	f8607821 	ldr	x1, [x1, x0, lsl #3]
  4045f0:	d61f0020 	br	x1
  4045f4:	f94083e0 	ldr	x0, [sp, #256]
  4045f8:	91000401 	add	x1, x0, #0x1
  4045fc:	f90083e1 	str	x1, [sp, #256]
  404600:	39400404 	ldrb	w4, [x0, #1]
  404604:	51008080 	sub	w0, w4, #0x20
  404608:	12001c01 	and	w1, w0, #0xff
  40460c:	7101683f 	cmp	w1, #0x5a
  404610:	54ffa968 	b.hi	403b3c <__printf_buffer+0x14c>  // b.pmore
  404614:	d00002a1 	adrp	x1, 45a000 <__PRETTY_FUNCTION__.0+0x1c0>
  404618:	91250022 	add	x2, x1, #0x940
  40461c:	90000441 	adrp	x1, 48c000 <__FRAME_END__+0x116fc>
  404620:	910e8021 	add	x1, x1, #0x3a0
  404624:	91140021 	add	x1, x1, #0x500
  404628:	52800038 	mov	w24, #0x1                   	// #1
  40462c:	3860c840 	ldrb	w0, [x2, w0, sxtw]
  404630:	52800017 	mov	w23, #0x0                   	// #0
  404634:	f8607821 	ldr	x1, [x1, x0, lsl #3]
  404638:	d61f0020 	br	x1
  40463c:	f94083e0 	ldr	x0, [sp, #256]
  404640:	91000401 	add	x1, x0, #0x1
  404644:	f90083e1 	str	x1, [sp, #256]
  404648:	39400404 	ldrb	w4, [x0, #1]
  40464c:	51008080 	sub	w0, w4, #0x20
  404650:	12001c01 	and	w1, w0, #0xff
  404654:	7101683f 	cmp	w1, #0x5a
  404658:	54ffa728 	b.hi	403b3c <__printf_buffer+0x14c>  // b.pmore
  40465c:	d00002a1 	adrp	x1, 45a000 <__PRETTY_FUNCTION__.0+0x1c0>
  404660:	91250022 	add	x2, x1, #0x940
  404664:	90000441 	adrp	x1, 48c000 <__FRAME_END__+0x116fc>
  404668:	910e8021 	add	x1, x1, #0x3a0
  40466c:	91100021 	add	x1, x1, #0x400
  404670:	52800037 	mov	w23, #0x1                   	// #1
  404674:	3860c840 	ldrb	w0, [x2, w0, sxtw]
  404678:	f8607821 	ldr	x1, [x1, x0, lsl #3]
  40467c:	d61f0020 	br	x1
  404680:	f94083e0 	ldr	x0, [sp, #256]
  404684:	91000401 	add	x1, x0, #0x1
  404688:	f90083e1 	str	x1, [sp, #256]
  40468c:	39400404 	ldrb	w4, [x0, #1]
  404690:	7100a89f 	cmp	w4, #0x2a
  404694:	54003ec0 	b.eq	404e6c <__printf_buffer+0x147c>  // b.none
  404698:	5100c080 	sub	w0, w4, #0x30
  40469c:	5280001c 	mov	w28, #0x0                   	// #0
  4046a0:	7100241f 	cmp	w0, #0x9
  4046a4:	54005709 	b.ls	405184 <__printf_buffer+0x1794>  // b.plast
  4046a8:	51008080 	sub	w0, w4, #0x20
  4046ac:	12001c01 	and	w1, w0, #0xff
  4046b0:	7101683f 	cmp	w1, #0x5a
  4046b4:	54ffa448 	b.hi	403b3c <__printf_buffer+0x14c>  // b.pmore
  4046b8:	d00002a1 	adrp	x1, 45a000 <__PRETTY_FUNCTION__.0+0x1c0>
  4046bc:	91250022 	add	x2, x1, #0x940
  4046c0:	90000441 	adrp	x1, 48c000 <__FRAME_END__+0x116fc>
  4046c4:	910e8021 	add	x1, x1, #0x3a0
  4046c8:	910c0021 	add	x1, x1, #0x300
  4046cc:	3860c840 	ldrb	w0, [x2, w0, sxtw]
  4046d0:	f8607821 	ldr	x1, [x1, x0, lsl #3]
  4046d4:	d61f0020 	br	x1
  4046d8:	910403e0 	add	x0, sp, #0x100
  4046dc:	b9003be8 	str	w8, [sp, #56]
  4046e0:	97fff5ac 	bl	401d90 <read_int>
  4046e4:	b9002fe0 	str	w0, [sp, #44]
  4046e8:	b9403be8 	ldr	w8, [sp, #56]
  4046ec:	3100041f 	cmn	w0, #0x1
  4046f0:	54006380 	b.eq	405360 <__printf_buffer+0x1970>  // b.none
  4046f4:	f94083e0 	ldr	x0, [sp, #256]
  4046f8:	39400004 	ldrb	w4, [x0]
  4046fc:	7100909f 	cmp	w4, #0x24
  404700:	54ffc981 	b.ne	404030 <__printf_buffer+0x640>  // b.any
  404704:	17fffd0f 	b	403b40 <__printf_buffer+0x150>
  404708:	f94083e0 	ldr	x0, [sp, #256]
  40470c:	91000401 	add	x1, x0, #0x1
  404710:	f90083e1 	str	x1, [sp, #256]
  404714:	39400401 	ldrb	w1, [x0, #1]
  404718:	7101983f 	cmp	w1, #0x66
  40471c:	540036c0 	b.eq	404df4 <__printf_buffer+0x1404>  // b.none
  404720:	5100c021 	sub	w1, w1, #0x30
  404724:	7100243f 	cmp	w1, #0x9
  404728:	54005149 	b.ls	405150 <__printf_buffer+0x1760>  // b.plast
  40472c:	f94033e1 	ldr	x1, [sp, #96]
  404730:	528002c0 	mov	w0, #0x16                  	// #22
  404734:	f94067e2 	ldr	x2, [sp, #200]
  404738:	b8226820 	str	w0, [x1, x2]
  40473c:	f942cbf7 	ldr	x23, [sp, #1424]
  404740:	b900227f 	str	wzr, [x19, #32]
  404744:	f942cff8 	ldr	x24, [sp, #1432]
  404748:	f942d3f9 	ldr	x25, [sp, #1440]
  40474c:	f942d7fa 	ldr	x26, [sp, #1448]
  404750:	f942dbfb 	ldr	x27, [sp, #1456]
  404754:	f942dffc 	ldr	x28, [sp, #1464]
  404758:	17fffd1a 	b	403bc0 <__printf_buffer+0x1d0>
  40475c:	35001c1b 	cbnz	w27, 404adc <__printf_buffer+0x10ec>
  404760:	b9404be0 	ldr	w0, [sp, #72]
  404764:	35001ec0 	cbnz	w0, 404b3c <__printf_buffer+0x114c>
  404768:	b9406be0 	ldr	w0, [sp, #104]
  40476c:	35000480 	cbnz	w0, 4047fc <__printf_buffer+0xe0c>
  404770:	350005d9 	cbnz	w25, 404828 <__printf_buffer+0xe38>
  404774:	92407d02 	and	x2, x8, #0xffffffff
  404778:	0b1a02b5 	add	w21, w21, w26
  40477c:	3400127c 	cbz	w28, 4049c8 <__printf_buffer+0xfd8>
  404780:	b40000c2 	cbz	x2, 404798 <__printf_buffer+0xda8>
  404784:	aa1303e0 	mov	x0, x19
  404788:	52800601 	mov	w1, #0x30                  	// #48
  40478c:	b90033e3 	str	w3, [sp, #48]
  404790:	9400977c 	bl	42a580 <__printf_buffer_pad_1>
  404794:	b94033e3 	ldr	w3, [sp, #48]
  404798:	a9408660 	ldp	x0, x1, [x19, #8]
  40479c:	eb01001f 	cmp	x0, x1
  4047a0:	540059c0 	b.eq	4052d8 <__printf_buffer+0x18e8>  // b.none
  4047a4:	91000401 	add	x1, x0, #0x1
  4047a8:	f9000661 	str	x1, [x19, #8]
  4047ac:	52800601 	mov	w1, #0x30                  	// #48
  4047b0:	39000001 	strb	w1, [x0]
  4047b4:	b9402fe0 	ldr	w0, [sp, #44]
  4047b8:	51000400 	sub	w0, w0, #0x1
  4047bc:	4b150015 	sub	w21, w0, w21
  4047c0:	36001163 	tbz	w3, #0, 4049ec <__printf_buffer+0xffc>
  4047c4:	f9402fe2 	ldr	x2, [sp, #88]
  4047c8:	2a1703e5 	mov	w5, w23
  4047cc:	f9403be4 	ldr	x4, [sp, #112]
  4047d0:	911563e3 	add	x3, sp, #0x558
  4047d4:	910483e1 	add	x1, sp, #0x120
  4047d8:	aa1303e0 	mov	x0, x19
  4047dc:	97fff61a 	bl	402044 <group_number>
  4047e0:	710002bf 	cmp	w21, #0x0
  4047e4:	54ffaa6d 	b.le	403d30 <__printf_buffer+0x340>
  4047e8:	93407ea2 	sxtw	x2, w21
  4047ec:	aa1303e0 	mov	x0, x19
  4047f0:	52800401 	mov	w1, #0x20                  	// #32
  4047f4:	94009763 	bl	42a580 <__printf_buffer_pad_1>
  4047f8:	17fffd4e 	b	403d30 <__printf_buffer+0x340>
  4047fc:	a9408660 	ldp	x0, x1, [x19, #8]
  404800:	eb01001f 	cmp	x0, x1
  404804:	54005fa0 	b.eq	4053f8 <__printf_buffer+0x1a08>  // b.none
  404808:	91000401 	add	x1, x0, #0x1
  40480c:	f9000661 	str	x1, [x19, #8]
  404810:	52800401 	mov	w1, #0x20                  	// #32
  404814:	39000001 	strb	w1, [x0]
  404818:	b9402fe0 	ldr	w0, [sp, #44]
  40481c:	51000400 	sub	w0, w0, #0x1
  404820:	b9002fe0 	str	w0, [sp, #44]
  404824:	34fffa99 	cbz	w25, 404774 <__printf_buffer+0xd84>
  404828:	b9403be0 	ldr	w0, [sp, #56]
  40482c:	51000801 	sub	w1, w0, #0x2
  404830:	d2880020 	mov	x0, #0x4001                	// #16385
  404834:	9ac12400 	lsr	x0, x0, x1
  404838:	3607f9e0 	tbz	w0, #0, 404774 <__printf_buffer+0xd84>
  40483c:	a9408660 	ldp	x0, x1, [x19, #8]
  404840:	eb01001f 	cmp	x0, x1
  404844:	54006560 	b.eq	4054f0 <__printf_buffer+0x1b00>  // b.none
  404848:	91000401 	add	x1, x0, #0x1
  40484c:	f9000661 	str	x1, [x19, #8]
  404850:	52800601 	mov	w1, #0x30                  	// #48
  404854:	39000001 	strb	w1, [x0]
  404858:	a9408660 	ldp	x0, x1, [x19, #8]
  40485c:	eb01001f 	cmp	x0, x1
  404860:	54006140 	b.eq	405488 <__printf_buffer+0x1a98>  // b.none
  404864:	91000401 	add	x1, x0, #0x1
  404868:	f9000661 	str	x1, [x19, #8]
  40486c:	39000004 	strb	w4, [x0]
  404870:	b9402fe0 	ldr	w0, [sp, #44]
  404874:	51000800 	sub	w0, w0, #0x2
  404878:	b9002fe0 	str	w0, [sp, #44]
  40487c:	17ffffbe 	b	404774 <__printf_buffer+0xd84>
  404880:	b5001079 	cbnz	x25, 404a8c <__printf_buffer+0x109c>
  404884:	b9403be0 	ldr	w0, [sp, #56]
  404888:	b9404fe2 	ldr	w2, [sp, #76]
  40488c:	7100201f 	cmp	w0, #0x8
  404890:	1a9f17e0 	cset	w0, eq	// eq = none
  404894:	0a020001 	and	w1, w0, w2
  404898:	6a02001f 	tst	w0, w2
  40489c:	540018a0 	b.eq	404bb0 <__printf_buffer+0x11c0>  // b.none
  4048a0:	52800600 	mov	w0, #0x30                  	// #48
  4048a4:	39155fe0 	strb	w0, [sp, #1367]
  4048a8:	35004be8 	cbnz	w8, 405224 <__printf_buffer+0x1834>
  4048ac:	52800400 	mov	w0, #0x20                  	// #32
  4048b0:	5280003a 	mov	w26, #0x1                   	// #1
  4048b4:	52800015 	mov	w21, #0x0                   	// #0
  4048b8:	d2800008 	mov	x8, #0x0                   	// #0
  4048bc:	d2800038 	mov	x24, #0x1                   	// #1
  4048c0:	b90043e0 	str	w0, [sp, #64]
  4048c4:	91155fe0 	add	x0, sp, #0x557
  4048c8:	f9002fe0 	str	x0, [sp, #88]
  4048cc:	d503201f 	nop
  4048d0:	f100033f 	cmp	x25, #0x0
  4048d4:	52800003 	mov	w3, #0x0                   	// #0
  4048d8:	1a9f07e0 	cset	w0, ne	// ne = any
  4048dc:	52800017 	mov	w23, #0x0                   	// #0
  4048e0:	7100001f 	cmp	w0, #0x0
  4048e4:	5280001c 	mov	w28, #0x0                   	// #0
  4048e8:	7a401824 	ccmp	w1, #0x0, #0x4, ne	// ne = any
  4048ec:	54ffd480 	b.eq	40437c <__printf_buffer+0x98c>  // b.none
  4048f0:	b9403be1 	ldr	w1, [sp, #56]
  4048f4:	7100203f 	cmp	w1, #0x8
  4048f8:	b9404fe1 	ldr	w1, [sp, #76]
  4048fc:	1a9f17fc 	cset	w28, eq	// eq = none
  404900:	0a01039c 	and	w28, w28, w1
  404904:	17fffe9e 	b	40437c <__printf_buffer+0x98c>
  404908:	f94033e2 	ldr	x2, [sp, #96]
  40490c:	2a1803e3 	mov	w3, w24
  404910:	d2a00009 	movz	x9, #0x0, lsl #16
  404914:	f2800409 	movk	x9, #0x20
  404918:	910483e0 	add	x0, sp, #0x120
  40491c:	52800021 	mov	w1, #0x1                   	// #1
  404920:	f9002be9 	str	x9, [sp, #80]
  404924:	b90083e4 	str	w4, [sp, #128]
  404928:	b9008ff8 	str	w24, [sp, #140]
  40492c:	f8696842 	ldr	x2, [x2, x9]
  404930:	9400969c 	bl	42a3a0 <__grouping_iterator_init>
  404934:	eb1802a8 	subs	x8, x21, x24
  404938:	b94083e4 	ldr	w4, [sp, #128]
  40493c:	9a9f5108 	csel	x8, x8, xzr, pl	// pl = nfrst
  404940:	f9402be9 	ldr	x9, [sp, #80]
  404944:	2a0803f5 	mov	w21, w8
  404948:	350001f7 	cbnz	w23, 404984 <__printf_buffer+0xf94>
  40494c:	52800017 	mov	w23, #0x0                   	// #0
  404950:	f9403be0 	ldr	x0, [sp, #112]
  404954:	b90053e4 	str	w4, [sp, #80]
  404958:	f90043e8 	str	x8, [sp, #128]
  40495c:	97ffee55 	bl	4002b0 <.plt+0x40>
  404960:	b94137fa 	ldr	w26, [sp, #308]
  404964:	b9408fe1 	ldr	w1, [sp, #140]
  404968:	52800023 	mov	w3, #0x1                   	// #1
  40496c:	f94043e8 	ldr	x8, [sp, #128]
  404970:	b94053e4 	ldr	w4, [sp, #80]
  404974:	1b00075a 	madd	w26, w26, w0, w1
  404978:	6b1c035f 	cmp	w26, w28
  40497c:	1a9fb7e1 	cset	w1, ge	// ge = tcont
  404980:	17fffe79 	b	404364 <__printf_buffer+0x974>
  404984:	a94583e1 	ldp	x1, x0, [sp, #88]
  404988:	aa1a03e2 	mov	x2, x26
  40498c:	b90053e4 	str	w4, [sp, #80]
  404990:	f90043e8 	str	x8, [sp, #128]
  404994:	f8696800 	ldr	x0, [x0, x9]
  404998:	9400a56e 	bl	42df50 <__translated_number_width>
  40499c:	b9008fe0 	str	w0, [sp, #140]
  4049a0:	f94043e8 	ldr	x8, [sp, #128]
  4049a4:	b94053e4 	ldr	w4, [sp, #80]
  4049a8:	17ffffea 	b	404950 <__printf_buffer+0xf60>
  4049ac:	6b18039f 	cmp	w28, w24
  4049b0:	2a1803fa 	mov	w26, w24
  4049b4:	1a9fc7e1 	cset	w1, le
  4049b8:	eb1802a8 	subs	x8, x21, x24
  4049bc:	9a9f5108 	csel	x8, x8, xzr, pl	// pl = nfrst
  4049c0:	2a0803f5 	mov	w21, w8
  4049c4:	17ffffc3 	b	4048d0 <__printf_buffer+0xee0>
  4049c8:	b40000c2 	cbz	x2, 4049e0 <__printf_buffer+0xff0>
  4049cc:	aa1303e0 	mov	x0, x19
  4049d0:	52800601 	mov	w1, #0x30                  	// #48
  4049d4:	b90033e3 	str	w3, [sp, #48]
  4049d8:	940096ea 	bl	42a580 <__printf_buffer_pad_1>
  4049dc:	b94033e3 	ldr	w3, [sp, #48]
  4049e0:	b9402fe0 	ldr	w0, [sp, #44]
  4049e4:	4b150015 	sub	w21, w0, w21
  4049e8:	3707eee3 	tbnz	w3, #0, 4047c4 <__printf_buffer+0xdd4>
  4049ec:	f9402fe1 	ldr	x1, [sp, #88]
  4049f0:	aa1803e2 	mov	x2, x24
  4049f4:	aa1303e0 	mov	x0, x19
  4049f8:	940097e6 	bl	42a990 <__printf_buffer_write>
  4049fc:	17ffff79 	b	4047e0 <__printf_buffer+0xdf0>
  404a00:	b94043e0 	ldr	w0, [sp, #64]
  404a04:	51000442 	sub	w2, w2, #0x1
  404a08:	7100801f 	cmp	w0, #0x20
  404a0c:	54000e00 	b.eq	404bcc <__printf_buffer+0x11dc>  // b.none
  404a10:	0b0202b5 	add	w21, w21, w2
  404a14:	3500055b 	cbnz	w27, 404abc <__printf_buffer+0x10cc>
  404a18:	b9404be0 	ldr	w0, [sp, #72]
  404a1c:	34000fa0 	cbz	w0, 404c10 <__printf_buffer+0x1220>
  404a20:	a9408660 	ldp	x0, x1, [x19, #8]
  404a24:	eb01001f 	cmp	x0, x1
  404a28:	540048a0 	b.eq	40533c <__printf_buffer+0x194c>  // b.none
  404a2c:	91000401 	add	x1, x0, #0x1
  404a30:	f9000661 	str	x1, [x19, #8]
  404a34:	52800561 	mov	w1, #0x2b                  	// #43
  404a38:	39000001 	strb	w1, [x0]
  404a3c:	34ffcc9a 	cbz	w26, 4043cc <__printf_buffer+0x9dc>
  404a40:	b9403be0 	ldr	w0, [sp, #56]
  404a44:	51000801 	sub	w1, w0, #0x2
  404a48:	d2880020 	mov	x0, #0x4001                	// #16385
  404a4c:	9ac12400 	lsr	x0, x0, x1
  404a50:	3607cbe0 	tbz	w0, #0, 4043cc <__printf_buffer+0x9dc>
  404a54:	a9408660 	ldp	x0, x1, [x19, #8]
  404a58:	eb01001f 	cmp	x0, x1
  404a5c:	54005320 	b.eq	4054c0 <__printf_buffer+0x1ad0>  // b.none
  404a60:	91000401 	add	x1, x0, #0x1
  404a64:	f9000661 	str	x1, [x19, #8]
  404a68:	52800601 	mov	w1, #0x30                  	// #48
  404a6c:	39000001 	strb	w1, [x0]
  404a70:	a9408660 	ldp	x0, x1, [x19, #8]
  404a74:	eb01001f 	cmp	x0, x1
  404a78:	54005180 	b.eq	4054a8 <__printf_buffer+0x1ab8>  // b.none
  404a7c:	91000401 	add	x1, x0, #0x1
  404a80:	f9000661 	str	x1, [x19, #8]
  404a84:	39000004 	strb	w4, [x0]
  404a88:	17fffe51 	b	4043cc <__printf_buffer+0x9dc>
  404a8c:	52800400 	mov	w0, #0x20                  	// #32
  404a90:	d2800015 	mov	x21, #0x0                   	// #0
  404a94:	b90043e0 	str	w0, [sp, #64]
  404a98:	17fffe0d 	b	4042cc <__printf_buffer+0x8dc>
  404a9c:	35000df7 	cbnz	w23, 404c58 <__printf_buffer+0x1268>
  404aa0:	37f83981 	tbnz	w1, #31, 4051d0 <__printf_buffer+0x17e0>
  404aa4:	91002ed6 	add	x22, x22, #0xb
  404aa8:	b9400019 	ldr	w25, [x0]
  404aac:	927df2d6 	and	x22, x22, #0xfffffffffffffff8
  404ab0:	17fffe70 	b	404470 <__printf_buffer+0xa80>
  404ab4:	94009eff 	bl	42c6b0 <__printf_fp_l_buffer>
  404ab8:	17fffc9e 	b	403d30 <__printf_buffer+0x340>
  404abc:	a9408660 	ldp	x0, x1, [x19, #8]
  404ac0:	eb01001f 	cmp	x0, x1
  404ac4:	54003fe0 	b.eq	4052c0 <__printf_buffer+0x18d0>  // b.none
  404ac8:	91000401 	add	x1, x0, #0x1
  404acc:	f9000661 	str	x1, [x19, #8]
  404ad0:	528005a1 	mov	w1, #0x2d                  	// #45
  404ad4:	39000001 	strb	w1, [x0]
  404ad8:	17fffe3c 	b	4043c8 <__printf_buffer+0x9d8>
  404adc:	a9408660 	ldp	x0, x1, [x19, #8]
  404ae0:	eb01001f 	cmp	x0, x1
  404ae4:	54003da0 	b.eq	405298 <__printf_buffer+0x18a8>  // b.none
  404ae8:	91000401 	add	x1, x0, #0x1
  404aec:	f9000661 	str	x1, [x19, #8]
  404af0:	528005a1 	mov	w1, #0x2d                  	// #45
  404af4:	39000001 	strb	w1, [x0]
  404af8:	17ffff48 	b	404818 <__printf_buffer+0xe28>
  404afc:	b9402be1 	ldr	w1, [sp, #40]
  404b00:	11002021 	add	w1, w1, #0x8
  404b04:	7100003f 	cmp	w1, #0x0
  404b08:	54001d2d 	b.le	404eac <__printf_buffer+0x14bc>
  404b0c:	91003ed6 	add	x22, x22, #0xf
  404b10:	b9002be1 	str	w1, [sp, #40]
  404b14:	927df2d6 	and	x22, x22, #0xfffffffffffffff8
  404b18:	17fffe55 	b	40446c <__printf_buffer+0xa7c>
  404b1c:	b9403be0 	ldr	w0, [sp, #56]
  404b20:	51000841 	sub	w1, w2, #0x2
  404b24:	51000805 	sub	w5, w0, #0x2
  404b28:	d2880020 	mov	x0, #0x4001                	// #16385
  404b2c:	9ac52400 	lsr	x0, x0, x5
  404b30:	f240001f 	tst	x0, #0x1
  404b34:	1a821022 	csel	w2, w1, w2, ne	// ne = any
  404b38:	17fffe1a 	b	4043a0 <__printf_buffer+0x9b0>
  404b3c:	a9408660 	ldp	x0, x1, [x19, #8]
  404b40:	eb01001f 	cmp	x0, x1
  404b44:	54003f20 	b.eq	405328 <__printf_buffer+0x1938>  // b.none
  404b48:	91000401 	add	x1, x0, #0x1
  404b4c:	f9000661 	str	x1, [x19, #8]
  404b50:	52800561 	mov	w1, #0x2b                  	// #43
  404b54:	39000001 	strb	w1, [x0]
  404b58:	17ffff30 	b	404818 <__printf_buffer+0xe28>
  404b5c:	aa1503e2 	mov	x2, x21
  404b60:	aa1703e1 	mov	x1, x23
  404b64:	aa1303e0 	mov	x0, x19
  404b68:	9400978a 	bl	42a990 <__printf_buffer_write>
  404b6c:	7100031f 	cmp	w24, #0x0
  404b70:	54ff8e0d 	b.le	403d30 <__printf_buffer+0x340>
  404b74:	2a1803e2 	mov	w2, w24
  404b78:	aa1303e0 	mov	x0, x19
  404b7c:	52800401 	mov	w1, #0x20                  	// #32
  404b80:	94009680 	bl	42a580 <__printf_buffer_pad_1>
  404b84:	17fffc6b 	b	403d30 <__printf_buffer+0x340>
  404b88:	aa1803e2 	mov	x2, x24
  404b8c:	aa1503e1 	mov	x1, x21
  404b90:	aa1303e0 	mov	x0, x19
  404b94:	9400977f 	bl	42a990 <__printf_buffer_write>
  404b98:	34ff8cd7 	cbz	w23, 403d30 <__printf_buffer+0x340>
  404b9c:	2a1703e2 	mov	w2, w23
  404ba0:	aa1303e0 	mov	x0, x19
  404ba4:	52800401 	mov	w1, #0x20                  	// #32
  404ba8:	94009676 	bl	42a580 <__printf_buffer_pad_1>
  404bac:	17fffc61 	b	403d30 <__printf_buffer+0x340>
  404bb0:	911563fa 	add	x26, sp, #0x558
  404bb4:	52800400 	mov	w0, #0x20                  	// #32
  404bb8:	d2800015 	mov	x21, #0x0                   	// #0
  404bbc:	d2800018 	mov	x24, #0x0                   	// #0
  404bc0:	b90043e0 	str	w0, [sp, #64]
  404bc4:	f9002ffa 	str	x26, [sp, #88]
  404bc8:	17fffdce 	b	404300 <__printf_buffer+0x910>
  404bcc:	7100005f 	cmp	w2, #0x0
  404bd0:	54fff22d 	b.le	404a14 <__printf_buffer+0x1024>
  404bd4:	394103e1 	ldrb	w1, [sp, #64]
  404bd8:	93407c42 	sxtw	x2, w2
  404bdc:	aa1303e0 	mov	x0, x19
  404be0:	29058fe4 	stp	w4, w3, [sp, #44]
  404be4:	94009667 	bl	42a580 <__printf_buffer_pad_1>
  404be8:	29458fe4 	ldp	w4, w3, [sp, #44]
  404bec:	17ffff8a 	b	404a14 <__printf_buffer+0x1024>
  404bf0:	7100005f 	cmp	w2, #0x0
  404bf4:	54ffbead 	b.le	4043c8 <__printf_buffer+0x9d8>
  404bf8:	394103e1 	ldrb	w1, [sp, #64]
  404bfc:	93407c42 	sxtw	x2, w2
  404c00:	aa1303e0 	mov	x0, x19
  404c04:	29058fe4 	stp	w4, w3, [sp, #44]
  404c08:	9400965e 	bl	42a580 <__printf_buffer_pad_1>
  404c0c:	29458fe4 	ldp	w4, w3, [sp, #44]
  404c10:	b9406be0 	ldr	w0, [sp, #104]
  404c14:	34ffbda0 	cbz	w0, 4043c8 <__printf_buffer+0x9d8>
  404c18:	a9408660 	ldp	x0, x1, [x19, #8]
  404c1c:	eb01001f 	cmp	x0, x1
  404c20:	54003f60 	b.eq	40540c <__printf_buffer+0x1a1c>  // b.none
  404c24:	91000401 	add	x1, x0, #0x1
  404c28:	f9000661 	str	x1, [x19, #8]
  404c2c:	52800401 	mov	w1, #0x20                  	// #32
  404c30:	39000001 	strb	w1, [x0]
  404c34:	17fffde5 	b	4043c8 <__printf_buffer+0x9d8>
  404c38:	35001a78 	cbnz	w24, 404f84 <__printf_buffer+0x1594>
  404c3c:	35003657 	cbnz	w23, 405304 <__printf_buffer+0x1914>
  404c40:	37f83fc0 	tbnz	w0, #31, 405438 <__printf_buffer+0x1a48>
  404c44:	aa1603e0 	mov	x0, x22
  404c48:	91002ec1 	add	x1, x22, #0xb
  404c4c:	927df036 	and	x22, x1, #0xfffffffffffffff8
  404c50:	b9800019 	ldrsw	x25, [x0]
  404c54:	17fffe2d 	b	404508 <__printf_buffer+0xb18>
  404c58:	37f82ce1 	tbnz	w1, #31, 4051f4 <__printf_buffer+0x1804>
  404c5c:	91002ed6 	add	x22, x22, #0xb
  404c60:	79400019 	ldrh	w25, [x0]
  404c64:	927df2d6 	and	x22, x22, #0xfffffffffffffff8
  404c68:	17fffe02 	b	404470 <__printf_buffer+0xa80>
  404c6c:	b940d3e0 	ldr	w0, [sp, #208]
  404c70:	9105c3e1 	add	x1, sp, #0x170
  404c74:	d2807d02 	mov	x2, #0x3e8                 	// #1000
  404c78:	940037be 	bl	412b70 <__strerror_r>
  404c7c:	aa0003f5 	mov	x21, x0
  404c80:	b9403be8 	ldr	w8, [sp, #56]
  404c84:	b9405be4 	ldr	w4, [sp, #88]
  404c88:	17fffcb5 	b	403f5c <__printf_buffer+0x56c>
  404c8c:	35001898 	cbnz	w24, 404f9c <__printf_buffer+0x15ac>
  404c90:	35003477 	cbnz	w23, 40531c <__printf_buffer+0x192c>
  404c94:	b90002c0 	str	w0, [x22]
  404c98:	aa1503f6 	mov	x22, x21
  404c9c:	17fffc25 	b	403d30 <__printf_buffer+0x340>
  404ca0:	7100179f 	cmp	w28, #0x5
  404ca4:	528000a1 	mov	w1, #0x5                   	// #5
  404ca8:	f0000275 	adrp	x21, 453000 <_Unwind_Find_FDE+0x3f0>
  404cac:	1a81a39c 	csel	w28, w28, w1, ge	// ge = tcont
  404cb0:	aa0003f6 	mov	x22, x0
  404cb4:	913d82b5 	add	x21, x21, #0xf60
  404cb8:	71014c9f 	cmp	w4, #0x53
  404cbc:	54ff95e1 	b.ne	403f78 <__printf_buffer+0x588>  // b.any
  404cc0:	3940c3e4 	ldrb	w4, [sp, #48]
  404cc4:	2a1c03e2 	mov	w2, w28
  404cc8:	b9402fe3 	ldr	w3, [sp, #44]
  404ccc:	aa1503e1 	mov	x1, x21
  404cd0:	aa1303e0 	mov	x0, x19
  404cd4:	97fff453 	bl	401e20 <outstring_converted_wide_string>
  404cd8:	17fffc16 	b	403d30 <__printf_buffer+0x340>
  404cdc:	92800000 	mov	x0, #0xffffffffffffffff    	// #-1
  404ce0:	b90027ff 	str	wzr, [sp, #36]
  404ce4:	b900d7ff 	str	wzr, [sp, #212]
  404ce8:	f9006fe0 	str	x0, [sp, #216]
  404cec:	17fffb9b 	b	403b58 <__printf_buffer+0x168>
  404cf0:	b9402be0 	ldr	w0, [sp, #40]
  404cf4:	11002000 	add	w0, w0, #0x8
  404cf8:	7100001f 	cmp	w0, #0x0
  404cfc:	540018cd 	b.le	405014 <__printf_buffer+0x1624>
  404d00:	91003ed5 	add	x21, x22, #0xf
  404d04:	b9002be0 	str	w0, [sp, #40]
  404d08:	927df2b5 	and	x21, x21, #0xfffffffffffffff8
  404d0c:	17fffcab 	b	403fb8 <__printf_buffer+0x5c8>
  404d10:	b9402be0 	ldr	w0, [sp, #40]
  404d14:	11002001 	add	w1, w0, #0x8
  404d18:	7100003f 	cmp	w1, #0x0
  404d1c:	5400150d 	b.le	404fbc <__printf_buffer+0x15cc>
  404d20:	91003ec0 	add	x0, x22, #0xf
  404d24:	b9002be1 	str	w1, [sp, #40]
  404d28:	927df000 	and	x0, x0, #0xfffffffffffffff8
  404d2c:	17fffd57 	b	404288 <__printf_buffer+0x898>
  404d30:	b9408be0 	ldr	w0, [sp, #136]
  404d34:	11004001 	add	w1, w0, #0x10
  404d38:	7100003f 	cmp	w1, #0x0
  404d3c:	5400136d 	b.le	404fa8 <__printf_buffer+0x15b8>
  404d40:	91003ec0 	add	x0, x22, #0xf
  404d44:	b9008be1 	str	w1, [sp, #136]
  404d48:	927cec00 	and	x0, x0, #0xfffffffffffffff0
  404d4c:	91004016 	add	x22, x0, #0x10
  404d50:	17fffc32 	b	403e18 <__printf_buffer+0x428>
  404d54:	b9402be1 	ldr	w1, [sp, #40]
  404d58:	11002021 	add	w1, w1, #0x8
  404d5c:	7100003f 	cmp	w1, #0x0
  404d60:	5400146d 	b.le	404fec <__printf_buffer+0x15fc>
  404d64:	91002ed6 	add	x22, x22, #0xb
  404d68:	b9002be1 	str	w1, [sp, #40]
  404d6c:	927df2d6 	and	x22, x22, #0xfffffffffffffff8
  404d70:	17fffdd2 	b	4044b8 <__printf_buffer+0xac8>
  404d74:	52800140 	mov	w0, #0xa                   	// #10
  404d78:	cb1903f9 	neg	x25, x25
  404d7c:	5280003b 	mov	w27, #0x1                   	// #1
  404d80:	b9003be0 	str	w0, [sp, #56]
  404d84:	17fffd4c 	b	4042b4 <__printf_buffer+0x8c4>
  404d88:	b9402be0 	ldr	w0, [sp, #40]
  404d8c:	11002001 	add	w1, w0, #0x8
  404d90:	7100003f 	cmp	w1, #0x0
  404d94:	5400122d 	b.le	404fd8 <__printf_buffer+0x15e8>
  404d98:	91003ec2 	add	x2, x22, #0xf
  404d9c:	aa1603e0 	mov	x0, x22
  404da0:	927df056 	and	x22, x2, #0xfffffffffffffff8
  404da4:	b9002be1 	str	w1, [sp, #40]
  404da8:	17fffc2d 	b	403e5c <__printf_buffer+0x46c>
  404dac:	b9408be0 	ldr	w0, [sp, #136]
  404db0:	11004001 	add	w1, w0, #0x10
  404db4:	7100003f 	cmp	w1, #0x0
  404db8:	5400124d 	b.le	405000 <__printf_buffer+0x1610>
  404dbc:	91003ec2 	add	x2, x22, #0xf
  404dc0:	aa1603e0 	mov	x0, x22
  404dc4:	927df056 	and	x22, x2, #0xfffffffffffffff8
  404dc8:	b9008be1 	str	w1, [sp, #136]
  404dcc:	17fffbc9 	b	403cf0 <__printf_buffer+0x300>
  404dd0:	b9402be0 	ldr	w0, [sp, #40]
  404dd4:	11002001 	add	w1, w0, #0x8
  404dd8:	7100003f 	cmp	w1, #0x0
  404ddc:	540012ad 	b.le	405030 <__printf_buffer+0x1640>
  404de0:	91002ec2 	add	x2, x22, #0xb
  404de4:	aa1603e0 	mov	x0, x22
  404de8:	927df056 	and	x22, x2, #0xfffffffffffffff8
  404dec:	b9002be1 	str	w1, [sp, #40]
  404df0:	17fffc87 	b	40400c <__printf_buffer+0x61c>
  404df4:	39400801 	ldrb	w1, [x0, #2]
  404df8:	91000800 	add	x0, x0, #0x2
  404dfc:	f90083e0 	str	x0, [sp, #256]
  404e00:	5100c020 	sub	w0, w1, #0x30
  404e04:	7100241f 	cmp	w0, #0x9
  404e08:	54ffc928 	b.hi	40472c <__printf_buffer+0xd3c>  // b.pmore
  404e0c:	910403e0 	add	x0, sp, #0x100
  404e10:	b9003be8 	str	w8, [sp, #56]
  404e14:	97fff3df 	bl	401d90 <read_int>
  404e18:	7100401f 	cmp	w0, #0x10
  404e1c:	b9403be8 	ldr	w8, [sp, #56]
  404e20:	54001580 	b.eq	4050d0 <__printf_buffer+0x16e0>  // b.none
  404e24:	5400148c 	b.gt	4050b4 <__printf_buffer+0x16c4>
  404e28:	7100201f 	cmp	w0, #0x8
  404e2c:	54ffc801 	b.ne	40472c <__printf_buffer+0xd3c>  // b.any
  404e30:	52800038 	mov	w24, #0x1                   	// #1
  404e34:	f94083e0 	ldr	x0, [sp, #256]
  404e38:	39400004 	ldrb	w4, [x0]
  404e3c:	51008080 	sub	w0, w4, #0x20
  404e40:	12001c01 	and	w1, w0, #0xff
  404e44:	7101683f 	cmp	w1, #0x5a
  404e48:	54ff67a8 	b.hi	403b3c <__printf_buffer+0x14c>  // b.pmore
  404e4c:	d00002a1 	adrp	x1, 45a000 <__PRETTY_FUNCTION__.0+0x1c0>
  404e50:	91250022 	add	x2, x1, #0x940
  404e54:	90000441 	adrp	x1, 48c000 <__FRAME_END__+0x116fc>
  404e58:	910e8021 	add	x1, x1, #0x3a0
  404e5c:	91140021 	add	x1, x1, #0x500
  404e60:	3860c840 	ldrb	w0, [x2, w0, sxtw]
  404e64:	f8607821 	ldr	x1, [x1, x0, lsl #3]
  404e68:	d61f0020 	br	x1
  404e6c:	91000801 	add	x1, x0, #0x2
  404e70:	f90093e1 	str	x1, [sp, #288]
  404e74:	f90083e1 	str	x1, [sp, #256]
  404e78:	39400804 	ldrb	w4, [x0, #2]
  404e7c:	5100c080 	sub	w0, w4, #0x30
  404e80:	7100241f 	cmp	w0, #0x9
  404e84:	54000fc9 	b.ls	40507c <__printf_buffer+0x168c>  // b.plast
  404e88:	b9402be0 	ldr	w0, [sp, #40]
  404e8c:	37f80e60 	tbnz	w0, #31, 405058 <__printf_buffer+0x1668>
  404e90:	91002ec1 	add	x1, x22, #0xb
  404e94:	aa1603e0 	mov	x0, x22
  404e98:	927df036 	and	x22, x1, #0xfffffffffffffff8
  404e9c:	b9400005 	ldr	w5, [x0]
  404ea0:	710000bf 	cmp	w5, #0x0
  404ea4:	5a9fa0bc 	csinv	w28, w5, wzr, ge	// ge = tcont
  404ea8:	17fffe00 	b	4046a8 <__printf_buffer+0xcb8>
  404eac:	f94053e2 	ldr	x2, [sp, #160]
  404eb0:	b9402be0 	ldr	w0, [sp, #40]
  404eb4:	b9002be1 	str	w1, [sp, #40]
  404eb8:	8b20c040 	add	x0, x2, w0, sxtw
  404ebc:	17fffd6c 	b	40446c <__printf_buffer+0xa7c>
  404ec0:	910483e0 	add	x0, sp, #0x120
  404ec4:	b9002fe8 	str	w8, [sp, #44]
  404ec8:	b9003be4 	str	w4, [sp, #56]
  404ecc:	97fff3b1 	bl	401d90 <read_int>
  404ed0:	b9402fe8 	ldr	w8, [sp, #44]
  404ed4:	3100041f 	cmn	w0, #0x1
  404ed8:	b9403be4 	ldr	w4, [sp, #56]
  404edc:	54002420 	b.eq	405360 <__printf_buffer+0x1970>  // b.none
  404ee0:	34ff88c0 	cbz	w0, 403ff8 <__printf_buffer+0x608>
  404ee4:	f94093e0 	ldr	x0, [sp, #288]
  404ee8:	39400000 	ldrb	w0, [x0]
  404eec:	7100901f 	cmp	w0, #0x24
  404ef0:	54ff8841 	b.ne	403ff8 <__printf_buffer+0x608>  // b.any
  404ef4:	17fffb13 	b	403b40 <__printf_buffer+0x150>
  404ef8:	aa1503e0 	mov	x0, x21
  404efc:	97ffeced 	bl	4002b0 <.plt+0x40>
  404f00:	aa0003f8 	mov	x24, x0
  404f04:	2a0003e1 	mov	w1, w0
  404f08:	17fffbe0 	b	403e88 <__printf_buffer+0x498>
  404f0c:	f94033e1 	ldr	x1, [sp, #96]
  404f10:	d2a00000 	movz	x0, #0x0, lsl #16
  404f14:	f2800300 	movk	x0, #0x18
  404f18:	f8606820 	ldr	x0, [x1, x0]
  404f1c:	f9400000 	ldr	x0, [x0]
  404f20:	a9440402 	ldp	x2, x1, [x0, #64]
  404f24:	f9003be2 	str	x2, [sp, #112]
  404f28:	39400020 	ldrb	w0, [x1]
  404f2c:	51000400 	sub	w0, w0, #0x1
  404f30:	12001c00 	and	w0, w0, #0xff
  404f34:	7103f41f 	cmp	w0, #0xfd
  404f38:	54000869 	b.ls	405044 <__printf_buffer+0x1654>  // b.plast
  404f3c:	f9006fff 	str	xzr, [sp, #216]
  404f40:	17fffc5d 	b	4040b4 <__printf_buffer+0x6c4>
  404f44:	90000295 	adrp	x21, 454000 <__PRETTY_FUNCTION__.1>
  404f48:	528000c1 	mov	w1, #0x6                   	// #6
  404f4c:	910062b5 	add	x21, x21, #0x18
  404f50:	d28000d8 	mov	x24, #0x6                   	// #6
  404f54:	17fffbcd 	b	403e88 <__printf_buffer+0x498>
  404f58:	b9404fe2 	ldr	w2, [sp, #76]
  404f5c:	5280001b 	mov	w27, #0x0                   	// #0
  404f60:	b940d3e1 	ldr	w1, [sp, #208]
  404f64:	b9006fe2 	str	w2, [sp, #108]
  404f68:	52800142 	mov	w2, #0xa                   	// #10
  404f6c:	b9003be2 	str	w2, [sp, #56]
  404f70:	93407c39 	sxtw	x25, w1
  404f74:	36ff9a01 	tbz	w1, #31, 4042b4 <__printf_buffer+0x8c4>
  404f78:	cb1903f9 	neg	x25, x25
  404f7c:	2a0003fb 	mov	w27, w0
  404f80:	17fffccd 	b	4042b4 <__printf_buffer+0x8c4>
  404f84:	37f82040 	tbnz	w0, #31, 40538c <__printf_buffer+0x199c>
  404f88:	aa1603e0 	mov	x0, x22
  404f8c:	91002ec1 	add	x1, x22, #0xb
  404f90:	927df036 	and	x22, x1, #0xfffffffffffffff8
  404f94:	39800019 	ldrsb	x25, [x0]
  404f98:	17fffd5c 	b	404508 <__printf_buffer+0xb18>
  404f9c:	390002c0 	strb	w0, [x22]
  404fa0:	aa1503f6 	mov	x22, x21
  404fa4:	17fffb63 	b	403d30 <__printf_buffer+0x340>
  404fa8:	f94057e2 	ldr	x2, [sp, #168]
  404fac:	b9408be0 	ldr	w0, [sp, #136]
  404fb0:	b9008be1 	str	w1, [sp, #136]
  404fb4:	8b20c040 	add	x0, x2, w0, sxtw
  404fb8:	17fffb98 	b	403e18 <__printf_buffer+0x428>
  404fbc:	f94053e2 	ldr	x2, [sp, #160]
  404fc0:	b9402be0 	ldr	w0, [sp, #40]
  404fc4:	b9002be1 	str	w1, [sp, #40]
  404fc8:	8b20c042 	add	x2, x2, w0, sxtw
  404fcc:	aa1603e0 	mov	x0, x22
  404fd0:	aa0203f6 	mov	x22, x2
  404fd4:	17fffcad 	b	404288 <__printf_buffer+0x898>
  404fd8:	f94053e2 	ldr	x2, [sp, #160]
  404fdc:	b9402be0 	ldr	w0, [sp, #40]
  404fe0:	b9002be1 	str	w1, [sp, #40]
  404fe4:	8b20c040 	add	x0, x2, w0, sxtw
  404fe8:	17fffb9d 	b	403e5c <__printf_buffer+0x46c>
  404fec:	f94053e2 	ldr	x2, [sp, #160]
  404ff0:	b9402be0 	ldr	w0, [sp, #40]
  404ff4:	b9002be1 	str	w1, [sp, #40]
  404ff8:	8b20c040 	add	x0, x2, w0, sxtw
  404ffc:	17fffd2f 	b	4044b8 <__printf_buffer+0xac8>
  405000:	f94057e2 	ldr	x2, [sp, #168]
  405004:	b9408be0 	ldr	w0, [sp, #136]
  405008:	b9008be1 	str	w1, [sp, #136]
  40500c:	8b20c040 	add	x0, x2, w0, sxtw
  405010:	17fffb38 	b	403cf0 <__printf_buffer+0x300>
  405014:	f94053e2 	ldr	x2, [sp, #160]
  405018:	aa1603f5 	mov	x21, x22
  40501c:	b9402be1 	ldr	w1, [sp, #40]
  405020:	b9002be0 	str	w0, [sp, #40]
  405024:	8b21c041 	add	x1, x2, w1, sxtw
  405028:	aa0103f6 	mov	x22, x1
  40502c:	17fffbe3 	b	403fb8 <__printf_buffer+0x5c8>
  405030:	f94053e2 	ldr	x2, [sp, #160]
  405034:	b9402be0 	ldr	w0, [sp, #40]
  405038:	b9002be1 	str	w1, [sp, #40]
  40503c:	8b20c040 	add	x0, x2, w0, sxtw
  405040:	17fffbf3 	b	40400c <__printf_buffer+0x61c>
  405044:	39400040 	ldrb	w0, [x2]
  405048:	7100001f 	cmp	w0, #0x0
  40504c:	9a9f1020 	csel	x0, x1, xzr, ne	// ne = any
  405050:	f9006fe0 	str	x0, [sp, #216]
  405054:	17fffc18 	b	4040b4 <__printf_buffer+0x6c4>
  405058:	b9402be0 	ldr	w0, [sp, #40]
  40505c:	11002001 	add	w1, w0, #0x8
  405060:	7100003f 	cmp	w1, #0x0
  405064:	54001e0d 	b.le	405424 <__printf_buffer+0x1a34>
  405068:	91002ec2 	add	x2, x22, #0xb
  40506c:	aa1603e0 	mov	x0, x22
  405070:	927df056 	and	x22, x2, #0xfffffffffffffff8
  405074:	b9002be1 	str	w1, [sp, #40]
  405078:	17ffff89 	b	404e9c <__printf_buffer+0x14ac>
  40507c:	910483e0 	add	x0, sp, #0x120
  405080:	b9003be8 	str	w8, [sp, #56]
  405084:	b9005be4 	str	w4, [sp, #88]
  405088:	97fff342 	bl	401d90 <read_int>
  40508c:	b9403be8 	ldr	w8, [sp, #56]
  405090:	3100041f 	cmn	w0, #0x1
  405094:	b9405be4 	ldr	w4, [sp, #88]
  405098:	54001640 	b.eq	405360 <__printf_buffer+0x1970>  // b.none
  40509c:	34ffef60 	cbz	w0, 404e88 <__printf_buffer+0x1498>
  4050a0:	f94093e0 	ldr	x0, [sp, #288]
  4050a4:	39400000 	ldrb	w0, [x0]
  4050a8:	7100901f 	cmp	w0, #0x24
  4050ac:	54ffeee1 	b.ne	404e88 <__printf_buffer+0x1498>  // b.any
  4050b0:	17fffaa4 	b	403b40 <__printf_buffer+0x150>
  4050b4:	51008001 	sub	w1, w0, #0x20
  4050b8:	721a783f 	tst	w1, #0xffffffdf
  4050bc:	540000a0 	b.eq	4050d0 <__printf_buffer+0x16e0>  // b.none
  4050c0:	7100801f 	cmp	w0, #0x20
  4050c4:	54ffb34d 	b.le	40472c <__printf_buffer+0xd3c>
  4050c8:	7101001f 	cmp	w0, #0x40
  4050cc:	54ffb301 	b.ne	40472c <__printf_buffer+0xd3c>  // b.any
  4050d0:	5280003b 	mov	w27, #0x1                   	// #1
  4050d4:	2a1b03e9 	mov	w9, w27
  4050d8:	17ffff57 	b	404e34 <__printf_buffer+0x1444>
  4050dc:	b9402be0 	ldr	w0, [sp, #40]
  4050e0:	11002000 	add	w0, w0, #0x8
  4050e4:	7100001f 	cmp	w0, #0x0
  4050e8:	5400148d 	b.le	405378 <__printf_buffer+0x1988>
  4050ec:	91002ec2 	add	x2, x22, #0xb
  4050f0:	aa1603e1 	mov	x1, x22
  4050f4:	927df056 	and	x22, x2, #0xfffffffffffffff8
  4050f8:	b9002be0 	str	w0, [sp, #40]
  4050fc:	17fffb80 	b	403efc <__printf_buffer+0x50c>
  405100:	92800000 	mov	x0, #0xffffffffffffffff    	// #-1
  405104:	b90027ff 	str	wzr, [sp, #36]
  405108:	f9003bff 	str	xzr, [sp, #112]
  40510c:	b900d7ff 	str	wzr, [sp, #212]
  405110:	f9006fe0 	str	x0, [sp, #216]
  405114:	17fffa91 	b	403b58 <__printf_buffer+0x168>
  405118:	f94053e3 	ldr	x3, [sp, #160]
  40511c:	b9402be0 	ldr	w0, [sp, #40]
  405120:	b9002be1 	str	w1, [sp, #40]
  405124:	8b20c060 	add	x0, x3, w0, sxtw
  405128:	17fffb22 	b	403db0 <__printf_buffer+0x3c0>
  40512c:	f9405bf5 	ldr	x21, [sp, #176]
  405130:	aa1503e0 	mov	x0, x21
  405134:	97ffec5f 	bl	4002b0 <.plt+0x40>
  405138:	aa0003e1 	mov	x1, x0
  40513c:	aa1503e0 	mov	x0, x21
  405140:	91000421 	add	x1, x1, #0x1
  405144:	94004a4f 	bl	417a80 <__readonly_area>
  405148:	b900d7e0 	str	w0, [sp, #212]
  40514c:	17fffb95 	b	403fa0 <__printf_buffer+0x5b0>
  405150:	910403e0 	add	x0, sp, #0x100
  405154:	b9003be8 	str	w8, [sp, #56]
  405158:	97fff30e 	bl	401d90 <read_int>
  40515c:	7100801f 	cmp	w0, #0x20
  405160:	b9403be8 	ldr	w8, [sp, #56]
  405164:	54ffe680 	b.eq	404e34 <__printf_buffer+0x1444>  // b.none
  405168:	54fffb0c 	b.gt	4050c8 <__printf_buffer+0x16d8>
  40516c:	7100201f 	cmp	w0, #0x8
  405170:	54ffe600 	b.eq	404e30 <__printf_buffer+0x1440>  // b.none
  405174:	7100401f 	cmp	w0, #0x10
  405178:	54ffada1 	b.ne	40472c <__printf_buffer+0xd3c>  // b.any
  40517c:	52800037 	mov	w23, #0x1                   	// #1
  405180:	17ffff2d 	b	404e34 <__printf_buffer+0x1444>
  405184:	910403e0 	add	x0, sp, #0x100
  405188:	b9003be8 	str	w8, [sp, #56]
  40518c:	97fff301 	bl	401d90 <read_int>
  405190:	2a0003fc 	mov	w28, w0
  405194:	3100041f 	cmn	w0, #0x1
  405198:	54000e40 	b.eq	405360 <__printf_buffer+0x1970>  // b.none
  40519c:	f94083e0 	ldr	x0, [sp, #256]
  4051a0:	b9403be8 	ldr	w8, [sp, #56]
  4051a4:	39400004 	ldrb	w4, [x0]
  4051a8:	17fffd40 	b	4046a8 <__printf_buffer+0xcb8>
  4051ac:	b9402be0 	ldr	w0, [sp, #40]
  4051b0:	11002001 	add	w1, w0, #0x8
  4051b4:	7100003f 	cmp	w1, #0x0
  4051b8:	5400116d 	b.le	4053e4 <__printf_buffer+0x19f4>
  4051bc:	91003ec2 	add	x2, x22, #0xf
  4051c0:	aa1603e0 	mov	x0, x22
  4051c4:	927df056 	and	x22, x2, #0xfffffffffffffff8
  4051c8:	b9002be1 	str	w1, [sp, #40]
  4051cc:	17fffcce 	b	404504 <__printf_buffer+0xb14>
  4051d0:	b9402be1 	ldr	w1, [sp, #40]
  4051d4:	11002021 	add	w1, w1, #0x8
  4051d8:	7100003f 	cmp	w1, #0x0
  4051dc:	54000f8d 	b.le	4053cc <__printf_buffer+0x19dc>
  4051e0:	91002ed6 	add	x22, x22, #0xb
  4051e4:	b9400019 	ldr	w25, [x0]
  4051e8:	927df2d6 	and	x22, x22, #0xfffffffffffffff8
  4051ec:	b9002be1 	str	w1, [sp, #40]
  4051f0:	17fffca0 	b	404470 <__printf_buffer+0xa80>
  4051f4:	b9402be1 	ldr	w1, [sp, #40]
  4051f8:	11002021 	add	w1, w1, #0x8
  4051fc:	7100003f 	cmp	w1, #0x0
  405200:	54000dad 	b.le	4053b4 <__printf_buffer+0x19c4>
  405204:	91002ed6 	add	x22, x22, #0xb
  405208:	79400019 	ldrh	w25, [x0]
  40520c:	927df2d6 	and	x22, x22, #0xfffffffffffffff8
  405210:	b9002be1 	str	w1, [sp, #40]
  405214:	17fffc97 	b	404470 <__printf_buffer+0xa80>
  405218:	52800000 	mov	w0, #0x0                   	// #0
  40521c:	52800009 	mov	w9, #0x0                   	// #0
  405220:	17fffa9a 	b	403c88 <__printf_buffer+0x298>
  405224:	d2a00002 	movz	x2, #0x0, lsl #16
  405228:	f2800402 	movk	x2, #0x20
  40522c:	52800023 	mov	w3, #0x1                   	// #1
  405230:	b90053e4 	str	w4, [sp, #80]
  405234:	910483e0 	add	x0, sp, #0x120
  405238:	f94033e4 	ldr	x4, [sp, #96]
  40523c:	2a0303e1 	mov	w1, w3
  405240:	d2800038 	mov	x24, #0x1                   	// #1
  405244:	52800015 	mov	w21, #0x0                   	// #0
  405248:	f8626882 	ldr	x2, [x4, x2]
  40524c:	94009455 	bl	42a3a0 <__grouping_iterator_init>
  405250:	b9008ff8 	str	w24, [sp, #140]
  405254:	91155fe0 	add	x0, sp, #0x557
  405258:	b94053e4 	ldr	w4, [sp, #80]
  40525c:	d2800008 	mov	x8, #0x0                   	// #0
  405260:	f9002fe0 	str	x0, [sp, #88]
  405264:	52800400 	mov	w0, #0x20                  	// #32
  405268:	b90043e0 	str	w0, [sp, #64]
  40526c:	17fffdb8 	b	40494c <__printf_buffer+0xf5c>
  405270:	aa1303e0 	mov	x0, x19
  405274:	528004a1 	mov	w1, #0x25                  	// #37
  405278:	940094ee 	bl	42a630 <__printf_buffer_putc_1>
  40527c:	17fffaad 	b	403d30 <__printf_buffer+0x340>
  405280:	aa1303e0 	mov	x0, x19
  405284:	52800601 	mov	w1, #0x30                  	// #48
  405288:	b9002fe3 	str	w3, [sp, #44]
  40528c:	940094e9 	bl	42a630 <__printf_buffer_putc_1>
  405290:	b9402fe3 	ldr	w3, [sp, #44]
  405294:	17fffc51 	b	4043d8 <__printf_buffer+0x9e8>
  405298:	528005a1 	mov	w1, #0x2d                  	// #45
  40529c:	b90033e4 	str	w4, [sp, #48]
  4052a0:	f90023e8 	str	x8, [sp, #64]
  4052a4:	b9004be3 	str	w3, [sp, #72]
  4052a8:	aa1303e0 	mov	x0, x19
  4052ac:	940094e1 	bl	42a630 <__printf_buffer_putc_1>
  4052b0:	f94023e8 	ldr	x8, [sp, #64]
  4052b4:	b94033e4 	ldr	w4, [sp, #48]
  4052b8:	b9404be3 	ldr	w3, [sp, #72]
  4052bc:	17fffd57 	b	404818 <__printf_buffer+0xe28>
  4052c0:	aa1303e0 	mov	x0, x19
  4052c4:	528005a1 	mov	w1, #0x2d                  	// #45
  4052c8:	29058fe4 	stp	w4, w3, [sp, #44]
  4052cc:	940094d9 	bl	42a630 <__printf_buffer_putc_1>
  4052d0:	29458fe4 	ldp	w4, w3, [sp, #44]
  4052d4:	17fffc3d 	b	4043c8 <__printf_buffer+0x9d8>
  4052d8:	aa1303e0 	mov	x0, x19
  4052dc:	52800601 	mov	w1, #0x30                  	// #48
  4052e0:	b90033e3 	str	w3, [sp, #48]
  4052e4:	940094d3 	bl	42a630 <__printf_buffer_putc_1>
  4052e8:	b94033e3 	ldr	w3, [sp, #48]
  4052ec:	17fffd32 	b	4047b4 <__printf_buffer+0xdc4>
  4052f0:	93407ee2 	sxtw	x2, w23
  4052f4:	aa1303e0 	mov	x0, x19
  4052f8:	52800401 	mov	w1, #0x20                  	// #32
  4052fc:	940094a1 	bl	42a580 <__printf_buffer_pad_1>
  405300:	17fffafa 	b	403ee8 <__printf_buffer+0x4f8>
  405304:	37f80ae0 	tbnz	w0, #31, 405460 <__printf_buffer+0x1a70>
  405308:	aa1603e0 	mov	x0, x22
  40530c:	91002ec1 	add	x1, x22, #0xb
  405310:	927df036 	and	x22, x1, #0xfffffffffffffff8
  405314:	79800019 	ldrsh	x25, [x0]
  405318:	17fffc7c 	b	404508 <__printf_buffer+0xb18>
  40531c:	790002c0 	strh	w0, [x22]
  405320:	aa1503f6 	mov	x22, x21
  405324:	17fffa83 	b	403d30 <__printf_buffer+0x340>
  405328:	52800561 	mov	w1, #0x2b                  	// #43
  40532c:	b90033e4 	str	w4, [sp, #48]
  405330:	f90023e8 	str	x8, [sp, #64]
  405334:	b9004be3 	str	w3, [sp, #72]
  405338:	17ffffdc 	b	4052a8 <__printf_buffer+0x18b8>
  40533c:	aa1303e0 	mov	x0, x19
  405340:	52800561 	mov	w1, #0x2b                  	// #43
  405344:	29058fe4 	stp	w4, w3, [sp, #44]
  405348:	940094ba 	bl	42a630 <__printf_buffer_putc_1>
  40534c:	29458fe4 	ldp	w4, w3, [sp, #44]
  405350:	17fffc1e 	b	4043c8 <__printf_buffer+0x9d8>
  405354:	aa1303e0 	mov	x0, x19
  405358:	940094b6 	bl	42a630 <__printf_buffer_putc_1>
  40535c:	17fffaef 	b	403f18 <__printf_buffer+0x528>
  405360:	f94033e1 	ldr	x1, [sp, #96]
  405364:	52800960 	mov	w0, #0x4b                  	// #75
  405368:	f94067e2 	ldr	x2, [sp, #200]
  40536c:	b900227f 	str	wzr, [x19, #32]
  405370:	b8226820 	str	w0, [x1, x2]
  405374:	17fffa81 	b	403d78 <__printf_buffer+0x388>
  405378:	f94053e2 	ldr	x2, [sp, #160]
  40537c:	b9402be1 	ldr	w1, [sp, #40]
  405380:	b9002be0 	str	w0, [sp, #40]
  405384:	8b21c041 	add	x1, x2, w1, sxtw
  405388:	17fffadd 	b	403efc <__printf_buffer+0x50c>
  40538c:	b9402be0 	ldr	w0, [sp, #40]
  405390:	11002001 	add	w1, w0, #0x8
  405394:	7100003f 	cmp	w1, #0x0
  405398:	54000a0d 	b.le	4054d8 <__printf_buffer+0x1ae8>
  40539c:	aa1603e0 	mov	x0, x22
  4053a0:	91002ec2 	add	x2, x22, #0xb
  4053a4:	927df056 	and	x22, x2, #0xfffffffffffffff8
  4053a8:	b9002be1 	str	w1, [sp, #40]
  4053ac:	39800019 	ldrsb	x25, [x0]
  4053b0:	17fffc56 	b	404508 <__printf_buffer+0xb18>
  4053b4:	f94053e2 	ldr	x2, [sp, #160]
  4053b8:	b9402be0 	ldr	w0, [sp, #40]
  4053bc:	b9002be1 	str	w1, [sp, #40]
  4053c0:	8b20c040 	add	x0, x2, w0, sxtw
  4053c4:	79400019 	ldrh	w25, [x0]
  4053c8:	17fffc2a 	b	404470 <__printf_buffer+0xa80>
  4053cc:	f94053e2 	ldr	x2, [sp, #160]
  4053d0:	b9402be0 	ldr	w0, [sp, #40]
  4053d4:	b9002be1 	str	w1, [sp, #40]
  4053d8:	8b20c040 	add	x0, x2, w0, sxtw
  4053dc:	b9400019 	ldr	w25, [x0]
  4053e0:	17fffc24 	b	404470 <__printf_buffer+0xa80>
  4053e4:	f94053e2 	ldr	x2, [sp, #160]
  4053e8:	b9402be0 	ldr	w0, [sp, #40]
  4053ec:	b9002be1 	str	w1, [sp, #40]
  4053f0:	8b20c040 	add	x0, x2, w0, sxtw
  4053f4:	17fffc44 	b	404504 <__printf_buffer+0xb14>
  4053f8:	52800401 	mov	w1, #0x20                  	// #32
  4053fc:	b90033e4 	str	w4, [sp, #48]
  405400:	f90023e8 	str	x8, [sp, #64]
  405404:	b9004be3 	str	w3, [sp, #72]
  405408:	17ffffa8 	b	4052a8 <__printf_buffer+0x18b8>
  40540c:	aa1303e0 	mov	x0, x19
  405410:	52800401 	mov	w1, #0x20                  	// #32
  405414:	29058fe4 	stp	w4, w3, [sp, #44]
  405418:	94009486 	bl	42a630 <__printf_buffer_putc_1>
  40541c:	29458fe4 	ldp	w4, w3, [sp, #44]
  405420:	17fffbea 	b	4043c8 <__printf_buffer+0x9d8>
  405424:	f94053e2 	ldr	x2, [sp, #160]
  405428:	b9402be0 	ldr	w0, [sp, #40]
  40542c:	b9002be1 	str	w1, [sp, #40]
  405430:	8b20c040 	add	x0, x2, w0, sxtw
  405434:	17fffe9a 	b	404e9c <__printf_buffer+0x14ac>
  405438:	b9402be0 	ldr	w0, [sp, #40]
  40543c:	11002001 	add	w1, w0, #0x8
  405440:	7100003f 	cmp	w1, #0x0
  405444:	5400076d 	b.le	405530 <__printf_buffer+0x1b40>
  405448:	aa1603e0 	mov	x0, x22
  40544c:	91002ec2 	add	x2, x22, #0xb
  405450:	927df056 	and	x22, x2, #0xfffffffffffffff8
  405454:	b9002be1 	str	w1, [sp, #40]
  405458:	b9800019 	ldrsw	x25, [x0]
  40545c:	17fffc2b 	b	404508 <__printf_buffer+0xb18>
  405460:	b9402be0 	ldr	w0, [sp, #40]
  405464:	11002001 	add	w1, w0, #0x8
  405468:	7100003f 	cmp	w1, #0x0
  40546c:	5400056d 	b.le	405518 <__printf_buffer+0x1b28>
  405470:	aa1603e0 	mov	x0, x22
  405474:	91002ec2 	add	x2, x22, #0xb
  405478:	927df056 	and	x22, x2, #0xfffffffffffffff8
  40547c:	b9002be1 	str	w1, [sp, #40]
  405480:	79800019 	ldrsh	x25, [x0]
  405484:	17fffc21 	b	404508 <__printf_buffer+0xb18>
  405488:	2a0403e1 	mov	w1, w4
  40548c:	aa1303e0 	mov	x0, x19
  405490:	f9001be8 	str	x8, [sp, #48]
  405494:	b9003be3 	str	w3, [sp, #56]
  405498:	94009466 	bl	42a630 <__printf_buffer_putc_1>
  40549c:	f9401be8 	ldr	x8, [sp, #48]
  4054a0:	b9403be3 	ldr	w3, [sp, #56]
  4054a4:	17fffcf3 	b	404870 <__printf_buffer+0xe80>
  4054a8:	2a0403e1 	mov	w1, w4
  4054ac:	aa1303e0 	mov	x0, x19
  4054b0:	b9002fe3 	str	w3, [sp, #44]
  4054b4:	9400945f 	bl	42a630 <__printf_buffer_putc_1>
  4054b8:	b9402fe3 	ldr	w3, [sp, #44]
  4054bc:	17fffbc4 	b	4043cc <__printf_buffer+0x9dc>
  4054c0:	aa1303e0 	mov	x0, x19
  4054c4:	52800601 	mov	w1, #0x30                  	// #48
  4054c8:	29058fe4 	stp	w4, w3, [sp, #44]
  4054cc:	94009459 	bl	42a630 <__printf_buffer_putc_1>
  4054d0:	29458fe4 	ldp	w4, w3, [sp, #44]
  4054d4:	17fffd67 	b	404a70 <__printf_buffer+0x1080>
  4054d8:	f94053e2 	ldr	x2, [sp, #160]
  4054dc:	b9402be0 	ldr	w0, [sp, #40]
  4054e0:	b9002be1 	str	w1, [sp, #40]
  4054e4:	8b20c040 	add	x0, x2, w0, sxtw
  4054e8:	39800019 	ldrsb	x25, [x0]
  4054ec:	17fffc07 	b	404508 <__printf_buffer+0xb18>
  4054f0:	aa1303e0 	mov	x0, x19
  4054f4:	52800601 	mov	w1, #0x30                  	// #48
  4054f8:	b90033e4 	str	w4, [sp, #48]
  4054fc:	f9001fe8 	str	x8, [sp, #56]
  405500:	b90043e3 	str	w3, [sp, #64]
  405504:	9400944b 	bl	42a630 <__printf_buffer_putc_1>
  405508:	f9401fe8 	ldr	x8, [sp, #56]
  40550c:	b94033e4 	ldr	w4, [sp, #48]
  405510:	b94043e3 	ldr	w3, [sp, #64]
  405514:	17fffcd1 	b	404858 <__printf_buffer+0xe68>
  405518:	f94053e2 	ldr	x2, [sp, #160]
  40551c:	b9402be0 	ldr	w0, [sp, #40]
  405520:	b9002be1 	str	w1, [sp, #40]
  405524:	8b20c040 	add	x0, x2, w0, sxtw
  405528:	79800019 	ldrsh	x25, [x0]
  40552c:	17fffbf7 	b	404508 <__printf_buffer+0xb18>
  405530:	f94053e2 	ldr	x2, [sp, #160]
  405534:	b9402be0 	ldr	w0, [sp, #40]
  405538:	b9002be1 	str	w1, [sp, #40]
  40553c:	8b20c040 	add	x0, x2, w0, sxtw
  405540:	b9800019 	ldrsw	x25, [x0]
  405544:	17fffbf1 	b	404508 <__printf_buffer+0xb18>
  405548:	f902cbf7 	str	x23, [sp, #1424]
  40554c:	f902cff8 	str	x24, [sp, #1432]
  405550:	f902d3f9 	str	x25, [sp, #1440]
  405554:	f902d7fa 	str	x26, [sp, #1448]
  405558:	f902dbfb 	str	x27, [sp, #1456]
  40555c:	f902dffc 	str	x28, [sp, #1464]
  405560:	940049d8 	bl	417cc0 <__stack_chk_fail>
  405564:	d0000260 	adrp	x0, 453000 <_Unwind_Find_FDE+0x3f0>
  405568:	913f4000 	add	x0, x0, #0xfd0
  40556c:	940004fd 	bl	406960 <__libc_fatal>

0000000000405570 <__vfprintf_internal>:
  405570:	d10503ff 	sub	sp, sp, #0x140
  405574:	a9107bfd 	stp	x29, x30, [sp, #256]
  405578:	910403fd 	add	x29, sp, #0x100
  40557c:	a91153f3 	stp	x19, x20, [sp, #272]
  405580:	aa0003f3 	mov	x19, x0
  405584:	aa0103f4 	mov	x20, x1
  405588:	d0000440 	adrp	x0, 48f000 <tunable_list+0x880>
  40558c:	f9462c00 	ldr	x0, [x0, #3160]
  405590:	a9125bf5 	stp	x21, x22, [sp, #288]
  405594:	b940c264 	ldr	w4, [x19, #192]
  405598:	a91363f7 	stp	x23, x24, [sp, #304]
  40559c:	aa0203f5 	mov	x21, x2
  4055a0:	2a0303f7 	mov	w23, w3
  4055a4:	f9400001 	ldr	x1, [x0]
  4055a8:	f9007fe1 	str	x1, [sp, #248]
  4055ac:	d2800001 	mov	x1, #0x0                   	// #0
  4055b0:	35000544 	cbnz	w4, 405658 <__vfprintf_internal+0xe8>
  4055b4:	12800000 	mov	w0, #0xffffffff            	// #-1
  4055b8:	b900c260 	str	w0, [x19, #192]
  4055bc:	b9400260 	ldr	w0, [x19]
  4055c0:	37180f40 	tbnz	w0, #3, 4057a8 <__vfprintf_internal+0x238>
  4055c4:	b4001054 	cbz	x20, 4057cc <__vfprintf_internal+0x25c>
  4055c8:	b9407661 	ldr	w1, [x19, #116]
  4055cc:	36380ba1 	tbz	w1, #7, 405740 <__vfprintf_internal+0x1d0>
  4055d0:	f9001bf3 	str	x19, [sp, #48]
  4055d4:	52800018 	mov	w24, #0x0                   	// #0
  4055d8:	36780620 	tbz	w0, #15, 40569c <__vfprintf_internal+0x12c>
  4055dc:	910123f6 	add	x22, sp, #0x48
  4055e0:	aa1303e1 	mov	x1, x19
  4055e4:	aa1603e0 	mov	x0, x22
  4055e8:	940094ca 	bl	42a910 <__printf_buffer_to_file_init>
  4055ec:	ad4006a0 	ldp	q0, q1, [x21]
  4055f0:	910003e2 	mov	x2, sp
  4055f4:	aa1403e1 	mov	x1, x20
  4055f8:	2a1703e3 	mov	w3, w23
  4055fc:	aa1603e0 	mov	x0, x22
  405600:	ad000440 	stp	q0, q1, [x2]
  405604:	97fff8fb 	bl	4039f0 <__printf_buffer>
  405608:	aa1603e0 	mov	x0, x22
  40560c:	940094d1 	bl	42a950 <__printf_buffer_to_file_done>
  405610:	2a0003f4 	mov	w20, w0
  405614:	b9400261 	ldr	w1, [x19]
  405618:	36780281 	tbz	w1, #15, 405668 <__vfprintf_internal+0xf8>
  40561c:	350003b8 	cbnz	w24, 405690 <__vfprintf_internal+0x120>
  405620:	d0000440 	adrp	x0, 48f000 <tunable_list+0x880>
  405624:	f9462c00 	ldr	x0, [x0, #3160]
  405628:	f9407fe2 	ldr	x2, [sp, #248]
  40562c:	f9400001 	ldr	x1, [x0]
  405630:	eb010042 	subs	x2, x2, x1
  405634:	d2800001 	mov	x1, #0x0                   	// #0
  405638:	54000d81 	b.ne	4057e8 <__vfprintf_internal+0x278>  // b.any
  40563c:	a9507bfd 	ldp	x29, x30, [sp, #256]
  405640:	2a1403e0 	mov	w0, w20
  405644:	a95153f3 	ldp	x19, x20, [sp, #272]
  405648:	a9525bf5 	ldp	x21, x22, [sp, #288]
  40564c:	a95363f7 	ldp	x23, x24, [sp, #304]
  405650:	910503ff 	add	sp, sp, #0x140
  405654:	d65f03c0 	ret
  405658:	3100049f 	cmn	w4, #0x1
  40565c:	54fffb00 	b.eq	4055bc <__vfprintf_internal+0x4c>  // b.none
  405660:	12800014 	mov	w20, #0xffffffff            	// #-1
  405664:	17ffffef 	b	405620 <__vfprintf_internal+0xb0>
  405668:	d0000440 	adrp	x0, 48f000 <tunable_list+0x880>
  40566c:	f9463c00 	ldr	x0, [x0, #3192]
  405670:	f9404673 	ldr	x19, [x19, #136]
  405674:	39400001 	ldrb	w1, [x0]
  405678:	b9400660 	ldr	w0, [x19, #4]
  40567c:	34000441 	cbz	w1, 405704 <__vfprintf_internal+0x194>
  405680:	350007e0 	cbnz	w0, 40577c <__vfprintf_internal+0x20c>
  405684:	b900027f 	str	wzr, [x19]
  405688:	f900067f 	str	xzr, [x19, #8]
  40568c:	34fffcb8 	cbz	w24, 405620 <__vfprintf_internal+0xb0>
  405690:	9100a3e0 	add	x0, sp, #0x28
  405694:	940019d0 	bl	40bdd4 <__libc_cleanup_pop_restore>
  405698:	17ffffe2 	b	405620 <__vfprintf_internal+0xb0>
  40569c:	d0000441 	adrp	x1, 48f000 <tunable_list+0x880>
  4056a0:	f9466421 	ldr	x1, [x1, #3272]
  4056a4:	9100a3e0 	add	x0, sp, #0x28
  4056a8:	f90017e1 	str	x1, [sp, #40]
  4056ac:	940019a9 	bl	40bd50 <__libc_cleanup_push_defer>
  4056b0:	b9400260 	ldr	w0, [x19]
  4056b4:	37780240 	tbnz	w0, #15, 4056fc <__vfprintf_internal+0x18c>
  4056b8:	d0000440 	adrp	x0, 48f000 <tunable_list+0x880>
  4056bc:	f9463c00 	ldr	x0, [x0, #3192]
  4056c0:	d53bd056 	mrs	x22, tpidr_el0
  4056c4:	f9404678 	ldr	x24, [x19, #136]
  4056c8:	d11d02d6 	sub	x22, x22, #0x740
  4056cc:	39400001 	ldrb	w1, [x0]
  4056d0:	f9400700 	ldr	x0, [x24, #8]
  4056d4:	350002a1 	cbnz	w1, 405728 <__vfprintf_internal+0x1b8>
  4056d8:	eb16001f 	cmp	x0, x22
  4056dc:	54000560 	b.eq	405788 <__vfprintf_internal+0x218>  // b.none
  4056e0:	aa1803e2 	mov	x2, x24
  4056e4:	52800021 	mov	w1, #0x1                   	// #1
  4056e8:	52800000 	mov	w0, #0x0                   	// #0
  4056ec:	94011d85 	bl	44cd00 <__aarch64_cas4_acq>
  4056f0:	35000560 	cbnz	w0, 40579c <__vfprintf_internal+0x22c>
  4056f4:	f9404660 	ldr	x0, [x19, #136]
  4056f8:	f9000416 	str	x22, [x0, #8]
  4056fc:	52800038 	mov	w24, #0x1                   	// #1
  405700:	17ffffb7 	b	4055dc <__vfprintf_internal+0x6c>
  405704:	350003c0 	cbnz	w0, 40577c <__vfprintf_internal+0x20c>
  405708:	f900067f 	str	xzr, [x19, #8]
  40570c:	aa1303e1 	mov	x1, x19
  405710:	94011e28 	bl	44cfb0 <__aarch64_swp4_rel>
  405714:	7100041f 	cmp	w0, #0x1
  405718:	54fff82d 	b.le	40561c <__vfprintf_internal+0xac>
  40571c:	aa1303e0 	mov	x0, x19
  405720:	94001a14 	bl	40bf70 <__lll_lock_wake_private>
  405724:	17ffffbe 	b	40561c <__vfprintf_internal+0xac>
  405728:	b5fffd80 	cbnz	x0, 4056d8 <__vfprintf_internal+0x168>
  40572c:	52800020 	mov	w0, #0x1                   	// #1
  405730:	b9000300 	str	w0, [x24]
  405734:	f9000716 	str	x22, [x24, #8]
  405738:	52800038 	mov	w24, #0x1                   	// #1
  40573c:	17ffffa8 	b	4055dc <__vfprintf_internal+0x6c>
  405740:	910123e0 	add	x0, sp, #0x48
  405744:	aa1303e1 	mov	x1, x19
  405748:	aa0003f3 	mov	x19, x0
  40574c:	94009471 	bl	42a910 <__printf_buffer_to_file_init>
  405750:	ad4006a0 	ldp	q0, q1, [x21]
  405754:	910003e2 	mov	x2, sp
  405758:	aa1403e1 	mov	x1, x20
  40575c:	2a1703e3 	mov	w3, w23
  405760:	aa1303e0 	mov	x0, x19
  405764:	ad000440 	stp	q0, q1, [x2]
  405768:	97fff8a2 	bl	4039f0 <__printf_buffer>
  40576c:	aa1303e0 	mov	x0, x19
  405770:	94009478 	bl	42a950 <__printf_buffer_to_file_done>
  405774:	2a0003f4 	mov	w20, w0
  405778:	17ffffaa 	b	405620 <__vfprintf_internal+0xb0>
  40577c:	51000400 	sub	w0, w0, #0x1
  405780:	b9000660 	str	w0, [x19, #4]
  405784:	17ffffa6 	b	40561c <__vfprintf_internal+0xac>
  405788:	b9400700 	ldr	w0, [x24, #4]
  40578c:	11000400 	add	w0, w0, #0x1
  405790:	b9000700 	str	w0, [x24, #4]
  405794:	52800038 	mov	w24, #0x1                   	// #1
  405798:	17ffff91 	b	4055dc <__vfprintf_internal+0x6c>
  40579c:	aa1803e0 	mov	x0, x24
  4057a0:	940019b4 	bl	40be70 <__lll_lock_wait_private>
  4057a4:	17ffffd4 	b	4056f4 <__vfprintf_internal+0x184>
  4057a8:	d2a00001 	movz	x1, #0x0, lsl #16
  4057ac:	f2800501 	movk	x1, #0x28
  4057b0:	d53bd042 	mrs	x2, tpidr_el0
  4057b4:	321b0000 	orr	w0, w0, #0x20
  4057b8:	b9000260 	str	w0, [x19]
  4057bc:	52800123 	mov	w3, #0x9                   	// #9
  4057c0:	12800014 	mov	w20, #0xffffffff            	// #-1
  4057c4:	b8216843 	str	w3, [x2, x1]
  4057c8:	17ffff96 	b	405620 <__vfprintf_internal+0xb0>
  4057cc:	d2a00000 	movz	x0, #0x0, lsl #16
  4057d0:	f2800500 	movk	x0, #0x28
  4057d4:	d53bd041 	mrs	x1, tpidr_el0
  4057d8:	528002c2 	mov	w2, #0x16                  	// #22
  4057dc:	12800014 	mov	w20, #0xffffffff            	// #-1
  4057e0:	b8206822 	str	w2, [x1, x0]
  4057e4:	17ffff8f 	b	405620 <__vfprintf_internal+0xb0>
  4057e8:	94004936 	bl	417cc0 <__stack_chk_fail>
  4057ec:	d503201f 	nop

00000000004057f0 <__get_errname>:
  4057f0:	a9bf7bfd 	stp	x29, x30, [sp, #-16]!
  4057f4:	910003fd 	mov	x29, sp
  4057f8:	7102141f 	cmp	w0, #0x85
  4057fc:	54000168 	b.hi	405828 <__get_errname+0x38>  // b.pmore
  405800:	b00002a1 	adrp	x1, 45a000 <__PRETTY_FUNCTION__.0+0x1c0>
  405804:	91268022 	add	x2, x1, #0x9a0
  405808:	7860d842 	ldrh	w2, [x2, w0, sxtw #1]
  40580c:	350000c0 	cbnz	w0, 405824 <__get_errname+0x34>
  405810:	91268021 	add	x1, x1, #0x9a0
  405814:	91044021 	add	x1, x1, #0x110
  405818:	8b222020 	add	x0, x1, w2, uxth
  40581c:	a8c17bfd 	ldp	x29, x30, [sp], #16
  405820:	d65f03c0 	ret
  405824:	35ffff62 	cbnz	w2, 405810 <__get_errname+0x20>
  405828:	d2800000 	mov	x0, #0x0                   	// #0
  40582c:	a8c17bfd 	ldp	x29, x30, [sp], #16
  405830:	d65f03c0 	ret
  405834:	d503201f 	nop
  405838:	d503201f 	nop
  40583c:	d503201f 	nop

0000000000405840 <read_int>:
  405840:	a9bf7bfd 	stp	x29, x30, [sp, #-16]!
  405844:	aa0003e4 	mov	x4, x0
  405848:	910003fd 	mov	x29, sp
  40584c:	f9400003 	ldr	x3, [x0]
  405850:	aa0303e2 	mov	x2, x3
  405854:	38401441 	ldrb	w1, [x2], #1
  405858:	f9000002 	str	x2, [x0]
  40585c:	5100c020 	sub	w0, w1, #0x30
  405860:	39400461 	ldrb	w1, [x3, #1]
  405864:	5100c021 	sub	w1, w1, #0x30
  405868:	7100243f 	cmp	w1, #0x9
  40586c:	54000288 	b.hi	4058bc <read_int+0x7c>  // b.pmore
  405870:	52999987 	mov	w7, #0xcccc                	// #52428
  405874:	12800008 	mov	w8, #0xffffffff            	// #-1
  405878:	72a19987 	movk	w7, #0xccc, lsl #16
  40587c:	12b00006 	mov	w6, #0x7fffffff            	// #2147483647
  405880:	37f80120 	tbnz	w0, #31, 4058a4 <read_int+0x64>
  405884:	0b000803 	add	w3, w0, w0, lsl #2
  405888:	4b0100c5 	sub	w5, w6, w1
  40588c:	6b07001f 	cmp	w0, w7
  405890:	540001ac 	b.gt	4058c4 <read_int+0x84>
  405894:	531f7863 	lsl	w3, w3, #1
  405898:	0b030021 	add	w1, w1, w3
  40589c:	6b05007f 	cmp	w3, w5
  4058a0:	1a88d020 	csel	w0, w1, w8, le
  4058a4:	91000442 	add	x2, x2, #0x1
  4058a8:	f9000082 	str	x2, [x4]
  4058ac:	39400041 	ldrb	w1, [x2]
  4058b0:	5100c021 	sub	w1, w1, #0x30
  4058b4:	7100243f 	cmp	w1, #0x9
  4058b8:	54fffe49 	b.ls	405880 <read_int+0x40>  // b.plast
  4058bc:	a8c17bfd 	ldp	x29, x30, [sp], #16
  4058c0:	d65f03c0 	ret
  4058c4:	12800000 	mov	w0, #0xffffffff            	// #-1
  4058c8:	17fffff7 	b	4058a4 <read_int+0x64>
  4058cc:	d503201f 	nop

00000000004058d0 <__parse_one_specmb>:
  4058d0:	a9bc7bfd 	stp	x29, x30, [sp, #-64]!
  4058d4:	aa0003ea 	mov	x10, x0
  4058d8:	52800405 	mov	w5, #0x20                  	// #32
  4058dc:	910003fd 	mov	x29, sp
  4058e0:	a90153f3 	stp	x19, x20, [sp, #16]
  4058e4:	aa0203f3 	mov	x19, x2
  4058e8:	aa0403f4 	mov	x20, x4
  4058ec:	a9025bf5 	stp	x21, x22, [sp, #32]
  4058f0:	12800002 	mov	w2, #0xffffffff            	// #-1
  4058f4:	79401a60 	ldrh	w0, [x19, #12]
  4058f8:	1283bf04 	mov	w4, #0xffffe207            	// #-7673
  4058fc:	b9001265 	str	w5, [x19, #16]
  405900:	0a040000 	and	w0, w0, w4
  405904:	79001a60 	strh	w0, [x19, #12]
  405908:	b9003262 	str	w2, [x19, #48]
  40590c:	91000549 	add	x9, x10, #0x1
  405910:	3900029f 	strb	wzr, [x20]
  405914:	aa0103f5 	mov	x21, x1
  405918:	f9001fe9 	str	x9, [sp, #56]
  40591c:	aa0303eb 	mov	x11, x3
  405920:	39400542 	ldrb	w2, [x10, #1]
  405924:	5100c040 	sub	w0, w2, #0x30
  405928:	7100241f 	cmp	w0, #0x9
  40592c:	540001e8 	b.hi	405968 <__parse_one_specmb+0x98>  // b.pmore
  405930:	140000cf 	b	405c6c <__parse_one_specmb+0x39c>
  405934:	71008c5f 	cmp	w2, #0x23
  405938:	54000d00 	b.eq	405ad8 <__parse_one_specmb+0x208>  // b.none
  40593c:	71009c5f 	cmp	w2, #0x27
  405940:	54000c40 	b.eq	405ac8 <__parse_one_specmb+0x1f8>  // b.none
  405944:	7100805f 	cmp	w2, #0x20
  405948:	54000301 	b.ne	4059a8 <__parse_one_specmb+0xd8>  // b.any
  40594c:	79401a60 	ldrh	w0, [x19, #12]
  405950:	321c0000 	orr	w0, w0, #0x10
  405954:	79001a60 	strh	w0, [x19, #12]
  405958:	91000529 	add	x9, x9, #0x1
  40595c:	f9001fe9 	str	x9, [sp, #56]
  405960:	39400122 	ldrb	w2, [x9]
  405964:	34000222 	cbz	w2, 4059a8 <__parse_one_specmb+0xd8>
  405968:	7100ac5f 	cmp	w2, #0x2b
  40596c:	54000a60 	b.eq	405ab8 <__parse_one_specmb+0x1e8>  // b.none
  405970:	54fffe29 	b.ls	405934 <__parse_one_specmb+0x64>  // b.plast
  405974:	7100c05f 	cmp	w2, #0x30
  405978:	54000c00 	b.eq	405af8 <__parse_one_specmb+0x228>  // b.none
  40597c:	7101245f 	cmp	w2, #0x49
  405980:	54000b40 	b.eq	405ae8 <__parse_one_specmb+0x218>  // b.none
  405984:	7100b45f 	cmp	w2, #0x2d
  405988:	54000101 	b.ne	4059a8 <__parse_one_specmb+0xd8>  // b.any
  40598c:	79401a60 	ldrh	w0, [x19, #12]
  405990:	91000529 	add	x9, x9, #0x1
  405994:	321b0000 	orr	w0, w0, #0x20
  405998:	79001a60 	strh	w0, [x19, #12]
  40599c:	f9001fe9 	str	x9, [sp, #56]
  4059a0:	39400122 	ldrb	w2, [x9]
  4059a4:	35fffe22 	cbnz	w2, 405968 <__parse_one_specmb+0x98>
  4059a8:	79401a60 	ldrh	w0, [x19, #12]
  4059ac:	36280060 	tbz	w0, #5, 4059b8 <__parse_one_specmb+0xe8>
  4059b0:	52800400 	mov	w0, #0x20                  	// #32
  4059b4:	b9001260 	str	w0, [x19, #16]
  4059b8:	12800000 	mov	w0, #0xffffffff            	// #-1
  4059bc:	b900067f 	str	wzr, [x19, #4]
  4059c0:	b9002e60 	str	w0, [x19, #44]
  4059c4:	39400120 	ldrb	w0, [x9]
  4059c8:	7100a81f 	cmp	w0, #0x2a
  4059cc:	54001380 	b.eq	405c3c <__parse_one_specmb+0x36c>  // b.none
  4059d0:	5100c000 	sub	w0, w0, #0x30
  4059d4:	d2800016 	mov	x22, #0x0                   	// #0
  4059d8:	7100241f 	cmp	w0, #0x9
  4059dc:	54000e09 	b.ls	405b9c <__parse_one_specmb+0x2cc>  // b.plast
  4059e0:	12800000 	mov	w0, #0xffffffff            	// #-1
  4059e4:	b9000260 	str	w0, [x19]
  4059e8:	b9002a60 	str	w0, [x19, #40]
  4059ec:	39400120 	ldrb	w0, [x9]
  4059f0:	7100b81f 	cmp	w0, #0x2e
  4059f4:	54000ee0 	b.eq	405bd0 <__parse_one_specmb+0x300>  // b.none
  4059f8:	b0000ea1 	adrp	x1, 5da000 <_nl_state_lock+0x18>
  4059fc:	b9400e60 	ldr	w0, [x19, #12]
  405a00:	529fbf02 	mov	w2, #0xfdf8                	// #65016
  405a04:	f9409021 	ldr	x1, [x1, #288]
  405a08:	0a020000 	and	w0, w0, w2
  405a0c:	b9000e60 	str	w0, [x19, #12]
  405a10:	b5001041 	cbnz	x1, 405c18 <__parse_one_specmb+0x348>
  405a14:	91000521 	add	x1, x9, #0x1
  405a18:	f9001fe1 	str	x1, [sp, #56]
  405a1c:	39400120 	ldrb	w0, [x9]
  405a20:	7101b01f 	cmp	w0, #0x6c
  405a24:	54001d20 	b.eq	405dc8 <__parse_one_specmb+0x4f8>  // b.none
  405a28:	540006c8 	b.hi	405b00 <__parse_one_specmb+0x230>  // b.pmore
  405a2c:	7101a01f 	cmp	w0, #0x68
  405a30:	54001bc0 	b.eq	405da8 <__parse_one_specmb+0x4d8>  // b.none
  405a34:	54001568 	b.hi	405ce0 <__parse_one_specmb+0x410>  // b.pmore
  405a38:	7101301f 	cmp	w0, #0x4c
  405a3c:	54001ac0 	b.eq	405d94 <__parse_one_specmb+0x4c4>  // b.none
  405a40:	7101681f 	cmp	w0, #0x5a
  405a44:	540006c1 	b.ne	405b1c <__parse_one_specmb+0x24c>  // b.any
  405a48:	79401a60 	ldrh	w0, [x19, #12]
  405a4c:	91000922 	add	x2, x9, #0x2
  405a50:	321e0000 	orr	w0, w0, #0x4
  405a54:	79001a60 	strh	w0, [x19, #12]
  405a58:	b0000ea0 	adrp	x0, 5da000 <_nl_state_lock+0x18>
  405a5c:	f9001fe2 	str	x2, [sp, #56]
  405a60:	12800003 	mov	w3, #0xffffffff            	// #-1
  405a64:	f9409802 	ldr	x2, [x0, #304]
  405a68:	39400020 	ldrb	w0, [x1]
  405a6c:	b9000a60 	str	w0, [x19, #8]
  405a70:	b9004263 	str	w3, [x19, #64]
  405a74:	b50006a2 	cbnz	x2, 405b48 <__parse_one_specmb+0x278>
  405a78:	d2800022 	mov	x2, #0x1                   	// #1
  405a7c:	51010401 	sub	w1, w0, #0x41
  405a80:	f9001e62 	str	x2, [x19, #56]
  405a84:	b9403263 	ldr	w3, [x19, #48]
  405a88:	7100dc3f 	cmp	w1, #0x37
  405a8c:	540011e9 	b.ls	405cc8 <__parse_one_specmb+0x3f8>  // b.plast
  405a90:	f9001e7f 	str	xzr, [x19, #56]
  405a94:	f9401fea 	ldr	x10, [sp, #56]
  405a98:	350014c0 	cbnz	w0, 405d30 <__parse_one_specmb+0x460>
  405a9c:	d100054a 	sub	x10, x10, #0x1
  405aa0:	a901aa6a 	stp	x10, x10, [x19, #24]
  405aa4:	aa1603e0 	mov	x0, x22
  405aa8:	a94153f3 	ldp	x19, x20, [sp, #16]
  405aac:	a9425bf5 	ldp	x21, x22, [sp, #32]
  405ab0:	a8c47bfd 	ldp	x29, x30, [sp], #64
  405ab4:	d65f03c0 	ret
  405ab8:	79401a60 	ldrh	w0, [x19, #12]
  405abc:	321a0000 	orr	w0, w0, #0x40
  405ac0:	79001a60 	strh	w0, [x19, #12]
  405ac4:	17ffffa5 	b	405958 <__parse_one_specmb+0x88>
  405ac8:	79401a60 	ldrh	w0, [x19, #12]
  405acc:	32190000 	orr	w0, w0, #0x80
  405ad0:	79001a60 	strh	w0, [x19, #12]
  405ad4:	17ffffa1 	b	405958 <__parse_one_specmb+0x88>
  405ad8:	79401a60 	ldrh	w0, [x19, #12]
  405adc:	321d0000 	orr	w0, w0, #0x8
  405ae0:	79001a60 	strh	w0, [x19, #12]
