
/home/fangjiang/workspace/re-prefetcher/store-stride-prefetcher/bin/test0-exist:     file format elf64-littleaarch64


Disassembly of section .init:

0000000000400280 <_init>:
  400280:	d503201f 	nop
  400284:	a9bf7bfd 	stp	x29, x30, [sp, #-16]!
  400288:	910003fd 	mov	x29, sp
  40028c:	940000ce 	bl	4005c4 <call_weak_fn>
  400290:	a8c17bfd 	ldp	x29, x30, [sp], #16
  400294:	d65f03c0 	ret

Disassembly of section .plt:

00000000004002a0 <.plt>:
  4002a0:	f0000490 	adrp	x16, 493000 <.got.plt+0x18>
  4002a4:	f9400211 	ldr	x17, [x16]
  4002a8:	91000210 	add	x16, x16, #0x0
  4002ac:	d61f0220 	br	x17
  4002b0:	f0000490 	adrp	x16, 493000 <.got.plt+0x18>
  4002b4:	f9400611 	ldr	x17, [x16, #8]
  4002b8:	91002210 	add	x16, x16, #0x8
  4002bc:	d61f0220 	br	x17
  4002c0:	f0000490 	adrp	x16, 493000 <.got.plt+0x18>
  4002c4:	f9400a11 	ldr	x17, [x16, #16]
  4002c8:	91004210 	add	x16, x16, #0x10
  4002cc:	d61f0220 	br	x17
  4002d0:	f0000490 	adrp	x16, 493000 <.got.plt+0x18>
  4002d4:	f9400e11 	ldr	x17, [x16, #24]
  4002d8:	91006210 	add	x16, x16, #0x18
  4002dc:	d61f0220 	br	x17
  4002e0:	f0000490 	adrp	x16, 493000 <.got.plt+0x18>
  4002e4:	f9401211 	ldr	x17, [x16, #32]
  4002e8:	91008210 	add	x16, x16, #0x20
  4002ec:	d61f0220 	br	x17
  4002f0:	f0000490 	adrp	x16, 493000 <.got.plt+0x18>
  4002f4:	f9401611 	ldr	x17, [x16, #40]
  4002f8:	9100a210 	add	x16, x16, #0x28
  4002fc:	d61f0220 	br	x17
  400300:	f0000490 	adrp	x16, 493000 <.got.plt+0x18>
  400304:	f9401a11 	ldr	x17, [x16, #48]
  400308:	9100c210 	add	x16, x16, #0x30
  40030c:	d61f0220 	br	x17

Disassembly of section .text:

0000000000400340 <abort>:
  400340:	d10543ff 	sub	sp, sp, #0x150
  400344:	d0000480 	adrp	x0, 492000 <tunable_list+0x528>
  400348:	a9127bfd 	stp	x29, x30, [sp, #288]
  40034c:	910483fd 	add	x29, sp, #0x120
  400350:	f945f800 	ldr	x0, [x0, #3056]
  400354:	a91353f3 	stp	x19, x20, [sp, #304]
  400358:	b0000ed3 	adrp	x19, 5d9000 <user_memory_pressure_sink>
  40035c:	f900a3f5 	str	x21, [sp, #320]
  400360:	91276275 	add	x21, x19, #0x9d8
  400364:	d53bd054 	mrs	x20, tpidr_el0
  400368:	d11f0294 	sub	x20, x20, #0x7c0
  40036c:	f9400002 	ldr	x2, [x0]
  400370:	f9008fe2 	str	x2, [sp, #280]
  400374:	d2800002 	mov	x2, #0x0                   	// #0
  400378:	f94006a1 	ldr	x1, [x21, #8]
  40037c:	eb14003f 	cmp	x1, x20
  400380:	54000140 	b.eq	4003a8 <abort+0x68>  // b.none
  400384:	aa1503e2 	mov	x2, x21
  400388:	52800021 	mov	w1, #0x1                   	// #1
  40038c:	52800000 	mov	w0, #0x0                   	// #0
  400390:	94014b54 	bl	4530e0 <__aarch64_cas4_acq>
  400394:	34000060 	cbz	w0, 4003a0 <abort+0x60>
  400398:	aa1503e0 	mov	x0, x21
  40039c:	94004ffd 	bl	414390 <__lll_lock_wait_private>
  4003a0:	91276260 	add	x0, x19, #0x9d8
  4003a4:	f9000414 	str	x20, [x0, #8]
  4003a8:	91276263 	add	x3, x19, #0x9d8
  4003ac:	b9400460 	ldr	w0, [x3, #4]
  4003b0:	b9401061 	ldr	w1, [x3, #16]
  4003b4:	11000400 	add	w0, w0, #0x1
  4003b8:	b9000460 	str	w0, [x3, #4]
  4003bc:	35000101 	cbnz	w1, 4003dc <abort+0x9c>
  4003c0:	d2800404 	mov	x4, #0x20                  	// #32
  4003c4:	52800020 	mov	w0, #0x1                   	// #1
  4003c8:	910003e1 	mov	x1, sp
  4003cc:	d2800002 	mov	x2, #0x0                   	// #0
  4003d0:	f90003e4 	str	x4, [sp]
  4003d4:	b9001060 	str	w0, [x3, #16]
  4003d8:	9400160e 	bl	405c10 <__sigprocmask>
  4003dc:	91276275 	add	x21, x19, #0x9d8
  4003e0:	b94012a0 	ldr	w0, [x21, #16]
  4003e4:	7100041f 	cmp	w0, #0x1
  4003e8:	54000421 	b.ne	40046c <abort+0x12c>  // b.any
  4003ec:	b94006a0 	ldr	w0, [x21, #4]
  4003f0:	b90012bf 	str	wzr, [x21, #16]
  4003f4:	51000400 	sub	w0, w0, #0x1
  4003f8:	b90006a0 	str	w0, [x21, #4]
  4003fc:	35000100 	cbnz	w0, 40041c <abort+0xdc>
  400400:	aa1503e1 	mov	x1, x21
  400404:	f90006bf 	str	xzr, [x21, #8]
  400408:	94014bca 	bl	453330 <__aarch64_swp4_rel>
  40040c:	7100041f 	cmp	w0, #0x1
  400410:	5400006d 	b.le	40041c <abort+0xdc>
  400414:	aa1503e0 	mov	x0, x21
  400418:	94005022 	bl	4144a0 <__lll_lock_wake_private>
  40041c:	91276275 	add	x21, x19, #0x9d8
  400420:	528000c0 	mov	w0, #0x6                   	// #6
  400424:	940015e7 	bl	405bc0 <raise>
  400428:	f94006a0 	ldr	x0, [x21, #8]
  40042c:	eb00029f 	cmp	x20, x0
  400430:	54000140 	b.eq	400458 <abort+0x118>  // b.none
  400434:	aa1503e2 	mov	x2, x21
  400438:	52800021 	mov	w1, #0x1                   	// #1
  40043c:	52800000 	mov	w0, #0x0                   	// #0
  400440:	94014b28 	bl	4530e0 <__aarch64_cas4_acq>
  400444:	34000060 	cbz	w0, 400450 <abort+0x110>
  400448:	aa1503e0 	mov	x0, x21
  40044c:	94004fd1 	bl	414390 <__lll_lock_wait_private>
  400450:	91276260 	add	x0, x19, #0x9d8
  400454:	f9000414 	str	x20, [x0, #8]
  400458:	91276261 	add	x1, x19, #0x9d8
  40045c:	b9400420 	ldr	w0, [x1, #4]
  400460:	11000400 	add	w0, w0, #0x1
  400464:	b9000420 	str	w0, [x1, #4]
  400468:	14000003 	b	400474 <abort+0x134>
  40046c:	7100081f 	cmp	w0, #0x2
  400470:	540001e1 	b.ne	4004ac <abort+0x16c>  // b.any
  400474:	910203e3 	add	x3, sp, #0x80
  400478:	91276264 	add	x4, x19, #0x9d8
  40047c:	52800065 	mov	w5, #0x3                   	// #3
  400480:	aa0303e0 	mov	x0, x3
  400484:	d2801302 	mov	x2, #0x98                  	// #152
  400488:	52800001 	mov	w1, #0x0                   	// #0
  40048c:	b9001085 	str	w5, [x4, #16]
  400490:	97ffff90 	bl	4002d0 <.plt+0x30>
  400494:	92800003 	mov	x3, #0xffffffffffffffff    	// #-1
  400498:	aa0003e1 	mov	x1, x0
  40049c:	d2800002 	mov	x2, #0x0                   	// #0
  4004a0:	528000c0 	mov	w0, #0x6                   	// #6
  4004a4:	f90047e3 	str	x3, [sp, #136]
  4004a8:	9400c292 	bl	430ef0 <__sigaction>
  4004ac:	91276261 	add	x1, x19, #0x9d8
  4004b0:	b9401020 	ldr	w0, [x1, #16]
  4004b4:	71000c1f 	cmp	w0, #0x3
  4004b8:	540000a1 	b.ne	4004cc <abort+0x18c>  // b.any
  4004bc:	52800082 	mov	w2, #0x4                   	// #4
  4004c0:	528000c0 	mov	w0, #0x6                   	// #6
  4004c4:	b9001022 	str	w2, [x1, #16]
  4004c8:	940015be 	bl	405bc0 <raise>
  4004cc:	91276260 	add	x0, x19, #0x9d8
  4004d0:	b9401001 	ldr	w1, [x0, #16]
  4004d4:	7100103f 	cmp	w1, #0x4
  4004d8:	54000081 	b.ne	4004e8 <abort+0x1a8>  // b.any
  4004dc:	528000a1 	mov	w1, #0x5                   	// #5
  4004e0:	b9001001 	str	w1, [x0, #16]
  4004e4:	d4207d00 	brk	#0x3e8
  4004e8:	91276273 	add	x19, x19, #0x9d8
  4004ec:	b9401260 	ldr	w0, [x19, #16]
  4004f0:	7100141f 	cmp	w0, #0x5
  4004f4:	540000a1 	b.ne	400508 <abort+0x1c8>  // b.any
  4004f8:	528000c1 	mov	w1, #0x6                   	// #6
  4004fc:	52800fe0 	mov	w0, #0x7f                  	// #127
  400500:	b9001261 	str	w1, [x19, #16]
  400504:	94007c8b 	bl	41f730 <_exit>
  400508:	d4207d00 	brk	#0x3e8
  40050c:	17ffffff 	b	400508 <abort+0x1c8>

0000000000400510 <_dl_start>:
  400510:	a9bf7bfd 	stp	x29, x30, [sp, #-16]!
  400514:	910003fd 	mov	x29, sp
  400518:	97ffff8a 	bl	400340 <abort>
  40051c:	d503201f 	nop

0000000000400520 <init_have_lse_atomics>:
  400520:	a9bf7bfd 	stp	x29, x30, [sp, #-16]!
  400524:	d2800200 	mov	x0, #0x10                  	// #16
  400528:	910003fd 	mov	x29, sp
  40052c:	94015fdd 	bl	4584a0 <__getauxval>
  400530:	53082000 	ubfx	w0, w0, #8, #1
  400534:	d0000ee1 	adrp	x1, 5de000 <_dl_stack_user>
  400538:	a8c17bfd 	ldp	x29, x30, [sp], #16
  40053c:	3910e020 	strb	w0, [x1, #1080]
  400540:	d65f03c0 	ret
  400544:	d503201f 	nop
  400548:	d503201f 	nop
  40054c:	d503201f 	nop
  400550:	d503201f 	nop
  400554:	d503201f 	nop
  400558:	d503201f 	nop
  40055c:	d503201f 	nop
  400560:	d503201f 	nop
  400564:	d503201f 	nop
  400568:	d503201f 	nop
  40056c:	d503201f 	nop
  400570:	d503201f 	nop
  400574:	d503201f 	nop
  400578:	d503201f 	nop
  40057c:	d503201f 	nop

0000000000400580 <_start>:
  400580:	d503201f 	nop
  400584:	d280001d 	mov	x29, #0x0                   	// #0
  400588:	d280001e 	mov	x30, #0x0                   	// #0
  40058c:	aa0003e5 	mov	x5, x0
  400590:	f94003e1 	ldr	x1, [sp]
  400594:	910023e2 	add	x2, sp, #0x8
  400598:	910003e6 	mov	x6, sp
  40059c:	90000000 	adrp	x0, 400000 <__ehdr_start>
  4005a0:	9116d000 	add	x0, x0, #0x5b4
  4005a4:	d2800003 	mov	x3, #0x0                   	// #0
  4005a8:	d2800004 	mov	x4, #0x0                   	// #0
  4005ac:	9400025d 	bl	400f20 <__libc_start_main>
  4005b0:	97ffff64 	bl	400340 <abort>

00000000004005b4 <__wrap_main>:
  4005b4:	d503201f 	nop
  4005b8:	1400009b 	b	400824 <main>
  4005bc:	d503201f 	nop

00000000004005c0 <_dl_relocate_static_pie>:
  4005c0:	d65f03c0 	ret

00000000004005c4 <call_weak_fn>:
  4005c4:	d0000480 	adrp	x0, 492000 <tunable_list+0x528>
  4005c8:	f947e800 	ldr	x0, [x0, #4048]
  4005cc:	b4000040 	cbz	x0, 4005d4 <call_weak_fn+0x10>
  4005d0:	d503201f 	nop
  4005d4:	d65f03c0 	ret
  4005d8:	d503201f 	nop
  4005dc:	d503201f 	nop

00000000004005e0 <deregister_tm_clones>:
  4005e0:	900004a0 	adrp	x0, 494000 <_dl_load_adds>
  4005e4:	91256000 	add	x0, x0, #0x958
  4005e8:	900004a1 	adrp	x1, 494000 <_dl_load_adds>
  4005ec:	91256021 	add	x1, x1, #0x958
  4005f0:	eb00003f 	cmp	x1, x0
  4005f4:	540000c0 	b.eq	40060c <deregister_tm_clones+0x2c>  // b.none
  4005f8:	b00002c1 	adrp	x1, 459000 <free_slotinfo+0x30>
  4005fc:	f940cc21 	ldr	x1, [x1, #408]
  400600:	b4000061 	cbz	x1, 40060c <deregister_tm_clones+0x2c>
  400604:	aa0103f0 	mov	x16, x1
  400608:	d61f0200 	br	x16
  40060c:	d65f03c0 	ret

0000000000400610 <register_tm_clones>:
  400610:	900004a0 	adrp	x0, 494000 <_dl_load_adds>
  400614:	91256000 	add	x0, x0, #0x958
  400618:	900004a1 	adrp	x1, 494000 <_dl_load_adds>
  40061c:	91256021 	add	x1, x1, #0x958
  400620:	cb000021 	sub	x1, x1, x0
  400624:	d37ffc22 	lsr	x2, x1, #63
  400628:	8b810c41 	add	x1, x2, x1, asr #3
  40062c:	9341fc21 	asr	x1, x1, #1
  400630:	b40000c1 	cbz	x1, 400648 <register_tm_clones+0x38>
  400634:	b00002c2 	adrp	x2, 459000 <free_slotinfo+0x30>
  400638:	f940d042 	ldr	x2, [x2, #416]
  40063c:	b4000062 	cbz	x2, 400648 <register_tm_clones+0x38>
  400640:	aa0203f0 	mov	x16, x2
  400644:	d61f0200 	br	x16
  400648:	d65f03c0 	ret
  40064c:	d503201f 	nop

0000000000400650 <__do_global_dtors_aux>:
  400650:	a9be7bfd 	stp	x29, x30, [sp, #-32]!
  400654:	910003fd 	mov	x29, sp
  400658:	f9000bf3 	str	x19, [sp, #16]
  40065c:	d00004b3 	adrp	x19, 496000 <completed.1>
  400660:	39400260 	ldrb	w0, [x19]
  400664:	35000140 	cbnz	w0, 40068c <__do_global_dtors_aux+0x3c>
  400668:	97ffffde 	bl	4005e0 <deregister_tm_clones>
  40066c:	b00002c0 	adrp	x0, 459000 <free_slotinfo+0x30>
  400670:	f940d400 	ldr	x0, [x0, #424]
  400674:	b4000080 	cbz	x0, 400684 <__do_global_dtors_aux+0x34>
  400678:	f0000380 	adrp	x0, 473000 <__PRETTY_FUNCTION__.0+0x28>
  40067c:	91118000 	add	x0, x0, #0x460
  400680:	94015da1 	bl	457d04 <__deregister_frame_info>
  400684:	52800020 	mov	w0, #0x1                   	// #1
  400688:	39000260 	strb	w0, [x19]
  40068c:	f9400bf3 	ldr	x19, [sp, #16]
  400690:	a8c27bfd 	ldp	x29, x30, [sp], #32
  400694:	d65f03c0 	ret
  400698:	d503201f 	nop
  40069c:	d503201f 	nop

00000000004006a0 <frame_dummy>:
  4006a0:	b00002c0 	adrp	x0, 459000 <free_slotinfo+0x30>
  4006a4:	f940d800 	ldr	x0, [x0, #432]
  4006a8:	b4000140 	cbz	x0, 4006d0 <frame_dummy+0x30>
  4006ac:	a9bf7bfd 	stp	x29, x30, [sp, #-16]!
  4006b0:	d00004a1 	adrp	x1, 496000 <completed.1>
  4006b4:	f0000380 	adrp	x0, 473000 <__PRETTY_FUNCTION__.0+0x28>
  4006b8:	910003fd 	mov	x29, sp
  4006bc:	91002021 	add	x1, x1, #0x8
  4006c0:	91118000 	add	x0, x0, #0x460
  4006c4:	94015c87 	bl	4578e0 <__register_frame_info>
  4006c8:	a8c17bfd 	ldp	x29, x30, [sp], #16
  4006cc:	17ffffd1 	b	400610 <register_tm_clones>
  4006d0:	17ffffd0 	b	400610 <register_tm_clones>

00000000004006d4 <dummyAccesses>:
  4006d4:	d10043ff 	sub	sp, sp, #0x10
  4006d8:	b9000fff 	str	wzr, [sp, #12]
  4006dc:	1400000a 	b	400704 <dummyAccesses+0x30>
  4006e0:	b0000ec0 	adrp	x0, 5d9000 <user_memory_pressure_sink>
  4006e4:	9100e000 	add	x0, x0, #0x38
  4006e8:	f9400001 	ldr	x1, [x0]
  4006ec:	b9400fe0 	ldr	w0, [sp, #12]
  4006f0:	8b000020 	add	x0, x1, x0
  4006f4:	f9800000 	prfm	pldl1keep, [x0]
  4006f8:	b9400fe0 	ldr	w0, [sp, #12]
  4006fc:	11010000 	add	w0, w0, #0x40
  400700:	b9000fe0 	str	w0, [sp, #12]
  400704:	b9400fe1 	ldr	w1, [sp, #12]
  400708:	5293ffe0 	mov	w0, #0x9fff                	// #40959
  40070c:	6b00003f 	cmp	w1, w0
  400710:	54fffe89 	b.ls	4006e0 <dummyAccesses+0xc>  // b.plast
  400714:	d503201f 	nop
  400718:	d503201f 	nop
  40071c:	910043ff 	add	sp, sp, #0x10
  400720:	d65f03c0 	ret

0000000000400724 <context_switch_before_trigger>:
  400724:	a9be7bfd 	stp	x29, x30, [sp, #-32]!
  400728:	910003fd 	mov	x29, sp
  40072c:	b9001fff 	str	wzr, [sp, #28]
  400730:	14000005 	b	400744 <context_switch_before_trigger+0x20>
  400734:	94007df3 	bl	41ff00 <__sched_yield>
  400738:	b9401fe0 	ldr	w0, [sp, #28]
  40073c:	11000400 	add	w0, w0, #0x1
  400740:	b9001fe0 	str	w0, [sp, #28]
  400744:	b9401fe0 	ldr	w0, [sp, #28]
  400748:	7100001f 	cmp	w0, #0x0
  40074c:	54ffff4d 	b.le	400734 <context_switch_before_trigger+0x10>
  400750:	d503201f 	nop
  400754:	d503201f 	nop
  400758:	a8c27bfd 	ldp	x29, x30, [sp], #32
  40075c:	d65f03c0 	ret

0000000000400760 <user_memory_pressure_before_trigger>:
  400760:	d503201f 	nop
  400764:	d65f03c0 	ret

0000000000400768 <busy_wait_before_trigger>:
  400768:	d503201f 	nop
  40076c:	d65f03c0 	ret

0000000000400770 <print_busy_wait_time_stats>:
  400770:	d503201f 	nop
  400774:	d65f03c0 	ret

0000000000400778 <print_user_memory_pressure_time_stats>:
  400778:	d503201f 	nop
  40077c:	d65f03c0 	ret

0000000000400780 <print_test_header>:
  400780:	a9be7bfd 	stp	x29, x30, [sp, #-32]!
  400784:	910003fd 	mov	x29, sp
  400788:	b9001fe0 	str	w0, [sp, #28]
  40078c:	b9001be1 	str	w1, [sp, #24]
  400790:	f9000be2 	str	x2, [sp, #16]
  400794:	b00002c0 	adrp	x0, 459000 <free_slotinfo+0x30>
  400798:	9106e002 	add	x2, x0, #0x1b8
  40079c:	b00002c0 	adrp	x0, 459000 <free_slotinfo+0x30>
  4007a0:	91070001 	add	x1, x0, #0x1c0
  4007a4:	b00002c0 	adrp	x0, 459000 <free_slotinfo+0x30>
  4007a8:	91072000 	add	x0, x0, #0x1c8
  4007ac:	940019c5 	bl	406ec0 <_IO_printf>
  4007b0:	b00002c0 	adrp	x0, 459000 <free_slotinfo+0x30>
  4007b4:	9107c002 	add	x2, x0, #0x1f0
  4007b8:	b00002c0 	adrp	x0, 459000 <free_slotinfo+0x30>
  4007bc:	9106e001 	add	x1, x0, #0x1b8
  4007c0:	b00002c0 	adrp	x0, 459000 <free_slotinfo+0x30>
  4007c4:	9107e000 	add	x0, x0, #0x1f8
  4007c8:	940019be 	bl	406ec0 <_IO_printf>
  4007cc:	52800c84 	mov	w4, #0x64                  	// #100
  4007d0:	f9400be3 	ldr	x3, [sp, #16]
  4007d4:	b9401be2 	ldr	w2, [sp, #24]
  4007d8:	b9401fe1 	ldr	w1, [sp, #28]
  4007dc:	b00002c0 	adrp	x0, 459000 <free_slotinfo+0x30>
  4007e0:	9108e000 	add	x0, x0, #0x238
  4007e4:	940019b7 	bl	406ec0 <_IO_printf>
  4007e8:	b00002c0 	adrp	x0, 459000 <free_slotinfo+0x30>
  4007ec:	9109e002 	add	x2, x0, #0x278
  4007f0:	b00002c0 	adrp	x0, 459000 <free_slotinfo+0x30>
  4007f4:	910a0001 	add	x1, x0, #0x280
  4007f8:	b00002c0 	adrp	x0, 459000 <free_slotinfo+0x30>
  4007fc:	910a8000 	add	x0, x0, #0x2a0
  400800:	940019b0 	bl	406ec0 <_IO_printf>
  400804:	b00002c0 	adrp	x0, 459000 <free_slotinfo+0x30>
  400808:	9109e001 	add	x1, x0, #0x278
  40080c:	b00002c0 	adrp	x0, 459000 <free_slotinfo+0x30>
  400810:	910ac000 	add	x0, x0, #0x2b0
  400814:	940019ab 	bl	406ec0 <_IO_printf>
  400818:	d503201f 	nop
  40081c:	a8c27bfd 	ldp	x29, x30, [sp], #32
  400820:	d65f03c0 	ret

0000000000400824 <main>:
  400824:	d10343ff 	sub	sp, sp, #0xd0
  400828:	a90b7bfd 	stp	x29, x30, [sp, #176]
  40082c:	9102c3fd 	add	x29, sp, #0xb0
  400830:	f90063f3 	str	x19, [sp, #192]
  400834:	d0000480 	adrp	x0, 492000 <tunable_list+0x528>
  400838:	f945f800 	ldr	x0, [x0, #3056]
  40083c:	f9400001 	ldr	x1, [x0]
  400840:	f90057e1 	str	x1, [sp, #168]
  400844:	d2800001 	mov	x1, #0x0                   	// #0
  400848:	b90023ff 	str	wzr, [sp, #32]
  40084c:	d2a00142 	mov	x2, #0xa0000               	// #655360
  400850:	12800001 	mov	w1, #0xffffffff            	// #-1
  400854:	f00004a0 	adrp	x0, 497000 <array2>
  400858:	91000000 	add	x0, x0, #0x0
  40085c:	97fffe9d 	bl	4002d0 <.plt+0x30>
  400860:	d2800005 	mov	x5, #0x0                   	// #0
  400864:	52800004 	mov	w4, #0x0                   	// #0
  400868:	52900443 	mov	w3, #0x8022                	// #32802
  40086c:	52800062 	mov	w2, #0x3                   	// #3
  400870:	d2940001 	mov	x1, #0xa000                	// #40960
  400874:	d2800000 	mov	x0, #0x0                   	// #0
  400878:	940081b2 	bl	420f40 <__mmap64>
  40087c:	aa0003e1 	mov	x1, x0
  400880:	b0000ec0 	adrp	x0, 5d9000 <user_memory_pressure_sink>
  400884:	9100e000 	add	x0, x0, #0x38
  400888:	f9000001 	str	x1, [x0]
  40088c:	b0000ec0 	adrp	x0, 5d9000 <user_memory_pressure_sink>
  400890:	9100e000 	add	x0, x0, #0x38
  400894:	f9400000 	ldr	x0, [x0]
  400898:	b100041f 	cmn	x0, #0x1
  40089c:	540000c1 	b.ne	4008b4 <main+0x90>  // b.any
  4008a0:	b00002c0 	adrp	x0, 459000 <free_slotinfo+0x30>
  4008a4:	910b6000 	add	x0, x0, #0x2d8
  4008a8:	94003172 	bl	40ce70 <_IO_puts>
  4008ac:	52800020 	mov	w0, #0x1                   	// #1
  4008b0:	94001740 	bl	4065b0 <exit>
  4008b4:	b9000bff 	str	wzr, [sp, #8]
  4008b8:	14000011 	b	4008fc <main+0xd8>
  4008bc:	b9400be0 	ldr	w0, [sp, #8]
  4008c0:	531a6400 	lsl	w0, w0, #6
  4008c4:	93407c01 	sxtw	x1, w0
  4008c8:	f00004a0 	adrp	x0, 497000 <array2>
  4008cc:	91000000 	add	x0, x0, #0x0
  4008d0:	8b000020 	add	x0, x1, x0
  4008d4:	f90037e0 	str	x0, [sp, #104]
  4008d8:	f94037e0 	ldr	x0, [sp, #104]
  4008dc:	f9003be0 	str	x0, [sp, #112]
  4008e0:	f9403be1 	ldr	x1, [sp, #112]
  4008e4:	39400020 	ldrb	w0, [x1]
  4008e8:	d503201f 	nop
  4008ec:	d503201f 	nop
  4008f0:	b9400be0 	ldr	w0, [sp, #8]
  4008f4:	11000400 	add	w0, w0, #0x1
  4008f8:	b9000be0 	str	w0, [sp, #8]
  4008fc:	b9400be1 	ldr	w1, [sp, #8]
  400900:	5284ffe0 	mov	w0, #0x27ff                	// #10239
  400904:	6b00003f 	cmp	w1, w0
  400908:	54fffdad 	b.le	4008bc <main+0x98>
  40090c:	f9001bff 	str	xzr, [sp, #48]
  400910:	1400000c 	b	400940 <main+0x11c>
  400914:	f9401be1 	ldr	x1, [sp, #48]
  400918:	f00004a0 	adrp	x0, 497000 <array2>
  40091c:	91000000 	add	x0, x0, #0x0
  400920:	8b000020 	add	x0, x1, x0
  400924:	f9003fe0 	str	x0, [sp, #120]
  400928:	f9403fe0 	ldr	x0, [sp, #120]
  40092c:	d50b7e20 	dc	civac, x0
  400930:	d503201f 	nop
  400934:	f9401be0 	ldr	x0, [sp, #48]
  400938:	91010000 	add	x0, x0, #0x40
  40093c:	f9001be0 	str	x0, [sp, #48]
  400940:	f9401be1 	ldr	x1, [sp, #48]
  400944:	12bffec0 	mov	w0, #0x9ffff               	// #655359
  400948:	eb00003f 	cmp	x1, x0
  40094c:	54fffe49 	b.ls	400914 <main+0xf0>  // b.plast
  400950:	d5033f9f 	dsb	sy
  400954:	d5033fdf 	isb
  400958:	d503201f 	nop
  40095c:	d2938800 	mov	x0, #0x9c40                	// #40000
  400960:	f9002fe0 	str	x0, [sp, #88]
  400964:	52802800 	mov	w0, #0x140                 	// #320
  400968:	b90027e0 	str	w0, [sp, #36]
  40096c:	52800060 	mov	w0, #0x3                   	// #3
  400970:	b9002be0 	str	w0, [sp, #40]
  400974:	b9402be0 	ldr	w0, [sp, #40]
  400978:	7100001f 	cmp	w0, #0x0
  40097c:	5400018c 	b.gt	4009ac <main+0x188>
  400980:	d0000480 	adrp	x0, 492000 <tunable_list+0x528>
  400984:	f9476400 	ldr	x0, [x0, #3784]
  400988:	f9400000 	ldr	x0, [x0]
  40098c:	aa0003e3 	mov	x3, x0
  400990:	d2800382 	mov	x2, #0x1c                  	// #28
  400994:	d2800021 	mov	x1, #0x1                   	// #1
  400998:	b00002c0 	adrp	x0, 459000 <free_slotinfo+0x30>
  40099c:	910be000 	add	x0, x0, #0x2f8
  4009a0:	94003054 	bl	40caf0 <_IO_fwrite>
  4009a4:	52800020 	mov	w0, #0x1                   	// #1
  4009a8:	14000101 	b	400dac <main+0x588>
  4009ac:	b94027e0 	ldr	w0, [sp, #36]
  4009b0:	7100001f 	cmp	w0, #0x0
  4009b4:	5400018c 	b.gt	4009e4 <main+0x1c0>
  4009b8:	d0000480 	adrp	x0, 492000 <tunable_list+0x528>
  4009bc:	f9476400 	ldr	x0, [x0, #3784]
  4009c0:	f9400000 	ldr	x0, [x0]
  4009c4:	aa0003e3 	mov	x3, x0
  4009c8:	d28003c2 	mov	x2, #0x1e                  	// #30
  4009cc:	d2800021 	mov	x1, #0x1                   	// #1
  4009d0:	b00002c0 	adrp	x0, 459000 <free_slotinfo+0x30>
  4009d4:	910c6000 	add	x0, x0, #0x318
  4009d8:	94003046 	bl	40caf0 <_IO_fwrite>
  4009dc:	52800020 	mov	w0, #0x1                   	// #1
  4009e0:	140000f3 	b	400dac <main+0x588>
  4009e4:	b9402be0 	ldr	w0, [sp, #40]
  4009e8:	51000400 	sub	w0, w0, #0x1
  4009ec:	93407c01 	sxtw	x1, w0
  4009f0:	b98027e0 	ldrsw	x0, [sp, #36]
  4009f4:	9b007c21 	mul	x1, x1, x0
  4009f8:	12bffec0 	mov	w0, #0x9ffff               	// #655359
  4009fc:	eb00003f 	cmp	x1, x0
  400a00:	54000189 	b.ls	400a30 <main+0x20c>  // b.plast
  400a04:	d0000480 	adrp	x0, 492000 <tunable_list+0x528>
  400a08:	f9476400 	ldr	x0, [x0, #3784]
  400a0c:	f9400000 	ldr	x0, [x0]
  400a10:	aa0003e3 	mov	x3, x0
  400a14:	d2800462 	mov	x2, #0x23                  	// #35
  400a18:	d2800021 	mov	x1, #0x1                   	// #1
  400a1c:	b00002c0 	adrp	x0, 459000 <free_slotinfo+0x30>
  400a20:	910ce000 	add	x0, x0, #0x338
  400a24:	94003033 	bl	40caf0 <_IO_fwrite>
  400a28:	52800020 	mov	w0, #0x1                   	// #1
  400a2c:	140000e0 	b	400dac <main+0x588>
  400a30:	f9001fff 	str	xzr, [sp, #56]
  400a34:	140000af 	b	400cf0 <main+0x4cc>
  400a38:	97ffff27 	bl	4006d4 <dummyAccesses>
  400a3c:	f90023ff 	str	xzr, [sp, #64]
  400a40:	1400000c 	b	400a70 <main+0x24c>
  400a44:	f94023e1 	ldr	x1, [sp, #64]
  400a48:	f00004a0 	adrp	x0, 497000 <array2>
  400a4c:	91000000 	add	x0, x0, #0x0
  400a50:	8b000020 	add	x0, x1, x0
  400a54:	f90043e0 	str	x0, [sp, #128]
  400a58:	f94043e0 	ldr	x0, [sp, #128]
  400a5c:	d50b7e20 	dc	civac, x0
  400a60:	d503201f 	nop
  400a64:	f94023e0 	ldr	x0, [sp, #64]
  400a68:	91010000 	add	x0, x0, #0x40
  400a6c:	f90023e0 	str	x0, [sp, #64]
  400a70:	f94023e1 	ldr	x1, [sp, #64]
  400a74:	12bffec0 	mov	w0, #0x9ffff               	// #655359
  400a78:	eb00003f 	cmp	x1, x0
  400a7c:	54fffe49 	b.ls	400a44 <main+0x220>  // b.plast
  400a80:	b9000fff 	str	wzr, [sp, #12]
  400a84:	14000019 	b	400ae8 <main+0x2c4>
  400a88:	b90013ff 	str	wzr, [sp, #16]
  400a8c:	1400000f 	b	400ac8 <main+0x2a4>
  400a90:	b94013e1 	ldr	w1, [sp, #16]
  400a94:	b94027e0 	ldr	w0, [sp, #36]
  400a98:	1b007c20 	mul	w0, w1, w0
  400a9c:	93407c01 	sxtw	x1, w0
  400aa0:	f00004a0 	adrp	x0, 497000 <array2>
  400aa4:	91000000 	add	x0, x0, #0x0
  400aa8:	8b000020 	add	x0, x1, x0
  400aac:	f90047e0 	str	x0, [sp, #136]
  400ab0:	f94047e0 	ldr	x0, [sp, #136]
  400ab4:	940000cc 	bl	400de4 <mStore_noinline>
  400ab8:	d503201f 	nop
  400abc:	b94013e0 	ldr	w0, [sp, #16]
  400ac0:	11000400 	add	w0, w0, #0x1
  400ac4:	b90013e0 	str	w0, [sp, #16]
  400ac8:	b9402be0 	ldr	w0, [sp, #40]
  400acc:	51000400 	sub	w0, w0, #0x1
  400ad0:	b94013e1 	ldr	w1, [sp, #16]
  400ad4:	6b00003f 	cmp	w1, w0
  400ad8:	54fffdcb 	b.lt	400a90 <main+0x26c>  // b.tstop
  400adc:	b9400fe0 	ldr	w0, [sp, #12]
  400ae0:	11000400 	add	w0, w0, #0x1
  400ae4:	b9000fe0 	str	w0, [sp, #12]
  400ae8:	b9400fe0 	ldr	w0, [sp, #12]
  400aec:	7100101f 	cmp	w0, #0x4
  400af0:	54fffccd 	b.le	400a88 <main+0x264>
  400af4:	97ffff0c 	bl	400724 <context_switch_before_trigger>
  400af8:	b9402be0 	ldr	w0, [sp, #40]
  400afc:	51000401 	sub	w1, w0, #0x1
  400b00:	b94027e0 	ldr	w0, [sp, #36]
  400b04:	1b007c20 	mul	w0, w1, w0
  400b08:	93407c01 	sxtw	x1, w0
  400b0c:	f00004a0 	adrp	x0, 497000 <array2>
  400b10:	91000000 	add	x0, x0, #0x0
  400b14:	8b000020 	add	x0, x1, x0
  400b18:	f9004be0 	str	x0, [sp, #144]
  400b1c:	f9404be0 	ldr	x0, [sp, #144]
  400b20:	940000b1 	bl	400de4 <mStore_noinline>
  400b24:	d503201f 	nop
  400b28:	f90027ff 	str	xzr, [sp, #72]
  400b2c:	b90017ff 	str	wzr, [sp, #20]
  400b30:	14000011 	b	400b74 <main+0x350>
  400b34:	b94017e0 	ldr	w0, [sp, #20]
  400b38:	531a6402 	lsl	w2, w0, #6
  400b3c:	f00009a0 	adrp	x0, 537000 <latency_sum>
  400b40:	9112c001 	add	x1, x0, #0x4b0
  400b44:	93407c40 	sxtw	x0, w2
  400b48:	38606820 	ldrb	w0, [x1, x0]
  400b4c:	92401c00 	and	x0, x0, #0xff
  400b50:	f94027e1 	ldr	x1, [sp, #72]
  400b54:	8b000020 	add	x0, x1, x0
  400b58:	f90027e0 	str	x0, [sp, #72]
  400b5c:	d5033f9f 	dsb	sy
  400b60:	d5033fdf 	isb
  400b64:	d503201f 	nop
  400b68:	b94017e0 	ldr	w0, [sp, #20]
  400b6c:	11000400 	add	w0, w0, #0x1
  400b70:	b90017e0 	str	w0, [sp, #20]
  400b74:	b94017e0 	ldr	w0, [sp, #20]
  400b78:	71018c1f 	cmp	w0, #0x63
  400b7c:	54fffdcd 	b.le	400b34 <main+0x310>
  400b80:	b9001bff 	str	wzr, [sp, #24]
  400b84:	14000006 	b	400b9c <main+0x378>
  400b88:	d503201f 	nop
  400b8c:	d503201f 	nop
  400b90:	b9401be0 	ldr	w0, [sp, #24]
  400b94:	11000400 	add	w0, w0, #0x1
  400b98:	b9001be0 	str	w0, [sp, #24]
  400b9c:	b9401be0 	ldr	w0, [sp, #24]
  400ba0:	71018c1f 	cmp	w0, #0x63
  400ba4:	54ffff2d 	b.le	400b88 <main+0x364>
  400ba8:	f9401fe2 	ldr	x2, [sp, #56]
  400bac:	d342fc41 	lsr	x1, x2, #2
  400bb0:	d29eb860 	mov	x0, #0xf5c3                	// #62915
  400bb4:	f2ab8500 	movk	x0, #0x5c28, lsl #16
  400bb8:	f2d851e0 	movk	x0, #0xc28f, lsl #32
  400bbc:	f2e51ea0 	movk	x0, #0x28f5, lsl #48
  400bc0:	9bc07c20 	umulh	x0, x1, x0
  400bc4:	d342fc01 	lsr	x1, x0, #2
  400bc8:	aa0103e0 	mov	x0, x1
  400bcc:	d37ff800 	lsl	x0, x0, #1
  400bd0:	8b010000 	add	x0, x0, x1
  400bd4:	d37df000 	lsl	x0, x0, #3
  400bd8:	8b010000 	add	x0, x0, x1
  400bdc:	d37ef400 	lsl	x0, x0, #2
  400be0:	cb000041 	sub	x1, x2, x0
  400be4:	2a0103e0 	mov	w0, w1
  400be8:	b9002fe0 	str	w0, [sp, #44]
  400bec:	b9402fe0 	ldr	w0, [sp, #44]
  400bf0:	531a6400 	lsl	w0, w0, #6
  400bf4:	93407c01 	sxtw	x1, w0
  400bf8:	f00004a0 	adrp	x0, 497000 <array2>
  400bfc:	91000000 	add	x0, x0, #0x0
  400c00:	8b000020 	add	x0, x1, x0
  400c04:	f90033e0 	str	x0, [sp, #96]
  400c08:	d5033f9f 	dsb	sy
  400c0c:	d5033fdf 	isb
  400c10:	910263e0 	add	x0, sp, #0x98
  400c14:	aa0003e1 	mov	x1, x0
  400c18:	52800020 	mov	w0, #0x1                   	// #1
  400c1c:	94007a9d 	bl	41f690 <__clock_gettime>
  400c20:	d5033fdf 	isb
  400c24:	d5033f9f 	dsb	sy
  400c28:	f9404fe0 	ldr	x0, [sp, #152]
  400c2c:	aa0003e1 	mov	x1, x0
  400c30:	d2994000 	mov	x0, #0xca00                	// #51712
  400c34:	f2a77340 	movk	x0, #0x3b9a, lsl #16
  400c38:	9b007c20 	mul	x0, x1, x0
  400c3c:	f94053e1 	ldr	x1, [sp, #160]
  400c40:	8b010000 	add	x0, x0, x1
  400c44:	aa0003f3 	mov	x19, x0
  400c48:	f94033e0 	ldr	x0, [sp, #96]
  400c4c:	39400000 	ldrb	w0, [x0]
  400c50:	12001c00 	and	w0, w0, #0xff
  400c54:	b90023e0 	str	w0, [sp, #32]
  400c58:	d5033f9f 	dsb	sy
  400c5c:	d5033fdf 	isb
  400c60:	910263e0 	add	x0, sp, #0x98
  400c64:	aa0003e1 	mov	x1, x0
  400c68:	52800020 	mov	w0, #0x1                   	// #1
  400c6c:	94007a89 	bl	41f690 <__clock_gettime>
  400c70:	d5033fdf 	isb
  400c74:	d5033f9f 	dsb	sy
  400c78:	f9404fe0 	ldr	x0, [sp, #152]
  400c7c:	aa0003e1 	mov	x1, x0
  400c80:	d2994000 	mov	x0, #0xca00                	// #51712
  400c84:	f2a77340 	movk	x0, #0x3b9a, lsl #16
  400c88:	9b007c20 	mul	x0, x1, x0
  400c8c:	f94053e1 	ldr	x1, [sp, #160]
  400c90:	8b010000 	add	x0, x0, x1
  400c94:	cb130013 	sub	x19, x0, x19
  400c98:	f00009a0 	adrp	x0, 537000 <latency_sum>
  400c9c:	91000000 	add	x0, x0, #0x0
  400ca0:	b9802fe1 	ldrsw	x1, [sp, #44]
  400ca4:	f8617800 	ldr	x0, [x0, x1, lsl #3]
  400ca8:	8b000260 	add	x0, x19, x0
  400cac:	aa0003e2 	mov	x2, x0
  400cb0:	f00009a0 	adrp	x0, 537000 <latency_sum>
  400cb4:	91000000 	add	x0, x0, #0x0
  400cb8:	b9802fe1 	ldrsw	x1, [sp, #44]
  400cbc:	f8217802 	str	x2, [x0, x1, lsl #3]
  400cc0:	f00009a0 	adrp	x0, 537000 <latency_sum>
  400cc4:	910c8000 	add	x0, x0, #0x320
  400cc8:	b9802fe1 	ldrsw	x1, [sp, #44]
  400ccc:	b8617800 	ldr	w0, [x0, x1, lsl #2]
  400cd0:	11000402 	add	w2, w0, #0x1
  400cd4:	f00009a0 	adrp	x0, 537000 <latency_sum>
  400cd8:	910c8000 	add	x0, x0, #0x320
  400cdc:	b9802fe1 	ldrsw	x1, [sp, #44]
  400ce0:	b8217802 	str	w2, [x0, x1, lsl #2]
  400ce4:	f9401fe0 	ldr	x0, [sp, #56]
  400ce8:	91000400 	add	x0, x0, #0x1
  400cec:	f9001fe0 	str	x0, [sp, #56]
  400cf0:	f9401fe1 	ldr	x1, [sp, #56]
  400cf4:	f9402fe0 	ldr	x0, [sp, #88]
  400cf8:	eb00003f 	cmp	x1, x0
  400cfc:	54ffe9e3 	b.cc	400a38 <main+0x214>  // b.lo, b.ul, b.last
  400d00:	b9001fff 	str	wzr, [sp, #28]
  400d04:	14000022 	b	400d8c <main+0x568>
  400d08:	f9002bff 	str	xzr, [sp, #80]
  400d0c:	f00009a0 	adrp	x0, 537000 <latency_sum>
  400d10:	910c8000 	add	x0, x0, #0x320
  400d14:	b9801fe1 	ldrsw	x1, [sp, #28]
  400d18:	b8617800 	ldr	w0, [x0, x1, lsl #2]
  400d1c:	7100001f 	cmp	w0, #0x0
  400d20:	5400018d 	b.le	400d50 <main+0x52c>
  400d24:	f00009a0 	adrp	x0, 537000 <latency_sum>
  400d28:	91000000 	add	x0, x0, #0x0
  400d2c:	b9801fe1 	ldrsw	x1, [sp, #28]
  400d30:	f8617801 	ldr	x1, [x0, x1, lsl #3]
  400d34:	f00009a0 	adrp	x0, 537000 <latency_sum>
  400d38:	910c8000 	add	x0, x0, #0x320
  400d3c:	b9801fe2 	ldrsw	x2, [sp, #28]
  400d40:	b8627800 	ldr	w0, [x0, x2, lsl #2]
  400d44:	93407c00 	sxtw	x0, w0
  400d48:	9ac00c20 	sdiv	x0, x1, x0
  400d4c:	f9002be0 	str	x0, [sp, #80]
  400d50:	b9401fe0 	ldr	w0, [sp, #28]
  400d54:	531a6402 	lsl	w2, w0, #6
  400d58:	f00009a0 	adrp	x0, 537000 <latency_sum>
  400d5c:	910c8000 	add	x0, x0, #0x320
  400d60:	b9801fe1 	ldrsw	x1, [sp, #28]
  400d64:	b8617800 	ldr	w0, [x0, x1, lsl #2]
  400d68:	2a0003e4 	mov	w4, w0
  400d6c:	f9402be3 	ldr	x3, [sp, #80]
  400d70:	b9401fe1 	ldr	w1, [sp, #28]
  400d74:	b00002c0 	adrp	x0, 459000 <free_slotinfo+0x30>
  400d78:	910d8000 	add	x0, x0, #0x360
  400d7c:	94001851 	bl	406ec0 <_IO_printf>
  400d80:	b9401fe0 	ldr	w0, [sp, #28]
  400d84:	11000400 	add	w0, w0, #0x1
  400d88:	b9001fe0 	str	w0, [sp, #28]
  400d8c:	b9401fe0 	ldr	w0, [sp, #28]
  400d90:	71018c1f 	cmp	w0, #0x63
  400d94:	54fffbad 	b.le	400d08 <main+0x4e4>
  400d98:	97fffe78 	bl	400778 <print_user_memory_pressure_time_stats>
  400d9c:	97fffe75 	bl	400770 <print_busy_wait_time_stats>
  400da0:	52800140 	mov	w0, #0xa                   	// #10
  400da4:	940030af 	bl	40d060 <putchar>
  400da8:	52800000 	mov	w0, #0x0                   	// #0
  400dac:	2a0003e1 	mov	w1, w0
  400db0:	d0000480 	adrp	x0, 492000 <tunable_list+0x528>
  400db4:	f945f800 	ldr	x0, [x0, #3056]
  400db8:	f94057e3 	ldr	x3, [sp, #168]
  400dbc:	f9400002 	ldr	x2, [x0]
  400dc0:	eb020063 	subs	x3, x3, x2
  400dc4:	d2800002 	mov	x2, #0x0                   	// #0
  400dc8:	54000040 	b.eq	400dd0 <main+0x5ac>  // b.none
  400dcc:	940087dd 	bl	422d40 <__stack_chk_fail>
  400dd0:	2a0103e0 	mov	w0, w1
  400dd4:	f94063f3 	ldr	x19, [sp, #192]
  400dd8:	a94b7bfd 	ldp	x29, x30, [sp, #176]
  400ddc:	910343ff 	add	sp, sp, #0xd0
  400de0:	d65f03c0 	ret

0000000000400de4 <mStore_noinline>:
  400de4:	d10043ff 	sub	sp, sp, #0x10
  400de8:	f90007e0 	str	x0, [sp, #8]
  400dec:	f94007e1 	ldr	x1, [sp, #8]
  400df0:	39000020 	strb	w0, [x1]
  400df4:	d503201f 	nop
  400df8:	910043ff 	add	sp, sp, #0x10
  400dfc:	d65f03c0 	ret

0000000000400e00 <mLoad_noinline>:
  400e00:	d10043ff 	sub	sp, sp, #0x10
  400e04:	f90007e0 	str	x0, [sp, #8]
  400e08:	f94007e1 	ldr	x1, [sp, #8]
  400e0c:	39400020 	ldrb	w0, [x1]
  400e10:	d503201f 	nop
  400e14:	910043ff 	add	sp, sp, #0x10
  400e18:	d65f03c0 	ret

0000000000400e1c <mPrefetch_noinline>:
  400e1c:	d10043ff 	sub	sp, sp, #0x10
  400e20:	f90007e0 	str	x0, [sp, #8]
  400e24:	f94007e0 	ldr	x0, [sp, #8]
  400e28:	f9800000 	prfm	pldl1keep, [x0]
  400e2c:	d503201f 	nop
  400e30:	910043ff 	add	sp, sp, #0x10
  400e34:	d65f03c0 	ret
  400e38:	d503201f 	nop
  400e3c:	d503201f 	nop

0000000000400e40 <call_fini>:
  400e40:	a9be7bfd 	stp	x29, x30, [sp, #-32]!
  400e44:	f0000460 	adrp	x0, 48f000 <__FRAME_END__+0x10130>
  400e48:	91218000 	add	x0, x0, #0x860
  400e4c:	910003fd 	mov	x29, sp
  400e50:	a90153f3 	stp	x19, x20, [sp, #16]
  400e54:	f0000473 	adrp	x19, 48f000 <__FRAME_END__+0x10130>
  400e58:	9121a273 	add	x19, x19, #0x868
  400e5c:	cb000273 	sub	x19, x19, x0
  400e60:	9343fe73 	asr	x19, x19, #3
  400e64:	b40000f3 	cbz	x19, 400e80 <call_fini+0x40>
  400e68:	f0000474 	adrp	x20, 48f000 <__FRAME_END__+0x10130>
  400e6c:	91216294 	add	x20, x20, #0x858
  400e70:	f8737a80 	ldr	x0, [x20, x19, lsl #3]
  400e74:	d63f0000 	blr	x0
  400e78:	f1000673 	subs	x19, x19, #0x1
  400e7c:	54ffffa1 	b.ne	400e70 <call_fini+0x30>  // b.any
  400e80:	a94153f3 	ldp	x19, x20, [sp, #16]
  400e84:	a8c27bfd 	ldp	x29, x30, [sp], #32
  400e88:	140160bb 	b	459174 <_fini>
  400e8c:	d503201f 	nop

0000000000400e90 <__libc_start_call_main>:
  400e90:	a9af7bfd 	stp	x29, x30, [sp, #-272]!
  400e94:	910003fd 	mov	x29, sp
  400e98:	f9000fe0 	str	x0, [sp, #24]
  400e9c:	9100e3e0 	add	x0, sp, #0x38
  400ea0:	b90027e1 	str	w1, [sp, #36]
  400ea4:	f90017e2 	str	x2, [sp, #40]
  400ea8:	94001306 	bl	405ac0 <_setjmp>
  400eac:	350001e0 	cbnz	w0, 400ee8 <__libc_start_call_main+0x58>
  400eb0:	d53bd040 	mrs	x0, tpidr_el0
  400eb4:	b0000ee1 	adrp	x1, 5dd000 <__pthread_keys+0x3170>
  400eb8:	d11f0000 	sub	x0, x0, #0x7c0
  400ebc:	9100e3e3 	add	x3, sp, #0x38
  400ec0:	f9477c22 	ldr	x2, [x1, #3832]
  400ec4:	f9408004 	ldr	x4, [x0, #256]
  400ec8:	f9008003 	str	x3, [x0, #256]
  400ecc:	f9407c03 	ldr	x3, [x0, #248]
  400ed0:	a90f0fe4 	stp	x4, x3, [sp, #240]
  400ed4:	b94027e0 	ldr	w0, [sp, #36]
  400ed8:	f9400fe3 	ldr	x3, [sp, #24]
  400edc:	f94017e1 	ldr	x1, [sp, #40]
  400ee0:	d63f0060 	blr	x3
  400ee4:	940015b3 	bl	4065b0 <exit>
  400ee8:	94004d7e 	bl	4144e0 <__nptl_deallocate_tsd>
  400eec:	f0000481 	adrp	x1, 493000 <.got.plt+0x18>
  400ef0:	12800000 	mov	w0, #0xffffffff            	// #-1
  400ef4:	9117a021 	add	x1, x1, #0x5e8
  400ef8:	940148de 	bl	453270 <__aarch64_ldadd4_acq>
  400efc:	7100041f 	cmp	w0, #0x1
  400f00:	540000a0 	b.eq	400f14 <__libc_start_call_main+0x84>  // b.none
  400f04:	d2800ba8 	mov	x8, #0x5d                  	// #93
  400f08:	d2800000 	mov	x0, #0x0                   	// #0
  400f0c:	d4000001 	svc	#0x0
  400f10:	17fffffe 	b	400f08 <__libc_start_call_main+0x78>
  400f14:	52800000 	mov	w0, #0x0                   	// #0
  400f18:	940015a6 	bl	4065b0 <exit>
  400f1c:	d503201f 	nop

0000000000400f20 <__libc_start_main>:
  400f20:	a9b67bfd 	stp	x29, x30, [sp, #-160]!
  400f24:	910003fd 	mov	x29, sp
  400f28:	a90153f3 	stp	x19, x20, [sp, #16]
  400f2c:	2a0103f3 	mov	w19, w1
  400f30:	aa0203f4 	mov	x20, x2
  400f34:	d0000481 	adrp	x1, 492000 <tunable_list+0x528>
  400f38:	b0000ee2 	adrp	x2, 5dd000 <__pthread_keys+0x3170>
  400f3c:	a90683e2 	stp	x2, x0, [sp, #104]
  400f40:	8b33ce80 	add	x0, x20, w19, sxtw #3
  400f44:	91002000 	add	x0, x0, #0x8
  400f48:	f9039c26 	str	x6, [x1, #1848]
  400f4c:	f9077c40 	str	x0, [x2, #3832]
  400f50:	f9003fe5 	str	x5, [sp, #120]
  400f54:	d503201f 	nop
  400f58:	f8408401 	ldr	x1, [x0], #8
  400f5c:	b5ffffe1 	cbnz	x1, 400f58 <__libc_start_main+0x38>
  400f60:	94008d74 	bl	424530 <_dl_aux_init>
  400f64:	b0000ee1 	adrp	x1, 5dd000 <__pthread_keys+0x3170>
  400f68:	f947bc20 	ldr	x0, [x1, #3960]
  400f6c:	b40009c0 	cbz	x0, 4010a4 <__libc_start_main+0x184>
  400f70:	a9025bf5 	stp	x21, x22, [sp, #32]
  400f74:	a90363f7 	stp	x23, x24, [sp, #48]
  400f78:	910223f8 	add	x24, sp, #0x88
  400f7c:	a9046bf9 	stp	x25, x26, [sp, #64]
  400f80:	a90573fb 	stp	x27, x28, [sp, #80]
  400f84:	940090ff 	bl	425380 <__libc_init_secure>
  400f88:	f94037e0 	ldr	x0, [sp, #104]
  400f8c:	f9477c00 	ldr	x0, [x0, #3832]
  400f90:	94008b74 	bl	423d60 <__tunables_init>
  400f94:	aa1803e1 	mov	x1, x24
  400f98:	d2800002 	mov	x2, #0x0                   	// #0
  400f9c:	528000a0 	mov	w0, #0x5                   	// #5
  400fa0:	94008c6c 	bl	424150 <__tunable_get_val>
  400fa4:	f94047f9 	ldr	x25, [sp, #136]
  400fa8:	b4000199 	cbz	x25, 400fd8 <__libc_start_main+0xb8>
  400fac:	f0000477 	adrp	x23, 48f000 <__FRAME_END__+0x10130>
  400fb0:	9121a2f6 	add	x22, x23, #0x868
  400fb4:	52800015 	mov	w21, #0x0                   	// #0
  400fb8:	f94002c1 	ldr	x1, [x22]
  400fbc:	aa1903e0 	mov	x0, x25
  400fc0:	940068d0 	bl	41b300 <strcmp>
  400fc4:	34000920 	cbz	w0, 4010e8 <__libc_start_main+0x1c8>
  400fc8:	110006b5 	add	w21, w21, #0x1
  400fcc:	910042d6 	add	x22, x22, #0x10
  400fd0:	71002abf 	cmp	w21, #0xa
  400fd4:	54ffff21 	b.ne	400fb8 <__libc_start_main+0x98>  // b.any
  400fd8:	b0000ef5 	adrp	x21, 5dd000 <__pthread_keys+0x3170>
  400fdc:	f947b2a0 	ldr	x0, [x21, #3936]
  400fe0:	92750001 	and	x1, x0, #0x800
  400fe4:	36580040 	tbz	w0, #11, 400fec <__libc_start_main+0xcc>
  400fe8:	d5380001 	mrs	x1, midr_el1
  400fec:	d0000ee0 	adrp	x0, 5de000 <_dl_stack_user>
  400ff0:	9100e003 	add	x3, x0, #0x38
  400ff4:	f9001c01 	str	x1, [x0, #56]
  400ff8:	d53b00e1 	mrs	x1, dczid_el0
  400ffc:	372000a1 	tbnz	w1, #4, 401010 <__libc_start_main+0xf0>
  401000:	12000c21 	and	w1, w1, #0xf
  401004:	52800082 	mov	w2, #0x4                   	// #4
  401008:	1ac12041 	lsl	w1, w2, w1
  40100c:	b9000861 	str	w1, [x3, #8]
  401010:	90000ef7 	adrp	x23, 5dd000 <__pthread_keys+0x3170>
  401014:	9100e000 	add	x0, x0, #0x38
  401018:	f947b2a2 	ldr	x2, [x21, #3936]
  40101c:	b000049a 	adrp	x26, 492000 <tunable_list+0x528>
  401020:	f947aee1 	ldr	x1, [x23, #3928]
  401024:	3900341f 	strb	wzr, [x0, #13]
  401028:	53165842 	ubfx	w2, w2, #22, #1
  40102c:	39003802 	strb	w2, [x0, #14]
  401030:	53114421 	ubfx	w1, w1, #17, #1
  401034:	39003001 	strb	w1, [x0, #12]
  401038:	97fffd62 	bl	4005c0 <_dl_relocate_static_pie>
  40103c:	f9468342 	ldr	x2, [x26, #3328]
  401040:	f9464756 	ldr	x22, [x26, #3208]
  401044:	eb16005f 	cmp	x2, x22
  401048:	540005e2 	b.cs	401104 <__libc_start_main+0x1e4>  // b.hs, b.nlast
  40104c:	aa0203fb 	mov	x27, x2
  401050:	d2800319 	mov	x25, #0x18                  	// #24
  401054:	1400000d 	b	401088 <__libc_start_main+0x168>
  401058:	f9400b64 	ldr	x4, [x27, #16]
  40105c:	9100637b 	add	x27, x27, #0x18
  401060:	f947b2a0 	ldr	x0, [x21, #3936]
  401064:	a90883f9 	stp	x25, x0, [sp, #136]
  401068:	f947aee1 	ldr	x1, [x23, #3928]
  40106c:	f9004fe1 	str	x1, [sp, #152]
  401070:	b2420000 	orr	x0, x0, #0x4000000000000000
  401074:	aa1803e1 	mov	x1, x24
  401078:	d63f0080 	blr	x4
  40107c:	f9000380 	str	x0, [x28]
  401080:	eb16037f 	cmp	x27, x22
  401084:	54000402 	b.cs	401104 <__libc_start_main+0x1e4>  // b.hs, b.nlast
  401088:	b9400b60 	ldr	w0, [x27, #8]
  40108c:	f940037c 	ldr	x28, [x27]
  401090:	f110201f 	cmp	x0, #0x408
  401094:	54fffe20 	b.eq	401058 <__libc_start_main+0x138>  // b.none
  401098:	900002c0 	adrp	x0, 459000 <free_slotinfo+0x30>
  40109c:	910f0000 	add	x0, x0, #0x3c0
  4010a0:	940038d9 	bl	40f404 <__libc_fatal>
  4010a4:	f0ffffe0 	adrp	x0, 400000 <__ehdr_start>
  4010a8:	91000000 	add	x0, x0, #0x0
  4010ac:	79406c02 	ldrh	w2, [x0, #54]
  4010b0:	7100e05f 	cmp	w2, #0x38
  4010b4:	54000d80 	b.eq	401264 <__libc_start_main+0x344>  // b.none
  4010b8:	900002c3 	adrp	x3, 459000 <free_slotinfo+0x30>
  4010bc:	900002c1 	adrp	x1, 459000 <free_slotinfo+0x30>
  4010c0:	900002c0 	adrp	x0, 459000 <free_slotinfo+0x30>
  4010c4:	9110c063 	add	x3, x3, #0x430
  4010c8:	910de021 	add	x1, x1, #0x378
  4010cc:	910e4000 	add	x0, x0, #0x390
  4010d0:	52802342 	mov	w2, #0x11a                 	// #282
  4010d4:	a9025bf5 	stp	x21, x22, [sp, #32]
  4010d8:	a90363f7 	stp	x23, x24, [sp, #48]
  4010dc:	a9046bf9 	stp	x25, x26, [sp, #64]
  4010e0:	a90573fb 	stp	x27, x28, [sp, #80]
  4010e4:	9400018f 	bl	401720 <__assert_fail>
  4010e8:	9121a2f7 	add	x23, x23, #0x868
  4010ec:	8b35d2f5 	add	x21, x23, w21, sxtw #4
  4010f0:	f94006a1 	ldr	x1, [x21, #8]
  4010f4:	b100043f 	cmn	x1, #0x1
  4010f8:	54fff700 	b.eq	400fd8 <__libc_start_main+0xb8>  // b.none
  4010fc:	90000ef5 	adrp	x21, 5dd000 <__pthread_keys+0x3170>
  401100:	17ffffbb 	b	400fec <__libc_start_main+0xcc>
  401104:	b0000496 	adrp	x22, 492000 <tunable_list+0x528>
  401108:	940000a6 	bl	4013a0 <__libc_setup_tls>
  40110c:	90000495 	adrp	x21, 491000 <_nl_C_LC_MONETARY+0x138>
  401110:	f9438ec0 	ldr	x0, [x22, #1816]
  401114:	f9400000 	ldr	x0, [x0]
  401118:	9278dc00 	and	x0, x0, #0xffffffffffffff00
  40111c:	f904f6a0 	str	x0, [x21, #2536]
  401120:	9400904c 	bl	425250 <_dl_discover_osversion>
  401124:	37f80ba0 	tbnz	w0, #31, 401298 <__libc_start_main+0x378>
  401128:	90000ee1 	adrp	x1, 5dd000 <__pthread_keys+0x3170>
  40112c:	b94fc022 	ldr	w2, [x1, #4032]
  401130:	35000ae2 	cbnz	w2, 40128c <__libc_start_main+0x36c>
  401134:	b90fc020 	str	w0, [x1, #4032]
  401138:	5280dfe1 	mov	w1, #0x6ff                 	// #1791
  40113c:	72a00061 	movk	w1, #0x3, lsl #16
  401140:	6b01001f 	cmp	w0, w1
  401144:	540009ed 	b.le	401280 <__libc_start_main+0x360>
  401148:	f946db5a 	ldr	x26, [x26, #3504]
  40114c:	b400005a 	cbz	x26, 401154 <__libc_start_main+0x234>
  401150:	d503201f 	nop
  401154:	f9438ec0 	ldr	x0, [x22, #1816]
  401158:	9127a2b5 	add	x21, x21, #0x9e8
  40115c:	f9400400 	ldr	x0, [x0, #8]
  401160:	f90006a0 	str	x0, [x21, #8]
  401164:	f9403fe0 	ldr	x0, [sp, #120]
  401168:	b4000080 	cbz	x0, 401178 <__libc_start_main+0x258>
  40116c:	d2800002 	mov	x2, #0x0                   	// #0
  401170:	d2800001 	mov	x1, #0x0                   	// #0
  401174:	9400159b 	bl	4067e0 <__cxa_atexit>
  401178:	52800020 	mov	w0, #0x1                   	// #1
  40117c:	94009099 	bl	4253e0 <__libc_early_init>
  401180:	f94037e0 	ldr	x0, [sp, #104]
  401184:	aa1403e1 	mov	x1, x20
  401188:	f9477c02 	ldr	x2, [x0, #3832]
  40118c:	2a1303e0 	mov	w0, w19
  401190:	940090d0 	bl	4254d0 <__libc_init_first>
  401194:	f0ffffe0 	adrp	x0, 400000 <__ehdr_start>
  401198:	d2800002 	mov	x2, #0x0                   	// #0
  40119c:	91390000 	add	x0, x0, #0xe40
  4011a0:	d2800001 	mov	x1, #0x0                   	// #0
  4011a4:	9400158f 	bl	4067e0 <__cxa_atexit>
  4011a8:	b0000480 	adrp	x0, 492000 <tunable_list+0x528>
  4011ac:	b9474000 	ldr	w0, [x0, #1856]
  4011b0:	350007a0 	cbnz	w0, 4012a4 <__libc_start_main+0x384>
  4011b4:	f94037e0 	ldr	x0, [sp, #104]
  4011b8:	d0000477 	adrp	x23, 48f000 <__FRAME_END__+0x10130>
  4011bc:	d0000478 	adrp	x24, 48f000 <__FRAME_END__+0x10130>
  4011c0:	912142f7 	add	x23, x23, #0x850
  4011c4:	91214318 	add	x24, x24, #0x850
  4011c8:	d2800015 	mov	x21, #0x0                   	// #0
  4011cc:	cb1802f7 	sub	x23, x23, x24
  4011d0:	f9477c16 	ldr	x22, [x0, #3832]
  4011d4:	9343fef7 	asr	x23, x23, #3
  4011d8:	b4000157 	cbz	x23, 401200 <__libc_start_main+0x2e0>
  4011dc:	d503201f 	nop
  4011e0:	f8757b03 	ldr	x3, [x24, x21, lsl #3]
  4011e4:	aa1603e2 	mov	x2, x22
  4011e8:	910006b5 	add	x21, x21, #0x1
  4011ec:	aa1403e1 	mov	x1, x20
  4011f0:	2a1303e0 	mov	w0, w19
  4011f4:	d63f0060 	blr	x3
  4011f8:	eb1502ff 	cmp	x23, x21
  4011fc:	54ffff21 	b.ne	4011e0 <__libc_start_main+0x2c0>  // b.any
  401200:	d0000477 	adrp	x23, 48f000 <__FRAME_END__+0x10130>
  401204:	d0000478 	adrp	x24, 48f000 <__FRAME_END__+0x10130>
  401208:	912182f7 	add	x23, x23, #0x860
  40120c:	91214318 	add	x24, x24, #0x850
  401210:	cb1802f7 	sub	x23, x23, x24
  401214:	d2800015 	mov	x21, #0x0                   	// #0
  401218:	97fffc1a 	bl	400280 <_init>
  40121c:	9343fef7 	asr	x23, x23, #3
  401220:	b4000157 	cbz	x23, 401248 <__libc_start_main+0x328>
  401224:	d503201f 	nop
  401228:	f8757b03 	ldr	x3, [x24, x21, lsl #3]
  40122c:	aa1603e2 	mov	x2, x22
  401230:	910006b5 	add	x21, x21, #0x1
  401234:	aa1403e1 	mov	x1, x20
  401238:	2a1303e0 	mov	w0, w19
  40123c:	d63f0060 	blr	x3
  401240:	eb1502ff 	cmp	x23, x21
  401244:	54ffff21 	b.ne	401228 <__libc_start_main+0x308>  // b.any
  401248:	d2800001 	mov	x1, #0x0                   	// #0
  40124c:	d2800000 	mov	x0, #0x0                   	// #0
  401250:	940086ec 	bl	422e00 <_dl_debug_initialize>
  401254:	f9403be0 	ldr	x0, [sp, #112]
  401258:	aa1403e2 	mov	x2, x20
  40125c:	2a1303e1 	mov	w1, w19
  401260:	97ffff0c 	bl	400e90 <__libc_start_call_main>
  401264:	f9401002 	ldr	x2, [x0, #32]
  401268:	90000ee3 	adrp	x3, 5dd000 <__pthread_keys+0x3170>
  40126c:	79407004 	ldrh	w4, [x0, #56]
  401270:	f907b864 	str	x4, [x3, #3952]
  401274:	8b000040 	add	x0, x2, x0
  401278:	f907bc20 	str	x0, [x1, #3960]
  40127c:	17ffff3d 	b	400f70 <__libc_start_main+0x50>
  401280:	900002c0 	adrp	x0, 459000 <free_slotinfo+0x30>
  401284:	910fc000 	add	x0, x0, #0x3f0
  401288:	9400385f 	bl	40f404 <__libc_fatal>
  40128c:	6b00005f 	cmp	w2, w0
  401290:	54fff549 	b.ls	401138 <__libc_start_main+0x218>  // b.plast
  401294:	17ffffa8 	b	401134 <__libc_start_main+0x214>
  401298:	900002c0 	adrp	x0, 459000 <free_slotinfo+0x30>
  40129c:	91102000 	add	x0, x0, #0x408
  4012a0:	94003859 	bl	40f404 <__libc_fatal>
  4012a4:	94000033 	bl	401370 <__libc_check_standard_fds>
  4012a8:	17ffffc3 	b	4011b4 <__libc_start_main+0x294>
  4012ac:	d503201f 	nop

00000000004012b0 <check_one_fd>:
  4012b0:	a9b57bfd 	stp	x29, x30, [sp, #-176]!
  4012b4:	910003fd 	mov	x29, sp
  4012b8:	a90153f3 	stp	x19, x20, [sp, #16]
  4012bc:	2a0103f4 	mov	w20, w1
  4012c0:	2a0003f3 	mov	w19, w0
  4012c4:	52800021 	mov	w1, #0x1                   	// #1
  4012c8:	94007de6 	bl	420a60 <__fcntl64_nocancel>
  4012cc:	3100041f 	cmn	w0, #0x1
  4012d0:	54000080 	b.eq	4012e0 <check_one_fd+0x30>  // b.none
  4012d4:	a94153f3 	ldp	x19, x20, [sp, #16]
  4012d8:	a8cb7bfd 	ldp	x29, x30, [sp], #176
  4012dc:	d65f03c0 	ret
  4012e0:	b0000480 	adrp	x0, 492000 <tunable_list+0x528>
  4012e4:	f946f000 	ldr	x0, [x0, #3552]
  4012e8:	d53bd041 	mrs	x1, tpidr_el0
  4012ec:	b8606820 	ldr	w0, [x1, x0]
  4012f0:	7100241f 	cmp	w0, #0x9
  4012f4:	54ffff01 	b.ne	4012d4 <check_one_fd+0x24>  // b.any
  4012f8:	f90013f5 	str	x21, [sp, #32]
  4012fc:	7140229f 	cmp	w20, #0x8, lsl #12
  401300:	54000301 	b.ne	401360 <check_one_fd+0xb0>  // b.any
  401304:	900002c0 	adrp	x0, 459000 <free_slotinfo+0x30>
  401308:	91132000 	add	x0, x0, #0x4c8
  40130c:	d2802075 	mov	x21, #0x103                 	// #259
  401310:	2a1403e1 	mov	w1, w20
  401314:	52800002 	mov	w2, #0x0                   	// #0
  401318:	94007e3e 	bl	420c10 <__open64_nocancel>
  40131c:	6b00027f 	cmp	w19, w0
  401320:	54000081 	b.ne	401330 <check_one_fd+0x80>  // b.any
  401324:	9100c3e1 	add	x1, sp, #0x30
  401328:	94007b1a 	bl	41ff90 <__fstat>
  40132c:	34000080 	cbz	w0, 40133c <check_one_fd+0x8c>
  401330:	d4207d00 	brk	#0x3e8
  401334:	d4207d00 	brk	#0x3e8
  401338:	17fffffe 	b	401330 <check_one_fd+0x80>
  40133c:	b94043e0 	ldr	w0, [sp, #64]
  401340:	12140c00 	and	w0, w0, #0xf000
  401344:	7140081f 	cmp	w0, #0x2, lsl #12
  401348:	54ffff41 	b.ne	401330 <check_one_fd+0x80>  // b.any
  40134c:	f9402be0 	ldr	x0, [sp, #80]
  401350:	eb15001f 	cmp	x0, x21
  401354:	54fffee1 	b.ne	401330 <check_one_fd+0x80>  // b.any
  401358:	f94013f5 	ldr	x21, [sp, #32]
  40135c:	17ffffde 	b	4012d4 <check_one_fd+0x24>
  401360:	900002c0 	adrp	x0, 459000 <free_slotinfo+0x30>
  401364:	d28020f5 	mov	x21, #0x107                 	// #263
  401368:	9112e000 	add	x0, x0, #0x4b8
  40136c:	17ffffe9 	b	401310 <check_one_fd+0x60>

0000000000401370 <__libc_check_standard_fds>:
  401370:	a9bf7bfd 	stp	x29, x30, [sp, #-16]!
  401374:	52900021 	mov	w1, #0x8001                	// #32769
  401378:	52800000 	mov	w0, #0x0                   	// #0
  40137c:	910003fd 	mov	x29, sp
  401380:	97ffffcc 	bl	4012b0 <check_one_fd>
  401384:	52900001 	mov	w1, #0x8000                	// #32768
  401388:	52800020 	mov	w0, #0x1                   	// #1
  40138c:	97ffffc9 	bl	4012b0 <check_one_fd>
  401390:	a8c17bfd 	ldp	x29, x30, [sp], #16
  401394:	52900001 	mov	w1, #0x8000                	// #32768
  401398:	52800040 	mov	w0, #0x2                   	// #2
  40139c:	17ffffc5 	b	4012b0 <check_one_fd>

00000000004013a0 <__libc_setup_tls>:
  4013a0:	a9b87bfd 	stp	x29, x30, [sp, #-128]!
  4013a4:	910003fd 	mov	x29, sp
  4013a8:	a90153f3 	stp	x19, x20, [sp, #16]
  4013ac:	b0000493 	adrp	x19, 492000 <tunable_list+0x528>
  4013b0:	f947f260 	ldr	x0, [x19, #4064]
  4013b4:	a9025bf5 	stp	x21, x22, [sp, #32]
  4013b8:	a90363f7 	stp	x23, x24, [sp, #48]
  4013bc:	a9046bf9 	stp	x25, x26, [sp, #64]
  4013c0:	a90573fb 	stp	x27, x28, [sp, #80]
  4013c4:	f9400018 	ldr	x24, [x0]
  4013c8:	9400893a 	bl	4238b0 <__tls_pre_init_tp>
  4013cc:	f9472260 	ldr	x0, [x19, #3648]
  4013d0:	f9400001 	ldr	x1, [x0]
  4013d4:	b4000bc1 	cbz	x1, 40154c <__libc_setup_tls+0x1ac>
  4013d8:	f9479673 	ldr	x19, [x19, #3880]
  4013dc:	f9400260 	ldr	x0, [x19]
  4013e0:	d37df002 	lsl	x2, x0, #3
  4013e4:	cb000042 	sub	x2, x2, x0
  4013e8:	8b020c22 	add	x2, x1, x2, lsl #3
  4013ec:	eb02003f 	cmp	x1, x2
  4013f0:	540000a3 	b.cc	401404 <__libc_setup_tls+0x64>  // b.lo, b.ul, b.last
  4013f4:	14000056 	b	40154c <__libc_setup_tls+0x1ac>
  4013f8:	9100e021 	add	x1, x1, #0x38
  4013fc:	eb02003f 	cmp	x1, x2
  401400:	54000a62 	b.cs	40154c <__libc_setup_tls+0x1ac>  // b.hs, b.nlast
  401404:	b9400020 	ldr	w0, [x1]
  401408:	71001c1f 	cmp	w0, #0x7
  40140c:	54ffff61 	b.ne	4013f8 <__libc_setup_tls+0x58>  // b.any
  401410:	f940183c 	ldr	x28, [x1, #48]
  401414:	d2800413 	mov	x19, #0x20                  	// #32
  401418:	f9400316 	ldr	x22, [x24]
  40141c:	eb13039f 	cmp	x28, x19
  401420:	f9400822 	ldr	x2, [x1, #16]
  401424:	9a932399 	csel	x25, x28, x19, cs  // cs = hs, nlast
  401428:	d1000723 	sub	x3, x25, #0x1
  40142c:	d2800000 	mov	x0, #0x0                   	// #0
  401430:	8b0202d6 	add	x22, x22, x2
  401434:	cb1903e2 	neg	x2, x25
  401438:	a9060be3 	stp	x3, x2, [sp, #96]
  40143c:	a9425037 	ldp	x23, x20, [x1, #32]
  401440:	94008694 	bl	422e90 <_dl_tls_static_surplus_init>
  401444:	f100039f 	cmp	x28, #0x0
  401448:	d2800020 	mov	x0, #0x1                   	// #1
  40144c:	9a801385 	csel	x5, x28, x0, ne  // ne = any
  401450:	540009c0 	b.eq	401588 <__libc_setup_tls+0x1e8>  // b.none
  401454:	91003f83 	add	x3, x28, #0xf
  401458:	9ac50863 	udiv	x3, x3, x5
  40145c:	9b057c7a 	mul	x26, x3, x5
  401460:	aa1a03fb 	mov	x27, x26
  401464:	90000ec6 	adrp	x6, 5d9000 <user_memory_pressure_sink>
  401468:	8b190281 	add	x1, x20, x25
  40146c:	910100d3 	add	x19, x6, #0x40
  401470:	a90717e6 	stp	x6, x5, [sp, #112]
  401474:	f94020c0 	ldr	x0, [x6, #64]
  401478:	911f0000 	add	x0, x0, #0x7c0
  40147c:	8b010000 	add	x0, x0, x1
  401480:	8b1a0000 	add	x0, x0, x26
  401484:	94007e57 	bl	420de0 <__sbrk>
  401488:	911f0015 	add	x21, x0, #0x7c0
  40148c:	d28007c8 	mov	x8, #0x3e                  	// #62
  401490:	f94033e0 	ldr	x0, [sp, #96]
  401494:	f9000668 	str	x8, [x19, #8]
  401498:	f902431b 	str	x27, [x24, #1152]
  40149c:	aa1703e2 	mov	x2, x23
  4014a0:	8b0002b5 	add	x21, x21, x0
  4014a4:	aa1603e1 	mov	x1, x22
  4014a8:	f94037e0 	ldr	x0, [sp, #104]
  4014ac:	8a0002b5 	and	x21, x21, x0
  4014b0:	8b1a02a0 	add	x0, x21, x26
  4014b4:	a902fe60 	stp	x0, xzr, [x19, #40]
  4014b8:	97fffb7e 	bl	4002b0 <.plt+0x10>
  4014bc:	91006260 	add	x0, x19, #0x18
  4014c0:	f90002a0 	str	x0, [x21]
  4014c4:	d51bd055 	msr	tpidr_el0, x21
  4014c8:	94008902 	bl	4238d0 <__tls_init_tp>
  4014cc:	f9021a78 	str	x24, [x19, #1072]
  4014d0:	91116304 	add	x4, x24, #0x458
  4014d4:	8b1c0280 	add	x0, x20, x28
  4014d8:	a94717e6 	ldp	x6, x5, [sp, #112]
  4014dc:	f100039f 	cmp	x28, #0x0
  4014e0:	d1000400 	sub	x0, x0, #0x1
  4014e4:	a9017094 	stp	x20, x28, [x4, #16]
  4014e8:	9a941014 	csel	x20, x0, x20, ne  // ne = any
  4014ec:	91206263 	add	x3, x19, #0x818
  4014f0:	a9005c96 	stp	x22, x23, [x4]
  4014f4:	d2800021 	mov	x1, #0x1                   	// #1
  4014f8:	9ac50a94 	udiv	x20, x20, x5
  4014fc:	91102262 	add	x2, x19, #0x408
  401500:	f94020c0 	ldr	x0, [x6, #64]
  401504:	d2800806 	mov	x6, #0x40                  	// #64
  401508:	a9000861 	stp	x1, x2, [x3]
  40150c:	9b056a94 	madd	x20, x20, x5, x26
  401510:	91007c00 	add	x0, x0, #0x1f
  401514:	a9020479 	stp	x25, x1, [x3, #32]
  401518:	8b140000 	add	x0, x0, x20
  40151c:	927be800 	and	x0, x0, #0xffffffffffffffe0
  401520:	f9024701 	str	x1, [x24, #1160]
  401524:	a9425bf5 	ldp	x21, x22, [sp, #32]
  401528:	a94363f7 	ldp	x23, x24, [sp, #48]
  40152c:	a9446bf9 	ldp	x25, x26, [sp, #64]
  401530:	a94573fb 	ldp	x27, x28, [sp, #80]
  401534:	f9020666 	str	x6, [x19, #1032]
  401538:	f9041660 	str	x0, [x19, #2088]
  40153c:	f9041a74 	str	x20, [x19, #2096]
  401540:	a94153f3 	ldp	x19, x20, [sp, #16]
  401544:	a8c87bfd 	ldp	x29, x30, [sp], #128
  401548:	d65f03c0 	ret
  40154c:	d2800000 	mov	x0, #0x0                   	// #0
  401550:	94008650 	bl	422e90 <_dl_tls_static_surplus_init>
  401554:	928003e0 	mov	x0, #0xffffffffffffffe0    	// #-32
  401558:	d280021b 	mov	x27, #0x10                  	// #16
  40155c:	d2800025 	mov	x5, #0x1                   	// #1
  401560:	aa1b03fa 	mov	x26, x27
  401564:	d2800419 	mov	x25, #0x20                  	// #32
  401568:	d280001c 	mov	x28, #0x0                   	// #0
  40156c:	d2800016 	mov	x22, #0x0                   	// #0
  401570:	d2800017 	mov	x23, #0x0                   	// #0
  401574:	d2800014 	mov	x20, #0x0                   	// #0
  401578:	f90037e0 	str	x0, [sp, #104]
  40157c:	d28003e0 	mov	x0, #0x1f                  	// #31
  401580:	f90033e0 	str	x0, [sp, #96]
  401584:	17ffffb8 	b	401464 <__libc_setup_tls+0xc4>
  401588:	d280021b 	mov	x27, #0x10                  	// #16
  40158c:	aa0003e5 	mov	x5, x0
  401590:	aa1303f9 	mov	x25, x19
  401594:	aa1b03fa 	mov	x26, x27
  401598:	17ffffb3 	b	401464 <__libc_setup_tls+0xc4>
  40159c:	d503201f 	nop

00000000004015a0 <__tls_get_addr>:
  4015a0:	d53bd041 	mrs	x1, tpidr_el0
  4015a4:	f9400400 	ldr	x0, [x0, #8]
  4015a8:	f9400021 	ldr	x1, [x1]
  4015ac:	f9400821 	ldr	x1, [x1, #16]
  4015b0:	8b000020 	add	x0, x1, x0
  4015b4:	d65f03c0 	ret
  4015b8:	d503201f 	nop
  4015bc:	d503201f 	nop

00000000004015c0 <__assert_fail_base>:
  4015c0:	d101c3ff 	sub	sp, sp, #0x70
  4015c4:	a9037bfd 	stp	x29, x30, [sp, #48]
  4015c8:	9100c3fd 	add	x29, sp, #0x30
  4015cc:	a90453f3 	stp	x19, x20, [sp, #64]
  4015d0:	b0000493 	adrp	x19, 492000 <tunable_list+0x528>
  4015d4:	aa0403f4 	mov	x20, x4
  4015d8:	f945fa65 	ldr	x5, [x19, #3056]
  4015dc:	a9055bf5 	stp	x21, x22, [sp, #80]
  4015e0:	aa0003f5 	mov	x21, x0
  4015e4:	a90663f7 	stp	x23, x24, [sp, #96]
  4015e8:	aa0203f6 	mov	x22, x2
  4015ec:	2a0303f7 	mov	w23, w3
  4015f0:	f94000a0 	ldr	x0, [x5]
  4015f4:	f90017e0 	str	x0, [sp, #40]
  4015f8:	d2800000 	mov	x0, #0x0                   	// #0
  4015fc:	aa0103f8 	mov	x24, x1
  401600:	52800020 	mov	w0, #0x1                   	// #1
  401604:	d2800001 	mov	x1, #0x0                   	// #0
  401608:	94004ed6 	bl	415160 <__pthread_setcancelstate>
  40160c:	f946ea60 	ldr	x0, [x19, #3536]
  401610:	900002c6 	adrp	x6, 459000 <free_slotinfo+0x30>
  401614:	900002c7 	adrp	x7, 459000 <free_slotinfo+0x30>
  401618:	912a80c6 	add	x6, x6, #0xaa0
  40161c:	911360e7 	add	x7, x7, #0x4d8
  401620:	f9400002 	ldr	x2, [x0]
  401624:	39400040 	ldrb	w0, [x2]
  401628:	7100001f 	cmp	w0, #0x0
  40162c:	9a8610e3 	csel	x3, x7, x6, ne  // ne = any
  401630:	b4000714 	cbz	x20, 401710 <__assert_fail_base+0x150>
  401634:	910073e0 	add	x0, sp, #0x1c
  401638:	a90003f8 	stp	x24, x0, [sp]
  40163c:	aa1403e6 	mov	x6, x20
  401640:	2a1703e5 	mov	w5, w23
  401644:	aa1603e4 	mov	x4, x22
  401648:	aa1503e1 	mov	x1, x21
  40164c:	910083e0 	add	x0, sp, #0x20
  401650:	94001650 	bl	406f90 <___asprintf>
  401654:	37f80520 	tbnz	w0, #31, 4016f8 <__assert_fail_base+0x138>
  401658:	f94013e2 	ldr	x2, [sp, #32]
  40165c:	900002c1 	adrp	x1, 459000 <free_slotinfo+0x30>
  401660:	d2800000 	mov	x0, #0x0                   	// #0
  401664:	91138021 	add	x1, x1, #0x4e0
  401668:	94002b56 	bl	40c3c0 <__fxprintf>
  40166c:	f9476660 	ldr	x0, [x19, #3784]
  401670:	f9400000 	ldr	x0, [x0]
  401674:	94002c73 	bl	40c840 <_IO_fflush>
  401678:	f947da73 	ldr	x19, [x19, #4016]
  40167c:	d2800005 	mov	x5, #0x0                   	// #0
  401680:	b9401fe1 	ldr	w1, [sp, #28]
  401684:	12800004 	mov	w4, #0xffffffff            	// #-1
  401688:	52800443 	mov	w3, #0x22                  	// #34
  40168c:	52800062 	mov	w2, #0x3                   	// #3
  401690:	f9400266 	ldr	x6, [x19]
  401694:	d2800000 	mov	x0, #0x0                   	// #0
  401698:	0b060021 	add	w1, w1, w6
  40169c:	4b0603e6 	neg	w6, w6
  4016a0:	11001021 	add	w1, w1, #0x4
  4016a4:	0a060021 	and	w1, w1, w6
  4016a8:	b9001fe1 	str	w1, [sp, #28]
  4016ac:	93407c21 	sxtw	x1, w1
  4016b0:	94007e24 	bl	420f40 <__mmap64>
  4016b4:	aa0003f3 	mov	x19, x0
  4016b8:	b100041f 	cmn	x0, #0x1
  4016bc:	54000180 	b.eq	4016ec <__assert_fail_base+0x12c>  // b.none
  4016c0:	b9401fe2 	ldr	w2, [sp, #28]
  4016c4:	f94013e1 	ldr	x1, [sp, #32]
  4016c8:	b8004402 	str	w2, [x0], #4
  4016cc:	9400675d 	bl	41b440 <strcpy>
  4016d0:	90000ec1 	adrp	x1, 5d9000 <user_memory_pressure_sink>
  4016d4:	aa1303e0 	mov	x0, x19
  4016d8:	9127c021 	add	x1, x1, #0x9f0
  4016dc:	940146fd 	bl	4532d0 <__aarch64_swp8_acq>
  4016e0:	b4000060 	cbz	x0, 4016ec <__assert_fail_base+0x12c>
  4016e4:	b9400001 	ldr	w1, [x0]
  4016e8:	94007e36 	bl	420fc0 <__munmap>
  4016ec:	f94013e0 	ldr	x0, [sp, #32]
  4016f0:	94006100 	bl	419af0 <__free>
  4016f4:	97fffb13 	bl	400340 <abort>
  4016f8:	900002c1 	adrp	x1, 459000 <free_slotinfo+0x30>
  4016fc:	91146021 	add	x1, x1, #0x518
  401700:	d2800242 	mov	x2, #0x12                  	// #18
  401704:	52800040 	mov	w0, #0x2                   	// #2
  401708:	94007ace 	bl	420240 <__libc_write>
  40170c:	97fffb0d 	bl	400340 <abort>
  401710:	aa0603f4 	mov	x20, x6
  401714:	aa0603e7 	mov	x7, x6
  401718:	17ffffc7 	b	401634 <__assert_fail_base+0x74>
  40171c:	d503201f 	nop

0000000000401720 <__assert_fail>:
  401720:	a9bd7bfd 	stp	x29, x30, [sp, #-48]!
  401724:	910003fd 	mov	x29, sp
  401728:	a90153f3 	stp	x19, x20, [sp, #16]
  40172c:	aa0003f3 	mov	x19, x0
  401730:	aa0103f4 	mov	x20, x1
  401734:	f0000340 	adrp	x0, 46c000 <translit_from_idx+0x13f8>
  401738:	900002c1 	adrp	x1, 459000 <free_slotinfo+0x30>
  40173c:	9117e000 	add	x0, x0, #0x5f8
  401740:	9113a021 	add	x1, x1, #0x4e8
  401744:	a9025bf5 	stp	x21, x22, [sp, #32]
  401748:	aa0303f6 	mov	x22, x3
  40174c:	2a0203f5 	mov	w21, w2
  401750:	528000a2 	mov	w2, #0x5                   	// #5
  401754:	94000007 	bl	401770 <__dcgettext>
  401758:	aa1603e4 	mov	x4, x22
  40175c:	2a1503e3 	mov	w3, w21
  401760:	aa1403e2 	mov	x2, x20
  401764:	aa1303e1 	mov	x1, x19
  401768:	97ffff96 	bl	4015c0 <__assert_fail_base>
  40176c:	d503201f 	nop

0000000000401770 <__dcgettext>:
  401770:	2a0203e5 	mov	w5, w2
  401774:	d2800004 	mov	x4, #0x0                   	// #0
  401778:	52800003 	mov	w3, #0x0                   	// #0
  40177c:	d2800002 	mov	x2, #0x0                   	// #0
  401780:	140002c0 	b	402280 <__dcigettext>
  401784:	d503201f 	nop
  401788:	d503201f 	nop
  40178c:	d503201f 	nop

0000000000401790 <plural_eval>:
  401790:	a9bd7bfd 	stp	x29, x30, [sp, #-48]!
  401794:	910003fd 	mov	x29, sp
  401798:	a90153f3 	stp	x19, x20, [sp, #16]
  40179c:	aa0003f3 	mov	x19, x0
  4017a0:	aa0103f4 	mov	x20, x1
  4017a4:	f90013f5 	str	x21, [sp, #32]
  4017a8:	b9400260 	ldr	w0, [x19]
  4017ac:	7100081f 	cmp	w0, #0x2
  4017b0:	54000360 	b.eq	40181c <plural_eval+0x8c>  // b.none
  4017b4:	540001cc 	b.gt	4017ec <plural_eval+0x5c>
  4017b8:	340006c0 	cbz	w0, 401890 <plural_eval+0x100>
  4017bc:	7100041f 	cmp	w0, #0x1
  4017c0:	54000721 	b.ne	4018a4 <plural_eval+0x114>  // b.any
  4017c4:	f9400660 	ldr	x0, [x19, #8]
  4017c8:	aa1403e1 	mov	x1, x20
  4017cc:	97fffff1 	bl	401790 <plural_eval>
  4017d0:	f100001f 	cmp	x0, #0x0
  4017d4:	9a9f17f5 	cset	x21, eq  // eq = none
  4017d8:	aa1503e0 	mov	x0, x21
  4017dc:	a94153f3 	ldp	x19, x20, [sp, #16]
  4017e0:	f94013f5 	ldr	x21, [sp, #32]
  4017e4:	a8c37bfd 	ldp	x29, x30, [sp], #48
  4017e8:	d65f03c0 	ret
  4017ec:	aa1403e1 	mov	x1, x20
  4017f0:	71000c1f 	cmp	w0, #0x3
  4017f4:	54000581 	b.ne	4018a4 <plural_eval+0x114>  // b.any
  4017f8:	f9400660 	ldr	x0, [x19, #8]
  4017fc:	97ffffe5 	bl	401790 <plural_eval>
  401800:	f100001f 	cmp	x0, #0x0
  401804:	9a9f17e0 	cset	x0, eq  // eq = none
  401808:	8b000e60 	add	x0, x19, x0, lsl #3
  40180c:	f9400813 	ldr	x19, [x0, #16]
  401810:	b9400260 	ldr	w0, [x19]
  401814:	7100081f 	cmp	w0, #0x2
  401818:	54fffce1 	b.ne	4017b4 <plural_eval+0x24>  // b.any
  40181c:	f9400660 	ldr	x0, [x19, #8]
  401820:	aa1403e1 	mov	x1, x20
  401824:	97ffffdb 	bl	401790 <plural_eval>
  401828:	aa0003f5 	mov	x21, x0
  40182c:	b9400661 	ldr	w1, [x19, #4]
  401830:	71003c3f 	cmp	w1, #0xf
  401834:	54000480 	b.eq	4018c4 <plural_eval+0x134>  // b.none
  401838:	7100383f 	cmp	w1, #0xe
  40183c:	540007a0 	b.eq	401930 <plural_eval+0x1a0>  // b.none
  401840:	f9400a60 	ldr	x0, [x19, #16]
  401844:	aa1403e1 	mov	x1, x20
  401848:	97ffffd2 	bl	401790 <plural_eval>
  40184c:	b9400661 	ldr	w1, [x19, #4]
  401850:	aa0003f3 	mov	x19, x0
  401854:	7100203f 	cmp	w1, #0x8
  401858:	54000900 	b.eq	401978 <plural_eval+0x1e8>  // b.none
  40185c:	54000488 	b.hi	4018ec <plural_eval+0x15c>  // b.pmore
  401860:	7100143f 	cmp	w1, #0x5
  401864:	54000820 	b.eq	401968 <plural_eval+0x1d8>  // b.none
  401868:	54000349 	b.ls	4018d0 <plural_eval+0x140>  // b.plast
  40186c:	cb0002a0 	sub	x0, x21, x0
  401870:	7100183f 	cmp	w1, #0x6
  401874:	8b1302b5 	add	x21, x21, x19
  401878:	9a8002b5 	csel	x21, x21, x0, eq  // eq = none
  40187c:	aa1503e0 	mov	x0, x21
  401880:	a94153f3 	ldp	x19, x20, [sp, #16]
  401884:	f94013f5 	ldr	x21, [sp, #32]
  401888:	a8c37bfd 	ldp	x29, x30, [sp], #48
  40188c:	d65f03c0 	ret
  401890:	b9400660 	ldr	w0, [x19, #4]
  401894:	aa1403f5 	mov	x21, x20
  401898:	34fffa00 	cbz	w0, 4017d8 <plural_eval+0x48>
  40189c:	7100041f 	cmp	w0, #0x1
  4018a0:	540000e0 	b.eq	4018bc <plural_eval+0x12c>  // b.none
  4018a4:	d2800015 	mov	x21, #0x0                   	// #0
  4018a8:	aa1503e0 	mov	x0, x21
  4018ac:	a94153f3 	ldp	x19, x20, [sp, #16]
  4018b0:	f94013f5 	ldr	x21, [sp, #32]
  4018b4:	a8c37bfd 	ldp	x29, x30, [sp], #48
  4018b8:	d65f03c0 	ret
  4018bc:	f9400675 	ldr	x21, [x19, #8]
  4018c0:	17ffffc6 	b	4017d8 <plural_eval+0x48>
  4018c4:	b4000380 	cbz	x0, 401934 <plural_eval+0x1a4>
  4018c8:	d2800035 	mov	x21, #0x1                   	// #1
  4018cc:	17ffffc3 	b	4017d8 <plural_eval+0x48>
  4018d0:	71000c3f 	cmp	w1, #0x3
  4018d4:	54000580 	b.eq	401984 <plural_eval+0x1f4>  // b.none
  4018d8:	7100103f 	cmp	w1, #0x4
  4018dc:	54fffe41 	b.ne	4018a4 <plural_eval+0x114>  // b.any
  4018e0:	b4000360 	cbz	x0, 40194c <plural_eval+0x1bc>
  4018e4:	9ad30ab5 	udiv	x21, x21, x19
  4018e8:	17ffffbc 	b	4017d8 <plural_eval+0x48>
  4018ec:	71002c3f 	cmp	w1, #0xb
  4018f0:	54000360 	b.eq	40195c <plural_eval+0x1cc>  // b.none
  4018f4:	54000109 	b.ls	401914 <plural_eval+0x184>  // b.plast
  4018f8:	7100303f 	cmp	w1, #0xc
  4018fc:	54000480 	b.eq	40198c <plural_eval+0x1fc>  // b.none
  401900:	7100343f 	cmp	w1, #0xd
  401904:	54fffd01 	b.ne	4018a4 <plural_eval+0x114>  // b.any
  401908:	eb0002bf 	cmp	x21, x0
  40190c:	9a9f07f5 	cset	x21, ne  // ne = any
  401910:	17ffffb2 	b	4017d8 <plural_eval+0x48>
  401914:	7100243f 	cmp	w1, #0x9
  401918:	54000400 	b.eq	401998 <plural_eval+0x208>  // b.none
  40191c:	7100283f 	cmp	w1, #0xa
  401920:	54fffc21 	b.ne	4018a4 <plural_eval+0x114>  // b.any
  401924:	eb0002bf 	cmp	x21, x0
  401928:	9a9f87f5 	cset	x21, ls  // ls = plast
  40192c:	17ffffab 	b	4017d8 <plural_eval+0x48>
  401930:	b4fff540 	cbz	x0, 4017d8 <plural_eval+0x48>
  401934:	f9400a60 	ldr	x0, [x19, #16]
  401938:	aa1403e1 	mov	x1, x20
  40193c:	97ffff95 	bl	401790 <plural_eval>
  401940:	f100001f 	cmp	x0, #0x0
  401944:	9a9f07f5 	cset	x21, ne  // ne = any
  401948:	17ffffa4 	b	4017d8 <plural_eval+0x48>
  40194c:	52800100 	mov	w0, #0x8                   	// #8
  401950:	9400109c 	bl	405bc0 <raise>
  401954:	9ad30ab5 	udiv	x21, x21, x19
  401958:	17ffffa0 	b	4017d8 <plural_eval+0x48>
  40195c:	eb0002bf 	cmp	x21, x0
  401960:	9a9f37f5 	cset	x21, cs  // cs = hs, nlast
  401964:	17ffff9d 	b	4017d8 <plural_eval+0x48>
  401968:	b40001e0 	cbz	x0, 4019a4 <plural_eval+0x214>
  40196c:	9ad30aa0 	udiv	x0, x21, x19
  401970:	9b13d415 	msub	x21, x0, x19, x21
  401974:	17ffff99 	b	4017d8 <plural_eval+0x48>
  401978:	eb0002bf 	cmp	x21, x0
  40197c:	9a9f27f5 	cset	x21, cc  // cc = lo, ul, last
  401980:	17ffff96 	b	4017d8 <plural_eval+0x48>
  401984:	9b007eb5 	mul	x21, x21, x0
  401988:	17ffff94 	b	4017d8 <plural_eval+0x48>
  40198c:	eb0002bf 	cmp	x21, x0
  401990:	9a9f17f5 	cset	x21, eq  // eq = none
  401994:	17ffff91 	b	4017d8 <plural_eval+0x48>
  401998:	eb0002bf 	cmp	x21, x0
  40199c:	9a9f97f5 	cset	x21, hi  // hi = pmore
  4019a0:	17ffff8e 	b	4017d8 <plural_eval+0x48>
  4019a4:	52800100 	mov	w0, #0x8                   	// #8
  4019a8:	94001086 	bl	405bc0 <raise>
  4019ac:	17fffff0 	b	40196c <plural_eval+0x1dc>

00000000004019b0 <transcmp>:
  4019b0:	a9be7bfd 	stp	x29, x30, [sp, #-32]!
  4019b4:	910003fd 	mov	x29, sp
  4019b8:	a90153f3 	stp	x19, x20, [sp, #16]
  4019bc:	aa0003f4 	mov	x20, x0
  4019c0:	aa0103f3 	mov	x19, x1
  4019c4:	f9401000 	ldr	x0, [x0, #32]
  4019c8:	b40002e0 	cbz	x0, 401a24 <transcmp+0x74>
  4019cc:	9100e280 	add	x0, x20, #0x38
  4019d0:	f9401261 	ldr	x1, [x19, #32]
  4019d4:	b4000241 	cbz	x1, 401a1c <transcmp+0x6c>
  4019d8:	9100e261 	add	x1, x19, #0x38
  4019dc:	94006649 	bl	41b300 <strcmp>
  4019e0:	35000180 	cbnz	w0, 401a10 <transcmp+0x60>
  4019e4:	f9400261 	ldr	x1, [x19]
  4019e8:	f9400280 	ldr	x0, [x20]
  4019ec:	94006645 	bl	41b300 <strcmp>
  4019f0:	35000100 	cbnz	w0, 401a10 <transcmp+0x60>
  4019f4:	f9400a61 	ldr	x1, [x19, #16]
  4019f8:	f9400a80 	ldr	x0, [x20, #16]
  4019fc:	94006641 	bl	41b300 <strcmp>
  401a00:	35000080 	cbnz	w0, 401a10 <transcmp+0x60>
  401a04:	b9400a61 	ldr	w1, [x19, #8]
  401a08:	b9400a80 	ldr	w0, [x20, #8]
  401a0c:	4b010000 	sub	w0, w0, w1
  401a10:	a94153f3 	ldp	x19, x20, [sp, #16]
  401a14:	a8c27bfd 	ldp	x29, x30, [sp], #32
  401a18:	d65f03c0 	ret
  401a1c:	f9401e61 	ldr	x1, [x19, #56]
  401a20:	17ffffef 	b	4019dc <transcmp+0x2c>
  401a24:	f9401e80 	ldr	x0, [x20, #56]
  401a28:	17ffffea 	b	4019d0 <transcmp+0x20>
  401a2c:	d503201f 	nop

0000000000401a30 <_nl_find_msg>:
  401a30:	a9ba7bfd 	stp	x29, x30, [sp, #-96]!
  401a34:	b0000487 	adrp	x7, 492000 <tunable_list+0x528>
  401a38:	910003fd 	mov	x29, sp
  401a3c:	a90153f3 	stp	x19, x20, [sp, #16]
  401a40:	a9025bf5 	stp	x21, x22, [sp, #32]
  401a44:	a90363f7 	stp	x23, x24, [sp, #48]
  401a48:	aa0203f8 	mov	x24, x2
  401a4c:	a9046bf9 	stp	x25, x26, [sp, #64]
  401a50:	a90573fb 	stp	x27, x28, [sp, #80]
  401a54:	d10203ff 	sub	sp, sp, #0x80
  401a58:	f945f8e6 	ldr	x6, [x7, #3056]
  401a5c:	a93b03a7 	stp	x7, x0, [x29, #-80]
  401a60:	b9400805 	ldr	w5, [x0, #8]
  401a64:	f94000c8 	ldr	x8, [x6]
  401a68:	f81f83a8 	stur	x8, [x29, #-8]
  401a6c:	d2800008 	mov	x8, #0x0                   	// #0
  401a70:	a93993a1 	stp	x1, x4, [x29, #-104]
  401a74:	b81a83a3 	stur	w3, [x29, #-88]
  401a78:	710000bf 	cmp	w5, #0x0
  401a7c:	540010ed 	b.le	401c98 <_nl_find_msg+0x268>
  401a80:	f85b83a0 	ldur	x0, [x29, #-72]
  401a84:	f9400817 	ldr	x23, [x0, #16]
  401a88:	b4000d77 	cbz	x23, 401c34 <_nl_find_msg+0x204>
  401a8c:	f94032e0 	ldr	x0, [x23, #96]
  401a90:	b9402af3 	ldr	w19, [x23, #40]
  401a94:	b40009e0 	cbz	x0, 401bd0 <_nl_find_msg+0x1a0>
  401a98:	aa1803e0 	mov	x0, x24
  401a9c:	97fffa19 	bl	400300 <.plt+0x60>
  401aa0:	aa0003fa 	mov	x26, x0
  401aa4:	aa1803e0 	mov	x0, x24
  401aa8:	94000fde 	bl	405a20 <__hash_string>
  401aac:	b9406af4 	ldr	w20, [x23, #104]
  401ab0:	b9405ae3 	ldr	w3, [x23, #88]
  401ab4:	92407f42 	and	x2, x26, #0xffffffff
  401ab8:	f81c03a2 	stur	x2, [x29, #-64]
  401abc:	51000861 	sub	w1, w3, #0x2
  401ac0:	b81c83ba 	stur	w26, [x29, #-56]
  401ac4:	f94032f5 	ldr	x21, [x23, #96]
  401ac8:	1ac10804 	udiv	w4, w0, w1
  401acc:	1ac30802 	udiv	w2, w0, w3
  401ad0:	1b018084 	msub	w4, w4, w1, w0
  401ad4:	11000499 	add	w25, w4, #0x1
  401ad8:	1b03805a 	msub	w26, w2, w3, w0
  401adc:	4b19007b 	sub	w27, w3, w25
  401ae0:	4b030336 	sub	w22, w25, w3
  401ae4:	14000016 	b	401b3c <_nl_find_msg+0x10c>
  401ae8:	b9401aea 	ldr	w10, [x23, #24]
  401aec:	d37d7f80 	ubfiz	x0, x28, #3, #32
  401af0:	f9401ae1 	ldr	x1, [x23, #48]
  401af4:	8b00002b 	add	x11, x1, x0
  401af8:	b8606820 	ldr	w0, [x1, x0]
  401afc:	34000c2a 	cbz	w10, 401c80 <_nl_find_msg+0x250>
  401b00:	b85c83a1 	ldur	w1, [x29, #-56]
  401b04:	5ac00800 	rev	w0, w0
  401b08:	6b00003f 	cmp	w1, w0
  401b0c:	54000108 	b.hi	401b2c <_nl_find_msg+0xfc>  // b.pmore
  401b10:	b9400560 	ldr	w0, [x11, #4]
  401b14:	f94002e1 	ldr	x1, [x23]
  401b18:	5ac00800 	rev	w0, w0
  401b1c:	8b000021 	add	x1, x1, x0
  401b20:	aa1803e0 	mov	x0, x24
  401b24:	940065f7 	bl	41b300 <strcmp>
  401b28:	34000320 	cbz	w0, 401b8c <_nl_find_msg+0x15c>
  401b2c:	6b1a037f 	cmp	w27, w26
  401b30:	0b160340 	add	w0, w26, w22
  401b34:	0b190342 	add	w2, w26, w25
  401b38:	1a80805a 	csel	w26, w2, w0, hi  // hi = pmore
  401b3c:	b87a5aa1 	ldr	w1, [x21, w26, uxtw #2]
  401b40:	7100029f 	cmp	w20, #0x0
  401b44:	5ac00820 	rev	w0, w1
  401b48:	1a811001 	csel	w1, w0, w1, ne  // ne = any
  401b4c:	34000741 	cbz	w1, 401c34 <_nl_find_msg+0x204>
  401b50:	5100043c 	sub	w28, w1, #0x1
  401b54:	6b1c027f 	cmp	w19, w28
  401b58:	54fffc88 	b.hi	401ae8 <_nl_find_msg+0xb8>  // b.pmore
  401b5c:	4b130380 	sub	w0, w28, w19
  401b60:	f94026e1 	ldr	x1, [x23, #72]
  401b64:	d37cec00 	lsl	x0, x0, #4
  401b68:	8b000026 	add	x6, x1, x0
  401b6c:	f8606820 	ldr	x0, [x1, x0]
  401b70:	f85c03a1 	ldur	x1, [x29, #-64]
  401b74:	eb01001f 	cmp	x0, x1
  401b78:	54fffda9 	b.ls	401b2c <_nl_find_msg+0xfc>  // b.plast
  401b7c:	f94004c1 	ldr	x1, [x6, #8]
  401b80:	aa1803e0 	mov	x0, x24
  401b84:	940065df 	bl	41b300 <strcmp>
  401b88:	35fffd20 	cbnz	w0, 401b2c <_nl_find_msg+0xfc>
  401b8c:	aa1c03f6 	mov	x22, x28
  401b90:	2a1303fa 	mov	w26, w19
  401b94:	eb16035f 	cmp	x26, x22
  401b98:	54000848 	b.hi	401ca0 <_nl_find_msg+0x270>  // b.pmore
  401b9c:	cb1a02da 	sub	x26, x22, x26
  401ba0:	f9402ae0 	ldr	x0, [x23, #80]
  401ba4:	d37cef5a 	lsl	x26, x26, #4
  401ba8:	8b1a0001 	add	x1, x0, x26
  401bac:	f87a6800 	ldr	x0, [x0, x26]
  401bb0:	f81c83a0 	stur	x0, [x29, #-56]
  401bb4:	f9400438 	ldr	x24, [x1, #8]
  401bb8:	b85a83a0 	ldur	w0, [x29, #-88]
  401bbc:	350008e0 	cbnz	w0, 401cd8 <_nl_find_msg+0x2a8>
  401bc0:	f85a03a0 	ldur	x0, [x29, #-96]
  401bc4:	f85c83a1 	ldur	x1, [x29, #-56]
  401bc8:	f9000001 	str	x1, [x0]
  401bcc:	1400001b 	b	401c38 <_nl_find_msg+0x208>
  401bd0:	2a1303fa 	mov	w26, w19
  401bd4:	d280001b 	mov	x27, #0x0                   	// #0
  401bd8:	aa1a03fc 	mov	x28, x26
  401bdc:	d503201f 	nop
  401be0:	eb1b039f 	cmp	x28, x27
  401be4:	54000289 	b.ls	401c34 <_nl_find_msg+0x204>  // b.plast
  401be8:	8b1b0386 	add	x6, x28, x27
  401bec:	b9401ae0 	ldr	w0, [x23, #24]
  401bf0:	f9401ae2 	ldr	x2, [x23, #48]
  401bf4:	d341fcd6 	lsr	x22, x6, #1
  401bf8:	7100001f 	cmp	w0, #0x0
  401bfc:	aa1803e0 	mov	x0, x24
  401c00:	f94002e1 	ldr	x1, [x23]
  401c04:	8b160c42 	add	x2, x2, x22, lsl #3
  401c08:	b9400442 	ldr	w2, [x2, #4]
  401c0c:	5ac00843 	rev	w3, w2
  401c10:	1a830042 	csel	w2, w2, w3, eq  // eq = none
  401c14:	8b020021 	add	x1, x1, x2
  401c18:	940065ba 	bl	41b300 <strcmp>
  401c1c:	7100001f 	cmp	w0, #0x0
  401c20:	540002cb 	b.lt	401c78 <_nl_find_msg+0x248>  // b.tstop
  401c24:	54fffb80 	b.eq	401b94 <_nl_find_msg+0x164>  // b.none
  401c28:	910006db 	add	x27, x22, #0x1
  401c2c:	eb1b039f 	cmp	x28, x27
  401c30:	54fffdc8 	b.hi	401be8 <_nl_find_msg+0x1b8>  // b.pmore
  401c34:	d2800018 	mov	x24, #0x0                   	// #0
  401c38:	f85b03a0 	ldur	x0, [x29, #-80]
  401c3c:	f945f814 	ldr	x20, [x0, #3056]
  401c40:	f85f83a0 	ldur	x0, [x29, #-8]
  401c44:	f9400281 	ldr	x1, [x20]
  401c48:	eb010000 	subs	x0, x0, x1
  401c4c:	d2800001 	mov	x1, #0x0                   	// #0
  401c50:	54003101 	b.ne	402270 <_nl_find_msg+0x840>  // b.any
  401c54:	910003bf 	mov	sp, x29
  401c58:	aa1803e0 	mov	x0, x24
  401c5c:	a94153f3 	ldp	x19, x20, [sp, #16]
  401c60:	a9425bf5 	ldp	x21, x22, [sp, #32]
  401c64:	a94363f7 	ldp	x23, x24, [sp, #48]
  401c68:	a9446bf9 	ldp	x25, x26, [sp, #64]
  401c6c:	a94573fb 	ldp	x27, x28, [sp, #80]
  401c70:	a8c67bfd 	ldp	x29, x30, [sp], #96
  401c74:	d65f03c0 	ret
  401c78:	aa1603fc 	mov	x28, x22
  401c7c:	17ffffd9 	b	401be0 <_nl_find_msg+0x1b0>
  401c80:	b85c83a1 	ldur	w1, [x29, #-56]
  401c84:	6b00003f 	cmp	w1, w0
  401c88:	54fff528 	b.hi	401b2c <_nl_find_msg+0xfc>  // b.pmore
  401c8c:	b9400560 	ldr	w0, [x11, #4]
  401c90:	f94002e1 	ldr	x1, [x23]
  401c94:	17ffffa2 	b	401b1c <_nl_find_msg+0xec>
  401c98:	94000402 	bl	402ca0 <_nl_load_domain>
  401c9c:	17ffff79 	b	401a80 <_nl_find_msg+0x50>
  401ca0:	f9401ee1 	ldr	x1, [x23, #56]
  401ca4:	d37df2c0 	lsl	x0, x22, #3
  401ca8:	b9401ae2 	ldr	w2, [x23, #24]
  401cac:	8b000023 	add	x3, x1, x0
  401cb0:	b860683b 	ldr	w27, [x1, x0]
  401cb4:	f94002f8 	ldr	x24, [x23]
  401cb8:	b9400460 	ldr	w0, [x3, #4]
  401cbc:	34000702 	cbz	w2, 401d9c <_nl_find_msg+0x36c>
  401cc0:	5ac00800 	rev	w0, w0
  401cc4:	5ac00b7b 	rev	w27, w27
  401cc8:	8b000318 	add	x24, x24, x0
  401ccc:	11000760 	add	w0, w27, #0x1
  401cd0:	f81c83a0 	stur	x0, [x29, #-56]
  401cd4:	17ffffb9 	b	401bb8 <_nl_find_msg+0x188>
  401cd8:	f85983a0 	ldur	x0, [x29, #-104]
  401cdc:	b4000460 	cbz	x0, 401d68 <_nl_find_msg+0x338>
  401ce0:	f9400819 	ldr	x25, [x0, #16]
  401ce4:	b4000439 	cbz	x25, 401d68 <_nl_find_msg+0x338>
  401ce8:	910202e0 	add	x0, x23, #0x80
  401cec:	f81903a0 	stur	x0, [x29, #-112]
  401cf0:	94004ac0 	bl	4147f0 <___pthread_rwlock_rdlock>
  401cf4:	f9403efb 	ldr	x27, [x23, #120]
  401cf8:	8b1b0762 	add	x2, x27, x27, lsl #1
  401cfc:	d37df042 	lsl	x2, x2, #3
  401d00:	d100605c 	sub	x28, x2, #0x18
  401d04:	d503201f 	nop
  401d08:	b4000f3b 	cbz	x27, 401eec <_nl_find_msg+0x4bc>
  401d0c:	f9403ae0 	ldr	x0, [x23, #112]
  401d10:	d100077b 	sub	x27, x27, #0x1
  401d14:	aa1903e1 	mov	x1, x25
  401d18:	8b1c001a 	add	x26, x0, x28
  401d1c:	f87c6800 	ldr	x0, [x0, x28]
  401d20:	d100639c 	sub	x28, x28, #0x18
  401d24:	94006577 	bl	41b300 <strcmp>
  401d28:	35ffff00 	cbnz	w0, 401d08 <_nl_find_msg+0x2d8>
  401d2c:	f85903a0 	ldur	x0, [x29, #-112]
  401d30:	94004b58 	bl	414a90 <___pthread_rwlock_unlock>
  401d34:	f9400740 	ldr	x0, [x26, #8]
  401d38:	b100041f 	cmn	x0, #0x1
  401d3c:	54fff420 	b.eq	401bc0 <_nl_find_msg+0x190>  // b.none
  401d40:	f9400b40 	ldr	x0, [x26, #16]
  401d44:	b4001c80 	cbz	x0, 4020d4 <_nl_find_msg+0x6a4>
  401d48:	b100041f 	cmn	x0, #0x1
  401d4c:	54001f00 	b.eq	40212c <_nl_find_msg+0x6fc>  // b.none
  401d50:	f8767800 	ldr	x0, [x0, x22, lsl #3]
  401d54:	b4000480 	cbz	x0, 401de4 <_nl_find_msg+0x3b4>
  401d58:	aa0003f8 	mov	x24, x0
  401d5c:	f8408700 	ldr	x0, [x24], #8
  401d60:	f81c83a0 	stur	x0, [x29, #-56]
  401d64:	17ffff97 	b	401bc0 <_nl_find_msg+0x190>
  401d68:	90000edc 	adrp	x28, 5d9000 <user_memory_pressure_sink>
  401d6c:	91228380 	add	x0, x28, #0x8a0
  401d70:	b9401801 	ldr	w1, [x0, #24]
  401d74:	340001c1 	cbz	w1, 401dac <_nl_find_msg+0x37c>
  401d78:	f9401019 	ldr	x25, [x0, #32]
  401d7c:	b5fffb79 	cbnz	x25, 401ce8 <_nl_find_msg+0x2b8>
  401d80:	b0000480 	adrp	x0, 492000 <tunable_list+0x528>
  401d84:	f946cc00 	ldr	x0, [x0, #3480]
  401d88:	d53bd041 	mrs	x1, tpidr_el0
  401d8c:	f8606820 	ldr	x0, [x1, x0]
  401d90:	f9400000 	ldr	x0, [x0]
  401d94:	f9405819 	ldr	x25, [x0, #176]
  401d98:	17ffffd4 	b	401ce8 <_nl_find_msg+0x2b8>
  401d9c:	8b204318 	add	x24, x24, w0, uxtw
  401da0:	11000760 	add	w0, w27, #0x1
  401da4:	f81c83a0 	stur	x0, [x29, #-56]
  401da8:	17ffff84 	b	401bb8 <_nl_find_msg+0x188>
  401dac:	900002c0 	adrp	x0, 459000 <free_slotinfo+0x30>
  401db0:	9114c000 	add	x0, x0, #0x530
  401db4:	9400112b 	bl	406260 <getenv>
  401db8:	aa0003fa 	mov	x26, x0
  401dbc:	b4000060 	cbz	x0, 401dc8 <_nl_find_msg+0x398>
  401dc0:	39400001 	ldrb	w1, [x0]
  401dc4:	35001b81 	cbnz	w1, 402134 <_nl_find_msg+0x704>
  401dc8:	91228380 	add	x0, x28, #0x8a0
  401dcc:	f9401019 	ldr	x25, [x0, #32]
  401dd0:	9122839c 	add	x28, x28, #0x8a0
  401dd4:	52800020 	mov	w0, #0x1                   	// #1
  401dd8:	b9001b80 	str	w0, [x28, #24]
  401ddc:	b5fff879 	cbnz	x25, 401ce8 <_nl_find_msg+0x2b8>
  401de0:	17ffffe8 	b	401d80 <_nl_find_msg+0x350>
  401de4:	90000edc 	adrp	x28, 5d9000 <user_memory_pressure_sink>
  401de8:	91228393 	add	x19, x28, #0x8a0
  401dec:	9100a273 	add	x19, x19, #0x28
  401df0:	52800021 	mov	w1, #0x1                   	// #1
  401df4:	aa1303e2 	mov	x2, x19
  401df8:	940144ba 	bl	4530e0 <__aarch64_cas4_acq>
  401dfc:	35001fa0 	cbnz	w0, 4021f0 <_nl_find_msg+0x7c0>
  401e00:	91228399 	add	x25, x28, #0x8a0
  401e04:	d100c3a0 	sub	x0, x29, #0x30
  401e08:	f81b83a0 	stur	x0, [x29, #-72]
  401e0c:	d10083b7 	sub	x23, x29, #0x20
  401e10:	d100a3b5 	sub	x21, x29, #0x28
  401e14:	52800013 	mov	w19, #0x0                   	// #0
  401e18:	f9401b20 	ldr	x0, [x25, #48]
  401e1c:	d281fe1b 	mov	x27, #0xff0                 	// #4080
  401e20:	f9401f21 	ldr	x1, [x25, #56]
  401e24:	91002000 	add	x0, x0, #0x8
  401e28:	f81d03b8 	stur	x24, [x29, #-48]
  401e2c:	f81d83a0 	stur	x0, [x29, #-40]
  401e30:	f1001c3f 	cmp	x1, #0x7
  401e34:	54000209 	b.ls	401e74 <_nl_find_msg+0x444>  // b.plast
  401e38:	d1002024 	sub	x4, x1, #0x8
  401e3c:	aa1703e5 	mov	x5, x23
  401e40:	a97c8ba1 	ldp	x1, x2, [x29, #-56]
  401e44:	aa1503e3 	mov	x3, x21
  401e48:	f85d83a9 	ldur	x9, [x29, #-40]
  401e4c:	f9400740 	ldr	x0, [x26, #8]
  401e50:	8b040124 	add	x4, x9, x4
  401e54:	8b010042 	add	x2, x2, x1
  401e58:	f85b83a1 	ldur	x1, [x29, #-72]
  401e5c:	94008ea9 	bl	425900 <__gconv>
  401e60:	721d781f 	tst	w0, #0xfffffffb
  401e64:	54001920 	b.eq	402188 <_nl_find_msg+0x758>  // b.none
  401e68:	7100141f 	cmp	w0, #0x5
  401e6c:	540017c1 	b.ne	402164 <_nl_find_msg+0x734>  // b.any
  401e70:	f81d03b8 	stur	x24, [x29, #-48]
  401e74:	340002b3 	cbz	w19, 401ec8 <_nl_find_msg+0x498>
  401e78:	11000673 	add	w19, w19, #0x1
  401e7c:	f9400b22 	ldr	x2, [x25, #16]
  401e80:	53185e61 	lsl	w1, w19, #8
  401e84:	4b130021 	sub	w1, w1, w19
  401e88:	f81c03a2 	stur	x2, [x29, #-64]
  401e8c:	aa0203e0 	mov	x0, x2
  401e90:	531c6c21 	lsl	w1, w1, #4
  401e94:	93407c34 	sxtw	x20, w1
  401e98:	f9001f34 	str	x20, [x25, #56]
  401e9c:	aa1403e1 	mov	x1, x20
  401ea0:	94005fa5 	bl	419d34 <__libc_realloc>
  401ea4:	f85c03a2 	ldur	x2, [x29, #-64]
  401ea8:	b4000540 	cbz	x0, 401f50 <_nl_find_msg+0x520>
  401eac:	d1002281 	sub	x1, x20, #0x8
  401eb0:	91002002 	add	x2, x0, #0x8
  401eb4:	91004003 	add	x3, x0, #0x10
  401eb8:	f81d83a3 	stur	x3, [x29, #-40]
  401ebc:	f9000b20 	str	x0, [x25, #16]
  401ec0:	a9030722 	stp	x2, x1, [x25, #48]
  401ec4:	17ffffdb 	b	401e30 <_nl_find_msg+0x400>
  401ec8:	d281fe00 	mov	x0, #0xff0                 	// #4080
  401ecc:	f9001f3b 	str	x27, [x25, #56]
  401ed0:	94005da4 	bl	419560 <__libc_malloc>
  401ed4:	b4000460 	cbz	x0, 401f60 <_nl_find_msg+0x530>
  401ed8:	f9400b22 	ldr	x2, [x25, #16]
  401edc:	d281fd01 	mov	x1, #0xfe8                 	// #4072
  401ee0:	52800033 	mov	w19, #0x1                   	// #1
  401ee4:	f9000002 	str	x2, [x0]
  401ee8:	17fffff2 	b	401eb0 <_nl_find_msg+0x480>
  401eec:	f85903b4 	ldur	x20, [x29, #-112]
  401ef0:	aa1403e0 	mov	x0, x20
  401ef4:	94004ae7 	bl	414a90 <___pthread_rwlock_unlock>
  401ef8:	aa1403e0 	mov	x0, x20
  401efc:	94004b71 	bl	414cc0 <___pthread_rwlock_wrlock>
  401f00:	a9470ae1 	ldp	x1, x2, [x23, #112]
  401f04:	8b020440 	add	x0, x2, x2, lsl #1
  401f08:	aa0103f5 	mov	x21, x1
  401f0c:	d37df000 	lsl	x0, x0, #3
  401f10:	d1006003 	sub	x3, x0, #0x18
  401f14:	aa0003f4 	mov	x20, x0
  401f18:	8b030023 	add	x3, x1, x3
  401f1c:	d503201f 	nop
  401f20:	b4000382 	cbz	x2, 401f90 <_nl_find_msg+0x560>
  401f24:	aa0303fa 	mov	x26, x3
  401f28:	d1000442 	sub	x2, x2, #0x1
  401f2c:	f85e8460 	ldr	x0, [x3], #-24
  401f30:	aa1903e1 	mov	x1, x25
  401f34:	f81a83a2 	stur	x2, [x29, #-88]
  401f38:	f81c03a3 	stur	x3, [x29, #-64]
  401f3c:	940064f1 	bl	41b300 <strcmp>
  401f40:	f85a83a2 	ldur	x2, [x29, #-88]
  401f44:	f85c03a3 	ldur	x3, [x29, #-64]
  401f48:	35fffec0 	cbnz	w0, 401f20 <_nl_find_msg+0x4f0>
  401f4c:	17ffff78 	b	401d2c <_nl_find_msg+0x2fc>
  401f50:	f9400041 	ldr	x1, [x2]
  401f54:	aa0203e0 	mov	x0, x2
  401f58:	f9000b21 	str	x1, [x25, #16]
  401f5c:	94005ee5 	bl	419af0 <__free>
  401f60:	9122839c 	add	x28, x28, #0x8a0
  401f64:	52800000 	mov	w0, #0x0                   	// #0
  401f68:	9100a393 	add	x19, x28, #0x28
  401f6c:	92800018 	mov	x24, #0xffffffffffffffff    	// #-1
  401f70:	aa1303e1 	mov	x1, x19
  401f74:	a9037f9f 	stp	xzr, xzr, [x28, #48]
  401f78:	940144ee 	bl	453330 <__aarch64_swp4_rel>
  401f7c:	7100041f 	cmp	w0, #0x1
  401f80:	54ffe5cd 	b.le	401c38 <_nl_find_msg+0x208>
  401f84:	aa1303e0 	mov	x0, x19
  401f88:	94004946 	bl	4144a0 <__lll_lock_wake_private>
  401f8c:	17ffff2b 	b	401c38 <_nl_find_msg+0x208>
  401f90:	91006280 	add	x0, x20, #0x18
  401f94:	b4001295 	cbz	x21, 4021e4 <_nl_find_msg+0x7b4>
  401f98:	aa0003e1 	mov	x1, x0
  401f9c:	aa1503e0 	mov	x0, x21
  401fa0:	94005f65 	bl	419d34 <__libc_realloc>
  401fa4:	aa0003e1 	mov	x1, x0
  401fa8:	b40013c1 	cbz	x1, 402220 <_nl_find_msg+0x7f0>
  401fac:	f9003ae1 	str	x1, [x23, #112]
  401fb0:	aa1903e0 	mov	x0, x25
  401fb4:	f81c03a1 	stur	x1, [x29, #-64]
  401fb8:	940065c2 	bl	41b6c0 <__strdup>
  401fbc:	aa0003f9 	mov	x25, x0
  401fc0:	b4001300 	cbz	x0, 402220 <_nl_find_msg+0x7f0>
  401fc4:	f85c03a1 	ldur	x1, [x29, #-64]
  401fc8:	92800003 	mov	x3, #0xffffffffffffffff    	// #-1
  401fcc:	900002c2 	adrp	x2, 459000 <free_slotinfo+0x30>
  401fd0:	d100a3a4 	sub	x4, x29, #0x28
  401fd4:	8b14003a 	add	x26, x1, x20
  401fd8:	912a8042 	add	x2, x2, #0xaa0
  401fdc:	f8346820 	str	x0, [x1, x20]
  401fe0:	f85983a1 	ldur	x1, [x29, #-104]
  401fe4:	f9000743 	str	x3, [x26, #8]
  401fe8:	f85b83a0 	ldur	x0, [x29, #-72]
  401fec:	52800003 	mov	w3, #0x0                   	// #0
  401ff0:	97fffe90 	bl	401a30 <_nl_find_msg>
  401ff4:	b100041f 	cmn	x0, #0x1
  401ff8:	54001220 	b.eq	40223c <_nl_find_msg+0x80c>  // b.none
  401ffc:	b4000620 	cbz	x0, 4020c0 <_nl_find_msg+0x690>
  402000:	f00002a1 	adrp	x1, 459000 <free_slotinfo+0x30>
  402004:	91150021 	add	x1, x1, #0x540
  402008:	940067d6 	bl	41bf60 <strstr>
  40200c:	b40005a0 	cbz	x0, 4020c0 <_nl_find_msg+0x690>
  402010:	91002015 	add	x21, x0, #0x8
  402014:	f00002a1 	adrp	x1, 459000 <free_slotinfo+0x30>
  402018:	aa1503e0 	mov	x0, x21
  40201c:	91154021 	add	x1, x1, #0x550
  402020:	94006550 	bl	41b560 <strcspn>
  402024:	aa0003f4 	mov	x20, x0
  402028:	91004000 	add	x0, x0, #0x10
  40202c:	9270bc01 	and	x1, x0, #0xffffffffffff0000
  402030:	927cec00 	and	x0, x0, #0xfffffffffffffff0
  402034:	cb2163e1 	sub	x1, sp, x1
  402038:	eb2163ff 	cmp	sp, x1
  40203c:	540000a0 	b.eq	402050 <_nl_find_msg+0x620>  // b.none
  402040:	d14043ff 	sub	sp, sp, #0x10, lsl #12
  402044:	f90203ff 	str	xzr, [sp, #1024]
  402048:	eb2163ff 	cmp	sp, x1
  40204c:	54ffffa1 	b.ne	402040 <_nl_find_msg+0x610>  // b.any
  402050:	92403c00 	and	x0, x0, #0xffff
  402054:	cb2063ff 	sub	sp, sp, x0
  402058:	f90003ff 	str	xzr, [sp]
  40205c:	f110001f 	cmp	x0, #0x400
  402060:	54000043 	b.cc	402068 <_nl_find_msg+0x638>  // b.lo, b.ul, b.last
  402064:	f90203ff 	str	xzr, [sp, #1024]
  402068:	910043e3 	add	x3, sp, #0x10
  40206c:	aa1503e1 	mov	x1, x21
  402070:	aa1403e2 	mov	x2, x20
  402074:	aa0303e0 	mov	x0, x3
  402078:	d10083b5 	sub	x21, x29, #0x20
  40207c:	97fff88d 	bl	4002b0 <.plt+0x10>
  402080:	aa0003e3 	mov	x3, x0
  402084:	aa0003e1 	mov	x1, x0
  402088:	aa1903e2 	mov	x2, x25
  40208c:	aa1503e0 	mov	x0, x21
  402090:	3834687f 	strb	wzr, [x3, x20]
  402094:	9400b38b 	bl	42eec0 <__gconv_create_spec>
  402098:	52800023 	mov	w3, #0x1                   	// #1
  40209c:	91002341 	add	x1, x26, #0x8
  4020a0:	52800022 	mov	w2, #0x1                   	// #1
  4020a4:	aa1503e0 	mov	x0, x21
  4020a8:	381f03a3 	sturb	w3, [x29, #-16]
  4020ac:	94008d29 	bl	425550 <__gconv_open>
  4020b0:	2a0003f4 	mov	w20, w0
  4020b4:	aa1503e0 	mov	x0, x21
  4020b8:	9400b43a 	bl	42f1a0 <__gconv_destroy_spec>
  4020bc:	35000cb4 	cbnz	w20, 402250 <_nl_find_msg+0x820>
  4020c0:	f9403ee0 	ldr	x0, [x23, #120]
  4020c4:	f9000b5f 	str	xzr, [x26, #16]
  4020c8:	91000400 	add	x0, x0, #0x1
  4020cc:	f9003ee0 	str	x0, [x23, #120]
  4020d0:	17ffff17 	b	401d2c <_nl_find_msg+0x2fc>
  4020d4:	f0000ebc 	adrp	x28, 5d9000 <user_memory_pressure_sink>
  4020d8:	91228395 	add	x21, x28, #0x8a0
  4020dc:	9100a2b5 	add	x21, x21, #0x28
  4020e0:	52800021 	mov	w1, #0x1                   	// #1
  4020e4:	aa1503e2 	mov	x2, x21
  4020e8:	940143fe 	bl	4530e0 <__aarch64_cas4_acq>
  4020ec:	35000a20 	cbnz	w0, 402230 <_nl_find_msg+0x800>
  4020f0:	f9400b40 	ldr	x0, [x26, #16]
  4020f4:	b4000840 	cbz	x0, 4021fc <_nl_find_msg+0x7cc>
  4020f8:	91228393 	add	x19, x28, #0x8a0
  4020fc:	52800000 	mov	w0, #0x0                   	// #0
  402100:	9100a273 	add	x19, x19, #0x28
  402104:	aa1303e1 	mov	x1, x19
  402108:	9401448a 	bl	453330 <__aarch64_swp4_rel>
  40210c:	7100041f 	cmp	w0, #0x1
  402110:	5400006c 	b.gt	40211c <_nl_find_msg+0x6ec>
  402114:	f9400b40 	ldr	x0, [x26, #16]
  402118:	17ffff0c 	b	401d48 <_nl_find_msg+0x318>
  40211c:	aa1303e0 	mov	x0, x19
  402120:	940048e0 	bl	4144a0 <__lll_lock_wake_private>
  402124:	f9400b40 	ldr	x0, [x26, #16]
  402128:	17ffff08 	b	401d48 <_nl_find_msg+0x318>
  40212c:	aa0003f8 	mov	x24, x0
  402130:	17fffec2 	b	401c38 <_nl_find_msg+0x208>
  402134:	97fff873 	bl	400300 <.plt+0x60>
  402138:	9100041b 	add	x27, x0, #0x1
  40213c:	aa1b03e0 	mov	x0, x27
  402140:	94005d08 	bl	419560 <__libc_malloc>
  402144:	aa0003f9 	mov	x25, x0
  402148:	b4000080 	cbz	x0, 402158 <_nl_find_msg+0x728>
  40214c:	aa1b03e2 	mov	x2, x27
  402150:	aa1a03e1 	mov	x1, x26
  402154:	97fff857 	bl	4002b0 <.plt+0x10>
  402158:	91228380 	add	x0, x28, #0x8a0
  40215c:	f9001019 	str	x25, [x0, #32]
  402160:	17ffff1c 	b	401dd0 <_nl_find_msg+0x3a0>
  402164:	91228393 	add	x19, x28, #0x8a0
  402168:	52800000 	mov	w0, #0x0                   	// #0
  40216c:	9100a273 	add	x19, x19, #0x28
  402170:	d2800018 	mov	x24, #0x0                   	// #0
  402174:	aa1303e1 	mov	x1, x19
  402178:	9401446e 	bl	453330 <__aarch64_swp4_rel>
  40217c:	7100041f 	cmp	w0, #0x1
  402180:	54ffd5cd 	b.le	401c38 <_nl_find_msg+0x208>
  402184:	17ffff80 	b	401f84 <_nl_find_msg+0x554>
  402188:	9122839c 	add	x28, x28, #0x8a0
  40218c:	d37df2d3 	lsl	x19, x22, #3
  402190:	f85d83a3 	ldur	x3, [x29, #-40]
  402194:	9100a395 	add	x21, x28, #0x28
  402198:	a9430b84 	ldp	x4, x2, [x28, #48]
  40219c:	aa1503e1 	mov	x1, x21
  4021a0:	f9400b47 	ldr	x7, [x26, #16]
  4021a4:	52800000 	mov	w0, #0x0                   	// #0
  4021a8:	cb040065 	sub	x5, x3, x4
  4021ac:	cb050042 	sub	x2, x2, x5
  4021b0:	d10020a8 	sub	x8, x5, #0x8
  4021b4:	f9000088 	str	x8, [x4]
  4021b8:	f83678e4 	str	x4, [x7, x22, lsl #3]
  4021bc:	92400844 	and	x4, x2, #0x7
  4021c0:	8b040063 	add	x3, x3, x4
  4021c4:	927df042 	and	x2, x2, #0xfffffffffffffff8
  4021c8:	a9030b83 	stp	x3, x2, [x28, #48]
  4021cc:	94014459 	bl	453330 <__aarch64_swp4_rel>
  4021d0:	7100041f 	cmp	w0, #0x1
  4021d4:	5400038c 	b.gt	402244 <_nl_find_msg+0x814>
  4021d8:	f9400b40 	ldr	x0, [x26, #16]
  4021dc:	f8736800 	ldr	x0, [x0, x19]
  4021e0:	17fffede 	b	401d58 <_nl_find_msg+0x328>
  4021e4:	94005cdf 	bl	419560 <__libc_malloc>
  4021e8:	aa0003e1 	mov	x1, x0
  4021ec:	17ffff6f 	b	401fa8 <_nl_find_msg+0x578>
  4021f0:	aa1303e0 	mov	x0, x19
  4021f4:	94004867 	bl	414390 <__lll_lock_wait_private>
  4021f8:	17ffff02 	b	401e00 <_nl_find_msg+0x3d0>
  4021fc:	b94042e0 	ldr	w0, [x23, #64]
  402200:	d2800101 	mov	x1, #0x8                   	// #8
  402204:	0b000260 	add	w0, w19, w0
  402208:	9400605a 	bl	41a370 <__calloc>
  40220c:	f9000b40 	str	x0, [x26, #16]
  402210:	b5ffdf80 	cbnz	x0, 401e00 <_nl_find_msg+0x3d0>
  402214:	92800000 	mov	x0, #0xffffffffffffffff    	// #-1
  402218:	f9000b40 	str	x0, [x26, #16]
  40221c:	17ffffb7 	b	4020f8 <_nl_find_msg+0x6c8>
  402220:	f85903a0 	ldur	x0, [x29, #-112]
  402224:	92800018 	mov	x24, #0xffffffffffffffff    	// #-1
  402228:	94004a1a 	bl	414a90 <___pthread_rwlock_unlock>
  40222c:	17fffe83 	b	401c38 <_nl_find_msg+0x208>
  402230:	aa1503e0 	mov	x0, x21
  402234:	94004857 	bl	414390 <__lll_lock_wait_private>
  402238:	17ffffae 	b	4020f0 <_nl_find_msg+0x6c0>
  40223c:	aa0003f8 	mov	x24, x0
  402240:	17fffe7e 	b	401c38 <_nl_find_msg+0x208>
  402244:	aa1503e0 	mov	x0, x21
  402248:	94004896 	bl	4144a0 <__lll_lock_wake_private>
  40224c:	17ffffe3 	b	4021d8 <_nl_find_msg+0x7a8>
  402250:	3100069f 	cmn	w20, #0x1
  402254:	54000100 	b.eq	402274 <_nl_find_msg+0x844>  // b.none
  402258:	f85903a0 	ldur	x0, [x29, #-112]
  40225c:	d2800018 	mov	x24, #0x0                   	// #0
  402260:	94004a0c 	bl	414a90 <___pthread_rwlock_unlock>
  402264:	aa1903e0 	mov	x0, x25
  402268:	94005e22 	bl	419af0 <__free>
  40226c:	17fffe73 	b	401c38 <_nl_find_msg+0x208>
  402270:	940082b4 	bl	422d40 <__stack_chk_fail>
  402274:	92800000 	mov	x0, #0xffffffffffffffff    	// #-1
  402278:	f9000740 	str	x0, [x26, #8]
  40227c:	17ffff91 	b	4020c0 <_nl_find_msg+0x690>

0000000000402280 <__dcigettext>:
  402280:	a9ba7bfd 	stp	x29, x30, [sp, #-96]!
  402284:	910003fd 	mov	x29, sp
  402288:	a90153f3 	stp	x19, x20, [sp, #16]
  40228c:	a9025bf5 	stp	x21, x22, [sp, #32]
  402290:	90000496 	adrp	x22, 492000 <tunable_list+0x528>
  402294:	a90363f7 	stp	x23, x24, [sp, #48]
  402298:	a9046bf9 	stp	x25, x26, [sp, #64]
  40229c:	a90573fb 	stp	x27, x28, [sp, #80]
  4022a0:	d10403ff 	sub	sp, sp, #0x100
  4022a4:	f945fac6 	ldr	x6, [x22, #3056]
  4022a8:	f94000c7 	ldr	x7, [x6]
  4022ac:	f81f83a7 	stur	x7, [x29, #-8]
  4022b0:	d2800007 	mov	x7, #0x0                   	// #0
  4022b4:	f81503a2 	stur	x2, [x29, #-176]
  4022b8:	f81903a4 	stur	x4, [x29, #-112]
  4022bc:	b81983a3 	stur	w3, [x29, #-104]
  4022c0:	f81a83bf 	stur	xzr, [x29, #-88]
  4022c4:	b40026a1 	cbz	x1, 402798 <__dcigettext+0x518>
  4022c8:	710030bf 	cmp	w5, #0xc
  4022cc:	aa0103f5 	mov	x21, x1
  4022d0:	2a0503f7 	mov	w23, w5
  4022d4:	7a4698a4 	ccmp	w5, #0x6, #0x4, ls  // ls = plast
  4022d8:	54000281 	b.ne	402328 <__dcigettext+0xa8>  // b.any
  4022dc:	7100007f 	cmp	w3, #0x0
  4022e0:	fa411884 	ccmp	x4, #0x1, #0x4, ne  // ne = any
  4022e4:	54002161 	b.ne	402710 <__dcigettext+0x490>  // b.any
  4022e8:	aa1503e3 	mov	x3, x21
  4022ec:	f945fad6 	ldr	x22, [x22, #3056]
  4022f0:	f85f83a0 	ldur	x0, [x29, #-8]
  4022f4:	f94002c1 	ldr	x1, [x22]
  4022f8:	eb010000 	subs	x0, x0, x1
  4022fc:	d2800001 	mov	x1, #0x0                   	// #0
  402300:	540038c1 	b.ne	402a18 <__dcigettext+0x798>  // b.any
  402304:	910003bf 	mov	sp, x29
  402308:	aa0303e0 	mov	x0, x3
  40230c:	a94153f3 	ldp	x19, x20, [sp, #16]
  402310:	a9425bf5 	ldp	x21, x22, [sp, #32]
  402314:	a94363f7 	ldp	x23, x24, [sp, #48]
  402318:	a9446bf9 	ldp	x25, x26, [sp, #64]
  40231c:	a94573fb 	ldp	x27, x28, [sp, #80]
  402320:	a8c67bfd 	ldp	x29, x30, [sp], #96
  402324:	d65f03c0 	ret
  402328:	90000481 	adrp	x1, 492000 <tunable_list+0x528>
  40232c:	f946f021 	ldr	x1, [x1, #3552]
  402330:	d53bd042 	mrs	x2, tpidr_el0
  402334:	aa0003f4 	mov	x20, x0
  402338:	90000ee0 	adrp	x0, 5de000 <_dl_stack_user>
  40233c:	a93603a1 	stp	x1, x0, [x29, #-160]
  402340:	f0000ea3 	adrp	x3, 5d9000 <user_memory_pressure_sink>
  402344:	f0fffff9 	adrp	x25, 401000 <__libc_start_main+0xe0>
  402348:	b8616841 	ldr	w1, [x2, x1]
  40234c:	91228073 	add	x19, x3, #0x8a0
  402350:	9103a000 	add	x0, x0, #0xe8
  402354:	f81383b9 	stur	x25, [x29, #-200]
  402358:	f81703a2 	stur	x2, [x29, #-144]
  40235c:	9101e278 	add	x24, x19, #0x78
  402360:	b817c3a1 	stur	w1, [x29, #-132]
  402364:	f81803a3 	stur	x3, [x29, #-128]
  402368:	94004922 	bl	4147f0 <___pthread_rwlock_rdlock>
  40236c:	91010260 	add	x0, x19, #0x40
  402370:	94004920 	bl	4147f0 <___pthread_rwlock_rdlock>
  402374:	b0000481 	adrp	x1, 493000 <.got.plt+0x18>
  402378:	f100029f 	cmp	x20, #0x0
  40237c:	2a1703e0 	mov	w0, w23
  402380:	b81c03b7 	stur	w23, [x29, #-64]
  402384:	f9402c21 	ldr	x1, [x1, #88]
  402388:	f81d83bf 	stur	xzr, [x29, #-40]
  40238c:	f81f03b5 	stur	x21, [x29, #-16]
  402390:	9a940034 	csel	x20, x1, x20, eq  // eq = none
  402394:	f81b83b4 	stur	x20, [x29, #-72]
  402398:	9400ba8e 	bl	430dd0 <__current_locale_name>
  40239c:	aa0003e1 	mov	x1, x0
  4023a0:	aa1803e0 	mov	x0, x24
  4023a4:	f81403a1 	stur	x1, [x29, #-192]
  4023a8:	f81c83a1 	stur	x1, [x29, #-56]
  4023ac:	94004911 	bl	4147f0 <___pthread_rwlock_rdlock>
  4023b0:	91002261 	add	x1, x19, #0x8
  4023b4:	9126c322 	add	x2, x25, #0x9b0
  4023b8:	d10123a0 	sub	x0, x29, #0x48
  4023bc:	94007c79 	bl	4215a0 <__tfind>
  4023c0:	aa0003e1 	mov	x1, x0
  4023c4:	aa1803e0 	mov	x0, x24
  4023c8:	aa0103f3 	mov	x19, x1
  4023cc:	f81483a1 	stur	x1, [x29, #-184]
  4023d0:	940049b0 	bl	414a90 <___pthread_rwlock_unlock>
  4023d4:	b40000f3 	cbz	x19, 4023f0 <__dcigettext+0x170>
  4023d8:	f94652c0 	ldr	x0, [x22, #3232]
  4023dc:	f9400262 	ldr	x2, [x19]
  4023e0:	b9400000 	ldr	w0, [x0]
  4023e4:	b9401841 	ldr	w1, [x2, #24]
  4023e8:	6b00003f 	cmp	w1, w0
  4023ec:	54001da0 	b.eq	4027a0 <__dcigettext+0x520>  // b.none
  4023f0:	f85803a0 	ldur	x0, [x29, #-128]
  4023f4:	f9445013 	ldr	x19, [x0, #2208]
  4023f8:	b50000b3 	cbnz	x19, 40240c <__dcigettext+0x18c>
  4023fc:	140000e0 	b	40277c <__dcigettext+0x4fc>
  402400:	54001c4b 	b.lt	402788 <__dcigettext+0x508>  // b.tstop
  402404:	f9400273 	ldr	x19, [x19]
  402408:	b4001bb3 	cbz	x19, 40277c <__dcigettext+0x4fc>
  40240c:	91006261 	add	x1, x19, #0x18
  402410:	aa1403e0 	mov	x0, x20
  402414:	940063bb 	bl	41b300 <strcmp>
  402418:	7100001f 	cmp	w0, #0x0
  40241c:	35ffff20 	cbnz	w0, 402400 <__dcigettext+0x180>
  402420:	f9400678 	ldr	x24, [x19, #8]
  402424:	39400300 	ldrb	w0, [x24]
  402428:	7100bc1f 	cmp	w0, #0x2f
  40242c:	54001761 	b.ne	402718 <__dcigettext+0x498>  // b.any
  402430:	900002e2 	adrp	x2, 45e000 <__PRETTY_FUNCTION__.20+0x98>
  402434:	91050042 	add	x2, x2, #0x140
  402438:	900002e1 	adrp	x1, 45e000 <__PRETTY_FUNCTION__.20+0x98>
  40243c:	9102c021 	add	x1, x1, #0xb0
  402440:	2a1703e0 	mov	w0, w23
  402444:	3877c85a 	ldrb	w26, [x2, w23, sxtw]
  402448:	8b01035a 	add	x26, x26, x1
  40244c:	9400ba61 	bl	430dd0 <__current_locale_name>
  402450:	aa0003f9 	mov	x25, x0
  402454:	39400000 	ldrb	w0, [x0]
  402458:	71010c1f 	cmp	w0, #0x43
  40245c:	54001801 	b.ne	40275c <__dcigettext+0x4dc>  // b.any
  402460:	39400720 	ldrb	w0, [x25, #1]
  402464:	350017c0 	cbnz	w0, 40275c <__dcigettext+0x4dc>
  402468:	aa1403e0 	mov	x0, x20
  40246c:	97fff7a5 	bl	400300 <.plt+0x60>
  402470:	aa0003e1 	mov	x1, x0
  402474:	aa1a03e0 	mov	x0, x26
  402478:	aa0103fb 	mov	x27, x1
  40247c:	f81303a1 	stur	x1, [x29, #-208]
  402480:	97fff7a0 	bl	400300 <.plt+0x60>
  402484:	8b1b0000 	add	x0, x0, x27
  402488:	91005000 	add	x0, x0, #0x14
  40248c:	9100eb62 	add	x2, x27, #0x3a
  402490:	9270bc01 	and	x1, x0, #0xffffffffffff0000
  402494:	f81283a2 	stur	x2, [x29, #-216]
  402498:	cb2163e1 	sub	x1, sp, x1
  40249c:	927cec00 	and	x0, x0, #0xfffffffffffffff0
  4024a0:	eb2163ff 	cmp	sp, x1
  4024a4:	540000a0 	b.eq	4024b8 <__dcigettext+0x238>  // b.none
  4024a8:	d14043ff 	sub	sp, sp, #0x10, lsl #12
  4024ac:	f90203ff 	str	xzr, [sp, #1024]
  4024b0:	eb2163ff 	cmp	sp, x1
  4024b4:	54ffffa1 	b.ne	4024a8 <__dcigettext+0x228>  // b.any
  4024b8:	92403c00 	and	x0, x0, #0xffff
  4024bc:	cb2063ff 	sub	sp, sp, x0
  4024c0:	f90003ff 	str	xzr, [sp]
  4024c4:	f110001f 	cmp	x0, #0x400
  4024c8:	540018e2 	b.cs	4027e4 <__dcigettext+0x564>  // b.hs, b.nlast
  4024cc:	aa1a03e1 	mov	x1, x26
  4024d0:	910043e0 	add	x0, sp, #0x10
  4024d4:	f81883a0 	stur	x0, [x29, #-120]
  4024d8:	9400687a 	bl	41c6c0 <__stpcpy>
  4024dc:	f85303ba 	ldur	x26, [x29, #-208]
  4024e0:	528005e3 	mov	w3, #0x2f                  	// #47
  4024e4:	38001403 	strb	w3, [x0], #1
  4024e8:	aa1403e1 	mov	x1, x20
  4024ec:	aa1a03e2 	mov	x2, x26
  4024f0:	97fff770 	bl	4002b0 <.plt+0x10>
  4024f4:	aa0003e1 	mov	x1, x0
  4024f8:	528da5c2 	mov	w2, #0x6d2e                	// #27950
  4024fc:	aa1903e0 	mov	x0, x25
  402500:	72a00de2 	movk	w2, #0x6f, lsl #16
  402504:	b83a6822 	str	w2, [x1, x26]
  402508:	97fff77e 	bl	400300 <.plt+0x60>
  40250c:	91004000 	add	x0, x0, #0x10
  402510:	9270bc01 	and	x1, x0, #0xffffffffffff0000
  402514:	927cec00 	and	x0, x0, #0xfffffffffffffff0
  402518:	cb2163e1 	sub	x1, sp, x1
  40251c:	eb2163ff 	cmp	sp, x1
  402520:	540000a0 	b.eq	402534 <__dcigettext+0x2b4>  // b.none
  402524:	d14043ff 	sub	sp, sp, #0x10, lsl #12
  402528:	f90203ff 	str	xzr, [sp, #1024]
  40252c:	eb2163ff 	cmp	sp, x1
  402530:	54ffffa1 	b.ne	402524 <__dcigettext+0x2a4>  // b.any
  402534:	92403c00 	and	x0, x0, #0xffff
  402538:	cb2063ff 	sub	sp, sp, x0
  40253c:	f90003ff 	str	xzr, [sp]
  402540:	f110001f 	cmp	x0, #0x400
  402544:	54000043 	b.cc	40254c <__dcigettext+0x2cc>  // b.lo, b.ul, b.last
  402548:	f90203ff 	str	xzr, [sp, #1024]
  40254c:	910043fb 	add	x27, sp, #0x10
  402550:	d10143a0 	sub	x0, x29, #0x50
  402554:	f81583a0 	stur	x0, [x29, #-168]
  402558:	aa1b03e0 	mov	x0, x27
  40255c:	f00002ba 	adrp	x26, 459000 <free_slotinfo+0x30>
  402560:	aa1903fb 	mov	x27, x25
  402564:	9115c35a 	add	x26, x26, #0x570
  402568:	aa0003f9 	mov	x25, x0
  40256c:	d503201f 	nop
  402570:	39400360 	ldrb	w0, [x27]
  402574:	7100e81f 	cmp	w0, #0x3a
  402578:	540016c0 	b.eq	402850 <__dcigettext+0x5d0>  // b.none
  40257c:	350016e0 	cbnz	w0, 402858 <__dcigettext+0x5d8>
  402580:	52800860 	mov	w0, #0x43                  	// #67
  402584:	79000320 	strh	w0, [x25]
  402588:	39400320 	ldrb	w0, [x25]
  40258c:	71010c1f 	cmp	w0, #0x43
  402590:	54000061 	b.ne	40259c <__dcigettext+0x31c>  // b.any
  402594:	39400720 	ldrb	w0, [x25, #1]
  402598:	34000980 	cbz	w0, 4026c8 <__dcigettext+0x448>
  40259c:	aa1a03e1 	mov	x1, x26
  4025a0:	aa1903e0 	mov	x0, x25
  4025a4:	94006357 	bl	41b300 <strcmp>
  4025a8:	34000900 	cbz	w0, 4026c8 <__dcigettext+0x448>
  4025ac:	f85883a2 	ldur	x2, [x29, #-120]
  4025b0:	aa1303e3 	mov	x3, x19
  4025b4:	aa1903e1 	mov	x1, x25
  4025b8:	aa1803e0 	mov	x0, x24
  4025bc:	9400011d 	bl	402a30 <_nl_find_domain>
  4025c0:	aa0003fc 	mov	x28, x0
  4025c4:	b4fffd60 	cbz	x0, 402570 <__dcigettext+0x2f0>
  4025c8:	f85583a4 	ldur	x4, [x29, #-168]
  4025cc:	52800023 	mov	w3, #0x1                   	// #1
  4025d0:	aa1503e2 	mov	x2, x21
  4025d4:	aa1303e1 	mov	x1, x19
  4025d8:	97fffd16 	bl	401a30 <_nl_find_msg>
  4025dc:	aa0003e3 	mov	x3, x0
  4025e0:	b4000420 	cbz	x0, 402664 <__dcigettext+0x3e4>
  4025e4:	b100041f 	cmn	x0, #0x1
  4025e8:	54000700 	b.eq	4026c8 <__dcigettext+0x448>  // b.none
  4025ec:	f85a83a0 	ldur	x0, [x29, #-88]
  4025f0:	f81883a3 	stur	x3, [x29, #-120]
  4025f4:	94005d3f 	bl	419af0 <__free>
  4025f8:	f85483a0 	ldur	x0, [x29, #-184]
  4025fc:	f85883a3 	ldur	x3, [x29, #-120]
  402600:	b4001940 	cbz	x0, 402928 <__dcigettext+0x6a8>
  402604:	f85483a0 	ldur	x0, [x29, #-184]
  402608:	f94652c1 	ldr	x1, [x22, #3232]
  40260c:	f9400000 	ldr	x0, [x0]
  402610:	b9400021 	ldr	w1, [x1]
  402614:	f85b03a2 	ldur	x2, [x29, #-80]
  402618:	b9001801 	str	w1, [x0, #24]
  40261c:	a9020c1c 	stp	x28, x3, [x0, #32]
  402620:	f9001802 	str	x2, [x0, #48]
  402624:	f85603a1 	ldur	x1, [x29, #-160]
  402628:	f85703a0 	ldur	x0, [x29, #-144]
  40262c:	b857c3a2 	ldur	w2, [x29, #-132]
  402630:	b8216802 	str	w2, [x0, x1]
  402634:	b85983a0 	ldur	w0, [x29, #-104]
  402638:	35001460 	cbnz	w0, 4028c4 <__dcigettext+0x644>
  40263c:	f85803a0 	ldur	x0, [x29, #-128]
  402640:	f81983a3 	stur	x3, [x29, #-104]
  402644:	91228000 	add	x0, x0, #0x8a0
  402648:	91010000 	add	x0, x0, #0x40
  40264c:	94004911 	bl	414a90 <___pthread_rwlock_unlock>
  402650:	f85683a0 	ldur	x0, [x29, #-152]
  402654:	9103a000 	add	x0, x0, #0xe8
  402658:	9400490e 	bl	414a90 <___pthread_rwlock_unlock>
  40265c:	f85983a3 	ldur	x3, [x29, #-104]
  402660:	17ffff23 	b	4022ec <__dcigettext+0x6c>
  402664:	f9401380 	ldr	x0, [x28, #32]
  402668:	b4fff840 	cbz	x0, 402570 <__dcigettext+0x2f0>
  40266c:	91008381 	add	x1, x28, #0x20
  402670:	d2800008 	mov	x8, #0x0                   	// #0
  402674:	a93167ba 	stp	x26, x25, [x29, #-240]
  402678:	aa1303f9 	mov	x25, x19
  40267c:	aa1503fa 	mov	x26, x21
  402680:	aa0803f5 	mov	x21, x8
  402684:	f81203b8 	stur	x24, [x29, #-224]
  402688:	aa0103f8 	mov	x24, x1
  40268c:	f85583b3 	ldur	x19, [x29, #-168]
  402690:	14000005 	b	4026a4 <__dcigettext+0x424>
  402694:	b5001020 	cbnz	x0, 402898 <__dcigettext+0x618>
  402698:	910006b5 	add	x21, x21, #0x1
  40269c:	f8757b00 	ldr	x0, [x24, x21, lsl #3]
  4026a0:	b4001080 	cbz	x0, 4028b0 <__dcigettext+0x630>
  4026a4:	aa1303e4 	mov	x4, x19
  4026a8:	aa1a03e2 	mov	x2, x26
  4026ac:	aa1903e1 	mov	x1, x25
  4026b0:	52800023 	mov	w3, #0x1                   	// #1
  4026b4:	97fffcdf 	bl	401a30 <_nl_find_msg>
  4026b8:	b100041f 	cmn	x0, #0x1
  4026bc:	54fffec1 	b.ne	402694 <__dcigettext+0x414>  // b.any
  4026c0:	aa1a03f5 	mov	x21, x26
  4026c4:	d503201f 	nop
  4026c8:	f85a83a0 	ldur	x0, [x29, #-88]
  4026cc:	94005d09 	bl	419af0 <__free>
  4026d0:	f85803a0 	ldur	x0, [x29, #-128]
  4026d4:	91228000 	add	x0, x0, #0x8a0
  4026d8:	91010000 	add	x0, x0, #0x40
  4026dc:	940048ed 	bl	414a90 <___pthread_rwlock_unlock>
  4026e0:	f85683a0 	ldur	x0, [x29, #-152]
  4026e4:	9103a000 	add	x0, x0, #0xe8
  4026e8:	940048ea 	bl	414a90 <___pthread_rwlock_unlock>
  4026ec:	f85603a1 	ldur	x1, [x29, #-160]
  4026f0:	f85703a0 	ldur	x0, [x29, #-144]
  4026f4:	b857c3a2 	ldur	w2, [x29, #-132]
  4026f8:	b8216802 	str	w2, [x0, x1]
  4026fc:	b85983a0 	ldur	w0, [x29, #-104]
  402700:	7100001f 	cmp	w0, #0x0
  402704:	f85903a0 	ldur	x0, [x29, #-112]
  402708:	fa411804 	ccmp	x0, #0x1, #0x4, ne  // ne = any
  40270c:	54ffdee0 	b.eq	4022e8 <__dcigettext+0x68>  // b.none
  402710:	f85503a3 	ldur	x3, [x29, #-176]
  402714:	17fffef6 	b	4022ec <__dcigettext+0x6c>
  402718:	d2800001 	mov	x1, #0x0                   	// #0
  40271c:	d2800000 	mov	x0, #0x0                   	// #0
  402720:	9400770c 	bl	420350 <__getcwd>
  402724:	aa0003f9 	mov	x25, x0
  402728:	b4fffd00 	cbz	x0, 4026c8 <__dcigettext+0x448>
  40272c:	aa1803e3 	mov	x3, x24
  402730:	aa0003e2 	mov	x2, x0
  402734:	f00002a1 	adrp	x1, 459000 <free_slotinfo+0x30>
  402738:	91156021 	add	x1, x1, #0x558
  40273c:	d10163a0 	sub	x0, x29, #0x58
  402740:	94001214 	bl	406f90 <___asprintf>
  402744:	2a0003f8 	mov	w24, w0
  402748:	aa1903e0 	mov	x0, x25
  40274c:	94005ce9 	bl	419af0 <__free>
  402750:	37fffbd8 	tbnz	w24, #31, 4026c8 <__dcigettext+0x448>
  402754:	f85a83b8 	ldur	x24, [x29, #-88]
  402758:	17ffff36 	b	402430 <__dcigettext+0x1b0>
  40275c:	f00002a0 	adrp	x0, 459000 <free_slotinfo+0x30>
  402760:	91158000 	add	x0, x0, #0x560
  402764:	94000ebf 	bl	406260 <getenv>
  402768:	b4ffe800 	cbz	x0, 402468 <__dcigettext+0x1e8>
  40276c:	39400001 	ldrb	w1, [x0]
  402770:	7100003f 	cmp	w1, #0x0
  402774:	9a800339 	csel	x25, x25, x0, eq  // eq = none
  402778:	17ffff3c 	b	402468 <__dcigettext+0x1e8>
  40277c:	f00002b8 	adrp	x24, 459000 <free_slotinfo+0x30>
  402780:	9115e318 	add	x24, x24, #0x578
  402784:	17ffff2b 	b	402430 <__dcigettext+0x1b0>
  402788:	f00002b8 	adrp	x24, 459000 <free_slotinfo+0x30>
  40278c:	d2800013 	mov	x19, #0x0                   	// #0
  402790:	9115e318 	add	x24, x24, #0x578
  402794:	17ffff27 	b	402430 <__dcigettext+0x1b0>
  402798:	d2800003 	mov	x3, #0x0                   	// #0
  40279c:	17fffed4 	b	4022ec <__dcigettext+0x6c>
  4027a0:	b85983a0 	ldur	w0, [x29, #-104]
  4027a4:	f9401443 	ldr	x3, [x2, #40]
  4027a8:	35000220 	cbnz	w0, 4027ec <__dcigettext+0x56c>
  4027ac:	f85803a0 	ldur	x0, [x29, #-128]
  4027b0:	f81983a3 	stur	x3, [x29, #-104]
  4027b4:	91228000 	add	x0, x0, #0x8a0
  4027b8:	91010000 	add	x0, x0, #0x40
  4027bc:	940048b5 	bl	414a90 <___pthread_rwlock_unlock>
  4027c0:	f85683a0 	ldur	x0, [x29, #-152]
  4027c4:	9103a000 	add	x0, x0, #0xe8
  4027c8:	940048b2 	bl	414a90 <___pthread_rwlock_unlock>
  4027cc:	f85603a1 	ldur	x1, [x29, #-160]
  4027d0:	f85703a0 	ldur	x0, [x29, #-144]
  4027d4:	b857c3a2 	ldur	w2, [x29, #-132]
  4027d8:	f85983a3 	ldur	x3, [x29, #-104]
  4027dc:	b8216802 	str	w2, [x0, x1]
  4027e0:	17fffec3 	b	4022ec <__dcigettext+0x6c>
  4027e4:	f90203ff 	str	xzr, [sp, #1024]
  4027e8:	17ffff39 	b	4024cc <__dcigettext+0x24c>
  4027ec:	f9401040 	ldr	x0, [x2, #32]
  4027f0:	f81983a3 	stur	x3, [x29, #-104]
  4027f4:	f85903a1 	ldur	x1, [x29, #-112]
  4027f8:	f9400814 	ldr	x20, [x0, #16]
  4027fc:	f9401853 	ldr	x19, [x2, #48]
  402800:	f9405e80 	ldr	x0, [x20, #184]
  402804:	97fffbe3 	bl	401790 <plural_eval>
  402808:	f9406281 	ldr	x1, [x20, #192]
  40280c:	aa0003f4 	mov	x20, x0
  402810:	f85983a3 	ldur	x3, [x29, #-104]
  402814:	eb01001f 	cmp	x0, x1
  402818:	54fffca2 	b.cs	4027ac <__dcigettext+0x52c>  // b.hs, b.nlast
  40281c:	8b130073 	add	x19, x3, x19
  402820:	aa0303e0 	mov	x0, x3
  402824:	aa0303f5 	mov	x21, x3
  402828:	d1000694 	sub	x20, x20, #0x1
  40282c:	b100069f 	cmn	x20, #0x1
  402830:	54000f60 	b.eq	402a1c <__dcigettext+0x79c>  // b.none
  402834:	52800001 	mov	w1, #0x0                   	// #0
  402838:	94006862 	bl	41c9c0 <__rawmemchr>
  40283c:	91000400 	add	x0, x0, #0x1
  402840:	eb13001f 	cmp	x0, x19
  402844:	54ffff23 	b.cc	402828 <__dcigettext+0x5a8>  // b.lo, b.ul, b.last
  402848:	aa1503e3 	mov	x3, x21
  40284c:	17ffffd8 	b	4027ac <__dcigettext+0x52c>
  402850:	9100077b 	add	x27, x27, #0x1
  402854:	17ffff47 	b	402570 <__dcigettext+0x2f0>
  402858:	aa1903e1 	mov	x1, x25
  40285c:	d503201f 	nop
  402860:	38001420 	strb	w0, [x1], #1
  402864:	38401f60 	ldrb	w0, [x27, #1]!
  402868:	7100e81f 	cmp	w0, #0x3a
  40286c:	7a401804 	ccmp	w0, #0x0, #0x4, ne  // ne = any
  402870:	54ffff81 	b.ne	402860 <__dcigettext+0x5e0>  // b.any
  402874:	f946a6c0 	ldr	x0, [x22, #3400]
  402878:	3900003f 	strb	wzr, [x1]
  40287c:	b9400000 	ldr	w0, [x0]
  402880:	34ffe840 	cbz	w0, 402588 <__dcigettext+0x308>
  402884:	aa1903e0 	mov	x0, x25
  402888:	528005e1 	mov	w1, #0x2f                  	// #47
  40288c:	9400626d 	bl	41b240 <strchr>
  402890:	b5ffe700 	cbnz	x0, 402570 <__dcigettext+0x2f0>
  402894:	17ffff3d 	b	402588 <__dcigettext+0x308>
  402898:	2a1503e1 	mov	w1, w21
  40289c:	aa0003e3 	mov	x3, x0
  4028a0:	aa1a03f5 	mov	x21, x26
  4028a4:	8b21cf81 	add	x1, x28, w1, sxtw #3
  4028a8:	f940103c 	ldr	x28, [x1, #32]
  4028ac:	17ffff50 	b	4025ec <__dcigettext+0x36c>
  4028b0:	aa1903f3 	mov	x19, x25
  4028b4:	aa1a03f5 	mov	x21, x26
  4028b8:	a97167ba 	ldp	x26, x25, [x29, #-240]
  4028bc:	f85203b8 	ldur	x24, [x29, #-224]
  4028c0:	17ffff2c 	b	402570 <__dcigettext+0x2f0>
  4028c4:	f9400b93 	ldr	x19, [x28, #16]
  4028c8:	f81983a3 	stur	x3, [x29, #-104]
  4028cc:	f85903a1 	ldur	x1, [x29, #-112]
  4028d0:	f9405e60 	ldr	x0, [x19, #184]
  4028d4:	f85b03b4 	ldur	x20, [x29, #-80]
  4028d8:	97fffbae 	bl	401790 <plural_eval>
  4028dc:	f9406261 	ldr	x1, [x19, #192]
  4028e0:	aa0003f3 	mov	x19, x0
  4028e4:	f85983a3 	ldur	x3, [x29, #-104]
  4028e8:	eb01001f 	cmp	x0, x1
  4028ec:	54ffea82 	b.cs	40263c <__dcigettext+0x3bc>  // b.hs, b.nlast
  4028f0:	8b140074 	add	x20, x3, x20
  4028f4:	aa0303e0 	mov	x0, x3
  4028f8:	aa0303f5 	mov	x21, x3
  4028fc:	d503201f 	nop
  402900:	d1000673 	sub	x19, x19, #0x1
  402904:	b100067f 	cmn	x19, #0x1
  402908:	540008e0 	b.eq	402a24 <__dcigettext+0x7a4>  // b.none
  40290c:	52800001 	mov	w1, #0x0                   	// #0
  402910:	9400682c 	bl	41c9c0 <__rawmemchr>
  402914:	91000400 	add	x0, x0, #0x1
  402918:	eb14001f 	cmp	x0, x20
  40291c:	54ffff23 	b.cc	402900 <__dcigettext+0x680>  // b.lo, b.ul, b.last
  402920:	aa1503e3 	mov	x3, x21
  402924:	17ffff46 	b	40263c <__dcigettext+0x3bc>
  402928:	aa1503e0 	mov	x0, x21
  40292c:	97fff675 	bl	400300 <.plt+0x60>
  402930:	f85403b9 	ldur	x25, [x29, #-192]
  402934:	91000413 	add	x19, x0, #0x1
  402938:	aa1903e0 	mov	x0, x25
  40293c:	97fff671 	bl	400300 <.plt+0x60>
  402940:	f85283a1 	ldur	x1, [x29, #-216]
  402944:	8b130000 	add	x0, x0, x19
  402948:	8b010000 	add	x0, x0, x1
  40294c:	94005b05 	bl	419560 <__libc_malloc>
  402950:	aa0003f8 	mov	x24, x0
  402954:	f85883a3 	ldur	x3, [x29, #-120]
  402958:	b4ffe660 	cbz	x0, 402624 <__dcigettext+0x3a4>
  40295c:	f85303a0 	ldur	x0, [x29, #-208]
  402960:	aa1503e1 	mov	x1, x21
  402964:	aa1303e2 	mov	x2, x19
  402968:	91000415 	add	x21, x0, #0x1
  40296c:	9100e300 	add	x0, x24, #0x38
  402970:	97fff650 	bl	4002b0 <.plt+0x10>
  402974:	aa1503e2 	mov	x2, x21
  402978:	8b130015 	add	x21, x0, x19
  40297c:	8b0202b3 	add	x19, x21, x2
  402980:	aa1403e1 	mov	x1, x20
  402984:	aa1503e0 	mov	x0, x21
  402988:	97fff64a 	bl	4002b0 <.plt+0x10>
  40298c:	aa1903e1 	mov	x1, x25
  402990:	aa1303e0 	mov	x0, x19
  402994:	940062ab 	bl	41b440 <strcpy>
  402998:	f9000315 	str	x21, [x24]
  40299c:	f94652c1 	ldr	x1, [x22, #3232]
  4029a0:	b9000b17 	str	w23, [x24, #8]
  4029a4:	a9780fa0 	ldp	x0, x3, [x29, #-128]
  4029a8:	f9000b13 	str	x19, [x24, #16]
  4029ac:	b9400021 	ldr	w1, [x1]
  4029b0:	f85b03a4 	ldur	x4, [x29, #-80]
  4029b4:	b9001b01 	str	w1, [x24, #24]
  4029b8:	a9020f1c 	stp	x28, x3, [x24, #32]
  4029bc:	91228014 	add	x20, x0, #0x8a0
  4029c0:	f9001b04 	str	x4, [x24, #48]
  4029c4:	9101e299 	add	x25, x20, #0x78
  4029c8:	aa1903e0 	mov	x0, x25
  4029cc:	940048bd 	bl	414cc0 <___pthread_rwlock_wrlock>
  4029d0:	f85383a0 	ldur	x0, [x29, #-200]
  4029d4:	91002281 	add	x1, x20, #0x8
  4029d8:	9126c002 	add	x2, x0, #0x9b0
  4029dc:	aa1803e0 	mov	x0, x24
  4029e0:	94007a7c 	bl	4213d0 <__tsearch>
  4029e4:	aa0003f3 	mov	x19, x0
  4029e8:	aa1903e0 	mov	x0, x25
  4029ec:	94004829 	bl	414a90 <___pthread_rwlock_unlock>
  4029f0:	f85883a3 	ldur	x3, [x29, #-120]
  4029f4:	b4000093 	cbz	x19, 402a04 <__dcigettext+0x784>
  4029f8:	f9400260 	ldr	x0, [x19]
  4029fc:	eb18001f 	cmp	x0, x24
  402a00:	54ffe120 	b.eq	402624 <__dcigettext+0x3a4>  // b.none
  402a04:	aa1803e0 	mov	x0, x24
  402a08:	f81883a3 	stur	x3, [x29, #-120]
  402a0c:	94005c39 	bl	419af0 <__free>
  402a10:	f85883a3 	ldur	x3, [x29, #-120]
  402a14:	17ffff04 	b	402624 <__dcigettext+0x3a4>
  402a18:	940080ca 	bl	422d40 <__stack_chk_fail>
  402a1c:	aa0003e3 	mov	x3, x0
  402a20:	17ffff63 	b	4027ac <__dcigettext+0x52c>
  402a24:	aa0003e3 	mov	x3, x0
  402a28:	17ffff05 	b	40263c <__dcigettext+0x3bc>
  402a2c:	d503201f 	nop

0000000000402a30 <_nl_find_domain>:
  402a30:	d102c3ff 	sub	sp, sp, #0xb0
  402a34:	a9057bfd 	stp	x29, x30, [sp, #80]
  402a38:	910143fd 	add	x29, sp, #0x50
  402a3c:	a9075bf5 	stp	x21, x22, [sp, #112]
  402a40:	90000495 	adrp	x21, 492000 <tunable_list+0x528>
  402a44:	aa0303f6 	mov	x22, x3
  402a48:	f945faa4 	ldr	x4, [x21, #3056]
  402a4c:	a90653f3 	stp	x19, x20, [sp, #96]
  402a50:	a90863f7 	stp	x23, x24, [sp, #128]
  402a54:	aa0003f7 	mov	x23, x0
  402a58:	aa0103f8 	mov	x24, x1
  402a5c:	a9096bf9 	stp	x25, x26, [sp, #144]
  402a60:	f0000eba 	adrp	x26, 5d9000 <user_memory_pressure_sink>
  402a64:	91254354 	add	x20, x26, #0x950
  402a68:	f9400080 	ldr	x0, [x4]
  402a6c:	f90027e0 	str	x0, [sp, #72]
  402a70:	d2800000 	mov	x0, #0x0                   	// #0
  402a74:	aa0203f9 	mov	x25, x2
  402a78:	aa1403e0 	mov	x0, x20
  402a7c:	9400475d 	bl	4147f0 <___pthread_rwlock_rdlock>
  402a80:	aa1703e0 	mov	x0, x23
  402a84:	97fff61f 	bl	400300 <.plt+0x60>
  402a88:	aa1803e4 	mov	x4, x24
  402a8c:	91000402 	add	x2, x0, #0x1
  402a90:	aa1703e1 	mov	x1, x23
  402a94:	a90067ff 	stp	xzr, x25, [sp]
  402a98:	d2800007 	mov	x7, #0x0                   	// #0
  402a9c:	b90013ff 	str	wzr, [sp, #16]
  402aa0:	d2800006 	mov	x6, #0x0                   	// #0
  402aa4:	d2800005 	mov	x5, #0x0                   	// #0
  402aa8:	52800003 	mov	w3, #0x0                   	// #0
  402aac:	9100e280 	add	x0, x20, #0x38
  402ab0:	94000700 	bl	4046b0 <_nl_make_l10nflist>
  402ab4:	aa0003f3 	mov	x19, x0
  402ab8:	aa1403e0 	mov	x0, x20
  402abc:	940047f5 	bl	414a90 <___pthread_rwlock_unlock>
  402ac0:	b40004f3 	cbz	x19, 402b5c <_nl_find_domain+0x12c>
  402ac4:	b9400a60 	ldr	w0, [x19, #8]
  402ac8:	7100001f 	cmp	w0, #0x0
  402acc:	5400040d 	b.le	402b4c <_nl_find_domain+0x11c>
  402ad0:	f9400a60 	ldr	x0, [x19, #16]
  402ad4:	b40001e0 	cbz	x0, 402b10 <_nl_find_domain+0xe0>
  402ad8:	f945fab5 	ldr	x21, [x21, #3056]
  402adc:	f94027e0 	ldr	x0, [sp, #72]
  402ae0:	f94002a1 	ldr	x1, [x21]
  402ae4:	eb010000 	subs	x0, x0, x1
  402ae8:	d2800001 	mov	x1, #0x0                   	// #0
  402aec:	54000d41 	b.ne	402c94 <_nl_find_domain+0x264>  // b.any
  402af0:	aa1303e0 	mov	x0, x19
  402af4:	a9457bfd 	ldp	x29, x30, [sp, #80]
  402af8:	a94653f3 	ldp	x19, x20, [sp, #96]
  402afc:	a9475bf5 	ldp	x21, x22, [sp, #112]
  402b00:	a94863f7 	ldp	x23, x24, [sp, #128]
  402b04:	a9496bf9 	ldp	x25, x26, [sp, #144]
  402b08:	9102c3ff 	add	sp, sp, #0xb0
  402b0c:	d65f03c0 	ret
  402b10:	f9401260 	ldr	x0, [x19, #32]
  402b14:	b4fffe20 	cbz	x0, 402ad8 <_nl_find_domain+0xa8>
  402b18:	91008274 	add	x20, x19, #0x20
  402b1c:	14000006 	b	402b34 <_nl_find_domain+0x104>
  402b20:	f9400280 	ldr	x0, [x20]
  402b24:	f9400800 	ldr	x0, [x0, #16]
  402b28:	b5fffd80 	cbnz	x0, 402ad8 <_nl_find_domain+0xa8>
  402b2c:	f8408e80 	ldr	x0, [x20, #8]!
  402b30:	b4fffd40 	cbz	x0, 402ad8 <_nl_find_domain+0xa8>
  402b34:	b9400802 	ldr	w2, [x0, #8]
  402b38:	7100005f 	cmp	w2, #0x0
  402b3c:	54ffff2c 	b.gt	402b20 <_nl_find_domain+0xf0>
  402b40:	aa1603e1 	mov	x1, x22
  402b44:	94000057 	bl	402ca0 <_nl_load_domain>
  402b48:	17fffff6 	b	402b20 <_nl_find_domain+0xf0>
  402b4c:	aa1603e1 	mov	x1, x22
  402b50:	aa1303e0 	mov	x0, x19
  402b54:	94000053 	bl	402ca0 <_nl_load_domain>
  402b58:	17ffffde 	b	402ad0 <_nl_find_domain+0xa0>
  402b5c:	aa1803e0 	mov	x0, x24
  402b60:	a90a73fb 	stp	x27, x28, [sp, #160]
  402b64:	94000658 	bl	4044c4 <_nl_expand_alias>
  402b68:	aa0003fc 	mov	x28, x0
  402b6c:	b4000140 	cbz	x0, 402b94 <_nl_find_domain+0x164>
  402b70:	97fff5e4 	bl	400300 <.plt+0x60>
  402b74:	91000414 	add	x20, x0, #0x1
  402b78:	aa1403e0 	mov	x0, x20
  402b7c:	94005a79 	bl	419560 <__libc_malloc>
  402b80:	aa0003f8 	mov	x24, x0
  402b84:	b4000560 	cbz	x0, 402c30 <_nl_find_domain+0x200>
  402b88:	aa1403e2 	mov	x2, x20
  402b8c:	aa1c03e1 	mov	x1, x28
  402b90:	97fff5c8 	bl	4002b0 <.plt+0x10>
  402b94:	910103e5 	add	x5, sp, #0x40
  402b98:	9100e3e4 	add	x4, sp, #0x38
  402b9c:	9100c3e3 	add	x3, sp, #0x30
  402ba0:	9100a3e2 	add	x2, sp, #0x28
  402ba4:	910083e1 	add	x1, sp, #0x20
  402ba8:	aa1803e0 	mov	x0, x24
  402bac:	9400086d 	bl	404d60 <_nl_explode_name>
  402bb0:	2a0003fb 	mov	w27, w0
  402bb4:	3100041f 	cmn	w0, #0x1
  402bb8:	540003c0 	b.eq	402c30 <_nl_find_domain+0x200>  // b.none
  402bbc:	9125435a 	add	x26, x26, #0x950
  402bc0:	aa1a03e0 	mov	x0, x26
  402bc4:	9400483f 	bl	414cc0 <___pthread_rwlock_wrlock>
  402bc8:	aa1703e0 	mov	x0, x23
  402bcc:	97fff5cd 	bl	400300 <.plt+0x60>
  402bd0:	a94223e4 	ldp	x4, x8, [sp, #32]
  402bd4:	91000402 	add	x2, x0, #0x1
  402bd8:	a9431be5 	ldp	x5, x6, [sp, #48]
  402bdc:	52800020 	mov	w0, #0x1                   	// #1
  402be0:	f94023e7 	ldr	x7, [sp, #64]
  402be4:	aa1703e1 	mov	x1, x23
  402be8:	2a1b03e3 	mov	w3, w27
  402bec:	a90067e8 	stp	x8, x25, [sp]
  402bf0:	b90013e0 	str	w0, [sp, #16]
  402bf4:	9100e340 	add	x0, x26, #0x38
  402bf8:	940006ae 	bl	4046b0 <_nl_make_l10nflist>
  402bfc:	aa0003f3 	mov	x19, x0
  402c00:	aa1a03e0 	mov	x0, x26
  402c04:	940047a3 	bl	414a90 <___pthread_rwlock_unlock>
  402c08:	b4000133 	cbz	x19, 402c2c <_nl_find_domain+0x1fc>
  402c0c:	b9400a60 	ldr	w0, [x19, #8]
  402c10:	7100001f 	cmp	w0, #0x0
  402c14:	5400038d 	b.le	402c84 <_nl_find_domain+0x254>
  402c18:	f9400a60 	ldr	x0, [x19, #16]
  402c1c:	b4000160 	cbz	x0, 402c48 <_nl_find_domain+0x218>
  402c20:	b400007c 	cbz	x28, 402c2c <_nl_find_domain+0x1fc>
  402c24:	aa1803e0 	mov	x0, x24
  402c28:	94005bb2 	bl	419af0 <__free>
  402c2c:	3700007b 	tbnz	w27, #0, 402c38 <_nl_find_domain+0x208>
  402c30:	a94a73fb 	ldp	x27, x28, [sp, #160]
  402c34:	17ffffa9 	b	402ad8 <_nl_find_domain+0xa8>
  402c38:	f94023e0 	ldr	x0, [sp, #64]
  402c3c:	94005bad 	bl	419af0 <__free>
  402c40:	a94a73fb 	ldp	x27, x28, [sp, #160]
  402c44:	17ffffa5 	b	402ad8 <_nl_find_domain+0xa8>
  402c48:	f9401260 	ldr	x0, [x19, #32]
  402c4c:	b4fffea0 	cbz	x0, 402c20 <_nl_find_domain+0x1f0>
  402c50:	91008274 	add	x20, x19, #0x20
  402c54:	14000006 	b	402c6c <_nl_find_domain+0x23c>
  402c58:	f9400280 	ldr	x0, [x20]
  402c5c:	f9400800 	ldr	x0, [x0, #16]
  402c60:	b5fffe00 	cbnz	x0, 402c20 <_nl_find_domain+0x1f0>
  402c64:	f8408e80 	ldr	x0, [x20, #8]!
  402c68:	b4fffdc0 	cbz	x0, 402c20 <_nl_find_domain+0x1f0>
  402c6c:	b9400801 	ldr	w1, [x0, #8]
  402c70:	7100003f 	cmp	w1, #0x0
  402c74:	54ffff2c 	b.gt	402c58 <_nl_find_domain+0x228>
  402c78:	aa1603e1 	mov	x1, x22
  402c7c:	94000009 	bl	402ca0 <_nl_load_domain>
  402c80:	17fffff6 	b	402c58 <_nl_find_domain+0x228>
  402c84:	aa1603e1 	mov	x1, x22
  402c88:	aa1303e0 	mov	x0, x19
  402c8c:	94000005 	bl	402ca0 <_nl_load_domain>
  402c90:	17ffffe2 	b	402c18 <_nl_find_domain+0x1e8>
  402c94:	a90a73fb 	stp	x27, x28, [sp, #160]
  402c98:	9400802a 	bl	422d40 <__stack_chk_fail>
  402c9c:	d503201f 	nop

0000000000402ca0 <_nl_load_domain>:
  402ca0:	d10683ff 	sub	sp, sp, #0x1a0
  402ca4:	a9147bfd 	stp	x29, x30, [sp, #320]
  402ca8:	910503fd 	add	x29, sp, #0x140
  402cac:	a91553f3 	stp	x19, x20, [sp, #336]
  402cb0:	f0000eb3 	adrp	x19, 5d9000 <user_memory_pressure_sink>
  402cb4:	aa0003f4 	mov	x20, x0
  402cb8:	a9165bf5 	stp	x21, x22, [sp, #352]
  402cbc:	91264276 	add	x22, x19, #0x990
  402cc0:	90000495 	adrp	x21, 492000 <tunable_list+0x528>
  402cc4:	a91763f7 	stp	x23, x24, [sp, #368]
  402cc8:	d53bd057 	mrs	x23, tpidr_el0
  402ccc:	d11f02f8 	sub	x24, x23, #0x7c0
  402cd0:	f945faa3 	ldr	x3, [x21, #3056]
  402cd4:	a9186bf9 	stp	x25, x26, [sp, #384]
  402cd8:	aa0103f9 	mov	x25, x1
  402cdc:	f94006c2 	ldr	x2, [x22, #8]
  402ce0:	f9400064 	ldr	x4, [x3]
  402ce4:	f9009fe4 	str	x4, [sp, #312]
  402ce8:	d2800004 	mov	x4, #0x0                   	// #0
  402cec:	eb18005f 	cmp	x2, x24
  402cf0:	54000100 	b.eq	402d10 <_nl_load_domain+0x70>  // b.none
  402cf4:	aa1603e2 	mov	x2, x22
  402cf8:	52800021 	mov	w1, #0x1                   	// #1
  402cfc:	52800000 	mov	w0, #0x0                   	// #0
  402d00:	940140f8 	bl	4530e0 <__aarch64_cas4_acq>
  402d04:	35002a00 	cbnz	w0, 403244 <_nl_load_domain+0x5a4>
  402d08:	91264260 	add	x0, x19, #0x990
  402d0c:	f9000418 	str	x24, [x0, #8]
  402d10:	91264276 	add	x22, x19, #0x990
  402d14:	b9400a80 	ldr	w0, [x20, #8]
  402d18:	b94006c2 	ldr	w2, [x22, #4]
  402d1c:	11000441 	add	w1, w2, #0x1
  402d20:	b90006c1 	str	w1, [x22, #4]
  402d24:	35001ec0 	cbnz	w0, 4030fc <_nl_load_domain+0x45c>
  402d28:	f9400280 	ldr	x0, [x20]
  402d2c:	12800001 	mov	w1, #0xffffffff            	// #-1
  402d30:	b9000a81 	str	w1, [x20, #8]
  402d34:	f9000a9f 	str	xzr, [x20, #16]
  402d38:	b4001de0 	cbz	x0, 4030f4 <_nl_load_domain+0x454>
  402d3c:	52800001 	mov	w1, #0x0                   	// #0
  402d40:	940077b4 	bl	420c10 <__open64_nocancel>
  402d44:	2a0003f8 	mov	w24, w0
  402d48:	3100041f 	cmn	w0, #0x1
  402d4c:	54002760 	b.eq	403238 <_nl_load_domain+0x598>  // b.none
  402d50:	9102e3e1 	add	x1, sp, #0xb8
  402d54:	9400748f 	bl	41ff90 <__fstat>
  402d58:	2a0003fa 	mov	w26, w0
  402d5c:	35001c20 	cbnz	w0, 4030e0 <_nl_load_domain+0x440>
  402d60:	a91973fb 	stp	x27, x28, [sp, #400]
  402d64:	f94077fc 	ldr	x28, [sp, #232]
  402d68:	f100bf9f 	cmp	x28, #0x2f
  402d6c:	54003669 	b.ls	403438 <_nl_load_domain+0x798>  // b.plast
  402d70:	2a1803e4 	mov	w4, w24
  402d74:	aa1c03e1 	mov	x1, x28
  402d78:	d2800005 	mov	x5, #0x0                   	// #0
  402d7c:	52800043 	mov	w3, #0x2                   	// #2
  402d80:	52800022 	mov	w2, #0x1                   	// #1
  402d84:	d2800000 	mov	x0, #0x0                   	// #0
  402d88:	9400786e 	bl	420f40 <__mmap64>
  402d8c:	aa0003fb 	mov	x27, x0
  402d90:	b100041f 	cmn	x0, #0x1
  402d94:	54002f40 	b.eq	40337c <_nl_load_domain+0x6dc>  // b.none
  402d98:	2a1803e0 	mov	w0, w24
  402d9c:	94007721 	bl	420a20 <__close_nocancel>
  402da0:	b9400363 	ldr	w3, [x27]
  402da4:	52825bc1 	mov	w1, #0x12de                	// #4830
  402da8:	72b2a081 	movk	w1, #0x9504, lsl #16
  402dac:	528092a0 	mov	w0, #0x495                 	// #1173
  402db0:	6b01007f 	cmp	w3, w1
  402db4:	72bbc240 	movk	w0, #0xde12, lsl #16
  402db8:	1a9f07f7 	cset	w23, ne  // ne = any
  402dbc:	710002ff 	cmp	w23, #0x0
  402dc0:	7a401064 	ccmp	w3, w0, #0x4, ne  // ne = any
  402dc4:	54002681 	b.ne	403294 <_nl_load_domain+0x5f4>  // b.any
  402dc8:	5280003a 	mov	w26, #0x1                   	// #1
  402dcc:	d2801900 	mov	x0, #0xc8                  	// #200
  402dd0:	b90003e3 	str	w3, [sp]
  402dd4:	940059e3 	bl	419560 <__libc_malloc>
  402dd8:	aa0003f8 	mov	x24, x0
  402ddc:	b94003e3 	ldr	w3, [sp]
  402de0:	b4002080 	cbz	x0, 4031f0 <_nl_load_domain+0x550>
  402de4:	b9400760 	ldr	w0, [x27, #4]
  402de8:	52825bc1 	mov	w1, #0x12de                	// #4830
  402dec:	f900031b 	str	x27, [x24]
  402df0:	72b2a081 	movk	w1, #0x9504, lsl #16
  402df4:	b9000b1a 	str	w26, [x24, #8]
  402df8:	f9000a98 	str	x24, [x20, #16]
  402dfc:	f9000b1c 	str	x28, [x24, #16]
  402e00:	b9001b17 	str	w23, [x24, #24]
  402e04:	f900131f 	str	xzr, [x24, #32]
  402e08:	6b01007f 	cmp	w3, w1
  402e0c:	54001aa0 	b.eq	403160 <_nl_load_domain+0x4c0>  // b.none
  402e10:	5ac00800 	rev	w0, w0
  402e14:	2a0003e7 	mov	w7, w0
  402e18:	13107c01 	asr	w1, w0, #16
  402e1c:	7100043f 	cmp	w1, #0x1
  402e20:	54001f28 	b.hi	403204 <_nl_load_domain+0x564>  // b.pmore
  402e24:	29410b64 	ldp	w4, w2, [x27, #8]
  402e28:	29422361 	ldp	w1, w8, [x27, #16]
  402e2c:	5ac00842 	rev	w2, w2
  402e30:	8b020362 	add	x2, x27, x2
  402e34:	5ac00884 	rev	w4, w4
  402e38:	5ac00821 	rev	w1, w1
  402e3c:	5ac00905 	rev	w5, w8
  402e40:	8b010361 	add	x1, x27, x1
  402e44:	b90003e5 	str	w5, [sp]
  402e48:	b9002b04 	str	w4, [x24, #40]
  402e4c:	a9030702 	stp	x2, x1, [x24, #48]
  402e50:	b9005b05 	str	w5, [x24, #88]
  402e54:	710008bf 	cmp	w5, #0x2
  402e58:	54001a09 	b.ls	403198 <_nl_load_domain+0x4f8>  // b.plast
  402e5c:	b9401b61 	ldr	w1, [x27, #24]
  402e60:	b9006b17 	str	w23, [x24, #104]
  402e64:	5ac00821 	rev	w1, w1
  402e68:	8b010361 	add	x1, x27, x1
  402e6c:	f90013e1 	str	x1, [sp, #32]
  402e70:	f9003301 	str	x1, [x24, #96]
  402e74:	72003c1f 	tst	w0, #0xffff
  402e78:	54001980 	b.eq	4031a8 <_nl_load_domain+0x508>  // b.none
  402e7c:	b9402760 	ldr	w0, [x27, #36]
  402e80:	5ac00801 	rev	w1, w0
  402e84:	b9000be1 	str	w1, [sp, #8]
  402e88:	34001900 	cbz	w0, 4031a8 <_nl_load_domain+0x508>
  402e8c:	2943db60 	ldp	w0, w22, [x27, #28]
  402e90:	5ac00ad6 	rev	w22, w22
  402e94:	5ac00800 	rev	w0, w0
  402e98:	b9001be0 	str	w0, [sp, #24]
  402e9c:	b9401bf7 	ldr	w23, [sp, #24]
  402ea0:	d2800101 	mov	x1, #0x8                   	// #8
  402ea4:	8b160376 	add	x22, x27, x22
  402ea8:	b90013e3 	str	w3, [sp, #16]
  402eac:	aa1703e0 	mov	x0, x23
  402eb0:	94005d30 	bl	41a370 <__calloc>
  402eb4:	aa0003e7 	mov	x7, x0
  402eb8:	b4001a60 	cbz	x0, 403204 <_nl_load_domain+0x564>
  402ebc:	b9401be1 	ldr	w1, [sp, #24]
  402ec0:	d37df2e0 	lsl	x0, x23, #3
  402ec4:	b94013e3 	ldr	w3, [sp, #16]
  402ec8:	910012c8 	add	x8, x22, #0x4
  402ecc:	d2800002 	mov	x2, #0x0                   	// #0
  402ed0:	340006a1 	cbz	w1, 402fa4 <_nl_load_domain+0x304>
  402ed4:	f00002a1 	adrp	x1, 459000 <free_slotinfo+0x30>
  402ed8:	f00002a4 	adrp	x4, 459000 <free_slotinfo+0x30>
  402edc:	9117c037 	add	x23, x1, #0x5f0
  402ee0:	91170084 	add	x4, x4, #0x5c0
  402ee4:	90000381 	adrp	x1, 472000 <__tens+0x3158>
  402ee8:	911ce021 	add	x1, x1, #0x738
  402eec:	f9000be4 	str	x4, [sp, #16]
  402ef0:	f00002a4 	adrp	x4, 459000 <free_slotinfo+0x30>
  402ef4:	f90017e1 	str	x1, [sp, #40]
  402ef8:	f00002a1 	adrp	x1, 459000 <free_slotinfo+0x30>
  402efc:	91168092 	add	x18, x4, #0x5a0
  402f00:	9116a026 	add	x6, x1, #0x5a8
  402f04:	f00002aa 	adrp	x10, 459000 <free_slotinfo+0x30>
  402f08:	f00002af 	adrp	x15, 459000 <free_slotinfo+0x30>
  402f0c:	f00002ae 	adrp	x14, 459000 <free_slotinfo+0x30>
  402f10:	f00002ad 	adrp	x13, 459000 <free_slotinfo+0x30>
  402f14:	f00002ac 	adrp	x12, 459000 <free_slotinfo+0x30>
  402f18:	52825bc9 	mov	w9, #0x12de                	// #4830
  402f1c:	f00002a4 	adrp	x4, 459000 <free_slotinfo+0x30>
  402f20:	f00002a1 	adrp	x1, 459000 <free_slotinfo+0x30>
  402f24:	9117a14a 	add	x10, x10, #0x5e8
  402f28:	911781ef 	add	x15, x15, #0x5e0
  402f2c:	911761ce 	add	x14, x14, #0x5d8
  402f30:	911741ad 	add	x13, x13, #0x5d0
  402f34:	9117218c 	add	x12, x12, #0x5c8
  402f38:	9116c085 	add	x5, x4, #0x5b0
  402f3c:	9128603e 	add	x30, x1, #0xa18
  402f40:	72b2a089 	movk	w9, #0x9504, lsl #16
  402f44:	d503201f 	nop
  402f48:	b8626901 	ldr	w1, [x8, x2]
  402f4c:	b8626ac4 	ldr	w4, [x22, x2]
  402f50:	6b09007f 	cmp	w3, w9
  402f54:	54001ae0 	b.eq	4032b0 <_nl_load_domain+0x610>  // b.none
  402f58:	5ac00821 	rev	w1, w1
  402f5c:	5ac00884 	rev	w4, w4
  402f60:	8b010361 	add	x1, x27, x1
  402f64:	34002784 	cbz	w4, 403454 <_nl_load_domain+0x7b4>
  402f68:	51000484 	sub	w4, w4, #0x1
  402f6c:	38644824 	ldrb	w4, [x1, w4, uxtw]
  402f70:	35002724 	cbnz	w4, 403454 <_nl_load_domain+0x7b4>
  402f74:	39400024 	ldrb	w4, [x1]
  402f78:	7101409f 	cmp	w4, #0x50
  402f7c:	540019e0 	b.eq	4032b8 <_nl_load_domain+0x618>  // b.none
  402f80:	7101249f 	cmp	w4, #0x49
  402f84:	54002701 	b.ne	403464 <_nl_load_domain+0x7c4>  // b.any
  402f88:	39400421 	ldrb	w1, [x1, #1]
  402f8c:	7100003f 	cmp	w1, #0x0
  402f90:	9a9f0144 	csel	x4, x10, xzr, eq  // eq = none
  402f94:	f82268e4 	str	x4, [x7, x2]
  402f98:	91002042 	add	x2, x2, #0x8
  402f9c:	eb02001f 	cmp	x0, x2
  402fa0:	54fffd41 	b.ne	402f48 <_nl_load_domain+0x2a8>  // b.any
  402fa4:	52825bc2 	mov	w2, #0x12de                	// #4830
  402fa8:	29450361 	ldp	w1, w0, [x27, #40]
  402fac:	72b2a082 	movk	w2, #0x9504, lsl #16
  402fb0:	6b02007f 	cmp	w3, w2
  402fb4:	54002980 	b.eq	4034e4 <_nl_load_domain+0x844>  // b.none
  402fb8:	5ac00821 	rev	w1, w1
  402fbc:	5ac00800 	rev	w0, w0
  402fc0:	8b010361 	add	x1, x27, x1
  402fc4:	f90027e1 	str	x1, [sp, #72]
  402fc8:	f94003e1 	ldr	x1, [sp]
  402fcc:	a906e7f4 	stp	x20, x25, [sp, #104]
  402fd0:	b9401bf9 	ldr	w25, [sp, #24]
  402fd4:	8b000360 	add	x0, x27, x0
  402fd8:	2a0303f6 	mov	w22, w3
  402fdc:	d37e7c21 	ubfiz	x1, x1, #2, #32
  402fe0:	f90023e1 	str	x1, [sp, #64]
  402fe4:	b90053fa 	str	w26, [sp, #80]
  402fe8:	aa0703fa 	mov	x26, x7
  402fec:	a905e3fc 	stp	x28, x24, [sp, #88]
  402ff0:	f9003fe1 	str	x1, [sp, #120]
  402ff4:	d2800001 	mov	x1, #0x0                   	// #0
  402ff8:	aa0103f8 	mov	x24, x1
  402ffc:	f9000bfb 	str	x27, [sp, #16]
  403000:	f90017e0 	str	x0, [sp, #40]
  403004:	9102a3e0 	add	x0, sp, #0xa8
  403008:	f9001be0 	str	x0, [sp, #48]
  40300c:	b9003fff 	str	wzr, [sp, #60]
  403010:	f9401bfc 	ldr	x28, [sp, #48]
  403014:	52800017 	mov	w23, #0x0                   	// #0
  403018:	52825bc0 	mov	w0, #0x12de                	// #4830
  40301c:	72b2a080 	movk	w0, #0x9504, lsl #16
  403020:	6b0002df 	cmp	w22, w0
  403024:	54001fe0 	b.eq	403420 <_nl_load_domain+0x780>  // b.none
  403028:	34002557 	cbz	w23, 4034d0 <_nl_load_domain+0x830>
  40302c:	f94017e0 	ldr	x0, [sp, #40]
  403030:	b8787802 	ldr	w2, [x0, x24, lsl #2]
  403034:	5ac00842 	rev	w2, w2
  403038:	f9400be0 	ldr	x0, [sp, #16]
  40303c:	d2800014 	mov	x20, #0x0                   	// #0
  403040:	8b020002 	add	x2, x0, x2
  403044:	b9400840 	ldr	w0, [x2, #8]
  403048:	3100041f 	cmn	w0, #0x1
  40304c:	1a9f07e0 	cset	w0, ne  // ne = any
  403050:	350020e0 	cbnz	w0, 40346c <_nl_load_domain+0x7cc>
  403054:	f8008794 	str	x20, [x28], #8
  403058:	34001ed7 	cbz	w23, 403430 <_nl_load_domain+0x790>
  40305c:	b9403fe1 	ldr	w1, [sp, #60]
  403060:	f94057e0 	ldr	x0, [sp, #168]
  403064:	11000421 	add	w1, w1, #0x1
  403068:	b9003fe1 	str	w1, [sp, #60]
  40306c:	f9405be1 	ldr	x1, [sp, #176]
  403070:	8b010000 	add	x0, x0, x1
  403074:	f94023e1 	ldr	x1, [sp, #64]
  403078:	8b000020 	add	x0, x1, x0
  40307c:	f90023e0 	str	x0, [sp, #64]
  403080:	b9400be0 	ldr	w0, [sp, #8]
  403084:	91000718 	add	x24, x24, #0x1
  403088:	6b18001f 	cmp	w0, w24
  40308c:	54fffc28 	b.hi	403010 <_nl_load_domain+0x370>  // b.pmore
  403090:	b9403fe0 	ldr	w0, [sp, #60]
  403094:	aa1a03e7 	mov	x7, x26
  403098:	2a1603e3 	mov	w3, w22
  40309c:	b94053fa 	ldr	w26, [sp, #80]
  4030a0:	f9400bfb 	ldr	x27, [sp, #16]
  4030a4:	a945e3fc 	ldp	x28, x24, [sp, #88]
  4030a8:	a946e7f4 	ldp	x20, x25, [sp, #104]
  4030ac:	350033e0 	cbnz	w0, 403728 <_nl_load_domain+0xa88>
  4030b0:	b900431f 	str	wzr, [x24, #64]
  4030b4:	a904ff1f 	stp	xzr, xzr, [x24, #72]
  4030b8:	aa0703e0 	mov	x0, x7
  4030bc:	94005a8d 	bl	419af0 <__free>
  4030c0:	1400003c 	b	4031b0 <_nl_load_domain+0x510>
  4030c4:	b100041f 	cmn	x0, #0x1
  4030c8:	54000081 	b.ne	4030d8 <_nl_load_domain+0x438>  // b.any
  4030cc:	b8766ae0 	ldr	w0, [x23, x22]
  4030d0:	7100101f 	cmp	w0, #0x4
  4030d4:	540016a0 	b.eq	4033a8 <_nl_load_domain+0x708>  // b.none
  4030d8:	a95973fb 	ldp	x27, x28, [sp, #400]
  4030dc:	2a1a03f8 	mov	w24, w26
  4030e0:	2a1803e0 	mov	w0, w24
  4030e4:	9400764f 	bl	420a20 <__close_nocancel>
  4030e8:	91264260 	add	x0, x19, #0x990
  4030ec:	b9400402 	ldr	w2, [x0, #4]
  4030f0:	51000442 	sub	w2, w2, #0x1
  4030f4:	52800020 	mov	w0, #0x1                   	// #1
  4030f8:	b9000a80 	str	w0, [x20, #8]
  4030fc:	91264273 	add	x19, x19, #0x990
  403100:	b9000662 	str	w2, [x19, #4]
  403104:	340001c2 	cbz	w2, 40313c <_nl_load_domain+0x49c>
  403108:	f945fab5 	ldr	x21, [x21, #3056]
  40310c:	f9409fe0 	ldr	x0, [sp, #312]
  403110:	f94002a1 	ldr	x1, [x21]
  403114:	eb010000 	subs	x0, x0, x1
  403118:	d2800001 	mov	x1, #0x0                   	// #0
  40311c:	54005201 	b.ne	403b5c <_nl_load_domain+0xebc>  // b.any
  403120:	a9547bfd 	ldp	x29, x30, [sp, #320]
  403124:	a95553f3 	ldp	x19, x20, [sp, #336]
  403128:	a9565bf5 	ldp	x21, x22, [sp, #352]
  40312c:	a95763f7 	ldp	x23, x24, [sp, #368]
  403130:	a9586bf9 	ldp	x25, x26, [sp, #384]
  403134:	910683ff 	add	sp, sp, #0x1a0
  403138:	d65f03c0 	ret
  40313c:	aa1303e1 	mov	x1, x19
  403140:	52800000 	mov	w0, #0x0                   	// #0
  403144:	f900067f 	str	xzr, [x19, #8]
  403148:	9401407a 	bl	453330 <__aarch64_swp4_rel>
  40314c:	7100041f 	cmp	w0, #0x1
  403150:	54fffdcd 	b.le	403108 <_nl_load_domain+0x468>
  403154:	aa1303e0 	mov	x0, x19
  403158:	940044d2 	bl	4144a0 <__lll_lock_wake_private>
  40315c:	17ffffeb 	b	403108 <_nl_load_domain+0x468>
  403160:	13107c01 	asr	w1, w0, #16
  403164:	2a0003e7 	mov	w7, w0
  403168:	7100043f 	cmp	w1, #0x1
  40316c:	540004c8 	b.hi	403204 <_nl_load_domain+0x564>  // b.pmore
  403170:	29421761 	ldp	w1, w5, [x27, #16]
  403174:	b90003e5 	str	w5, [sp]
  403178:	29410b64 	ldp	w4, w2, [x27, #8]
  40317c:	8b010361 	add	x1, x27, x1
  403180:	b9002b04 	str	w4, [x24, #40]
  403184:	8b020362 	add	x2, x27, x2
  403188:	a9030702 	stp	x2, x1, [x24, #48]
  40318c:	b9005b05 	str	w5, [x24, #88]
  403190:	710008bf 	cmp	w5, #0x2
  403194:	54000668 	b.hi	403260 <_nl_load_domain+0x5c0>  // b.pmore
  403198:	f900331f 	str	xzr, [x24, #96]
  40319c:	b9006b17 	str	w23, [x24, #104]
  4031a0:	72003cff 	tst	w7, #0xffff
  4031a4:	54000301 	b.ne	403204 <_nl_load_domain+0x564>  // b.any
  4031a8:	b900431f 	str	wzr, [x24, #64]
  4031ac:	a904ff1f 	stp	xzr, xzr, [x24, #72]
  4031b0:	d2800001 	mov	x1, #0x0                   	// #0
  4031b4:	a9077f1f 	stp	xzr, xzr, [x24, #112]
  4031b8:	91020300 	add	x0, x24, #0x80
  4031bc:	94004579 	bl	4147a0 <___pthread_rwlock_init>
  4031c0:	d00002a2 	adrp	x2, 459000 <free_slotinfo+0x30>
  4031c4:	aa1903e1 	mov	x1, x25
  4031c8:	910283e4 	add	x4, sp, #0xa0
  4031cc:	912a8042 	add	x2, x2, #0xaa0
  4031d0:	aa1403e0 	mov	x0, x20
  4031d4:	52800003 	mov	w3, #0x0                   	// #0
  4031d8:	97fffa16 	bl	401a30 <_nl_find_msg>
  4031dc:	b100041f 	cmn	x0, #0x1
  4031e0:	540017e0 	b.eq	4034dc <_nl_load_domain+0x83c>  // b.none
  4031e4:	91030302 	add	x2, x24, #0xc0
  4031e8:	9102e301 	add	x1, x24, #0xb8
  4031ec:	940009bd 	bl	4058e0 <__gettext_extract_plural>
  4031f0:	91264260 	add	x0, x19, #0x990
  4031f4:	a95973fb 	ldp	x27, x28, [sp, #400]
  4031f8:	b9400402 	ldr	w2, [x0, #4]
  4031fc:	51000442 	sub	w2, w2, #0x1
  403200:	17ffffbd 	b	4030f4 <_nl_load_domain+0x454>
  403204:	d2800000 	mov	x0, #0x0                   	// #0
  403208:	94005a3a 	bl	419af0 <__free>
  40320c:	3500023a 	cbnz	w26, 403250 <_nl_load_domain+0x5b0>
  403210:	aa1b03e0 	mov	x0, x27
  403214:	94005a37 	bl	419af0 <__free>
  403218:	aa1803e0 	mov	x0, x24
  40321c:	94005a35 	bl	419af0 <__free>
  403220:	91264260 	add	x0, x19, #0x990
  403224:	a95973fb 	ldp	x27, x28, [sp, #400]
  403228:	f9000a9f 	str	xzr, [x20, #16]
  40322c:	b9400402 	ldr	w2, [x0, #4]
  403230:	51000442 	sub	w2, w2, #0x1
  403234:	17ffffb0 	b	4030f4 <_nl_load_domain+0x454>
  403238:	b94006c2 	ldr	w2, [x22, #4]
  40323c:	51000442 	sub	w2, w2, #0x1
  403240:	17ffffad 	b	4030f4 <_nl_load_domain+0x454>
  403244:	aa1603e0 	mov	x0, x22
  403248:	94004452 	bl	414390 <__lll_lock_wait_private>
  40324c:	17fffeaf 	b	402d08 <_nl_load_domain+0x68>
  403250:	aa1c03e1 	mov	x1, x28
  403254:	aa1b03e0 	mov	x0, x27
  403258:	9400775a 	bl	420fc0 <__munmap>
  40325c:	17ffffef 	b	403218 <_nl_load_domain+0x578>
  403260:	b9401b61 	ldr	w1, [x27, #24]
  403264:	b9006b17 	str	w23, [x24, #104]
  403268:	8b010361 	add	x1, x27, x1
  40326c:	f90013e1 	str	x1, [sp, #32]
  403270:	f9003301 	str	x1, [x24, #96]
  403274:	72003c1f 	tst	w0, #0xffff
  403278:	54fff980 	b.eq	4031a8 <_nl_load_domain+0x508>  // b.none
  40327c:	b9402760 	ldr	w0, [x27, #36]
  403280:	b9000be0 	str	w0, [sp, #8]
  403284:	34fff920 	cbz	w0, 4031a8 <_nl_load_domain+0x508>
  403288:	2943db60 	ldp	w0, w22, [x27, #28]
  40328c:	b9001be0 	str	w0, [sp, #24]
  403290:	17ffff03 	b	402e9c <_nl_load_domain+0x1fc>
  403294:	aa1c03e1 	mov	x1, x28
  403298:	aa1b03e0 	mov	x0, x27
  40329c:	94007749 	bl	420fc0 <__munmap>
  4032a0:	b94006c2 	ldr	w2, [x22, #4]
  4032a4:	a95973fb 	ldp	x27, x28, [sp, #400]
  4032a8:	51000442 	sub	w2, w2, #0x1
  4032ac:	17ffff92 	b	4030f4 <_nl_load_domain+0x454>
  4032b0:	8b214361 	add	x1, x27, w1, uxtw
  4032b4:	17ffff2c 	b	402f64 <_nl_load_domain+0x2c4>
  4032b8:	3940042b 	ldrb	w11, [x1, #1]
  4032bc:	d2800004 	mov	x4, #0x0                   	// #0
  4032c0:	7101497f 	cmp	w11, #0x52
  4032c4:	54ffe681 	b.ne	402f94 <_nl_load_domain+0x2f4>  // b.any
  4032c8:	3940082b 	ldrb	w11, [x1, #2]
  4032cc:	7101257f 	cmp	w11, #0x49
  4032d0:	54ffe621 	b.ne	402f94 <_nl_load_domain+0x2f4>  // b.any
  4032d4:	39400c2b 	ldrb	w11, [x1, #3]
  4032d8:	7101917f 	cmp	w11, #0x64
  4032dc:	1a9f17f1 	cset	w17, eq  // eq = none
  4032e0:	7101a57f 	cmp	w11, #0x69
  4032e4:	1a9f17f0 	cset	w16, eq  // eq = none
  4032e8:	2a100230 	orr	w16, w17, w16
  4032ec:	b90033f0 	str	w16, [sp, #48]
  4032f0:	35000130 	cbnz	w16, 403314 <_nl_load_domain+0x674>
  4032f4:	51016170 	sub	w16, w11, #0x58
  4032f8:	12001e10 	and	w16, w16, #0xff
  4032fc:	7100821f 	cmp	w16, #0x20
  403300:	54ffe4a8 	b.hi	402f94 <_nl_load_domain+0x2f4>  // b.pmore
  403304:	b20003f1 	mov	x17, #0x100000001           	// #4294967297
  403308:	f2a41011 	movk	x17, #0x2080, lsl #16
  40330c:	9ad02630 	lsr	x16, x17, x16
  403310:	3607e430 	tbz	w16, #0, 402f94 <_nl_load_domain+0x2f4>
  403314:	39401024 	ldrb	w4, [x1, #4]
  403318:	7100e09f 	cmp	w4, #0x38
  40331c:	54001a80 	b.eq	40366c <_nl_load_domain+0x9cc>  // b.none
  403320:	7100c49f 	cmp	w4, #0x31
  403324:	54001c60 	b.eq	4036b0 <_nl_load_domain+0xa10>  // b.none
  403328:	7100cc9f 	cmp	w4, #0x33
  40332c:	54000e41 	b.ne	4034f4 <_nl_load_domain+0x854>  // b.any
  403330:	39401430 	ldrb	w16, [x1, #5]
  403334:	d2800004 	mov	x4, #0x0                   	// #0
  403338:	7100ca1f 	cmp	w16, #0x32
  40333c:	54ffe2c1 	b.ne	402f94 <_nl_load_domain+0x2f4>  // b.any
  403340:	39401821 	ldrb	w1, [x1, #6]
  403344:	35ffe281 	cbnz	w1, 402f94 <_nl_load_domain+0x2f4>
  403348:	7101917f 	cmp	w11, #0x64
  40334c:	54004400 	b.eq	403bcc <_nl_load_domain+0xf2c>  // b.none
  403350:	b94033e1 	ldr	w1, [sp, #48]
  403354:	35004401 	cbnz	w1, 403bd4 <_nl_load_domain+0xf34>
  403358:	7101bd7f 	cmp	w11, #0x6f
  40335c:	54004480 	b.eq	403bec <_nl_load_domain+0xf4c>  // b.none
  403360:	7101d57f 	cmp	w11, #0x75
  403364:	54005520 	b.eq	403e08 <_nl_load_domain+0x1168>  // b.none
  403368:	7101e17f 	cmp	w11, #0x78
  40336c:	d00002a4 	adrp	x4, 459000 <free_slotinfo+0x30>
  403370:	9116e084 	add	x4, x4, #0x5b8
  403374:	9a8413c4 	csel	x4, x30, x4, ne  // ne = any
  403378:	17ffff07 	b	402f94 <_nl_load_domain+0x2f4>
  40337c:	aa1c03e0 	mov	x0, x28
  403380:	94005878 	bl	419560 <__libc_malloc>
  403384:	aa0003fb 	mov	x27, x0
  403388:	b4000580 	cbz	x0, 403438 <_nl_load_domain+0x798>
  40338c:	f0000476 	adrp	x22, 492000 <tunable_list+0x528>
  403390:	f946f2d6 	ldr	x22, [x22, #3552]
  403394:	b90003fa 	str	w26, [sp]
  403398:	2a1803fa 	mov	w26, w24
  40339c:	aa1c03f8 	mov	x24, x28
  4033a0:	f90007f9 	str	x25, [sp, #8]
  4033a4:	aa0003f9 	mov	x25, x0
  4033a8:	aa1803e2 	mov	x2, x24
  4033ac:	aa1903e1 	mov	x1, x25
  4033b0:	2a1a03e0 	mov	w0, w26
  4033b4:	9400764b 	bl	420ce0 <__read_nocancel>
  4033b8:	f100001f 	cmp	x0, #0x0
  4033bc:	54ffe84d 	b.le	4030c4 <_nl_load_domain+0x424>
  4033c0:	8b000339 	add	x25, x25, x0
  4033c4:	eb000318 	subs	x24, x24, x0
  4033c8:	54ffff01 	b.ne	4033a8 <_nl_load_domain+0x708>  // b.any
  4033cc:	2a1a03e0 	mov	w0, w26
  4033d0:	b94003fa 	ldr	w26, [sp]
  4033d4:	f94007f9 	ldr	x25, [sp, #8]
  4033d8:	94007592 	bl	420a20 <__close_nocancel>
  4033dc:	b9400363 	ldr	w3, [x27]
  4033e0:	52825bc1 	mov	w1, #0x12de                	// #4830
  4033e4:	72b2a081 	movk	w1, #0x9504, lsl #16
  4033e8:	528092a0 	mov	w0, #0x495                 	// #1173
  4033ec:	6b01007f 	cmp	w3, w1
  4033f0:	72bbc240 	movk	w0, #0xde12, lsl #16
  4033f4:	1a9f07f7 	cset	w23, ne  // ne = any
  4033f8:	710002ff 	cmp	w23, #0x0
  4033fc:	7a401064 	ccmp	w3, w0, #0x4, ne  // ne = any
  403400:	54ffce60 	b.eq	402dcc <_nl_load_domain+0x12c>  // b.none
  403404:	aa1b03e0 	mov	x0, x27
  403408:	940059ba 	bl	419af0 <__free>
  40340c:	91264260 	add	x0, x19, #0x990
  403410:	a95973fb 	ldp	x27, x28, [sp, #400]
  403414:	b9400402 	ldr	w2, [x0, #4]
  403418:	51000442 	sub	w2, w2, #0x1
  40341c:	17ffff36 	b	4030f4 <_nl_load_domain+0x454>
  403420:	34000537 	cbz	w23, 4034c4 <_nl_load_domain+0x824>
  403424:	f94017e0 	ldr	x0, [sp, #40]
  403428:	b8787802 	ldr	w2, [x0, x24, lsl #2]
  40342c:	17ffff03 	b	403038 <_nl_load_domain+0x398>
  403430:	52800037 	mov	w23, #0x1                   	// #1
  403434:	17fffef9 	b	403018 <_nl_load_domain+0x378>
  403438:	a95973fb 	ldp	x27, x28, [sp, #400]
  40343c:	17ffff29 	b	4030e0 <_nl_load_domain+0x440>
  403440:	a945e3fc 	ldp	x28, x24, [sp, #88]
  403444:	aa1a03e7 	mov	x7, x26
  403448:	b94053fa 	ldr	w26, [sp, #80]
  40344c:	f9400bfb 	ldr	x27, [sp, #16]
  403450:	f94037f4 	ldr	x20, [sp, #104]
  403454:	aa0703e0 	mov	x0, x7
  403458:	940059a6 	bl	419af0 <__free>
  40345c:	d2800000 	mov	x0, #0x0                   	// #0
  403460:	17ffff6a 	b	403208 <_nl_load_domain+0x568>
  403464:	d2800004 	mov	x4, #0x0                   	// #0
  403468:	17fffecb 	b	402f94 <_nl_load_domain+0x2f4>
  40346c:	9100105b 	add	x27, x2, #0x4
  403470:	d2800001 	mov	x1, #0x0                   	// #0
  403474:	1400000d 	b	4034a8 <_nl_load_domain+0x808>
  403478:	5ac00863 	rev	w3, w3
  40347c:	5ac00800 	rev	w0, w0
  403480:	8b010074 	add	x20, x3, x1
  403484:	3100041f 	cmn	w0, #0x1
  403488:	54ffde60 	b.eq	403054 <_nl_load_domain+0x3b4>  // b.none
  40348c:	6b19001f 	cmp	w0, w25
  403490:	54fffd82 	b.cs	403440 <_nl_load_domain+0x7a0>  // b.hs, b.nlast
  403494:	f8605b40 	ldr	x0, [x26, w0, uxtw #3]
  403498:	b4ffdf40 	cbz	x0, 403080 <_nl_load_domain+0x3e0>
  40349c:	97fff399 	bl	400300 <.plt+0x60>
  4034a0:	9100237b 	add	x27, x27, #0x8
  4034a4:	8b140001 	add	x1, x0, x20
  4034a8:	52825bc2 	mov	w2, #0x12de                	// #4830
  4034ac:	29400363 	ldp	w3, w0, [x27]
  4034b0:	72b2a082 	movk	w2, #0x9504, lsl #16
  4034b4:	6b0202df 	cmp	w22, w2
  4034b8:	54fffe01 	b.ne	403478 <_nl_load_domain+0x7d8>  // b.any
  4034bc:	8b234034 	add	x20, x1, w3, uxtw
  4034c0:	17fffff1 	b	403484 <_nl_load_domain+0x7e4>
  4034c4:	f94027e0 	ldr	x0, [sp, #72]
  4034c8:	b8787802 	ldr	w2, [x0, x24, lsl #2]
  4034cc:	17fffedb 	b	403038 <_nl_load_domain+0x398>
  4034d0:	f94027e0 	ldr	x0, [sp, #72]
  4034d4:	b8787802 	ldr	w2, [x0, x24, lsl #2]
  4034d8:	17fffed7 	b	403034 <_nl_load_domain+0x394>
  4034dc:	f9401300 	ldr	x0, [x24, #32]
  4034e0:	17ffff4a 	b	403208 <_nl_load_domain+0x568>
  4034e4:	8b214361 	add	x1, x27, w1, uxtw
  4034e8:	2a0003e0 	mov	w0, w0
  4034ec:	f90027e1 	str	x1, [sp, #72]
  4034f0:	17fffeb6 	b	402fc8 <_nl_load_domain+0x328>
  4034f4:	7100d89f 	cmp	w4, #0x36
  4034f8:	54000261 	b.ne	403544 <_nl_load_domain+0x8a4>  // b.any
  4034fc:	39401430 	ldrb	w16, [x1, #5]
  403500:	d2800004 	mov	x4, #0x0                   	// #0
  403504:	7100d21f 	cmp	w16, #0x34
  403508:	54ffd461 	b.ne	402f94 <_nl_load_domain+0x2f4>  // b.any
  40350c:	39401821 	ldrb	w1, [x1, #6]
  403510:	35ffd421 	cbnz	w1, 402f94 <_nl_load_domain+0x2f4>
  403514:	7101917f 	cmp	w11, #0x64
  403518:	54003560 	b.eq	403bc4 <_nl_load_domain+0xf24>  // b.none
  40351c:	b94033e1 	ldr	w1, [sp, #48]
  403520:	350045c1 	cbnz	w1, 403dd8 <_nl_load_domain+0x1138>
  403524:	7101bd7f 	cmp	w11, #0x6f
  403528:	54003720 	b.eq	403c0c <_nl_load_domain+0xf6c>  // b.none
  40352c:	7101d57f 	cmp	w11, #0x75
  403530:	540036a0 	b.eq	403c04 <_nl_load_domain+0xf64>  // b.none
  403534:	f9400be1 	ldr	x1, [sp, #16]
  403538:	7101e17f 	cmp	w11, #0x78
  40353c:	9a8102e4 	csel	x4, x23, x1, eq  // eq = none
  403540:	17fffe95 	b	402f94 <_nl_load_domain+0x2f4>
  403544:	7101309f 	cmp	w4, #0x4c
  403548:	54000341 	b.ne	4035b0 <_nl_load_domain+0x910>  // b.any
  40354c:	39401430 	ldrb	w16, [x1, #5]
  403550:	d2800004 	mov	x4, #0x0                   	// #0
  403554:	7101161f 	cmp	w16, #0x45
  403558:	54ffd1e1 	b.ne	402f94 <_nl_load_domain+0x2f4>  // b.any
  40355c:	39401830 	ldrb	w16, [x1, #6]
  403560:	7101061f 	cmp	w16, #0x41
  403564:	54ffd181 	b.ne	402f94 <_nl_load_domain+0x2f4>  // b.any
  403568:	39401c30 	ldrb	w16, [x1, #7]
  40356c:	71014e1f 	cmp	w16, #0x53
  403570:	54ffd121 	b.ne	402f94 <_nl_load_domain+0x2f4>  // b.any
  403574:	39402030 	ldrb	w16, [x1, #8]
  403578:	7101521f 	cmp	w16, #0x54
  40357c:	54ffd0c1 	b.ne	402f94 <_nl_load_domain+0x2f4>  // b.any
  403580:	39402424 	ldrb	w4, [x1, #9]
  403584:	7100e09f 	cmp	w4, #0x38
  403588:	54003c40 	b.eq	403d10 <_nl_load_domain+0x1070>  // b.none
  40358c:	7100c49f 	cmp	w4, #0x31
  403590:	54003b60 	b.eq	403cfc <_nl_load_domain+0x105c>  // b.none
  403594:	7100cc9f 	cmp	w4, #0x33
  403598:	540035c1 	b.ne	403c50 <_nl_load_domain+0xfb0>  // b.any
  40359c:	39402824 	ldrb	w4, [x1, #10]
  4035a0:	7100c89f 	cmp	w4, #0x32
  4035a4:	54003380 	b.eq	403c14 <_nl_load_domain+0xf74>  // b.none
  4035a8:	d2800004 	mov	x4, #0x0                   	// #0
  4035ac:	17fffe7a 	b	402f94 <_nl_load_domain+0x2f4>
  4035b0:	7101189f 	cmp	w4, #0x46
  4035b4:	540002e1 	b.ne	403610 <_nl_load_domain+0x970>  // b.any
  4035b8:	39401430 	ldrb	w16, [x1, #5]
  4035bc:	d2800004 	mov	x4, #0x0                   	// #0
  4035c0:	7101061f 	cmp	w16, #0x41
  4035c4:	54ffce81 	b.ne	402f94 <_nl_load_domain+0x2f4>  // b.any
  4035c8:	39401830 	ldrb	w16, [x1, #6]
  4035cc:	71014e1f 	cmp	w16, #0x53
  4035d0:	54ffce21 	b.ne	402f94 <_nl_load_domain+0x2f4>  // b.any
  4035d4:	39401c30 	ldrb	w16, [x1, #7]
  4035d8:	7101521f 	cmp	w16, #0x54
  4035dc:	54ffcdc1 	b.ne	402f94 <_nl_load_domain+0x2f4>  // b.any
  4035e0:	39402024 	ldrb	w4, [x1, #8]
  4035e4:	7100e09f 	cmp	w4, #0x38
  4035e8:	54004580 	b.eq	403e98 <_nl_load_domain+0x11f8>  // b.none
  4035ec:	7100c49f 	cmp	w4, #0x31
  4035f0:	540044a0 	b.eq	403e84 <_nl_load_domain+0x11e4>  // b.none
  4035f4:	7100cc9f 	cmp	w4, #0x33
  4035f8:	54004381 	b.ne	403e68 <_nl_load_domain+0x11c8>  // b.any
  4035fc:	39402424 	ldrb	w4, [x1, #9]
  403600:	7100c89f 	cmp	w4, #0x32
  403604:	54004160 	b.eq	403e30 <_nl_load_domain+0x1190>  // b.none
  403608:	d2800004 	mov	x4, #0x0                   	// #0
  40360c:	17fffe62 	b	402f94 <_nl_load_domain+0x2f4>
  403610:	7101349f 	cmp	w4, #0x4d
  403614:	54000741 	b.ne	4036fc <_nl_load_domain+0xa5c>  // b.any
  403618:	39401430 	ldrb	w16, [x1, #5]
  40361c:	d2800004 	mov	x4, #0x0                   	// #0
  403620:	7101061f 	cmp	w16, #0x41
  403624:	54ffcb81 	b.ne	402f94 <_nl_load_domain+0x2f4>  // b.any
  403628:	39401830 	ldrb	w16, [x1, #6]
  40362c:	7101621f 	cmp	w16, #0x58
  403630:	54ffcb21 	b.ne	402f94 <_nl_load_domain+0x2f4>  // b.any
  403634:	39401c21 	ldrb	w1, [x1, #7]
  403638:	35002d61 	cbnz	w1, 403be4 <_nl_load_domain+0xf44>
  40363c:	7101917f 	cmp	w11, #0x64
  403640:	54003d80 	b.eq	403df0 <_nl_load_domain+0x1150>  // b.none
  403644:	b94033e1 	ldr	w1, [sp, #48]
  403648:	35003d01 	cbnz	w1, 403de8 <_nl_load_domain+0x1148>
  40364c:	7101bd7f 	cmp	w11, #0x6f
  403650:	54003d80 	b.eq	403e00 <_nl_load_domain+0x1160>  // b.none
  403654:	7101d57f 	cmp	w11, #0x75
  403658:	54003d00 	b.eq	403df8 <_nl_load_domain+0x1158>  // b.none
  40365c:	f9400be1 	ldr	x1, [sp, #16]
  403660:	7101e17f 	cmp	w11, #0x78
  403664:	9a971024 	csel	x4, x1, x23, ne  // ne = any
  403668:	17fffe4b 	b	402f94 <_nl_load_domain+0x2f4>
  40366c:	39401421 	ldrb	w1, [x1, #5]
  403670:	d2800004 	mov	x4, #0x0                   	// #0
  403674:	35ffc901 	cbnz	w1, 402f94 <_nl_load_domain+0x2f4>
  403678:	f94017e4 	ldr	x4, [sp, #40]
  40367c:	7101917f 	cmp	w11, #0x64
  403680:	54ffc8a0 	b.eq	402f94 <_nl_load_domain+0x2f4>  // b.none
  403684:	b94033e1 	ldr	w1, [sp, #48]
  403688:	35002721 	cbnz	w1, 403b6c <_nl_load_domain+0xecc>
  40368c:	7101bd7f 	cmp	w11, #0x6f
  403690:	540026a0 	b.eq	403b64 <_nl_load_domain+0xec4>  // b.none
  403694:	7101d57f 	cmp	w11, #0x75
  403698:	54002a20 	b.eq	403bdc <_nl_load_domain+0xf3c>  // b.none
  40369c:	7101e17f 	cmp	w11, #0x78
  4036a0:	d00002a4 	adrp	x4, 459000 <free_slotinfo+0x30>
  4036a4:	9116e084 	add	x4, x4, #0x5b8
  4036a8:	9a8413c4 	csel	x4, x30, x4, ne  // ne = any
  4036ac:	17fffe3a 	b	402f94 <_nl_load_domain+0x2f4>
  4036b0:	39401430 	ldrb	w16, [x1, #5]
  4036b4:	d2800004 	mov	x4, #0x0                   	// #0
  4036b8:	7100da1f 	cmp	w16, #0x36
  4036bc:	54ffc6c1 	b.ne	402f94 <_nl_load_domain+0x2f4>  // b.any
  4036c0:	39401821 	ldrb	w1, [x1, #6]
  4036c4:	35ffc681 	cbnz	w1, 402f94 <_nl_load_domain+0x2f4>
  4036c8:	7101917f 	cmp	w11, #0x64
  4036cc:	54002740 	b.eq	403bb4 <_nl_load_domain+0xf14>  // b.none
  4036d0:	b94033e1 	ldr	w1, [sp, #48]
  4036d4:	350026c1 	cbnz	w1, 403bac <_nl_load_domain+0xf0c>
  4036d8:	7101bd7f 	cmp	w11, #0x6f
  4036dc:	54002900 	b.eq	403bfc <_nl_load_domain+0xf5c>  // b.none
  4036e0:	7101d57f 	cmp	w11, #0x75
  4036e4:	54002880 	b.eq	403bf4 <_nl_load_domain+0xf54>  // b.none
  4036e8:	7101e17f 	cmp	w11, #0x78
  4036ec:	d00002a4 	adrp	x4, 459000 <free_slotinfo+0x30>
  4036f0:	9116e084 	add	x4, x4, #0x5b8
  4036f4:	9a8413c4 	csel	x4, x30, x4, ne  // ne = any
  4036f8:	17fffe27 	b	402f94 <_nl_load_domain+0x2f4>
  4036fc:	7101409f 	cmp	w4, #0x50
  403700:	54003701 	b.ne	403de0 <_nl_load_domain+0x1140>  // b.any
  403704:	39401430 	ldrb	w16, [x1, #5]
  403708:	d2800004 	mov	x4, #0x0                   	// #0
  40370c:	7101521f 	cmp	w16, #0x54
  403710:	54ffc421 	b.ne	402f94 <_nl_load_domain+0x2f4>  // b.any
  403714:	39401824 	ldrb	w4, [x1, #6]
  403718:	7101489f 	cmp	w4, #0x52
  40371c:	540022c0 	b.eq	403b74 <_nl_load_domain+0xed4>  // b.none
  403720:	d2800004 	mov	x4, #0x0                   	// #0
  403724:	17fffe1c 	b	402f94 <_nl_load_domain+0x2f4>
  403728:	f94023e1 	ldr	x1, [sp, #64]
  40372c:	aa0003f6 	mov	x22, x0
  403730:	531f7800 	lsl	w0, w0, #1
  403734:	b90013e3 	str	w3, [sp, #16]
  403738:	f9000fe7 	str	x7, [sp, #24]
  40373c:	8b205020 	add	x0, x1, w0, uxtw #4
  403740:	94005788 	bl	419560 <__libc_malloc>
  403744:	f90023e0 	str	x0, [sp, #64]
  403748:	b4ffd5e0 	cbz	x0, 403204 <_nl_load_domain+0x564>
  40374c:	d37c7ec4 	ubfiz	x4, x22, #4, #32
  403750:	b94013e3 	ldr	w3, [sp, #16]
  403754:	8b040001 	add	x1, x0, x4
  403758:	f9002be1 	str	x1, [sp, #80]
  40375c:	f9403fe1 	ldr	x1, [sp, #120]
  403760:	8b040404 	add	x4, x0, x4, lsl #1
  403764:	f9400fe7 	ldr	x7, [sp, #24]
  403768:	8b010097 	add	x23, x4, x1
  40376c:	f9001300 	str	x0, [x24, #32]
  403770:	aa1b03e0 	mov	x0, x27
  403774:	f9003bfc 	str	x28, [sp, #112]
  403778:	aa1703fb 	mov	x27, x23
  40377c:	f94017fc 	ldr	x28, [sp, #40]
  403780:	d2800009 	mov	x9, #0x0                   	// #0
  403784:	52825bc8 	mov	w8, #0x12de                	// #4830
  403788:	aa0003f7 	mov	x23, x0
  40378c:	b9006bfa 	str	w26, [sp, #104]
  403790:	aa0703fa 	mov	x26, x7
  403794:	f9003ff8 	str	x24, [sp, #120]
  403798:	aa0903f8 	mov	x24, x9
  40379c:	f9004bf9 	str	x25, [sp, #144]
  4037a0:	2a0303f9 	mov	w25, w3
  4037a4:	72b2a088 	movk	w8, #0x9504, lsl #16
  4037a8:	b90033ff 	str	wzr, [sp, #48]
  4037ac:	a90853e4 	stp	x4, x20, [sp, #128]
  4037b0:	52800006 	mov	w6, #0x0                   	// #0
  4037b4:	6b08033f 	cmp	w25, w8
  4037b8:	54000580 	b.eq	403868 <_nl_load_domain+0xbc8>  // b.none
  4037bc:	34001286 	cbz	w6, 403a0c <_nl_load_domain+0xd6c>
  4037c0:	b8787b81 	ldr	w1, [x28, x24, lsl #2]
  4037c4:	5ac00821 	rev	w1, w1
  4037c8:	8b0102e1 	add	x1, x23, x1
  4037cc:	b9400820 	ldr	w0, [x1, #8]
  4037d0:	3100041f 	cmn	w0, #0x1
  4037d4:	54000561 	b.ne	403880 <_nl_load_domain+0xbe0>  // b.any
  4037d8:	34001286 	cbz	w6, 403a28 <_nl_load_domain+0xd88>
  4037dc:	f9401be0 	ldr	x0, [sp, #48]
  4037e0:	f90017fc 	str	x28, [sp, #40]
  4037e4:	aa1b03fc 	mov	x28, x27
  4037e8:	b9001bff 	str	wzr, [sp, #24]
  4037ec:	d37c7c14 	ubfiz	x20, x0, #4, #32
  4037f0:	f9402be0 	ldr	x0, [sp, #80]
  4037f4:	8b140000 	add	x0, x0, x20
  4037f8:	f90033e0 	str	x0, [sp, #96]
  4037fc:	f94023e0 	ldr	x0, [sp, #64]
  403800:	8b140000 	add	x0, x0, x20
  403804:	f9002fe0 	str	x0, [sp, #88]
  403808:	b9401be0 	ldr	w0, [sp, #24]
  40380c:	6b08033f 	cmp	w25, w8
  403810:	54001200 	b.eq	403a50 <_nl_load_domain+0xdb0>  // b.none
  403814:	34001840 	cbz	w0, 403b1c <_nl_load_domain+0xe7c>
  403818:	f94017e0 	ldr	x0, [sp, #40]
  40381c:	f94033f6 	ldr	x22, [sp, #96]
  403820:	b8787800 	ldr	w0, [x0, x24, lsl #2]
  403824:	5ac00801 	rev	w1, w0
  403828:	5ac00800 	rev	w0, w0
  40382c:	8b0002e0 	add	x0, x23, x0
  403830:	b8614af4 	ldr	w20, [x23, w1, uxtw]
  403834:	5ac00a94 	rev	w20, w20
  403838:	8b1402f4 	add	x20, x23, x20
  40383c:	b9400801 	ldr	w1, [x0, #8]
  403840:	3100043f 	cmn	w1, #0x1
  403844:	540011e1 	b.ne	403a80 <_nl_load_domain+0xde0>  // b.any
  403848:	b9400400 	ldr	w0, [x0, #4]
  40384c:	5ac00800 	rev	w0, w0
  403850:	a90052c0 	stp	x0, x20, [x22]
  403854:	b9401be0 	ldr	w0, [sp, #24]
  403858:	350002c0 	cbnz	w0, 4038b0 <_nl_load_domain+0xc10>
  40385c:	52800020 	mov	w0, #0x1                   	// #1
  403860:	b9001be0 	str	w0, [sp, #24]
  403864:	17ffffe9 	b	403808 <_nl_load_domain+0xb68>
  403868:	34000e46 	cbz	w6, 403a30 <_nl_load_domain+0xd90>
  40386c:	b8787b81 	ldr	w1, [x28, x24, lsl #2]
  403870:	8b0102e1 	add	x1, x23, x1
  403874:	b9400820 	ldr	w0, [x1, #8]
  403878:	3100041f 	cmn	w0, #0x1
  40387c:	54fffae0 	b.eq	4037d8 <_nl_load_domain+0xb38>  // b.none
  403880:	91001021 	add	x1, x1, #0x4
  403884:	14000005 	b	403898 <_nl_load_domain+0xbf8>
  403888:	f8605b40 	ldr	x0, [x26, w0, uxtw #3]
  40388c:	b40001c0 	cbz	x0, 4038c4 <_nl_load_domain+0xc24>
  403890:	b9400c20 	ldr	w0, [x1, #12]
  403894:	91002021 	add	x1, x1, #0x8
  403898:	6b08033f 	cmp	w25, w8
  40389c:	5ac00802 	rev	w2, w0
  4038a0:	1a801040 	csel	w0, w2, w0, ne  // ne = any
  4038a4:	3100041f 	cmn	w0, #0x1
  4038a8:	54ffff01 	b.ne	403888 <_nl_load_domain+0xbe8>  // b.any
  4038ac:	17ffffcb 	b	4037d8 <_nl_load_domain+0xb38>
  4038b0:	b94033e0 	ldr	w0, [sp, #48]
  4038b4:	aa1c03fb 	mov	x27, x28
  4038b8:	f94017fc 	ldr	x28, [sp, #40]
  4038bc:	11000400 	add	w0, w0, #0x1
  4038c0:	b90033e0 	str	w0, [sp, #48]
  4038c4:	b9400be0 	ldr	w0, [sp, #8]
  4038c8:	91000718 	add	x24, x24, #0x1
  4038cc:	6b18001f 	cmp	w0, w24
  4038d0:	54fff708 	b.hi	4037b0 <_nl_load_domain+0xb10>  // b.pmore
  4038d4:	b94033e2 	ldr	w2, [sp, #48]
  4038d8:	2a1903e3 	mov	w3, w25
  4038dc:	b9403fe1 	ldr	w1, [sp, #60]
  4038e0:	aa1a03e7 	mov	x7, x26
  4038e4:	aa1703fb 	mov	x27, x23
  4038e8:	b9406bfa 	ldr	w26, [sp, #104]
  4038ec:	d2800000 	mov	x0, #0x0                   	// #0
  4038f0:	a94763fc 	ldp	x28, x24, [sp, #112]
  4038f4:	a94853e4 	ldp	x4, x20, [sp, #128]
  4038f8:	f9404bf9 	ldr	x25, [sp, #144]
  4038fc:	6b02003f 	cmp	w1, w2
  403900:	54003761 	b.ne	403fec <_nl_load_domain+0x134c>  // b.any
  403904:	b94003e6 	ldr	w6, [sp]
  403908:	52825bc8 	mov	w8, #0x12de                	// #4830
  40390c:	f94013e5 	ldr	x5, [sp, #32]
  403910:	72b2a088 	movk	w8, #0x9504, lsl #16
  403914:	b86078a1 	ldr	w1, [x5, x0, lsl #2]
  403918:	6b08007f 	cmp	w3, w8
  40391c:	5ac00822 	rev	w2, w1
  403920:	1a811041 	csel	w1, w2, w1, ne  // ne = any
  403924:	b8207881 	str	w1, [x4, x0, lsl #2]
  403928:	91000400 	add	x0, x0, #0x1
  40392c:	6b0000df 	cmp	w6, w0
  403930:	54ffff28 	b.hi	403914 <_nl_load_domain+0xc74>  // b.pmore
  403934:	f94023e0 	ldr	x0, [sp, #64]
  403938:	52800016 	mov	w22, #0x0                   	// #0
  40393c:	a90053e7 	stp	x7, x20, [sp]
  403940:	91002017 	add	x23, x0, #0x8
  403944:	b9403ff4 	ldr	w20, [sp, #60]
  403948:	f9000bf9 	str	x25, [sp, #16]
  40394c:	aa1703f9 	mov	x25, x23
  403950:	2a1603f7 	mov	w23, w22
  403954:	aa1803f6 	mov	x22, x24
  403958:	aa0403f8 	mov	x24, x4
  40395c:	f9400320 	ldr	x0, [x25]
  403960:	94000830 	bl	405a20 <__hash_string>
  403964:	b9405ac4 	ldr	w4, [x22, #88]
  403968:	51000882 	sub	w2, w4, #0x2
  40396c:	1ac40801 	udiv	w1, w0, w4
  403970:	1ac20803 	udiv	w3, w0, w2
  403974:	1b048021 	msub	w1, w1, w4, w0
  403978:	1b028063 	msub	w3, w3, w2, w0
  40397c:	8b214b02 	add	x2, x24, w1, uxtw #2
  403980:	b8615b00 	ldr	w0, [x24, w1, uxtw #2]
  403984:	11000463 	add	w3, w3, #0x1
  403988:	4b030085 	sub	w5, w4, w3
  40398c:	4b040064 	sub	w4, w3, w4
  403990:	34000140 	cbz	w0, 4039b8 <_nl_load_domain+0xd18>
  403994:	d503201f 	nop
  403998:	0b040022 	add	w2, w1, w4
  40399c:	6b05003f 	cmp	w1, w5
  4039a0:	0b030021 	add	w1, w1, w3
  4039a4:	1a823020 	csel	w0, w1, w2, cc  // cc = lo, ul, last
  4039a8:	1a823021 	csel	w1, w1, w2, cc  // cc = lo, ul, last
  4039ac:	8b000b02 	add	x2, x24, x0, lsl #2
  4039b0:	b8607b00 	ldr	w0, [x24, x0, lsl #2]
  4039b4:	35ffff20 	cbnz	w0, 403998 <_nl_load_domain+0xcf8>
  4039b8:	b9402ac0 	ldr	w0, [x22, #40]
  4039bc:	91004339 	add	x25, x25, #0x10
  4039c0:	11000400 	add	w0, w0, #0x1
  4039c4:	0b170000 	add	w0, w0, w23
  4039c8:	110006f7 	add	w23, w23, #0x1
  4039cc:	b9000040 	str	w0, [x2]
  4039d0:	6b17029f 	cmp	w20, w23
  4039d4:	54fffc41 	b.ne	40395c <_nl_load_domain+0xcbc>  // b.any
  4039d8:	b9403fe0 	ldr	w0, [sp, #60]
  4039dc:	aa1803e4 	mov	x4, x24
  4039e0:	b90042c0 	str	w0, [x22, #64]
  4039e4:	aa1603f8 	mov	x24, x22
  4039e8:	f94023e0 	ldr	x0, [sp, #64]
  4039ec:	f90026c0 	str	x0, [x22, #72]
  4039f0:	f9402be0 	ldr	x0, [sp, #80]
  4039f4:	f9002ac0 	str	x0, [x22, #80]
  4039f8:	f90032c4 	str	x4, [x22, #96]
  4039fc:	b9006adf 	str	wzr, [x22, #104]
  403a00:	a94053e7 	ldp	x7, x20, [sp]
  403a04:	f9400bf9 	ldr	x25, [sp, #16]
  403a08:	17fffdac 	b	4030b8 <_nl_load_domain+0x418>
  403a0c:	f94027e0 	ldr	x0, [sp, #72]
  403a10:	b8787801 	ldr	w1, [x0, x24, lsl #2]
  403a14:	5ac00821 	rev	w1, w1
  403a18:	8b0102e1 	add	x1, x23, x1
  403a1c:	b9400820 	ldr	w0, [x1, #8]
  403a20:	3100041f 	cmn	w0, #0x1
  403a24:	54fff2e1 	b.ne	403880 <_nl_load_domain+0xbe0>  // b.any
  403a28:	52800026 	mov	w6, #0x1                   	// #1
  403a2c:	17ffff62 	b	4037b4 <_nl_load_domain+0xb14>
  403a30:	f94027e0 	ldr	x0, [sp, #72]
  403a34:	b8787801 	ldr	w1, [x0, x24, lsl #2]
  403a38:	8b0102e1 	add	x1, x23, x1
  403a3c:	b9400820 	ldr	w0, [x1, #8]
  403a40:	3100041f 	cmn	w0, #0x1
  403a44:	54fff1e1 	b.ne	403880 <_nl_load_domain+0xbe0>  // b.any
  403a48:	52800026 	mov	w6, #0x1                   	// #1
  403a4c:	17ffff5a 	b	4037b4 <_nl_load_domain+0xb14>
  403a50:	34000780 	cbz	w0, 403b40 <_nl_load_domain+0xea0>
  403a54:	f94017e0 	ldr	x0, [sp, #40]
  403a58:	f94033f6 	ldr	x22, [sp, #96]
  403a5c:	b8787801 	ldr	w1, [x0, x24, lsl #2]
  403a60:	8b0102e0 	add	x0, x23, x1
  403a64:	b8616af4 	ldr	w20, [x23, x1]
  403a68:	8b1402f4 	add	x20, x23, x20
  403a6c:	b9400801 	ldr	w1, [x0, #8]
  403a70:	3100043f 	cmn	w1, #0x1
  403a74:	54000061 	b.ne	403a80 <_nl_load_domain+0xde0>  // b.any
  403a78:	b9400400 	ldr	w0, [x0, #4]
  403a7c:	17ffff75 	b	403850 <_nl_load_domain+0xbb0>
  403a80:	9100101b 	add	x27, x0, #0x4
  403a84:	f90006dc 	str	x28, [x22, #8]
  403a88:	f9004ff6 	str	x22, [sp, #152]
  403a8c:	aa1c03f6 	mov	x22, x28
  403a90:	29407360 	ldp	w0, w28, [x27]
  403a94:	6b08033f 	cmp	w25, w8
  403a98:	54000060 	b.eq	403aa4 <_nl_load_domain+0xe04>  // b.none
  403a9c:	5ac00800 	rev	w0, w0
  403aa0:	5ac00b9c 	rev	w28, w28
  403aa4:	350001e0 	cbnz	w0, 403ae0 <_nl_load_domain+0xe40>
  403aa8:	3100079f 	cmn	w28, #0x1
  403aac:	540002c0 	b.eq	403b04 <_nl_load_domain+0xe64>  // b.none
  403ab0:	f87c5b5c 	ldr	x28, [x26, w28, uxtw #3]
  403ab4:	b90013e8 	str	w8, [sp, #16]
  403ab8:	9100237b 	add	x27, x27, #0x8
  403abc:	aa1c03e0 	mov	x0, x28
  403ac0:	97fff210 	bl	400300 <.plt+0x60>
  403ac4:	aa0003e2 	mov	x2, x0
  403ac8:	aa1c03e1 	mov	x1, x28
  403acc:	aa1603e0 	mov	x0, x22
  403ad0:	8b0202d6 	add	x22, x22, x2
  403ad4:	97fff1f7 	bl	4002b0 <.plt+0x10>
  403ad8:	b94013e8 	ldr	w8, [sp, #16]
  403adc:	17ffffed 	b	403a90 <_nl_load_domain+0xdf0>
  403ae0:	2a0003e2 	mov	w2, w0
  403ae4:	aa1403e1 	mov	x1, x20
  403ae8:	aa1603e0 	mov	x0, x22
  403aec:	8b020294 	add	x20, x20, x2
  403af0:	8b0202d6 	add	x22, x22, x2
  403af4:	b90013e8 	str	w8, [sp, #16]
  403af8:	97fff1ee 	bl	4002b0 <.plt+0x10>
  403afc:	b94013e8 	ldr	w8, [sp, #16]
  403b00:	17ffffea 	b	403aa8 <_nl_load_domain+0xe08>
  403b04:	aa1603fc 	mov	x28, x22
  403b08:	f9404ff6 	ldr	x22, [sp, #152]
  403b0c:	f94006c0 	ldr	x0, [x22, #8]
  403b10:	cb000380 	sub	x0, x28, x0
  403b14:	f90002c0 	str	x0, [x22]
  403b18:	17ffff4f 	b	403854 <_nl_load_domain+0xbb4>
  403b1c:	f94027e0 	ldr	x0, [sp, #72]
  403b20:	f9402ff6 	ldr	x22, [sp, #88]
  403b24:	b8787801 	ldr	w1, [x0, x24, lsl #2]
  403b28:	5ac00821 	rev	w1, w1
  403b2c:	8b0102e0 	add	x0, x23, x1
  403b30:	b8616af4 	ldr	w20, [x23, x1]
  403b34:	5ac00a94 	rev	w20, w20
  403b38:	8b1402f4 	add	x20, x23, x20
  403b3c:	17ffff40 	b	40383c <_nl_load_domain+0xb9c>
  403b40:	f94027e0 	ldr	x0, [sp, #72]
  403b44:	f9402ff6 	ldr	x22, [sp, #88]
  403b48:	b8787801 	ldr	w1, [x0, x24, lsl #2]
  403b4c:	8b0102e0 	add	x0, x23, x1
  403b50:	b8616af4 	ldr	w20, [x23, x1]
  403b54:	8b1402f4 	add	x20, x23, x20
  403b58:	17ffffc5 	b	403a6c <_nl_load_domain+0xdcc>
  403b5c:	a91973fb 	stp	x27, x28, [sp, #400]
  403b60:	94007c78 	bl	422d40 <__stack_chk_fail>
  403b64:	aa0603e4 	mov	x4, x6
  403b68:	17fffd0b 	b	402f94 <_nl_load_domain+0x2f4>
  403b6c:	aa1203e4 	mov	x4, x18
  403b70:	17fffd09 	b	402f94 <_nl_load_domain+0x2f4>
  403b74:	39401c21 	ldrb	w1, [x1, #7]
  403b78:	35000221 	cbnz	w1, 403bbc <_nl_load_domain+0xf1c>
  403b7c:	7101917f 	cmp	w11, #0x64
  403b80:	540014c0 	b.eq	403e18 <_nl_load_domain+0x1178>  // b.none
  403b84:	b94033e1 	ldr	w1, [sp, #48]
  403b88:	35001501 	cbnz	w1, 403e28 <_nl_load_domain+0x1188>
  403b8c:	7101bd7f 	cmp	w11, #0x6f
  403b90:	54001480 	b.eq	403e20 <_nl_load_domain+0x1180>  // b.none
  403b94:	7101d57f 	cmp	w11, #0x75
  403b98:	540013c0 	b.eq	403e10 <_nl_load_domain+0x1170>  // b.none
  403b9c:	f9400be1 	ldr	x1, [sp, #16]
  403ba0:	7101e17f 	cmp	w11, #0x78
  403ba4:	9a971024 	csel	x4, x1, x23, ne  // ne = any
  403ba8:	17fffcfb 	b	402f94 <_nl_load_domain+0x2f4>
  403bac:	aa1203e4 	mov	x4, x18
  403bb0:	17fffcf9 	b	402f94 <_nl_load_domain+0x2f4>
  403bb4:	f94017e4 	ldr	x4, [sp, #40]
  403bb8:	17fffcf7 	b	402f94 <_nl_load_domain+0x2f4>
  403bbc:	d2800004 	mov	x4, #0x0                   	// #0
  403bc0:	17fffcf5 	b	402f94 <_nl_load_domain+0x2f4>
  403bc4:	aa0f03e4 	mov	x4, x15
  403bc8:	17fffcf3 	b	402f94 <_nl_load_domain+0x2f4>
  403bcc:	f94017e4 	ldr	x4, [sp, #40]
  403bd0:	17fffcf1 	b	402f94 <_nl_load_domain+0x2f4>
  403bd4:	aa1203e4 	mov	x4, x18
  403bd8:	17fffcef 	b	402f94 <_nl_load_domain+0x2f4>
  403bdc:	aa0503e4 	mov	x4, x5
  403be0:	17fffced 	b	402f94 <_nl_load_domain+0x2f4>
  403be4:	d2800004 	mov	x4, #0x0                   	// #0
  403be8:	17fffceb 	b	402f94 <_nl_load_domain+0x2f4>
  403bec:	aa0603e4 	mov	x4, x6
  403bf0:	17fffce9 	b	402f94 <_nl_load_domain+0x2f4>
  403bf4:	aa0503e4 	mov	x4, x5
  403bf8:	17fffce7 	b	402f94 <_nl_load_domain+0x2f4>
  403bfc:	aa0603e4 	mov	x4, x6
  403c00:	17fffce5 	b	402f94 <_nl_load_domain+0x2f4>
  403c04:	aa0c03e4 	mov	x4, x12
  403c08:	17fffce3 	b	402f94 <_nl_load_domain+0x2f4>
  403c0c:	aa0d03e4 	mov	x4, x13
  403c10:	17fffce1 	b	402f94 <_nl_load_domain+0x2f4>
  403c14:	39402c21 	ldrb	w1, [x1, #11]
  403c18:	350006e1 	cbnz	w1, 403cf4 <_nl_load_domain+0x1054>
  403c1c:	7101917f 	cmp	w11, #0x64
  403c20:	54000660 	b.eq	403cec <_nl_load_domain+0x104c>  // b.none
  403c24:	b94033e1 	ldr	w1, [sp, #48]
  403c28:	350005e1 	cbnz	w1, 403ce4 <_nl_load_domain+0x1044>
  403c2c:	7101bd7f 	cmp	w11, #0x6f
  403c30:	54000560 	b.eq	403cdc <_nl_load_domain+0x103c>  // b.none
  403c34:	7101d57f 	cmp	w11, #0x75
  403c38:	540001a0 	b.eq	403c6c <_nl_load_domain+0xfcc>  // b.none
  403c3c:	7101e17f 	cmp	w11, #0x78
  403c40:	d00002a4 	adrp	x4, 459000 <free_slotinfo+0x30>
  403c44:	9116e084 	add	x4, x4, #0x5b8
  403c48:	9a8413c4 	csel	x4, x30, x4, ne  // ne = any
  403c4c:	17fffcd2 	b	402f94 <_nl_load_domain+0x2f4>
  403c50:	7100d89f 	cmp	w4, #0x36
  403c54:	540002c1 	b.ne	403cac <_nl_load_domain+0x100c>  // b.any
  403c58:	39402824 	ldrb	w4, [x1, #10]
  403c5c:	7100d09f 	cmp	w4, #0x34
  403c60:	540000a0 	b.eq	403c74 <_nl_load_domain+0xfd4>  // b.none
  403c64:	d2800004 	mov	x4, #0x0                   	// #0
  403c68:	17fffccb 	b	402f94 <_nl_load_domain+0x2f4>
  403c6c:	aa0503e4 	mov	x4, x5
  403c70:	17fffcc9 	b	402f94 <_nl_load_domain+0x2f4>
  403c74:	39402c21 	ldrb	w1, [x1, #11]
  403c78:	350002e1 	cbnz	w1, 403cd4 <_nl_load_domain+0x1034>
  403c7c:	7101917f 	cmp	w11, #0x64
  403c80:	54000260 	b.eq	403ccc <_nl_load_domain+0x102c>  // b.none
  403c84:	b94033e1 	ldr	w1, [sp, #48]
  403c88:	350001e1 	cbnz	w1, 403cc4 <_nl_load_domain+0x1024>
  403c8c:	7101bd7f 	cmp	w11, #0x6f
  403c90:	54000160 	b.eq	403cbc <_nl_load_domain+0x101c>  // b.none
  403c94:	7101d57f 	cmp	w11, #0x75
  403c98:	540000e0 	b.eq	403cb4 <_nl_load_domain+0x1014>  // b.none
  403c9c:	f9400be1 	ldr	x1, [sp, #16]
  403ca0:	7101e17f 	cmp	w11, #0x78
  403ca4:	9a8102e4 	csel	x4, x23, x1, eq  // eq = none
  403ca8:	17fffcbb 	b	402f94 <_nl_load_domain+0x2f4>
  403cac:	d2800004 	mov	x4, #0x0                   	// #0
  403cb0:	17fffcb9 	b	402f94 <_nl_load_domain+0x2f4>
  403cb4:	aa0c03e4 	mov	x4, x12
  403cb8:	17fffcb7 	b	402f94 <_nl_load_domain+0x2f4>
  403cbc:	aa0d03e4 	mov	x4, x13
  403cc0:	17fffcb5 	b	402f94 <_nl_load_domain+0x2f4>
  403cc4:	aa0e03e4 	mov	x4, x14
  403cc8:	17fffcb3 	b	402f94 <_nl_load_domain+0x2f4>
  403ccc:	aa0f03e4 	mov	x4, x15
  403cd0:	17fffcb1 	b	402f94 <_nl_load_domain+0x2f4>
  403cd4:	d2800004 	mov	x4, #0x0                   	// #0
  403cd8:	17fffcaf 	b	402f94 <_nl_load_domain+0x2f4>
  403cdc:	aa0603e4 	mov	x4, x6
  403ce0:	17fffcad 	b	402f94 <_nl_load_domain+0x2f4>
  403ce4:	aa1203e4 	mov	x4, x18
  403ce8:	17fffcab 	b	402f94 <_nl_load_domain+0x2f4>
  403cec:	f94017e4 	ldr	x4, [sp, #40]
  403cf0:	17fffca9 	b	402f94 <_nl_load_domain+0x2f4>
  403cf4:	d2800004 	mov	x4, #0x0                   	// #0
  403cf8:	17fffca7 	b	402f94 <_nl_load_domain+0x2f4>
  403cfc:	39402824 	ldrb	w4, [x1, #10]
  403d00:	7100d89f 	cmp	w4, #0x36
  403d04:	54000240 	b.eq	403d4c <_nl_load_domain+0x10ac>  // b.none
  403d08:	d2800004 	mov	x4, #0x0                   	// #0
  403d0c:	17fffca2 	b	402f94 <_nl_load_domain+0x2f4>
  403d10:	39402821 	ldrb	w1, [x1, #10]
  403d14:	350005e1 	cbnz	w1, 403dd0 <_nl_load_domain+0x1130>
  403d18:	7101917f 	cmp	w11, #0x64
  403d1c:	54000560 	b.eq	403dc8 <_nl_load_domain+0x1128>  // b.none
  403d20:	b94033e1 	ldr	w1, [sp, #48]
  403d24:	350004e1 	cbnz	w1, 403dc0 <_nl_load_domain+0x1120>
  403d28:	7101bd7f 	cmp	w11, #0x6f
  403d2c:	54000460 	b.eq	403db8 <_nl_load_domain+0x1118>  // b.none
  403d30:	7101d57f 	cmp	w11, #0x75
  403d34:	540002a0 	b.eq	403d88 <_nl_load_domain+0x10e8>  // b.none
  403d38:	7101e17f 	cmp	w11, #0x78
  403d3c:	d00002a4 	adrp	x4, 459000 <free_slotinfo+0x30>
  403d40:	9116e084 	add	x4, x4, #0x5b8
  403d44:	9a8413c4 	csel	x4, x30, x4, ne  // ne = any
  403d48:	17fffc93 	b	402f94 <_nl_load_domain+0x2f4>
  403d4c:	39402c21 	ldrb	w1, [x1, #11]
  403d50:	35000301 	cbnz	w1, 403db0 <_nl_load_domain+0x1110>
  403d54:	7101917f 	cmp	w11, #0x64
  403d58:	54000280 	b.eq	403da8 <_nl_load_domain+0x1108>  // b.none
  403d5c:	b94033e1 	ldr	w1, [sp, #48]
  403d60:	35000201 	cbnz	w1, 403da0 <_nl_load_domain+0x1100>
  403d64:	7101bd7f 	cmp	w11, #0x6f
  403d68:	54000180 	b.eq	403d98 <_nl_load_domain+0x10f8>  // b.none
  403d6c:	7101d57f 	cmp	w11, #0x75
  403d70:	54000100 	b.eq	403d90 <_nl_load_domain+0x10f0>  // b.none
  403d74:	7101e17f 	cmp	w11, #0x78
  403d78:	d00002a4 	adrp	x4, 459000 <free_slotinfo+0x30>
  403d7c:	9116e084 	add	x4, x4, #0x5b8
  403d80:	9a8413c4 	csel	x4, x30, x4, ne  // ne = any
  403d84:	17fffc84 	b	402f94 <_nl_load_domain+0x2f4>
  403d88:	aa0503e4 	mov	x4, x5
  403d8c:	17fffc82 	b	402f94 <_nl_load_domain+0x2f4>
  403d90:	aa0503e4 	mov	x4, x5
  403d94:	17fffc80 	b	402f94 <_nl_load_domain+0x2f4>
  403d98:	aa0603e4 	mov	x4, x6
  403d9c:	17fffc7e 	b	402f94 <_nl_load_domain+0x2f4>
  403da0:	aa1203e4 	mov	x4, x18
  403da4:	17fffc7c 	b	402f94 <_nl_load_domain+0x2f4>
  403da8:	f94017e4 	ldr	x4, [sp, #40]
  403dac:	17fffc7a 	b	402f94 <_nl_load_domain+0x2f4>
  403db0:	d2800004 	mov	x4, #0x0                   	// #0
  403db4:	17fffc78 	b	402f94 <_nl_load_domain+0x2f4>
  403db8:	aa0603e4 	mov	x4, x6
  403dbc:	17fffc76 	b	402f94 <_nl_load_domain+0x2f4>
  403dc0:	aa1203e4 	mov	x4, x18
  403dc4:	17fffc74 	b	402f94 <_nl_load_domain+0x2f4>
  403dc8:	f94017e4 	ldr	x4, [sp, #40]
  403dcc:	17fffc72 	b	402f94 <_nl_load_domain+0x2f4>
  403dd0:	d2800004 	mov	x4, #0x0                   	// #0
  403dd4:	17fffc70 	b	402f94 <_nl_load_domain+0x2f4>
  403dd8:	aa0e03e4 	mov	x4, x14
  403ddc:	17fffc6e 	b	402f94 <_nl_load_domain+0x2f4>
  403de0:	d2800004 	mov	x4, #0x0                   	// #0
  403de4:	17fffc6c 	b	402f94 <_nl_load_domain+0x2f4>
  403de8:	aa0e03e4 	mov	x4, x14
  403dec:	17fffc6a 	b	402f94 <_nl_load_domain+0x2f4>
  403df0:	aa0f03e4 	mov	x4, x15
  403df4:	17fffc68 	b	402f94 <_nl_load_domain+0x2f4>
  403df8:	aa0c03e4 	mov	x4, x12
  403dfc:	17fffc66 	b	402f94 <_nl_load_domain+0x2f4>
  403e00:	aa0d03e4 	mov	x4, x13
  403e04:	17fffc64 	b	402f94 <_nl_load_domain+0x2f4>
  403e08:	aa0503e4 	mov	x4, x5
  403e0c:	17fffc62 	b	402f94 <_nl_load_domain+0x2f4>
  403e10:	aa0c03e4 	mov	x4, x12
  403e14:	17fffc60 	b	402f94 <_nl_load_domain+0x2f4>
  403e18:	aa0f03e4 	mov	x4, x15
  403e1c:	17fffc5e 	b	402f94 <_nl_load_domain+0x2f4>
  403e20:	aa0d03e4 	mov	x4, x13
  403e24:	17fffc5c 	b	402f94 <_nl_load_domain+0x2f4>
  403e28:	aa0e03e4 	mov	x4, x14
  403e2c:	17fffc5a 	b	402f94 <_nl_load_domain+0x2f4>
  403e30:	39402821 	ldrb	w1, [x1, #10]
  403e34:	35000a01 	cbnz	w1, 403f74 <_nl_load_domain+0x12d4>
  403e38:	7101917f 	cmp	w11, #0x64
  403e3c:	54000980 	b.eq	403f6c <_nl_load_domain+0x12cc>  // b.none
  403e40:	b94033e1 	ldr	w1, [sp, #48]
  403e44:	35000901 	cbnz	w1, 403f64 <_nl_load_domain+0x12c4>
  403e48:	7101bd7f 	cmp	w11, #0x6f
  403e4c:	54000880 	b.eq	403f5c <_nl_load_domain+0x12bc>  // b.none
  403e50:	7101d57f 	cmp	w11, #0x75
  403e54:	54000940 	b.eq	403f7c <_nl_load_domain+0x12dc>  // b.none
  403e58:	f9400be1 	ldr	x1, [sp, #16]
  403e5c:	7101e17f 	cmp	w11, #0x78
  403e60:	9a971024 	csel	x4, x1, x23, ne  // ne = any
  403e64:	17fffc4c 	b	402f94 <_nl_load_domain+0x2f4>
  403e68:	7100d89f 	cmp	w4, #0x36
  403e6c:	54000a81 	b.ne	403fbc <_nl_load_domain+0x131c>  // b.any
  403e70:	39402424 	ldrb	w4, [x1, #9]
  403e74:	7100d09f 	cmp	w4, #0x34
  403e78:	54000860 	b.eq	403f84 <_nl_load_domain+0x12e4>  // b.none
  403e7c:	d2800004 	mov	x4, #0x0                   	// #0
  403e80:	17fffc45 	b	402f94 <_nl_load_domain+0x2f4>
  403e84:	39402424 	ldrb	w4, [x1, #9]
  403e88:	7100d89f 	cmp	w4, #0x36
  403e8c:	54000240 	b.eq	403ed4 <_nl_load_domain+0x1234>  // b.none
  403e90:	d2800004 	mov	x4, #0x0                   	// #0
  403e94:	17fffc40 	b	402f94 <_nl_load_domain+0x2f4>
  403e98:	39402421 	ldrb	w1, [x1, #9]
  403e9c:	350005c1 	cbnz	w1, 403f54 <_nl_load_domain+0x12b4>
  403ea0:	7101917f 	cmp	w11, #0x64
  403ea4:	54000540 	b.eq	403f4c <_nl_load_domain+0x12ac>  // b.none
  403ea8:	b94033e1 	ldr	w1, [sp, #48]
  403eac:	350004c1 	cbnz	w1, 403f44 <_nl_load_domain+0x12a4>
  403eb0:	7101bd7f 	cmp	w11, #0x6f
  403eb4:	54000440 	b.eq	403f3c <_nl_load_domain+0x129c>  // b.none
  403eb8:	7101d57f 	cmp	w11, #0x75
  403ebc:	54000280 	b.eq	403f0c <_nl_load_domain+0x126c>  // b.none
  403ec0:	7101e17f 	cmp	w11, #0x78
  403ec4:	d00002a4 	adrp	x4, 459000 <free_slotinfo+0x30>
  403ec8:	9116e084 	add	x4, x4, #0x5b8
  403ecc:	9a9e0084 	csel	x4, x4, x30, eq  // eq = none
  403ed0:	17fffc31 	b	402f94 <_nl_load_domain+0x2f4>
  403ed4:	39402821 	ldrb	w1, [x1, #10]
  403ed8:	350002e1 	cbnz	w1, 403f34 <_nl_load_domain+0x1294>
  403edc:	7101917f 	cmp	w11, #0x64
  403ee0:	54000260 	b.eq	403f2c <_nl_load_domain+0x128c>  // b.none
  403ee4:	b94033e1 	ldr	w1, [sp, #48]
  403ee8:	350001e1 	cbnz	w1, 403f24 <_nl_load_domain+0x1284>
  403eec:	7101bd7f 	cmp	w11, #0x6f
  403ef0:	54000160 	b.eq	403f1c <_nl_load_domain+0x127c>  // b.none
  403ef4:	7101d57f 	cmp	w11, #0x75
  403ef8:	540000e0 	b.eq	403f14 <_nl_load_domain+0x1274>  // b.none
  403efc:	f9400be1 	ldr	x1, [sp, #16]
  403f00:	7101e17f 	cmp	w11, #0x78
  403f04:	9a971024 	csel	x4, x1, x23, ne  // ne = any
  403f08:	17fffc23 	b	402f94 <_nl_load_domain+0x2f4>
  403f0c:	aa0503e4 	mov	x4, x5
  403f10:	17fffc21 	b	402f94 <_nl_load_domain+0x2f4>
  403f14:	aa0c03e4 	mov	x4, x12
  403f18:	17fffc1f 	b	402f94 <_nl_load_domain+0x2f4>
  403f1c:	aa0d03e4 	mov	x4, x13
  403f20:	17fffc1d 	b	402f94 <_nl_load_domain+0x2f4>
  403f24:	aa0e03e4 	mov	x4, x14
  403f28:	17fffc1b 	b	402f94 <_nl_load_domain+0x2f4>
  403f2c:	aa0f03e4 	mov	x4, x15
  403f30:	17fffc19 	b	402f94 <_nl_load_domain+0x2f4>
  403f34:	d2800004 	mov	x4, #0x0                   	// #0
  403f38:	17fffc17 	b	402f94 <_nl_load_domain+0x2f4>
  403f3c:	aa0603e4 	mov	x4, x6
  403f40:	17fffc15 	b	402f94 <_nl_load_domain+0x2f4>
  403f44:	aa1203e4 	mov	x4, x18
  403f48:	17fffc13 	b	402f94 <_nl_load_domain+0x2f4>
  403f4c:	f94017e4 	ldr	x4, [sp, #40]
  403f50:	17fffc11 	b	402f94 <_nl_load_domain+0x2f4>
  403f54:	d2800004 	mov	x4, #0x0                   	// #0
  403f58:	17fffc0f 	b	402f94 <_nl_load_domain+0x2f4>
  403f5c:	aa0d03e4 	mov	x4, x13
  403f60:	17fffc0d 	b	402f94 <_nl_load_domain+0x2f4>
  403f64:	aa0e03e4 	mov	x4, x14
  403f68:	17fffc0b 	b	402f94 <_nl_load_domain+0x2f4>
  403f6c:	aa0f03e4 	mov	x4, x15
  403f70:	17fffc09 	b	402f94 <_nl_load_domain+0x2f4>
  403f74:	d2800004 	mov	x4, #0x0                   	// #0
  403f78:	17fffc07 	b	402f94 <_nl_load_domain+0x2f4>
  403f7c:	aa0c03e4 	mov	x4, x12
  403f80:	17fffc05 	b	402f94 <_nl_load_domain+0x2f4>
  403f84:	39402821 	ldrb	w1, [x1, #10]
  403f88:	350002e1 	cbnz	w1, 403fe4 <_nl_load_domain+0x1344>
  403f8c:	7101917f 	cmp	w11, #0x64
  403f90:	54000260 	b.eq	403fdc <_nl_load_domain+0x133c>  // b.none
  403f94:	b94033e1 	ldr	w1, [sp, #48]
  403f98:	350001e1 	cbnz	w1, 403fd4 <_nl_load_domain+0x1334>
  403f9c:	7101bd7f 	cmp	w11, #0x6f
  403fa0:	54000160 	b.eq	403fcc <_nl_load_domain+0x132c>  // b.none
  403fa4:	7101d57f 	cmp	w11, #0x75
  403fa8:	540000e0 	b.eq	403fc4 <_nl_load_domain+0x1324>  // b.none
  403fac:	f9400be1 	ldr	x1, [sp, #16]
  403fb0:	7101e17f 	cmp	w11, #0x78
  403fb4:	9a971024 	csel	x4, x1, x23, ne  // ne = any
  403fb8:	17fffbf7 	b	402f94 <_nl_load_domain+0x2f4>
  403fbc:	d2800004 	mov	x4, #0x0                   	// #0
  403fc0:	17fffbf5 	b	402f94 <_nl_load_domain+0x2f4>
  403fc4:	aa0c03e4 	mov	x4, x12
  403fc8:	17fffbf3 	b	402f94 <_nl_load_domain+0x2f4>
  403fcc:	aa0d03e4 	mov	x4, x13
  403fd0:	17fffbf1 	b	402f94 <_nl_load_domain+0x2f4>
  403fd4:	aa0e03e4 	mov	x4, x14
  403fd8:	17fffbef 	b	402f94 <_nl_load_domain+0x2f4>
  403fdc:	aa0f03e4 	mov	x4, x15
  403fe0:	17fffbed 	b	402f94 <_nl_load_domain+0x2f4>
  403fe4:	d2800004 	mov	x4, #0x0                   	// #0
  403fe8:	17fffbeb 	b	402f94 <_nl_load_domain+0x2f4>
  403fec:	97fff0d5 	bl	400340 <abort>

0000000000403ff0 <alias_compare>:
  403ff0:	f9400000 	ldr	x0, [x0]
  403ff4:	f0000462 	adrp	x2, 492000 <tunable_list+0x528>
  403ff8:	f9400021 	ldr	x1, [x1]
  403ffc:	91280042 	add	x2, x2, #0xa00
  404000:	14006204 	b	41c810 <__strcasecmp_l>

0000000000404004 <read_alias_file>:
  404004:	a9ba7bfd 	stp	x29, x30, [sp, #-96]!
  404008:	910003fd 	mov	x29, sp
  40400c:	a90153f3 	stp	x19, x20, [sp, #16]
  404010:	93407c34 	sxtw	x20, w1
  404014:	91007683 	add	x3, x20, #0x1d
  404018:	a9025bf5 	stp	x21, x22, [sp, #32]
  40401c:	9270bc64 	and	x4, x3, #0xffffffffffff0000
  404020:	aa1403f3 	mov	x19, x20
  404024:	a90363f7 	stp	x23, x24, [sp, #48]
  404028:	d0000478 	adrp	x24, 492000 <tunable_list+0x528>
  40402c:	927cec63 	and	x3, x3, #0xfffffffffffffff0
  404030:	a9046bf9 	stp	x25, x26, [sp, #64]
  404034:	a90573fb 	stp	x27, x28, [sp, #80]
  404038:	d10803ff 	sub	sp, sp, #0x200
  40403c:	cb2463e4 	sub	x4, sp, x4
  404040:	f945fb02 	ldr	x2, [x24, #3056]
  404044:	f9400041 	ldr	x1, [x2]
  404048:	f81f83a1 	stur	x1, [x29, #-8]
  40404c:	d2800001 	mov	x1, #0x0                   	// #0
  404050:	eb2463ff 	cmp	sp, x4
  404054:	540000a0 	b.eq	404068 <read_alias_file+0x64>  // b.none
  404058:	d14043ff 	sub	sp, sp, #0x10, lsl #12
  40405c:	f90203ff 	str	xzr, [sp, #1024]
  404060:	eb2463ff 	cmp	sp, x4
  404064:	54ffffa1 	b.ne	404058 <read_alias_file+0x54>  // b.any
  404068:	92403c63 	and	x3, x3, #0xffff
  40406c:	cb2363ff 	sub	sp, sp, x3
  404070:	f90003ff 	str	xzr, [sp]
  404074:	f110007f 	cmp	x3, #0x400
  404078:	54001fc2 	b.cs	404470 <read_alias_file+0x46c>  // b.hs, b.nlast
  40407c:	910043e4 	add	x4, sp, #0x10
  404080:	aa0003e1 	mov	x1, x0
  404084:	aa1403e2 	mov	x2, x20
  404088:	aa0403e0 	mov	x0, x4
  40408c:	97fff089 	bl	4002b0 <.plt+0x10>
  404090:	8b140014 	add	x20, x0, x20
  404094:	b00002a2 	adrp	x2, 459000 <free_slotinfo+0x30>
  404098:	91180042 	add	x2, x2, #0x600
  40409c:	b00002a1 	adrp	x1, 459000 <free_slotinfo+0x30>
  4040a0:	9117e021 	add	x1, x1, #0x5f8
  4040a4:	f9400044 	ldr	x4, [x2]
  4040a8:	f833c804 	str	x4, [x0, w19, sxtw]
  4040ac:	f8406042 	ldur	x2, [x2, #6]
  4040b0:	f8006282 	stur	x2, [x20, #6]
  4040b4:	9400228b 	bl	40cae0 <_IO_new_fopen>
  4040b8:	aa0003f5 	mov	x21, x0
  4040bc:	b4001de0 	cbz	x0, 404478 <read_alias_file+0x474>
  4040c0:	b9400001 	ldr	w1, [x0]
  4040c4:	d10663b4 	sub	x20, x29, #0x198
  4040c8:	d2800019 	mov	x25, #0x0                   	// #0
  4040cc:	32110022 	orr	w2, w1, #0x8000
  4040d0:	b9000002 	str	w2, [x0]
  4040d4:	37201f21 	tbnz	w1, #4, 4044b8 <read_alias_file+0x4b4>
  4040d8:	d0000460 	adrp	x0, 492000 <tunable_list+0x528>
  4040dc:	f9476000 	ldr	x0, [x0, #3776]
  4040e0:	d53bd056 	mrs	x22, tpidr_el0
  4040e4:	b0000eb7 	adrp	x23, 5d9000 <user_memory_pressure_sink>
  4040e8:	9126a2f7 	add	x23, x23, #0x9a8
  4040ec:	8b0002d6 	add	x22, x22, x0
  4040f0:	aa1503e2 	mov	x2, x21
  4040f4:	aa1403e0 	mov	x0, x20
  4040f8:	52803201 	mov	w1, #0x190                 	// #400
  4040fc:	94002cdd 	bl	40f470 <__fgets_unlocked>
  404100:	b40002c0 	cbz	x0, 404158 <read_alias_file+0x154>
  404104:	52800141 	mov	w1, #0xa                   	// #10
  404108:	aa1403e0 	mov	x0, x20
  40410c:	94005c4d 	bl	41b240 <strchr>
  404110:	aa1403f3 	mov	x19, x20
  404114:	d14007a1 	sub	x1, x29, #0x1, lsl #12
  404118:	aa0003fb 	mov	x27, x0
  40411c:	f94002c3 	ldr	x3, [x22]
  404120:	3979a021 	ldrb	w1, [x1, #3688]
  404124:	d37f1c22 	ubfiz	x2, x1, #1, #8
  404128:	78626862 	ldrh	w2, [x3, x2]
  40412c:	366800a2 	tbz	w2, #13, 404140 <read_alias_file+0x13c>
  404130:	38401e61 	ldrb	w1, [x19, #1]!
  404134:	d37f1c22 	ubfiz	x2, x1, #1, #8
  404138:	78626862 	ldrh	w2, [x3, x2]
  40413c:	376fffa2 	tbnz	w2, #13, 404130 <read_alias_file+0x12c>
  404140:	71008c3f 	cmp	w1, #0x23
  404144:	7a401824 	ccmp	w1, #0x0, #0x4, ne  // ne = any
  404148:	54000501 	b.ne	4041e8 <read_alias_file+0x1e4>  // b.any
  40414c:	b400043b 	cbz	x27, 4041d0 <read_alias_file+0x1cc>
  404150:	b94002a0 	ldr	w0, [x21]
  404154:	3627fce0 	tbz	w0, #4, 4040f0 <read_alias_file+0xec>
  404158:	aa1503e0 	mov	x0, x21
  40415c:	94002129 	bl	40c600 <_IO_new_fclose>
  404160:	b4000139 	cbz	x25, 404184 <read_alias_file+0x180>
  404164:	b0000ea1 	adrp	x1, 5d9000 <user_memory_pressure_sink>
  404168:	d0000ec0 	adrp	x0, 5de000 <_dl_stack_user>
  40416c:	f0ffffe3 	adrp	x3, 403000 <_nl_load_domain+0x360>
  404170:	d2800202 	mov	x2, #0x10                  	// #16
  404174:	f944d421 	ldr	x1, [x1, #2472]
  404178:	913fc063 	add	x3, x3, #0xff0
  40417c:	f9434400 	ldr	x0, [x0, #1672]
  404180:	94000834 	bl	406250 <qsort>
  404184:	f945fb18 	ldr	x24, [x24, #3056]
  404188:	f85f83a0 	ldur	x0, [x29, #-8]
  40418c:	f9400301 	ldr	x1, [x24]
  404190:	eb010000 	subs	x0, x0, x1
  404194:	d2800001 	mov	x1, #0x0                   	// #0
  404198:	54001941 	b.ne	4044c0 <read_alias_file+0x4bc>  // b.any
  40419c:	910003bf 	mov	sp, x29
  4041a0:	aa1903e0 	mov	x0, x25
  4041a4:	a94153f3 	ldp	x19, x20, [sp, #16]
  4041a8:	a9425bf5 	ldp	x21, x22, [sp, #32]
  4041ac:	a94363f7 	ldp	x23, x24, [sp, #48]
  4041b0:	a9446bf9 	ldp	x25, x26, [sp, #64]
  4041b4:	a94573fb 	ldp	x27, x28, [sp, #80]
  4041b8:	a8c67bfd 	ldp	x29, x30, [sp], #96
  4041bc:	d65f03c0 	ret
  4041c0:	aa1403e0 	mov	x0, x20
  4041c4:	52800141 	mov	w1, #0xa                   	// #10
  4041c8:	94005c1e 	bl	41b240 <strchr>
  4041cc:	b5fffc20 	cbnz	x0, 404150 <read_alias_file+0x14c>
  4041d0:	aa1503e2 	mov	x2, x21
  4041d4:	aa1403e0 	mov	x0, x20
  4041d8:	52803201 	mov	w1, #0x190                 	// #400
  4041dc:	94002ca5 	bl	40f470 <__fgets_unlocked>
  4041e0:	b5ffff00 	cbnz	x0, 4041c0 <read_alias_file+0x1bc>
  4041e4:	17ffffdb 	b	404150 <read_alias_file+0x14c>
  4041e8:	39400661 	ldrb	w1, [x19, #1]
  4041ec:	9100067a 	add	x26, x19, #0x1
  4041f0:	35000061 	cbnz	w1, 4041fc <read_alias_file+0x1f8>
  4041f4:	14000009 	b	404218 <read_alias_file+0x214>
  4041f8:	34000101 	cbz	w1, 404218 <read_alias_file+0x214>
  4041fc:	d37f1c22 	ubfiz	x2, x1, #1, #8
  404200:	aa1a03e4 	mov	x4, x26
  404204:	39400741 	ldrb	w1, [x26, #1]
  404208:	9100075a 	add	x26, x26, #0x1
  40420c:	78626862 	ldrh	w2, [x3, x2]
  404210:	366fff42 	tbz	w2, #13, 4041f8 <read_alias_file+0x1f4>
  404214:	3900009f 	strb	wzr, [x4]
  404218:	d37f1c20 	ubfiz	x0, x1, #1, #8
  40421c:	78606860 	ldrh	w0, [x3, x0]
  404220:	366800c0 	tbz	w0, #13, 404238 <read_alias_file+0x234>
  404224:	d503201f 	nop
  404228:	38401f41 	ldrb	w1, [x26, #1]!
  40422c:	d37f1c22 	ubfiz	x2, x1, #1, #8
  404230:	78626862 	ldrh	w2, [x3, x2]
  404234:	376fffa2 	tbnz	w2, #13, 404228 <read_alias_file+0x224>
  404238:	34fff8a1 	cbz	w1, 40414c <read_alias_file+0x148>
  40423c:	39400741 	ldrb	w1, [x26, #1]
  404240:	91000740 	add	x0, x26, #0x1
  404244:	35000081 	cbnz	w1, 404254 <read_alias_file+0x250>
  404248:	1400000a 	b	404270 <read_alias_file+0x26c>
  40424c:	38401c01 	ldrb	w1, [x0, #1]!
  404250:	34000101 	cbz	w1, 404270 <read_alias_file+0x26c>
  404254:	d37f1c22 	ubfiz	x2, x1, #1, #8
  404258:	78626862 	ldrh	w2, [x3, x2]
  40425c:	366fff82 	tbz	w2, #13, 40424c <read_alias_file+0x248>
  404260:	7100283f 	cmp	w1, #0xa
  404264:	54000d41 	b.ne	40440c <read_alias_file+0x408>  // b.any
  404268:	52814001 	mov	w1, #0xa00                 	// #2560
  40426c:	79000001 	strh	w1, [x0]
  404270:	a94002fc 	ldp	x28, x0, [x23]
  404274:	d0000ec5 	adrp	x5, 5de000 <_dl_stack_user>
  404278:	eb00039f 	cmp	x28, x0
  40427c:	54000d22 	b.cs	404420 <read_alias_file+0x41c>  // b.hs, b.nlast
  404280:	d14013a0 	sub	x0, x29, #0x4, lsl #12
  404284:	f91f2805 	str	x5, [x0, #15952]
  404288:	aa1303e0 	mov	x0, x19
  40428c:	97fff01d 	bl	400300 <.plt+0x60>
  404290:	aa0003e2 	mov	x2, x0
  404294:	91000442 	add	x2, x2, #0x1
  404298:	d14013a1 	sub	x1, x29, #0x4, lsl #12
  40429c:	aa1a03e0 	mov	x0, x26
  4042a0:	f91f2c22 	str	x2, [x1, #15960]
  4042a4:	97fff017 	bl	400300 <.plt+0x60>
  4042a8:	d14013a1 	sub	x1, x29, #0x4, lsl #12
  4042ac:	91000404 	add	x4, x0, #0x1
  4042b0:	d14013a0 	sub	x0, x29, #0x4, lsl #12
  4042b4:	f95f2825 	ldr	x5, [x1, #15952]
  4042b8:	a94106ea 	ldp	x10, x1, [x23, #16]
  4042bc:	911a20a6 	add	x6, x5, #0x688
  4042c0:	f95f2c02 	ldr	x2, [x0, #15960]
  4042c4:	f94004c3 	ldr	x3, [x6, #8]
  4042c8:	8b020149 	add	x9, x10, x2
  4042cc:	8b040128 	add	x8, x9, x4
  4042d0:	eb01011f 	cmp	x8, x1
  4042d4:	540004a8 	b.hi	404368 <read_alias_file+0x364>  // b.pmore
  4042d8:	f94344ab 	ldr	x11, [x5, #1672]
  4042dc:	d37cef87 	lsl	x7, x28, #4
  4042e0:	d14013a0 	sub	x0, x29, #0x4, lsl #12
  4042e4:	8b070165 	add	x5, x11, x7
  4042e8:	aa1303e1 	mov	x1, x19
  4042ec:	9100079c 	add	x28, x28, #0x1
  4042f0:	91000739 	add	x25, x25, #0x1
  4042f4:	f91f1404 	str	x4, [x0, #15912]
  4042f8:	d14013a4 	sub	x4, x29, #0x4, lsl #12
  4042fc:	f91f1808 	str	x8, [x0, #15920]
  404300:	f91f1c09 	str	x9, [x0, #15928]
  404304:	f91f2007 	str	x7, [x0, #15936]
  404308:	f91f240b 	str	x11, [x0, #15944]
  40430c:	f91f2805 	str	x5, [x0, #15952]
  404310:	8b0a0060 	add	x0, x3, x10
  404314:	f91f2c83 	str	x3, [x4, #15960]
  404318:	97ffefe6 	bl	4002b0 <.plt+0x10>
  40431c:	d14013a1 	sub	x1, x29, #0x4, lsl #12
  404320:	f95f2027 	ldr	x7, [x1, #15936]
  404324:	f95f242b 	ldr	x11, [x1, #15944]
  404328:	f8276960 	str	x0, [x11, x7]
  40432c:	aa0103e0 	mov	x0, x1
  404330:	aa1a03e1 	mov	x1, x26
  404334:	f95f1404 	ldr	x4, [x0, #15912]
  404338:	f95f1c09 	ldr	x9, [x0, #15928]
  40433c:	aa0403e2 	mov	x2, x4
  404340:	f95f2c03 	ldr	x3, [x0, #15960]
  404344:	8b090060 	add	x0, x3, x9
  404348:	97ffefda 	bl	4002b0 <.plt+0x10>
  40434c:	f90002fc 	str	x28, [x23]
  404350:	d14013a1 	sub	x1, x29, #0x4, lsl #12
  404354:	f95f2825 	ldr	x5, [x1, #15952]
  404358:	f95f1828 	ldr	x8, [x1, #15920]
  40435c:	f9000ae8 	str	x8, [x23, #16]
  404360:	f90004a0 	str	x0, [x5, #8]
  404364:	17ffff7a 	b	40414c <read_alias_file+0x148>
  404368:	d14013a0 	sub	x0, x29, #0x4, lsl #12
  40436c:	8b040047 	add	x7, x2, x4
  404370:	d280800b 	mov	x11, #0x400                 	// #1024
  404374:	eb0b00ff 	cmp	x7, x11
  404378:	9a8b20e7 	csel	x7, x7, x11, cs  // cs = hs, nlast
  40437c:	f91f2402 	str	x2, [x0, #15944]
  404380:	d14013a2 	sub	x2, x29, #0x4, lsl #12
  404384:	8b0100e1 	add	x1, x7, x1
  404388:	f91f0c05 	str	x5, [x0, #15896]
  40438c:	f91f1006 	str	x6, [x0, #15904]
  404390:	f91f1408 	str	x8, [x0, #15912]
  404394:	f91f1809 	str	x9, [x0, #15920]
  404398:	f91f1c0a 	str	x10, [x0, #15928]
  40439c:	f91f2004 	str	x4, [x0, #15936]
  4043a0:	aa0303e0 	mov	x0, x3
  4043a4:	f91f2843 	str	x3, [x2, #15952]
  4043a8:	f91f2c41 	str	x1, [x2, #15960]
  4043ac:	94005662 	bl	419d34 <__libc_realloc>
  4043b0:	b4ffed40 	cbz	x0, 404158 <read_alias_file+0x154>
  4043b4:	d14013a1 	sub	x1, x29, #0x4, lsl #12
  4043b8:	d14013a5 	sub	x5, x29, #0x4, lsl #12
  4043bc:	d14013a2 	sub	x2, x29, #0x4, lsl #12
  4043c0:	d14013a4 	sub	x4, x29, #0x4, lsl #12
  4043c4:	f95f1026 	ldr	x6, [x1, #15904]
  4043c8:	f95f2823 	ldr	x3, [x1, #15952]
  4043cc:	f94000cb 	ldr	x11, [x6]
  4043d0:	eb03001f 	cmp	x0, x3
  4043d4:	f95f14a8 	ldr	x8, [x5, #15912]
  4043d8:	f95f18a9 	ldr	x9, [x5, #15920]
  4043dc:	f95f1caa 	ldr	x10, [x5, #15928]
  4043e0:	f95f0ca5 	ldr	x5, [x5, #15896]
  4043e4:	f95f2084 	ldr	x4, [x4, #15936]
  4043e8:	f95f2442 	ldr	x2, [x2, #15944]
  4043ec:	f95f2c21 	ldr	x1, [x1, #15960]
  4043f0:	54000481 	b.ne	404480 <read_alias_file+0x47c>  // b.any
  4043f4:	d37cef87 	lsl	x7, x28, #4
  4043f8:	911a20a5 	add	x5, x5, #0x688
  4043fc:	aa0003e3 	mov	x3, x0
  404400:	f9000ee1 	str	x1, [x23, #24]
  404404:	f90004a0 	str	x0, [x5, #8]
  404408:	17ffffb6 	b	4042e0 <read_alias_file+0x2dc>
  40440c:	3900001f 	strb	wzr, [x0]
  404410:	d0000ec5 	adrp	x5, 5de000 <_dl_stack_user>
  404414:	a94002fc 	ldp	x28, x0, [x23]
  404418:	eb00039f 	cmp	x28, x0
  40441c:	54fff323 	b.cc	404280 <read_alias_file+0x27c>  // b.lo, b.ul, b.last
  404420:	b5000220 	cbnz	x0, 404464 <read_alias_file+0x460>
  404424:	d280c801 	mov	x1, #0x640                 	// #1600
  404428:	d2800c82 	mov	x2, #0x64                  	// #100
  40442c:	d14013a0 	sub	x0, x29, #0x4, lsl #12
  404430:	d0000ec5 	adrp	x5, 5de000 <_dl_stack_user>
  404434:	f91f2802 	str	x2, [x0, #15952]
  404438:	d14013a2 	sub	x2, x29, #0x4, lsl #12
  40443c:	f94344a0 	ldr	x0, [x5, #1672]
  404440:	f91f2c45 	str	x5, [x2, #15960]
  404444:	9400563c 	bl	419d34 <__libc_realloc>
  404448:	b4ffe880 	cbz	x0, 404158 <read_alias_file+0x154>
  40444c:	d14013a1 	sub	x1, x29, #0x4, lsl #12
  404450:	f95f2c25 	ldr	x5, [x1, #15960]
  404454:	f95f2822 	ldr	x2, [x1, #15952]
  404458:	f90006e2 	str	x2, [x23, #8]
  40445c:	f90344a0 	str	x0, [x5, #1672]
  404460:	17ffff88 	b	404280 <read_alias_file+0x27c>
  404464:	d37ff802 	lsl	x2, x0, #1
  404468:	d37be801 	lsl	x1, x0, #5
  40446c:	17fffff0 	b	40442c <read_alias_file+0x428>
  404470:	f90203ff 	str	xzr, [sp, #1024]
  404474:	17ffff02 	b	40407c <read_alias_file+0x78>
  404478:	d2800019 	mov	x25, #0x0                   	// #0
  40447c:	17ffff42 	b	404184 <read_alias_file+0x180>
  404480:	d2800007 	mov	x7, #0x0                   	// #0
  404484:	b4fffbbc 	cbz	x28, 4043f8 <read_alias_file+0x3f4>
  404488:	d37cef87 	lsl	x7, x28, #4
  40448c:	cb030003 	sub	x3, x0, x3
  404490:	8b07016e 	add	x14, x11, x7
  404494:	aa0b03e6 	mov	x6, x11
  404498:	a94030cd 	ldp	x13, x12, [x6]
  40449c:	8b0301ad 	add	x13, x13, x3
  4044a0:	8b03018c 	add	x12, x12, x3
  4044a4:	a90030cd 	stp	x13, x12, [x6]
  4044a8:	910040c6 	add	x6, x6, #0x10
  4044ac:	eb0601df 	cmp	x14, x6
  4044b0:	54ffff41 	b.ne	404498 <read_alias_file+0x494>  // b.any
  4044b4:	17ffffd1 	b	4043f8 <read_alias_file+0x3f4>
  4044b8:	94002052 	bl	40c600 <_IO_new_fclose>
  4044bc:	17ffff32 	b	404184 <read_alias_file+0x180>
  4044c0:	94007a20 	bl	422d40 <__stack_chk_fail>

00000000004044c4 <_nl_expand_alias>:
  4044c4:	a9bb7bfd 	stp	x29, x30, [sp, #-80]!
  4044c8:	52800021 	mov	w1, #0x1                   	// #1
  4044cc:	910003fd 	mov	x29, sp
  4044d0:	a90153f3 	stp	x19, x20, [sp, #16]
  4044d4:	aa0003f4 	mov	x20, x0
  4044d8:	52800000 	mov	w0, #0x0                   	// #0
  4044dc:	a9025bf5 	stp	x21, x22, [sp, #32]
  4044e0:	b0000eb5 	adrp	x21, 5d9000 <user_memory_pressure_sink>
  4044e4:	9126a2b3 	add	x19, x21, #0x9a8
  4044e8:	91008273 	add	x19, x19, #0x20
  4044ec:	a90363f7 	stp	x23, x24, [sp, #48]
  4044f0:	aa1303e2 	mov	x2, x19
  4044f4:	a9046bf9 	stp	x25, x26, [sp, #64]
  4044f8:	94013afa 	bl	4530e0 <__aarch64_cas4_acq>
  4044fc:	35000ce0 	cbnz	w0, 404698 <_nl_expand_alias+0x1d4>
  404500:	9126a2a1 	add	x1, x21, #0x9a8
  404504:	f9401420 	ldr	x0, [x1, #40]
  404508:	b40009e0 	cbz	x0, 404644 <_nl_expand_alias+0x180>
  40450c:	f944d6b7 	ldr	x23, [x21, #2472]
  404510:	d0000473 	adrp	x19, 492000 <tunable_list+0x528>
  404514:	91280273 	add	x19, x19, #0xa00
  404518:	b50006b7 	cbnz	x23, 4045ec <_nl_expand_alias+0x128>
  40451c:	9126a2b6 	add	x22, x21, #0x9a8
  404520:	f94016c3 	ldr	x3, [x22, #40]
  404524:	52800001 	mov	w1, #0x0                   	// #0
  404528:	39400060 	ldrb	w0, [x3]
  40452c:	340002a0 	cbz	w0, 404580 <_nl_expand_alias+0xbc>
  404530:	91000461 	add	x1, x3, #0x1
  404534:	7100e81f 	cmp	w0, #0x3a
  404538:	54000821 	b.ne	40463c <_nl_expand_alias+0x178>  // b.any
  40453c:	d503201f 	nop
  404540:	aa0103e0 	mov	x0, x1
  404544:	38401422 	ldrb	w2, [x1], #1
  404548:	7100e85f 	cmp	w2, #0x3a
  40454c:	54ffffa0 	b.eq	404540 <_nl_expand_alias+0x7c>  // b.none
  404550:	340003c2 	cbz	w2, 4045c8 <_nl_expand_alias+0x104>
  404554:	91000401 	add	x1, x0, #0x1
  404558:	aa0103e3 	mov	x3, x1
  40455c:	38401422 	ldrb	w2, [x1], #1
  404560:	7100e85f 	cmp	w2, #0x3a
  404564:	7a401844 	ccmp	w2, #0x0, #0x4, ne  // ne = any
  404568:	54ffff81 	b.ne	404558 <_nl_expand_alias+0x94>  // b.any
  40456c:	eb00007f 	cmp	x3, x0
  404570:	54000328 	b.hi	4045d4 <_nl_expand_alias+0x110>  // b.pmore
  404574:	52800021 	mov	w1, #0x1                   	// #1
  404578:	39400060 	ldrb	w0, [x3]
  40457c:	35fffda0 	cbnz	w0, 404530 <_nl_expand_alias+0x6c>
  404580:	34000061 	cbz	w1, 40458c <_nl_expand_alias+0xc8>
  404584:	9126a2a0 	add	x0, x21, #0x9a8
  404588:	f9001403 	str	x3, [x0, #40]
  40458c:	9126a2b4 	add	x20, x21, #0x9a8
  404590:	d2800013 	mov	x19, #0x0                   	// #0
  404594:	91008294 	add	x20, x20, #0x20
  404598:	52800000 	mov	w0, #0x0                   	// #0
  40459c:	aa1403e1 	mov	x1, x20
  4045a0:	94013b64 	bl	453330 <__aarch64_swp4_rel>
  4045a4:	7100041f 	cmp	w0, #0x1
  4045a8:	5400066c 	b.gt	404674 <_nl_expand_alias+0x1b0>
  4045ac:	aa1303e0 	mov	x0, x19
  4045b0:	a94153f3 	ldp	x19, x20, [sp, #16]
  4045b4:	a9425bf5 	ldp	x21, x22, [sp, #32]
  4045b8:	a94363f7 	ldp	x23, x24, [sp, #48]
  4045bc:	a9446bf9 	ldp	x25, x26, [sp, #64]
  4045c0:	a8c57bfd 	ldp	x29, x30, [sp], #80
  4045c4:	d65f03c0 	ret
  4045c8:	aa0003e3 	mov	x3, x0
  4045cc:	52800021 	mov	w1, #0x1                   	// #1
  4045d0:	17ffffea 	b	404578 <_nl_expand_alias+0xb4>
  4045d4:	4b000061 	sub	w1, w3, w0
  4045d8:	f90016c3 	str	x3, [x22, #40]
  4045dc:	97fffe8a 	bl	404004 <read_alias_file>
  4045e0:	b4fffa00 	cbz	x0, 404520 <_nl_expand_alias+0x5c>
  4045e4:	f944d6b7 	ldr	x23, [x21, #2472]
  4045e8:	b4fff9b7 	cbz	x23, 40451c <_nl_expand_alias+0x58>
  4045ec:	d0000ec0 	adrp	x0, 5de000 <_dl_stack_user>
  4045f0:	d2800018 	mov	x24, #0x0                   	// #0
  4045f4:	f9434419 	ldr	x25, [x0, #1672]
  4045f8:	14000005 	b	40460c <_nl_expand_alias+0x148>
  4045fc:	540002c0 	b.eq	404654 <_nl_expand_alias+0x190>  // b.none
  404600:	910006d8 	add	x24, x22, #0x1
  404604:	eb1802ff 	cmp	x23, x24
  404608:	54fff8a9 	b.ls	40451c <_nl_expand_alias+0x58>  // b.plast
  40460c:	8b170316 	add	x22, x24, x23
  404610:	aa1303e2 	mov	x2, x19
  404614:	aa1403e0 	mov	x0, x20
  404618:	d341fed6 	lsr	x22, x22, #1
  40461c:	d37ceec1 	lsl	x1, x22, #4
  404620:	8b01033a 	add	x26, x25, x1
  404624:	f8616b21 	ldr	x1, [x25, x1]
  404628:	9400607a 	bl	41c810 <__strcasecmp_l>
  40462c:	7100001f 	cmp	w0, #0x0
  404630:	54fffe6a 	b.ge	4045fc <_nl_expand_alias+0x138>  // b.tcont
  404634:	aa1603f7 	mov	x23, x22
  404638:	17fffff3 	b	404604 <_nl_expand_alias+0x140>
  40463c:	aa0303e0 	mov	x0, x3
  404640:	17ffffc5 	b	404554 <_nl_expand_alias+0x90>
  404644:	b00002a0 	adrp	x0, 459000 <free_slotinfo+0x30>
  404648:	9115e000 	add	x0, x0, #0x578
  40464c:	f9001420 	str	x0, [x1, #40]
  404650:	17ffffaf 	b	40450c <_nl_expand_alias+0x48>
  404654:	9126a2b4 	add	x20, x21, #0x9a8
  404658:	52800000 	mov	w0, #0x0                   	// #0
  40465c:	91008294 	add	x20, x20, #0x20
  404660:	aa1403e1 	mov	x1, x20
  404664:	f9400753 	ldr	x19, [x26, #8]
  404668:	94013b32 	bl	453330 <__aarch64_swp4_rel>
  40466c:	7100041f 	cmp	w0, #0x1
  404670:	54fff9ed 	b.le	4045ac <_nl_expand_alias+0xe8>
  404674:	aa1403e0 	mov	x0, x20
  404678:	94003f8a 	bl	4144a0 <__lll_lock_wake_private>
  40467c:	aa1303e0 	mov	x0, x19
  404680:	a94153f3 	ldp	x19, x20, [sp, #16]
  404684:	a9425bf5 	ldp	x21, x22, [sp, #32]
  404688:	a94363f7 	ldp	x23, x24, [sp, #48]
  40468c:	a9446bf9 	ldp	x25, x26, [sp, #64]
  404690:	a8c57bfd 	ldp	x29, x30, [sp], #80
  404694:	d65f03c0 	ret
  404698:	aa1303e0 	mov	x0, x19
  40469c:	94003f3d 	bl	414390 <__lll_lock_wait_private>
  4046a0:	17ffff98 	b	404500 <_nl_expand_alias+0x3c>
  4046a4:	d503201f 	nop
  4046a8:	d503201f 	nop
  4046ac:	d503201f 	nop

00000000004046b0 <_nl_make_l10nflist>:
  4046b0:	d102c3ff 	sub	sp, sp, #0xb0
  4046b4:	a9027bfd 	stp	x29, x30, [sp, #32]
  4046b8:	910083fd 	add	x29, sp, #0x20
  4046bc:	a90353f3 	stp	x19, x20, [sp, #48]
  4046c0:	2a0303f4 	mov	w20, w3
  4046c4:	a9045bf5 	stp	x21, x22, [sp, #64]
  4046c8:	aa0203f5 	mov	x21, x2
  4046cc:	aa0503f6 	mov	x22, x5
  4046d0:	a90563f7 	stp	x23, x24, [sp, #80]
  4046d4:	aa0403f7 	mov	x23, x4
  4046d8:	121e0078 	and	w24, w3, #0x4
  4046dc:	a9066bf9 	stp	x25, x26, [sp, #96]
  4046e0:	aa0103f9 	mov	x25, x1
  4046e4:	9100085a 	add	x26, x2, #0x2
  4046e8:	a9081be0 	stp	x0, x6, [sp, #128]
  4046ec:	aa0403e0 	mov	x0, x4
  4046f0:	a90917e7 	stp	x7, x5, [sp, #144]
  4046f4:	97ffef03 	bl	400300 <.plt+0x60>
  4046f8:	aa0003f3 	mov	x19, x0
  4046fc:	d2800000 	mov	x0, #0x0                   	// #0
  404700:	36100094 	tbz	w20, #2, 404710 <_nl_make_l10nflist+0x60>
  404704:	aa1603e0 	mov	x0, x22
  404708:	97ffeefe 	bl	400300 <.plt+0x60>
  40470c:	91000400 	add	x0, x0, #0x1
  404710:	8b000273 	add	x19, x19, x0
  404714:	121f0280 	and	w0, w20, #0x2
  404718:	b900a3e0 	str	w0, [sp, #160]
  40471c:	8b1a0273 	add	x19, x19, x26
  404720:	d2800016 	mov	x22, #0x0                   	// #0
  404724:	36080094 	tbz	w20, #1, 404734 <_nl_make_l10nflist+0x84>
  404728:	f94047e0 	ldr	x0, [sp, #136]
  40472c:	97ffeef5 	bl	400300 <.plt+0x60>
  404730:	91000416 	add	x22, x0, #0x1
  404734:	12000281 	and	w1, w20, #0x1
  404738:	b900abe1 	str	w1, [sp, #168]
  40473c:	d2800000 	mov	x0, #0x0                   	// #0
  404740:	36000094 	tbz	w20, #0, 404750 <_nl_make_l10nflist+0xa0>
  404744:	f9404be0 	ldr	x0, [sp, #144]
  404748:	97ffeeee 	bl	400300 <.plt+0x60>
  40474c:	91000400 	add	x0, x0, #0x1
  404750:	8b0002c0 	add	x0, x22, x0
  404754:	d2800016 	mov	x22, #0x0                   	// #0
  404758:	8b130013 	add	x19, x0, x19
  40475c:	121d0280 	and	w0, w20, #0x8
  404760:	b900afe0 	str	w0, [sp, #172]
  404764:	36180094 	tbz	w20, #3, 404774 <_nl_make_l10nflist+0xc4>
  404768:	f9405be0 	ldr	x0, [sp, #176]
  40476c:	97ffeee5 	bl	400300 <.plt+0x60>
  404770:	91000416 	add	x22, x0, #0x1
  404774:	f9405fe0 	ldr	x0, [sp, #184]
  404778:	97ffeee2 	bl	400300 <.plt+0x60>
  40477c:	aa0003fa 	mov	x26, x0
  404780:	8b160000 	add	x0, x0, x22
  404784:	8b130000 	add	x0, x0, x19
  404788:	94005376 	bl	419560 <__libc_malloc>
  40478c:	aa0003f3 	mov	x19, x0
  404790:	b4002360 	cbz	x0, 404bfc <_nl_make_l10nflist+0x54c>
  404794:	aa1503e2 	mov	x2, x21
  404798:	aa1903e1 	mov	x1, x25
  40479c:	a90773fb 	stp	x27, x28, [sp, #112]
  4047a0:	97ffeec4 	bl	4002b0 <.plt+0x10>
  4047a4:	b4000255 	cbz	x21, 4047ec <_nl_make_l10nflist+0x13c>
  4047a8:	aa1503fc 	mov	x28, x21
  4047ac:	aa1303fb 	mov	x27, x19
  4047b0:	aa1b03e0 	mov	x0, x27
  4047b4:	97ffeed3 	bl	400300 <.plt+0x60>
  4047b8:	8b00037b 	add	x27, x27, x0
  4047bc:	cb000380 	sub	x0, x28, x0
  4047c0:	f100041c 	subs	x28, x0, #0x1
  4047c4:	52800756 	mov	w22, #0x3a                  	// #58
  4047c8:	54000120 	b.eq	4047ec <_nl_make_l10nflist+0x13c>  // b.none
  4047cc:	d503201f 	nop
  4047d0:	38001776 	strb	w22, [x27], #1
  4047d4:	aa1b03e0 	mov	x0, x27
  4047d8:	97ffeeca 	bl	400300 <.plt+0x60>
  4047dc:	8b00037b 	add	x27, x27, x0
  4047e0:	cb000380 	sub	x0, x28, x0
  4047e4:	f100041c 	subs	x28, x0, #0x1
  4047e8:	54ffff41 	b.ne	4047d0 <_nl_make_l10nflist+0x120>  // b.any
  4047ec:	8b150260 	add	x0, x19, x21
  4047f0:	528005e2 	mov	w2, #0x2f                  	// #47
  4047f4:	aa1703e1 	mov	x1, x23
  4047f8:	381ff002 	sturb	w2, [x0, #-1]
  4047fc:	94005fb1 	bl	41c6c0 <__stpcpy>
  404800:	35001cb8 	cbnz	w24, 404b94 <_nl_make_l10nflist+0x4e4>
  404804:	b940a3e1 	ldr	w1, [sp, #160]
  404808:	35001bc1 	cbnz	w1, 404b80 <_nl_make_l10nflist+0x4d0>
  40480c:	b940abe1 	ldr	w1, [sp, #168]
  404810:	35001a21 	cbnz	w1, 404b54 <_nl_make_l10nflist+0x4a4>
  404814:	b940afe1 	ldr	w1, [sp, #172]
  404818:	35001aa1 	cbnz	w1, 404b6c <_nl_make_l10nflist+0x4bc>
  40481c:	f9405fe1 	ldr	x1, [sp, #184]
  404820:	528005e3 	mov	w3, #0x2f                  	// #47
  404824:	38001403 	strb	w3, [x0], #1
  404828:	91000742 	add	x2, x26, #0x1
  40482c:	d2800016 	mov	x22, #0x0                   	// #0
  404830:	97ffeea0 	bl	4002b0 <.plt+0x10>
  404834:	f94043e0 	ldr	x0, [sp, #128]
  404838:	f940001a 	ldr	x26, [x0]
  40483c:	f90053fa 	str	x26, [sp, #160]
  404840:	b400019a 	cbz	x26, 404870 <_nl_make_l10nflist+0x1c0>
  404844:	d503201f 	nop
  404848:	f9400340 	ldr	x0, [x26]
  40484c:	aa1303e1 	mov	x1, x19
  404850:	b40000c0 	cbz	x0, 404868 <_nl_make_l10nflist+0x1b8>
  404854:	94005aab 	bl	41b300 <strcmp>
  404858:	7100001f 	cmp	w0, #0x0
  40485c:	34001660 	cbz	w0, 404b28 <_nl_make_l10nflist+0x478>
  404860:	5400008b 	b.lt	404870 <_nl_make_l10nflist+0x1c0>  // b.tstop
  404864:	aa1a03f6 	mov	x22, x26
  404868:	f9400f5a 	ldr	x26, [x26, #24]
  40486c:	b5fffefa 	cbnz	x26, 404848 <_nl_make_l10nflist+0x198>
  404870:	b940c3e0 	ldr	w0, [sp, #192]
  404874:	34001580 	cbz	w0, 404b24 <_nl_make_l10nflist+0x474>
  404878:	12855540 	mov	w0, #0xffffd555            	// #-10923
  40487c:	528aaaa1 	mov	w1, #0x5555                	// #21845
  404880:	0a940400 	and	w0, w0, w20, asr #1
  404884:	0a010281 	and	w1, w20, w1
  404888:	0b010000 	add	w0, w0, w1
  40488c:	12819982 	mov	w2, #0xfffff333            	// #-3277
  404890:	52866661 	mov	w1, #0x3333                	// #13107
  404894:	0a010001 	and	w1, w0, w1
  404898:	0a800840 	and	w0, w2, w0, asr #2
  40489c:	5281e1e5 	mov	w5, #0xf0f                 	// #3855
  4048a0:	0b010000 	add	w0, w0, w1
  4048a4:	52800024 	mov	w4, #0x1                   	// #1
  4048a8:	aa1503f8 	mov	x24, x21
  4048ac:	aa1903fc 	mov	x28, x25
  4048b0:	0b801000 	add	w0, w0, w0, asr #4
  4048b4:	d280001b 	mov	x27, #0x0                   	// #0
  4048b8:	0a050000 	and	w0, w0, w5
  4048bc:	0b402000 	add	w0, w0, w0, lsr #8
  4048c0:	1ac02080 	lsl	w0, w4, w0
  4048c4:	93407c1a 	sxtw	x26, w0
  4048c8:	b40017f5 	cbz	x21, 404bc4 <_nl_make_l10nflist+0x514>
  4048cc:	d503201f 	nop
  4048d0:	aa1c03e0 	mov	x0, x28
  4048d4:	97ffee8b 	bl	400300 <.plt+0x60>
  4048d8:	cb000301 	sub	x1, x24, x0
  4048dc:	91000400 	add	x0, x0, #0x1
  4048e0:	9100077b 	add	x27, x27, #0x1
  4048e4:	f1000438 	subs	x24, x1, #0x1
  4048e8:	8b00039c 	add	x28, x28, x0
  4048ec:	54ffff21 	b.ne	4048d0 <_nl_make_l10nflist+0x220>  // b.any
  4048f0:	9b1a7f60 	mul	x0, x27, x26
  4048f4:	d37cec00 	lsl	x0, x0, #4
  4048f8:	9100a000 	add	x0, x0, #0x28
  4048fc:	94005319 	bl	419560 <__libc_malloc>
  404900:	aa0003fa 	mov	x26, x0
  404904:	b4001720 	cbz	x0, 404be8 <_nl_make_l10nflist+0x538>
  404908:	aa1503fc 	mov	x28, x21
  40490c:	aa1903fb 	mov	x27, x25
  404910:	f9000013 	str	x19, [x0]
  404914:	d503201f 	nop
  404918:	aa1b03e0 	mov	x0, x27
  40491c:	97ffee79 	bl	400300 <.plt+0x60>
  404920:	cb000382 	sub	x2, x28, x0
  404924:	91000400 	add	x0, x0, #0x1
  404928:	91000718 	add	x24, x24, #0x1
  40492c:	f100045c 	subs	x28, x2, #0x1
  404930:	8b00037b 	add	x27, x27, x0
  404934:	54ffff21 	b.ne	404918 <_nl_make_l10nflist+0x268>  // b.any
  404938:	52800020 	mov	w0, #0x1                   	// #1
  40493c:	f100071f 	cmp	x24, #0x1
  404940:	540007c0 	b.eq	404a38 <_nl_make_l10nflist+0x388>  // b.none
  404944:	b9000b40 	str	w0, [x26, #8]
  404948:	f9000b5f 	str	xzr, [x26, #16]
  40494c:	b40012f6 	cbz	x22, 404ba8 <_nl_make_l10nflist+0x4f8>
  404950:	f9400ec0 	ldr	x0, [x22, #24]
  404954:	f9000f40 	str	x0, [x26, #24]
  404958:	f9000eda 	str	x26, [x22, #24]
  40495c:	b4001315 	cbz	x21, 404bbc <_nl_make_l10nflist+0x50c>
  404960:	aa1503f3 	mov	x19, x21
  404964:	aa1903f6 	mov	x22, x25
  404968:	d2800018 	mov	x24, #0x0                   	// #0
  40496c:	d503201f 	nop
  404970:	aa1603e0 	mov	x0, x22
  404974:	97ffee63 	bl	400300 <.plt+0x60>
  404978:	cb000261 	sub	x1, x19, x0
  40497c:	91000400 	add	x0, x0, #0x1
  404980:	91000718 	add	x24, x24, #0x1
  404984:	f1000433 	subs	x19, x1, #0x1
  404988:	8b0002d6 	add	x22, x22, x0
  40498c:	54ffff21 	b.ne	404970 <_nl_make_l10nflist+0x2c0>  // b.any
  404990:	f100071f 	cmp	x24, #0x1
  404994:	1a9f17f8 	cset	w24, eq  // eq = none
  404998:	4b180298 	sub	w24, w20, w24
  40499c:	2a3403ea 	mvn	w10, w20
  4049a0:	d2800013 	mov	x19, #0x0                   	// #0
  4049a4:	37f80158 	tbnz	w24, #31, 4049cc <_nl_make_l10nflist+0x31c>
  4049a8:	8b150336 	add	x22, x25, x21
  4049ac:	91006340 	add	x0, x26, #0x18
  4049b0:	5280003c 	mov	w28, #0x1                   	// #1
  4049b4:	f90053e0 	str	x0, [sp, #160]
  4049b8:	6a0a031f 	tst	w24, w10
  4049bc:	54000700 	b.eq	404a9c <_nl_make_l10nflist+0x3ec>  // b.none
  4049c0:	51000718 	sub	w24, w24, #0x1
  4049c4:	3100071f 	cmn	w24, #0x1
  4049c8:	54ffff81 	b.ne	4049b8 <_nl_make_l10nflist+0x308>  // b.any
  4049cc:	f9405fe0 	ldr	x0, [sp, #184]
  4049d0:	b00002a1 	adrp	x1, 459000 <free_slotinfo+0x30>
  4049d4:	d2800162 	mov	x2, #0xb                   	// #11
  4049d8:	91184021 	add	x1, x1, #0x610
  4049dc:	94005bd2 	bl	41b924 <strncmp>
  4049e0:	35000160 	cbnz	w0, 404a0c <_nl_make_l10nflist+0x35c>
  4049e4:	37f80154 	tbnz	w20, #31, 404a0c <_nl_make_l10nflist+0x35c>
  4049e8:	b00002b6 	adrp	x22, 459000 <free_slotinfo+0x30>
  4049ec:	2a3403f5 	mvn	w21, w20
  4049f0:	911882d6 	add	x22, x22, #0x620
  4049f4:	52800038 	mov	w24, #0x1                   	// #1
  4049f8:	6a15029f 	tst	w20, w21
  4049fc:	540002c0 	b.eq	404a54 <_nl_make_l10nflist+0x3a4>  // b.none
  404a00:	51000694 	sub	w20, w20, #0x1
  404a04:	3100069f 	cmn	w20, #0x1
  404a08:	54ffff81 	b.ne	4049f8 <_nl_make_l10nflist+0x348>  // b.any
  404a0c:	a94773fb 	ldp	x27, x28, [sp, #112]
  404a10:	91001269 	add	x9, x19, #0x4
  404a14:	f8297b5f 	str	xzr, [x26, x9, lsl #3]
  404a18:	aa1a03e0 	mov	x0, x26
  404a1c:	a9427bfd 	ldp	x29, x30, [sp, #32]
  404a20:	a94353f3 	ldp	x19, x20, [sp, #48]
  404a24:	a9445bf5 	ldp	x21, x22, [sp, #64]
  404a28:	a94563f7 	ldp	x23, x24, [sp, #80]
  404a2c:	a9466bf9 	ldp	x25, x26, [sp, #96]
  404a30:	9102c3ff 	add	sp, sp, #0xb0
  404a34:	d65f03c0 	ret
  404a38:	12000680 	and	w0, w20, #0x3
  404a3c:	f9000b5f 	str	xzr, [x26, #16]
  404a40:	71000c1f 	cmp	w0, #0x3
  404a44:	1a9f17e0 	cset	w0, eq  // eq = none
  404a48:	b9000b40 	str	w0, [x26, #8]
  404a4c:	b5fff836 	cbnz	x22, 404950 <_nl_make_l10nflist+0x2a0>
  404a50:	14000056 	b	404ba8 <_nl_make_l10nflist+0x4f8>
  404a54:	a9489fe6 	ldp	x6, x7, [sp, #136]
  404a58:	b90013f8 	str	w24, [sp, #16]
  404a5c:	f9405be0 	ldr	x0, [sp, #176]
  404a60:	f90003e0 	str	x0, [sp]
  404a64:	f9405fe0 	ldr	x0, [sp, #184]
  404a68:	f90007e0 	str	x0, [sp, #8]
  404a6c:	f94043e0 	ldr	x0, [sp, #128]
  404a70:	aa1603e1 	mov	x1, x22
  404a74:	f9404fe5 	ldr	x5, [sp, #152]
  404a78:	aa1703e4 	mov	x4, x23
  404a7c:	2a1403e3 	mov	w3, w20
  404a80:	d2800362 	mov	x2, #0x1b                  	// #27
  404a84:	97ffff0b 	bl	4046b0 <_nl_make_l10nflist>
  404a88:	91001261 	add	x1, x19, #0x4
  404a8c:	91000669 	add	x9, x19, #0x1
  404a90:	aa0903f3 	mov	x19, x9
  404a94:	f8217b40 	str	x0, [x26, x1, lsl #3]
  404a98:	17ffffda 	b	404a00 <_nl_make_l10nflist+0x350>
  404a9c:	d280001b 	mov	x27, #0x0                   	// #0
  404aa0:	b40003db 	cbz	x27, 404b18 <_nl_make_l10nflist+0x468>
  404aa4:	aa1b03e0 	mov	x0, x27
  404aa8:	eb16037f 	cmp	x27, x22
  404aac:	54fff8a2 	b.cs	4049c0 <_nl_make_l10nflist+0x310>  // b.hs, b.nlast
  404ab0:	b900abea 	str	w10, [sp, #168]
  404ab4:	97ffee13 	bl	400300 <.plt+0x60>
  404ab8:	91000400 	add	x0, x0, #0x1
  404abc:	b940abea 	ldr	w10, [sp, #168]
  404ac0:	8b00037b 	add	x27, x27, x0
  404ac4:	eb16037f 	cmp	x27, x22
  404ac8:	54fff7c2 	b.cs	4049c0 <_nl_make_l10nflist+0x310>  // b.hs, b.nlast
  404acc:	aa1b03e0 	mov	x0, x27
  404ad0:	b900abea 	str	w10, [sp, #168]
  404ad4:	97ffee0b 	bl	400300 <.plt+0x60>
  404ad8:	91000402 	add	x2, x0, #0x1
  404adc:	a9489fe6 	ldp	x6, x7, [sp, #136]
  404ae0:	b90013fc 	str	w28, [sp, #16]
  404ae4:	a94b03e1 	ldp	x1, x0, [sp, #176]
  404ae8:	a90003e1 	stp	x1, x0, [sp]
  404aec:	aa1703e4 	mov	x4, x23
  404af0:	f94043e0 	ldr	x0, [sp, #128]
  404af4:	aa1b03e1 	mov	x1, x27
  404af8:	f9404fe5 	ldr	x5, [sp, #152]
  404afc:	2a1803e3 	mov	w3, w24
  404b00:	91000673 	add	x19, x19, #0x1
  404b04:	97fffeeb 	bl	4046b0 <_nl_make_l10nflist>
  404b08:	f94053e1 	ldr	x1, [sp, #160]
  404b0c:	b940abea 	ldr	w10, [sp, #168]
  404b10:	f8337820 	str	x0, [x1, x19, lsl #3]
  404b14:	b5fffc9b 	cbnz	x27, 404aa4 <_nl_make_l10nflist+0x3f4>
  404b18:	aa1903fb 	mov	x27, x25
  404b1c:	b4fff535 	cbz	x21, 4049c0 <_nl_make_l10nflist+0x310>
  404b20:	17ffffeb 	b	404acc <_nl_make_l10nflist+0x41c>
  404b24:	d280001a 	mov	x26, #0x0                   	// #0
  404b28:	aa1303e0 	mov	x0, x19
  404b2c:	940053f1 	bl	419af0 <__free>
  404b30:	aa1a03e0 	mov	x0, x26
  404b34:	a9427bfd 	ldp	x29, x30, [sp, #32]
  404b38:	a94353f3 	ldp	x19, x20, [sp, #48]
  404b3c:	a9445bf5 	ldp	x21, x22, [sp, #64]
  404b40:	a94563f7 	ldp	x23, x24, [sp, #80]
  404b44:	a9466bf9 	ldp	x25, x26, [sp, #96]
  404b48:	a94773fb 	ldp	x27, x28, [sp, #112]
  404b4c:	9102c3ff 	add	sp, sp, #0xb0
  404b50:	d65f03c0 	ret
  404b54:	f9404be1 	ldr	x1, [sp, #144]
  404b58:	528005c2 	mov	w2, #0x2e                  	// #46
  404b5c:	38001402 	strb	w2, [x0], #1
  404b60:	94005ed8 	bl	41c6c0 <__stpcpy>
  404b64:	b940afe1 	ldr	w1, [sp, #172]
  404b68:	34ffe5a1 	cbz	w1, 40481c <_nl_make_l10nflist+0x16c>
  404b6c:	f9405be1 	ldr	x1, [sp, #176]
  404b70:	52800802 	mov	w2, #0x40                  	// #64
  404b74:	38001402 	strb	w2, [x0], #1
  404b78:	94005ed2 	bl	41c6c0 <__stpcpy>
  404b7c:	17ffff28 	b	40481c <_nl_make_l10nflist+0x16c>
  404b80:	f94047e1 	ldr	x1, [sp, #136]
  404b84:	528005c2 	mov	w2, #0x2e                  	// #46
  404b88:	38001402 	strb	w2, [x0], #1
  404b8c:	94005ecd 	bl	41c6c0 <__stpcpy>
  404b90:	17ffff1f 	b	40480c <_nl_make_l10nflist+0x15c>
  404b94:	f9404fe1 	ldr	x1, [sp, #152]
  404b98:	52800be2 	mov	w2, #0x5f                  	// #95
  404b9c:	38001402 	strb	w2, [x0], #1
  404ba0:	94005ec8 	bl	41c6c0 <__stpcpy>
  404ba4:	17ffff18 	b	404804 <_nl_make_l10nflist+0x154>
  404ba8:	f94043e0 	ldr	x0, [sp, #128]
  404bac:	f900001a 	str	x26, [x0]
  404bb0:	f94053e0 	ldr	x0, [sp, #160]
  404bb4:	f9000f40 	str	x0, [x26, #24]
  404bb8:	17ffff69 	b	40495c <_nl_make_l10nflist+0x2ac>
  404bbc:	2a1403f8 	mov	w24, w20
  404bc0:	17ffff77 	b	40499c <_nl_make_l10nflist+0x2ec>
  404bc4:	d2800500 	mov	x0, #0x28                  	// #40
  404bc8:	b900abe4 	str	w4, [sp, #168]
  404bcc:	94005265 	bl	419560 <__libc_malloc>
  404bd0:	aa0003fa 	mov	x26, x0
  404bd4:	b940abe4 	ldr	w4, [sp, #168]
  404bd8:	b4000080 	cbz	x0, 404be8 <_nl_make_l10nflist+0x538>
  404bdc:	2a0403e0 	mov	w0, w4
  404be0:	f9000353 	str	x19, [x26]
  404be4:	17ffff58 	b	404944 <_nl_make_l10nflist+0x294>
  404be8:	aa1303e0 	mov	x0, x19
  404bec:	d280001a 	mov	x26, #0x0                   	// #0
  404bf0:	940053c0 	bl	419af0 <__free>
  404bf4:	a94773fb 	ldp	x27, x28, [sp, #112]
  404bf8:	17ffff88 	b	404a18 <_nl_make_l10nflist+0x368>
  404bfc:	d280001a 	mov	x26, #0x0                   	// #0
  404c00:	17ffff86 	b	404a18 <_nl_make_l10nflist+0x368>

0000000000404c04 <_nl_normalize_codeset>:
  404c04:	a9bd7bfd 	stp	x29, x30, [sp, #-48]!
  404c08:	910003fd 	mov	x29, sp
  404c0c:	b4000861 	cbz	x1, 404d18 <_nl_normalize_codeset+0x114>
  404c10:	a90153f3 	stp	x19, x20, [sp, #16]
  404c14:	aa0103f4 	mov	x20, x1
  404c18:	aa0003e3 	mov	x3, x0
  404c1c:	a9025bf5 	stp	x21, x22, [sp, #32]
  404c20:	d0000476 	adrp	x22, 492000 <tunable_list+0x528>
  404c24:	912802c1 	add	x1, x22, #0xa00
  404c28:	aa0003f5 	mov	x21, x0
  404c2c:	8b000285 	add	x5, x20, x0
  404c30:	52800024 	mov	w4, #0x1                   	// #1
  404c34:	d2800000 	mov	x0, #0x0                   	// #0
  404c38:	f9403433 	ldr	x19, [x1, #104]
  404c3c:	d503201f 	nop
  404c40:	91000463 	add	x3, x3, #0x1
  404c44:	385ff062 	ldurb	w2, [x3, #-1]
  404c48:	5100c041 	sub	w1, w2, #0x30
  404c4c:	d37f1c42 	ubfiz	x2, x2, #1, #8
  404c50:	78626a62 	ldrh	w2, [x19, x2]
  404c54:	36180082 	tbz	w2, #3, 404c64 <_nl_normalize_codeset+0x60>
  404c58:	7100283f 	cmp	w1, #0xa
  404c5c:	91000400 	add	x0, x0, #0x1
  404c60:	1a9f3084 	csel	w4, w4, wzr, cc  // cc = lo, ul, last
  404c64:	eb0300bf 	cmp	x5, x3
  404c68:	54fffec1 	b.ne	404c40 <_nl_normalize_codeset+0x3c>  // b.any
  404c6c:	35000424 	cbnz	w4, 404cf0 <_nl_normalize_codeset+0xec>
  404c70:	91000400 	add	x0, x0, #0x1
  404c74:	9400523b 	bl	419560 <__libc_malloc>
  404c78:	aa0003e4 	mov	x4, x0
  404c7c:	b40005a0 	cbz	x0, 404d30 <_nl_normalize_codeset+0x12c>
  404c80:	912802d6 	add	x22, x22, #0xa00
  404c84:	d2800003 	mov	x3, #0x0                   	// #0
  404c88:	f9403ac8 	ldr	x8, [x22, #112]
  404c8c:	14000007 	b	404ca8 <_nl_normalize_codeset+0xa4>
  404c90:	b8677901 	ldr	w1, [x8, x7, lsl #2]
  404c94:	380014a1 	strb	w1, [x5], #1
  404c98:	aa0503e4 	mov	x4, x5
  404c9c:	91000463 	add	x3, x3, #0x1
  404ca0:	eb03029f 	cmp	x20, x3
  404ca4:	540001c9 	b.ls	404cdc <_nl_normalize_codeset+0xd8>  // b.plast
  404ca8:	38636aa7 	ldrb	w7, [x21, x3]
  404cac:	aa0403e5 	mov	x5, x4
  404cb0:	5100c0e1 	sub	w1, w7, #0x30
  404cb4:	d37f1ce6 	ubfiz	x6, x7, #1, #8
  404cb8:	78666a66 	ldrh	w6, [x19, x6]
  404cbc:	3757fea6 	tbnz	w6, #10, 404c90 <_nl_normalize_codeset+0x8c>
  404cc0:	7100243f 	cmp	w1, #0x9
  404cc4:	54fffec8 	b.hi	404c9c <_nl_normalize_codeset+0x98>  // b.pmore
  404cc8:	380014a7 	strb	w7, [x5], #1
  404ccc:	91000463 	add	x3, x3, #0x1
  404cd0:	aa0503e4 	mov	x4, x5
  404cd4:	eb03029f 	cmp	x20, x3
  404cd8:	54fffe88 	b.hi	404ca8 <_nl_normalize_codeset+0xa4>  // b.pmore
  404cdc:	a94153f3 	ldp	x19, x20, [sp, #16]
  404ce0:	a9425bf5 	ldp	x21, x22, [sp, #32]
  404ce4:	3900009f 	strb	wzr, [x4]
  404ce8:	a8c37bfd 	ldp	x29, x30, [sp], #48
  404cec:	d65f03c0 	ret
  404cf0:	91001000 	add	x0, x0, #0x4
  404cf4:	9400521b 	bl	419560 <__libc_malloc>
  404cf8:	b40001c0 	cbz	x0, 404d30 <_nl_normalize_codeset+0x12c>
  404cfc:	aa0003e4 	mov	x4, x0
  404d00:	912802c1 	add	x1, x22, #0xa00
  404d04:	528e6d22 	mov	w2, #0x7369                	// #29545
  404d08:	72a00de2 	movk	w2, #0x6f, lsl #16
  404d0c:	b8003482 	str	w2, [x4], #3
  404d10:	f9403433 	ldr	x19, [x1, #104]
  404d14:	17ffffdb 	b	404c80 <_nl_normalize_codeset+0x7c>
  404d18:	d2800080 	mov	x0, #0x4                   	// #4
  404d1c:	94005211 	bl	419560 <__libc_malloc>
  404d20:	b5000100 	cbnz	x0, 404d40 <_nl_normalize_codeset+0x13c>
  404d24:	d2800000 	mov	x0, #0x0                   	// #0
  404d28:	a8c37bfd 	ldp	x29, x30, [sp], #48
  404d2c:	d65f03c0 	ret
  404d30:	d2800000 	mov	x0, #0x0                   	// #0
  404d34:	a94153f3 	ldp	x19, x20, [sp, #16]
  404d38:	a9425bf5 	ldp	x21, x22, [sp, #32]
  404d3c:	17fffffb 	b	404d28 <_nl_normalize_codeset+0x124>
  404d40:	aa0003e4 	mov	x4, x0
  404d44:	528e6d21 	mov	w1, #0x7369                	// #29545
  404d48:	72a00de1 	movk	w1, #0x6f, lsl #16
  404d4c:	b8003481 	str	w1, [x4], #3
  404d50:	17ffffe5 	b	404ce4 <_nl_normalize_codeset+0xe0>
  404d54:	d503201f 	nop
  404d58:	d503201f 	nop
  404d5c:	d503201f 	nop

0000000000404d60 <_nl_explode_name>:
  404d60:	a9ba7bfd 	stp	x29, x30, [sp, #-96]!
  404d64:	aa0003e7 	mov	x7, x0
  404d68:	52800808 	mov	w8, #0x40                  	// #64
  404d6c:	910003fd 	mov	x29, sp
  404d70:	a90153f3 	stp	x19, x20, [sp, #16]
  404d74:	a9025bf5 	stp	x21, x22, [sp, #32]
  404d78:	aa0403f5 	mov	x21, x4
  404d7c:	f900005f 	str	xzr, [x2]
  404d80:	f900007f 	str	xzr, [x3]
  404d84:	f900009f 	str	xzr, [x4]
  404d88:	f90000bf 	str	xzr, [x5]
  404d8c:	f9000020 	str	x0, [x1]
  404d90:	39400006 	ldrb	w6, [x0]
  404d94:	71017cdf 	cmp	w6, #0x5f
  404d98:	7a4018c4 	ccmp	w6, #0x0, #0x4, ne  // ne = any
  404d9c:	540000e1 	b.ne	404db8 <_nl_explode_name+0x58>  // b.any
  404da0:	1400002a 	b	404e48 <_nl_explode_name+0xe8>
  404da4:	394004e6 	ldrb	w6, [x7, #1]
  404da8:	71017cdf 	cmp	w6, #0x5f
  404dac:	7a4018c4 	ccmp	w6, #0x0, #0x4, ne  // ne = any
  404db0:	54000500 	b.eq	404e50 <_nl_explode_name+0xf0>  // b.none
  404db4:	aa0103e7 	mov	x7, x1
  404db8:	7100b8df 	cmp	w6, #0x2e
  404dbc:	910004e1 	add	x1, x7, #0x1
  404dc0:	7a4810c4 	ccmp	w6, w8, #0x4, ne  // ne = any
  404dc4:	54ffff01 	b.ne	404da4 <_nl_explode_name+0x44>  // b.any
  404dc8:	eb07001f 	cmp	x0, x7
  404dcc:	540003e0 	b.eq	404e48 <_nl_explode_name+0xe8>  // b.none
  404dd0:	394000e6 	ldrb	w6, [x7]
  404dd4:	52800013 	mov	w19, #0x0                   	// #0
  404dd8:	7100b8df 	cmp	w6, #0x2e
  404ddc:	54000660 	b.eq	404ea8 <_nl_explode_name+0x148>  // b.none
  404de0:	710100df 	cmp	w6, #0x40
  404de4:	54000101 	b.ne	404e04 <_nl_explode_name+0xa4>  // b.any
  404de8:	aa0703e0 	mov	x0, x7
  404dec:	321d0261 	orr	w1, w19, #0x8
  404df0:	3800141f 	strb	wzr, [x0], #1
  404df4:	f9000040 	str	x0, [x2]
  404df8:	394004e0 	ldrb	w0, [x7, #1]
  404dfc:	7100001f 	cmp	w0, #0x0
  404e00:	1a931033 	csel	w19, w1, w19, ne  // ne = any
  404e04:	f9400060 	ldr	x0, [x3]
  404e08:	b40000a0 	cbz	x0, 404e1c <_nl_explode_name+0xbc>
  404e0c:	39400001 	ldrb	w1, [x0]
  404e10:	121d7a60 	and	w0, w19, #0xfffffffb
  404e14:	7100003f 	cmp	w1, #0x0
  404e18:	1a930013 	csel	w19, w0, w19, eq  // eq = none
  404e1c:	f94002a0 	ldr	x0, [x21]
  404e20:	b40000a0 	cbz	x0, 404e34 <_nl_explode_name+0xd4>
  404e24:	39400001 	ldrb	w1, [x0]
  404e28:	121e7a60 	and	w0, w19, #0xfffffffd
  404e2c:	7100003f 	cmp	w1, #0x0
  404e30:	1a930013 	csel	w19, w0, w19, eq  // eq = none
  404e34:	2a1303e0 	mov	w0, w19
  404e38:	a94153f3 	ldp	x19, x20, [sp, #16]
  404e3c:	a9425bf5 	ldp	x21, x22, [sp, #32]
  404e40:	a8c67bfd 	ldp	x29, x30, [sp], #96
  404e44:	d65f03c0 	ret
  404e48:	52800013 	mov	w19, #0x0                   	// #0
  404e4c:	17ffffee 	b	404e04 <_nl_explode_name+0xa4>
  404e50:	eb01001f 	cmp	x0, x1
  404e54:	54ffffa0 	b.eq	404e48 <_nl_explode_name+0xe8>  // b.none
  404e58:	71017cdf 	cmp	w6, #0x5f
  404e5c:	54000861 	b.ne	404f68 <_nl_explode_name+0x208>  // b.any
  404e60:	3900003f 	strb	wzr, [x1]
  404e64:	910008e7 	add	x7, x7, #0x2
  404e68:	f9000067 	str	x7, [x3]
  404e6c:	39400426 	ldrb	w6, [x1, #1]
  404e70:	121978c0 	and	w0, w6, #0xffffffbf
  404e74:	7100b8df 	cmp	w6, #0x2e
  404e78:	12001c00 	and	w0, w0, #0xff
  404e7c:	7a401804 	ccmp	w0, #0x0, #0x4, ne  // ne = any
  404e80:	540000e0 	b.eq	404e9c <_nl_explode_name+0x13c>  // b.none
  404e84:	d503201f 	nop
  404e88:	38401ce6 	ldrb	w6, [x7, #1]!
  404e8c:	7100b8df 	cmp	w6, #0x2e
  404e90:	121978c0 	and	w0, w6, #0xffffffbf
  404e94:	7a401804 	ccmp	w0, #0x0, #0x4, ne  // ne = any
  404e98:	54ffff81 	b.ne	404e88 <_nl_explode_name+0x128>  // b.any
  404e9c:	52800093 	mov	w19, #0x4                   	// #4
  404ea0:	7100b8df 	cmp	w6, #0x2e
  404ea4:	54fff9e1 	b.ne	404de0 <_nl_explode_name+0x80>  // b.any
  404ea8:	aa0703e0 	mov	x0, x7
  404eac:	a9036bf9 	stp	x25, x26, [sp, #48]
  404eb0:	528017e1 	mov	w1, #0xbf                  	// #191
  404eb4:	321f0279 	orr	w25, w19, #0x2
  404eb8:	3800141f 	strb	wzr, [x0], #1
  404ebc:	f90002a0 	str	x0, [x21]
  404ec0:	394004e6 	ldrb	w6, [x7, #1]
  404ec4:	6a0100df 	tst	w6, w1
  404ec8:	54000360 	b.eq	404f34 <_nl_explode_name+0x1d4>  // b.none
  404ecc:	aa0003f4 	mov	x20, x0
  404ed0:	aa1403f6 	mov	x22, x20
  404ed4:	38401e84 	ldrb	w4, [x20, #1]!
  404ed8:	528017e1 	mov	w1, #0xbf                  	// #191
  404edc:	6a01009f 	tst	w4, w1
  404ee0:	54ffff81 	b.ne	404ed0 <_nl_explode_name+0x170>  // b.any
  404ee4:	f90027e5 	str	x5, [sp, #72]
  404ee8:	eb14001f 	cmp	x0, x20
  404eec:	54000240 	b.eq	404f34 <_nl_explode_name+0x1d4>  // b.none
  404ef0:	cb0702c1 	sub	x1, x22, x7
  404ef4:	a9050fe2 	stp	x2, x3, [sp, #80]
  404ef8:	97ffff43 	bl	404c04 <_nl_normalize_codeset>
  404efc:	f94027e5 	ldr	x5, [sp, #72]
  404f00:	aa0003fa 	mov	x26, x0
  404f04:	f90000a0 	str	x0, [x5]
  404f08:	b4000360 	cbz	x0, 404f74 <_nl_explode_name+0x214>
  404f0c:	aa0003e1 	mov	x1, x0
  404f10:	f94002a0 	ldr	x0, [x21]
  404f14:	940058fb 	bl	41b300 <strcmp>
  404f18:	a9450fe2 	ldp	x2, x3, [sp, #80]
  404f1c:	34000140 	cbz	w0, 404f44 <_nl_explode_name+0x1e4>
  404f20:	394006c6 	ldrb	w6, [x22, #1]
  404f24:	32000673 	orr	w19, w19, #0x3
  404f28:	aa1403e7 	mov	x7, x20
  404f2c:	a9436bf9 	ldp	x25, x26, [sp, #48]
  404f30:	17ffffac 	b	404de0 <_nl_explode_name+0x80>
  404f34:	2a1903f3 	mov	w19, w25
  404f38:	aa0003e7 	mov	x7, x0
  404f3c:	a9436bf9 	ldp	x25, x26, [sp, #48]
  404f40:	17ffffa8 	b	404de0 <_nl_explode_name+0x80>
  404f44:	aa1a03e0 	mov	x0, x26
  404f48:	a9048fe2 	stp	x2, x3, [sp, #72]
  404f4c:	940052e9 	bl	419af0 <__free>
  404f50:	2a1903f3 	mov	w19, w25
  404f54:	394006c6 	ldrb	w6, [x22, #1]
  404f58:	aa1403e7 	mov	x7, x20
  404f5c:	a9436bf9 	ldp	x25, x26, [sp, #48]
  404f60:	a9448fe2 	ldp	x2, x3, [sp, #72]
  404f64:	17ffff9f 	b	404de0 <_nl_explode_name+0x80>
  404f68:	aa0103e7 	mov	x7, x1
  404f6c:	52800013 	mov	w19, #0x0                   	// #0
  404f70:	17ffff9a 	b	404dd8 <_nl_explode_name+0x78>
  404f74:	12800013 	mov	w19, #0xffffffff            	// #-1
  404f78:	a9436bf9 	ldp	x25, x26, [sp, #48]
  404f7c:	17ffffae 	b	404e34 <_nl_explode_name+0xd4>

0000000000404f80 <__gettext_free_exp>:
  404f80:	b4000340 	cbz	x0, 404fe8 <__gettext_free_exp+0x68>
  404f84:	a9be7bfd 	stp	x29, x30, [sp, #-32]!
  404f88:	910003fd 	mov	x29, sp
  404f8c:	f9000bf3 	str	x19, [sp, #16]
  404f90:	aa0003f3 	mov	x19, x0
  404f94:	b9400000 	ldr	w0, [x0]
  404f98:	7100081f 	cmp	w0, #0x2
  404f9c:	54000160 	b.eq	404fc8 <__gettext_free_exp+0x48>  // b.none
  404fa0:	71000c1f 	cmp	w0, #0x3
  404fa4:	540000e0 	b.eq	404fc0 <__gettext_free_exp+0x40>  // b.none
  404fa8:	7100041f 	cmp	w0, #0x1
  404fac:	54000120 	b.eq	404fd0 <__gettext_free_exp+0x50>  // b.none
  404fb0:	aa1303e0 	mov	x0, x19
  404fb4:	f9400bf3 	ldr	x19, [sp, #16]
  404fb8:	a8c27bfd 	ldp	x29, x30, [sp], #32
  404fbc:	140052cd 	b	419af0 <__free>
  404fc0:	f9400e60 	ldr	x0, [x19, #24]
  404fc4:	97ffffef 	bl	404f80 <__gettext_free_exp>
  404fc8:	f9400a60 	ldr	x0, [x19, #16]
  404fcc:	97ffffed 	bl	404f80 <__gettext_free_exp>
  404fd0:	f9400660 	ldr	x0, [x19, #8]
  404fd4:	97ffffeb 	bl	404f80 <__gettext_free_exp>
  404fd8:	aa1303e0 	mov	x0, x19
  404fdc:	f9400bf3 	ldr	x19, [sp, #16]
  404fe0:	a8c27bfd 	ldp	x29, x30, [sp], #32
  404fe4:	140052c3 	b	419af0 <__free>
  404fe8:	d65f03c0 	ret
  404fec:	d503201f 	nop

0000000000404ff0 <__gettextparse>:
  404ff0:	a9ba7bfd 	stp	x29, x30, [sp, #-96]!
  404ff4:	910003fd 	mov	x29, sp
  404ff8:	a90153f3 	stp	x19, x20, [sp, #16]
  404ffc:	a9025bf5 	stp	x21, x22, [sp, #32]
  405000:	a90363f7 	stp	x23, x24, [sp, #48]
  405004:	a9046bf9 	stp	x25, x26, [sp, #64]
  405008:	a90573fb 	stp	x27, x28, [sp, #80]
  40500c:	d11d83ff 	sub	sp, sp, #0x760
  405010:	f90203ff 	str	xzr, [sp, #1024]
  405014:	b0000463 	adrp	x3, 492000 <tunable_list+0x528>
  405018:	900002b5 	adrp	x21, 459000 <free_slotinfo+0x30>
  40501c:	911ca2a4 	add	x4, x21, #0x728
  405020:	f945f861 	ldr	x1, [x3, #3056]
  405024:	f90007e4 	str	x4, [sp, #8]
  405028:	a90203e3 	stp	x3, x0, [sp, #32]
  40502c:	911a43f6 	add	x22, sp, #0x690
  405030:	91042094 	add	x20, x4, #0x108
  405034:	f9400020 	ldr	x0, [x1]
  405038:	f903afe0 	str	x0, [sp, #1880]
  40503c:	d2800000 	mov	x0, #0x0                   	// #0
  405040:	aa1603fc 	mov	x28, x22
  405044:	aa1603e1 	mov	x1, x22
  405048:	910143e2 	add	x2, sp, #0x50
  40504c:	52800013 	mov	w19, #0x0                   	// #0
  405050:	12800039 	mov	w25, #0xfffffffe            	// #-2
  405054:	d280191b 	mov	x27, #0xc8                  	// #200
  405058:	900002b7 	adrp	x23, 459000 <free_slotinfo+0x30>
  40505c:	f90003e2 	str	x2, [sp]
  405060:	b90017ff 	str	wzr, [sp, #20]
  405064:	391a43ff 	strb	wzr, [sp, #1680]
  405068:	912402e0 	add	x0, x23, #0x900
  40506c:	93407e6a 	sxtw	x10, w19
  405070:	38f3c800 	ldrsb	w0, [x0, w19, sxtw]
  405074:	2a0003e9 	mov	w9, w0
  405078:	3100101f 	cmn	w0, #0x4
  40507c:	540012a0 	b.eq	4052d0 <__gettextparse+0x2e0>  // b.none
  405080:	31000b3f 	cmn	w25, #0x2
  405084:	54002160 	b.eq	4054b0 <__gettextparse+0x4c0>  // b.none
  405088:	7100033f 	cmp	w25, #0x0
  40508c:	5400208d 	b.le	40549c <__gettextparse+0x4ac>
  405090:	7104033f 	cmp	w25, #0x100
  405094:	54002760 	b.eq	405580 <__gettextparse+0x590>  // b.none
  405098:	f94007e3 	ldr	x3, [sp, #8]
  40509c:	38f9c86c 	ldrsb	w12, [x3, w25, sxtw]
  4050a0:	0b0c0009 	add	w9, w0, w12
  4050a4:	7100e13f 	cmp	w9, #0x38
  4050a8:	54001148 	b.hi	4052d0 <__gettextparse+0x2e0>  // b.pmore
  4050ac:	911ca2a3 	add	x3, x21, #0x728
  4050b0:	91042065 	add	x5, x3, #0x108
  4050b4:	38e9c8a5 	ldrsb	w5, [x5, w9, sxtw]
  4050b8:	6b0c00bf 	cmp	w5, w12
  4050bc:	540010a1 	b.ne	4052d0 <__gettextparse+0x2e0>  // b.any
  4050c0:	91052063 	add	x3, x3, #0x148
  4050c4:	38e9c873 	ldrsb	w19, [x3, w9, sxtw]
  4050c8:	2a1303e0 	mov	w0, w19
  4050cc:	4b1303e3 	neg	w3, w19
  4050d0:	7100027f 	cmp	w19, #0x0
  4050d4:	5400018d 	b.le	405104 <__gettextparse+0x114>
  4050d8:	b94017e3 	ldr	w3, [sp, #20]
  4050dc:	aa0103e5 	mov	x5, x1
  4050e0:	91002042 	add	x2, x2, #0x8
  4050e4:	12800039 	mov	w25, #0xfffffffe            	// #-2
  4050e8:	7100007f 	cmp	w3, #0x0
  4050ec:	1a9f07e1 	cset	w1, ne  // ne = any
  4050f0:	4b010061 	sub	w1, w3, w1
  4050f4:	b90017e1 	str	w1, [sp, #20]
  4050f8:	f9401fe1 	ldr	x1, [sp, #56]
  4050fc:	f9000041 	str	x1, [x2]
  405100:	1400003b 	b	4051ec <__gettextparse+0x1fc>
  405104:	911ca2a0 	add	x0, x21, #0x728
  405108:	52800029 	mov	w9, #0x1                   	// #1
  40510c:	9106a000 	add	x0, x0, #0x1a8
  405110:	93407c78 	sxtw	x24, w3
  405114:	38e3c813 	ldrsb	w19, [x0, w3, sxtw]
  405118:	4b130120 	sub	w0, w9, w19
  40511c:	f860d840 	ldr	x0, [x2, w0, sxtw #3]
  405120:	7100207f 	cmp	w3, #0x8
  405124:	54001620 	b.eq	4053e8 <__gettextparse+0x3f8>  // b.none
  405128:	5400186c 	b.gt	405434 <__gettextparse+0x444>
  40512c:	7100147f 	cmp	w3, #0x5
  405130:	54002380 	b.eq	4055a0 <__gettextparse+0x5b0>  // b.none
  405134:	5400152c 	b.gt	4053d8 <__gettextparse+0x3e8>
  405138:	71000c7f 	cmp	w3, #0x3
  40513c:	54002580 	b.eq	4055ec <__gettextparse+0x5fc>  // b.none
  405140:	7100107f 	cmp	w3, #0x4
  405144:	54001121 	b.ne	405368 <__gettextparse+0x378>  // b.any
  405148:	f85f0043 	ldur	x3, [x2, #-16]
  40514c:	f940005a 	ldr	x26, [x2]
  405150:	f100007f 	cmp	x3, #0x0
  405154:	fa401b44 	ccmp	x26, #0x0, #0x4, ne  // ne = any
  405158:	54001ea0 	b.eq	40552c <__gettextparse+0x53c>  // b.none
  40515c:	d2800400 	mov	x0, #0x20                  	// #32
  405160:	f9000fe3 	str	x3, [sp, #24]
  405164:	f9001be1 	str	x1, [sp, #48]
  405168:	f90023e2 	str	x2, [sp, #64]
  40516c:	940050fd 	bl	419560 <__libc_malloc>
  405170:	f9400fe3 	ldr	x3, [sp, #24]
  405174:	f9401be1 	ldr	x1, [sp, #48]
  405178:	f94023e2 	ldr	x2, [sp, #64]
  40517c:	b4001d80 	cbz	x0, 40552c <__gettextparse+0x53c>
  405180:	a900e803 	stp	x3, x26, [x0, #8]
  405184:	d2800043 	mov	x3, #0x2                   	// #2
  405188:	f2c001e3 	movk	x3, #0xf, lsl #32
  40518c:	f9000003 	str	x3, [x0]
  405190:	911ca2a9 	add	x9, x21, #0x728
  405194:	cb33cc4b 	sub	x11, x2, w19, sxtw #3
  405198:	9106e12c 	add	x12, x9, #0x1b8
  40519c:	cb338025 	sub	x5, x1, w19, sxtb
  4051a0:	900002a3 	adrp	x3, 459000 <free_slotinfo+0x30>
  4051a4:	9123e063 	add	x3, x3, #0x8f8
  4051a8:	f9000560 	str	x0, [x11, #8]
  4051ac:	91002162 	add	x2, x11, #0x8
  4051b0:	38f86981 	ldrsb	w1, [x12, x24]
  4051b4:	39c000aa 	ldrsb	w10, [x5]
  4051b8:	51004020 	sub	w0, w1, #0x10
  4051bc:	38e0c861 	ldrsb	w1, [x3, w0, sxtw]
  4051c0:	0b0a0021 	add	w1, w1, w10
  4051c4:	7100e03f 	cmp	w1, #0x38
  4051c8:	540000a8 	b.hi	4051dc <__gettextparse+0x1ec>  // b.pmore
  4051cc:	91042123 	add	x3, x9, #0x108
  4051d0:	38e1c863 	ldrsb	w3, [x3, w1, sxtw]
  4051d4:	6b0a007f 	cmp	w3, w10
  4051d8:	540018a0 	b.eq	4054ec <__gettextparse+0x4fc>  // b.none
  4051dc:	911ca2a1 	add	x1, x21, #0x728
  4051e0:	91072021 	add	x1, x1, #0x1c8
  4051e4:	38e0c820 	ldrsb	w0, [x1, w0, sxtw]
  4051e8:	2a0003f3 	mov	w19, w0
  4051ec:	d1000769 	sub	x9, x27, #0x1
  4051f0:	910004a1 	add	x1, x5, #0x1
  4051f4:	8b090389 	add	x9, x28, x9
  4051f8:	390004a0 	strb	w0, [x5, #1]
  4051fc:	eb09003f 	cmp	x1, x9
  405200:	54000603 	b.cc	4052c0 <__gettextparse+0x2d0>  // b.lo, b.ul, b.last
  405204:	cb1c0020 	sub	x0, x1, x28
  405208:	aa0003e1 	mov	x1, x0
  40520c:	f9000fe1 	str	x1, [sp, #24]
  405210:	9100043a 	add	x26, x1, #0x1
  405214:	d284e1e0 	mov	x0, #0x270f                	// #9999
  405218:	eb00037f 	cmp	x27, x0
  40521c:	540033ec 	b.gt	405898 <__gettextparse+0x8a8>
  405220:	d37ffb7b 	lsl	x27, x27, #1
  405224:	d284e200 	mov	x0, #0x2710                	// #10000
  405228:	eb00037f 	cmp	x27, x0
  40522c:	9a80d37b 	csel	x27, x27, x0, le
  405230:	8b1b0f60 	add	x0, x27, x27, lsl #3
  405234:	91001c00 	add	x0, x0, #0x7
  405238:	940050ca 	bl	419560 <__libc_malloc>
  40523c:	aa0003f8 	mov	x24, x0
  405240:	b40032c0 	cbz	x0, 405898 <__gettextparse+0x8a8>
  405244:	aa1a03e2 	mov	x2, x26
  405248:	aa1c03e1 	mov	x1, x28
  40524c:	97ffec19 	bl	4002b0 <.plt+0x10>
  405250:	91001f69 	add	x9, x27, #0x7
  405254:	d37df342 	lsl	x2, x26, #3
  405258:	927df129 	and	x9, x9, #0xfffffffffffffff8
  40525c:	f94003e1 	ldr	x1, [sp]
  405260:	8b090309 	add	x9, x24, x9
  405264:	aa0903e0 	mov	x0, x9
  405268:	f90003e2 	str	x2, [sp]
  40526c:	97ffec11 	bl	4002b0 <.plt+0x10>
  405270:	aa0003e9 	mov	x9, x0
  405274:	eb16039f 	cmp	x28, x22
  405278:	f94003e2 	ldr	x2, [sp]
  40527c:	540000e0 	b.eq	405298 <__gettextparse+0x2a8>  // b.none
  405280:	aa1c03e0 	mov	x0, x28
  405284:	f90003e9 	str	x9, [sp]
  405288:	f9001be2 	str	x2, [sp, #48]
  40528c:	94005219 	bl	419af0 <__free>
  405290:	f94003e9 	ldr	x9, [sp]
  405294:	f9401be2 	ldr	x2, [sp, #48]
  405298:	d1000760 	sub	x0, x27, #0x1
  40529c:	f9400fe1 	ldr	x1, [sp, #24]
  4052a0:	d1002042 	sub	x2, x2, #0x8
  4052a4:	8b000300 	add	x0, x24, x0
  4052a8:	8b020122 	add	x2, x9, x2
  4052ac:	8b010301 	add	x1, x24, x1
  4052b0:	eb00003f 	cmp	x1, x0
  4052b4:	54002ec2 	b.cs	40588c <__gettextparse+0x89c>  // b.hs, b.nlast
  4052b8:	aa1803fc 	mov	x28, x24
  4052bc:	f90003e9 	str	x9, [sp]
  4052c0:	7100267f 	cmp	w19, #0x9
  4052c4:	54ffed21 	b.ne	405068 <__gettextparse+0x78>  // b.any
  4052c8:	52800013 	mov	w19, #0x0                   	// #0
  4052cc:	1400002f 	b	405388 <__gettextparse+0x398>
  4052d0:	911ca2a3 	add	x3, x21, #0x728
  4052d4:	91062063 	add	x3, x3, #0x188
  4052d8:	38ea6863 	ldrsb	w3, [x3, x10]
  4052dc:	35fff143 	cbnz	w3, 405104 <__gettextparse+0x114>
  4052e0:	b94017e3 	ldr	w3, [sp, #20]
  4052e4:	71000c7f 	cmp	w3, #0x3
  4052e8:	54000081 	b.ne	4052f8 <__gettextparse+0x308>  // b.any
  4052ec:	7100033f 	cmp	w25, #0x0
  4052f0:	54000dcc 	b.gt	4054a8 <__gettextparse+0x4b8>
  4052f4:	54000480 	b.eq	405384 <__gettextparse+0x394>  // b.none
  4052f8:	f94007e3 	ldr	x3, [sp, #8]
  4052fc:	912402e5 	add	x5, x23, #0x900
  405300:	91052069 	add	x9, x3, #0x148
  405304:	14000006 	b	40531c <__gettextparse+0x32c>
  405308:	eb1c003f 	cmp	x1, x28
  40530c:	540003c0 	b.eq	405384 <__gettextparse+0x394>  // b.none
  405310:	38dffc20 	ldrsb	w0, [x1, #-1]!
  405314:	d1002042 	sub	x2, x2, #0x8
  405318:	38e0c8a0 	ldrsb	w0, [x5, w0, sxtw]
  40531c:	3100101f 	cmn	w0, #0x4
  405320:	54ffff40 	b.eq	405308 <__gettextparse+0x318>  // b.none
  405324:	11000400 	add	w0, w0, #0x1
  405328:	7100e01f 	cmp	w0, #0x38
  40532c:	54fffee8 	b.hi	405308 <__gettextparse+0x318>  // b.pmore
  405330:	38e0ca83 	ldrsb	w3, [x20, w0, sxtw]
  405334:	7100047f 	cmp	w3, #0x1
  405338:	54fffe81 	b.ne	405308 <__gettextparse+0x318>  // b.any
  40533c:	38e0c920 	ldrsb	w0, [x9, w0, sxtw]
  405340:	2a0003f3 	mov	w19, w0
  405344:	7100001f 	cmp	w0, #0x0
  405348:	54fffe0d 	b.le	405308 <__gettextparse+0x318>
  40534c:	aa0103e5 	mov	x5, x1
  405350:	52800061 	mov	w1, #0x3                   	// #3
  405354:	b90017e1 	str	w1, [sp, #20]
  405358:	91002042 	add	x2, x2, #0x8
  40535c:	f9401fe1 	ldr	x1, [sp, #56]
  405360:	f9000041 	str	x1, [x2]
  405364:	17ffffa2 	b	4051ec <__gettextparse+0x1fc>
  405368:	7100087f 	cmp	w3, #0x2
  40536c:	54fff121 	b.ne	405190 <__gettextparse+0x1a0>  // b.any
  405370:	f9400043 	ldr	x3, [x2]
  405374:	b4000083 	cbz	x3, 405384 <__gettextparse+0x394>
  405378:	f94017e4 	ldr	x4, [sp, #40]
  40537c:	f9000483 	str	x3, [x4, #8]
  405380:	17ffff84 	b	405190 <__gettextparse+0x1a0>
  405384:	52800033 	mov	w19, #0x1                   	// #1
  405388:	eb16039f 	cmp	x28, x22
  40538c:	54000060 	b.eq	405398 <__gettextparse+0x3a8>  // b.none
  405390:	aa1c03e0 	mov	x0, x28
  405394:	940051d7 	bl	419af0 <__free>
  405398:	f94013e0 	ldr	x0, [sp, #32]
  40539c:	f945f815 	ldr	x21, [x0, #3056]
  4053a0:	f943afe0 	ldr	x0, [sp, #1880]
  4053a4:	f94002a1 	ldr	x1, [x21]
  4053a8:	eb010000 	subs	x0, x0, x1
  4053ac:	d2800001 	mov	x1, #0x0                   	// #0
  4053b0:	54002941 	b.ne	4058d8 <__gettextparse+0x8e8>  // b.any
  4053b4:	911d83ff 	add	sp, sp, #0x760
  4053b8:	2a1303e0 	mov	w0, w19
  4053bc:	a94153f3 	ldp	x19, x20, [sp, #16]
  4053c0:	a9425bf5 	ldp	x21, x22, [sp, #32]
  4053c4:	a94363f7 	ldp	x23, x24, [sp, #48]
  4053c8:	a9446bf9 	ldp	x25, x26, [sp, #64]
  4053cc:	a94573fb 	ldp	x27, x28, [sp, #80]
  4053d0:	a8c67bfd 	ldp	x29, x30, [sp], #96
  4053d4:	d65f03c0 	ret
  4053d8:	7100187f 	cmp	w3, #0x6
  4053dc:	54000060 	b.eq	4053e8 <__gettextparse+0x3f8>  // b.none
  4053e0:	71001c7f 	cmp	w3, #0x7
  4053e4:	54ffed61 	b.ne	405190 <__gettextparse+0x1a0>  // b.any
  4053e8:	f9400043 	ldr	x3, [x2]
  4053ec:	f85f0049 	ldur	x9, [x2, #-16]
  4053f0:	f100007f 	cmp	x3, #0x0
  4053f4:	b85f805a 	ldur	w26, [x2, #-8]
  4053f8:	fa401924 	ccmp	x9, #0x0, #0x4, ne  // ne = any
  4053fc:	54000800 	b.eq	4054fc <__gettextparse+0x50c>  // b.none
  405400:	d2800400 	mov	x0, #0x20                  	// #32
  405404:	f9000fe9 	str	x9, [sp, #24]
  405408:	f9001be3 	str	x3, [sp, #48]
  40540c:	a9040be1 	stp	x1, x2, [sp, #64]
  405410:	94005054 	bl	419560 <__libc_malloc>
  405414:	f9400fe9 	ldr	x9, [sp, #24]
  405418:	f9401be3 	ldr	x3, [sp, #48]
  40541c:	a9440be1 	ldp	x1, x2, [sp, #64]
  405420:	b40006e0 	cbz	x0, 4054fc <__gettextparse+0x50c>
  405424:	5280004b 	mov	w11, #0x2                   	// #2
  405428:	2900680b 	stp	w11, w26, [x0]
  40542c:	a9008c09 	stp	x9, x3, [x0, #8]
  405430:	17ffff58 	b	405190 <__gettextparse+0x1a0>
  405434:	71002c7f 	cmp	w3, #0xb
  405438:	54001fc0 	b.eq	405830 <__gettextparse+0x840>  // b.none
  40543c:	540000ed 	b.le	405458 <__gettextparse+0x468>
  405440:	7100307f 	cmp	w3, #0xc
  405444:	54001de0 	b.eq	405800 <__gettextparse+0x810>  // b.none
  405448:	7100347f 	cmp	w3, #0xd
  40544c:	54ffea21 	b.ne	405190 <__gettextparse+0x1a0>  // b.any
  405450:	f85f8040 	ldur	x0, [x2, #-8]
  405454:	17ffff4f 	b	405190 <__gettextparse+0x1a0>
  405458:	7100247f 	cmp	w3, #0x9
  40545c:	54fffc60 	b.eq	4053e8 <__gettextparse+0x3f8>  // b.none
  405460:	7100287f 	cmp	w3, #0xa
  405464:	54ffe961 	b.ne	405190 <__gettextparse+0x1a0>  // b.any
  405468:	f940005a 	ldr	x26, [x2]
  40546c:	b400129a 	cbz	x26, 4056bc <__gettextparse+0x6cc>
  405470:	d2800400 	mov	x0, #0x20                  	// #32
  405474:	f9000fe1 	str	x1, [sp, #24]
  405478:	f9001be2 	str	x2, [sp, #48]
  40547c:	94005039 	bl	419560 <__libc_malloc>
  405480:	f9400fe1 	ldr	x1, [sp, #24]
  405484:	f9401be2 	ldr	x2, [sp, #48]
  405488:	b40011a0 	cbz	x0, 4056bc <__gettextparse+0x6cc>
  40548c:	d2800023 	mov	x3, #0x1                   	// #1
  405490:	f2c00043 	movk	x3, #0x2, lsl #32
  405494:	a9006803 	stp	x3, x26, [x0]
  405498:	17ffff3e 	b	405190 <__gettextparse+0x1a0>
  40549c:	5280000c 	mov	w12, #0x0                   	// #0
  4054a0:	52800019 	mov	w25, #0x0                   	// #0
  4054a4:	17ffff00 	b	4050a4 <__gettextparse+0xb4>
  4054a8:	12800039 	mov	w25, #0xfffffffe            	// #-2
  4054ac:	17ffff93 	b	4052f8 <__gettextparse+0x308>
  4054b0:	f94017e3 	ldr	x3, [sp, #40]
  4054b4:	f9400065 	ldr	x5, [x3]
  4054b8:	14000006 	b	4054d0 <__gettextparse+0x4e0>
  4054bc:	7100807f 	cmp	w3, #0x20
  4054c0:	aa0503eb 	mov	x11, x5
  4054c4:	7a491864 	ccmp	w3, #0x9, #0x4, ne  // ne = any
  4054c8:	910004a5 	add	x5, x5, #0x1
  4054cc:	54000481 	b.ne	40555c <__gettextparse+0x56c>  // b.any
  4054d0:	394000a3 	ldrb	w3, [x5]
  4054d4:	35ffff43 	cbnz	w3, 4054bc <__gettextparse+0x4cc>
  4054d8:	f94017e3 	ldr	x3, [sp, #40]
  4054dc:	5280000c 	mov	w12, #0x0                   	// #0
  4054e0:	52800019 	mov	w25, #0x0                   	// #0
  4054e4:	f9000065 	str	x5, [x3]
  4054e8:	17fffeef 	b	4050a4 <__gettextparse+0xb4>
  4054ec:	91052129 	add	x9, x9, #0x148
  4054f0:	38e1c920 	ldrsb	w0, [x9, w1, sxtw]
  4054f4:	2a0003f3 	mov	w19, w0
  4054f8:	17ffff3d 	b	4051ec <__gettextparse+0x1fc>
  4054fc:	aa0303e0 	mov	x0, x3
  405500:	f9000fe9 	str	x9, [sp, #24]
  405504:	f9001be1 	str	x1, [sp, #48]
  405508:	f90023e2 	str	x2, [sp, #64]
  40550c:	97fffe9d 	bl	404f80 <__gettext_free_exp>
  405510:	f9400fe9 	ldr	x9, [sp, #24]
  405514:	aa0903e0 	mov	x0, x9
  405518:	97fffe9a 	bl	404f80 <__gettext_free_exp>
  40551c:	d2800000 	mov	x0, #0x0                   	// #0
  405520:	f9401be1 	ldr	x1, [sp, #48]
  405524:	f94023e2 	ldr	x2, [sp, #64]
  405528:	17ffff1a 	b	405190 <__gettextparse+0x1a0>
  40552c:	aa1a03e0 	mov	x0, x26
  405530:	f9000fe3 	str	x3, [sp, #24]
  405534:	f9001be1 	str	x1, [sp, #48]
  405538:	f90023e2 	str	x2, [sp, #64]
  40553c:	97fffe91 	bl	404f80 <__gettext_free_exp>
  405540:	f9400fe3 	ldr	x3, [sp, #24]
  405544:	aa0303e0 	mov	x0, x3
  405548:	97fffe8e 	bl	404f80 <__gettext_free_exp>
  40554c:	d2800000 	mov	x0, #0x0                   	// #0
  405550:	f9401be1 	ldr	x1, [sp, #48]
  405554:	f94023e2 	ldr	x2, [sp, #64]
  405558:	17ffff0e 	b	405190 <__gettextparse+0x1a0>
  40555c:	5100286c 	sub	w12, w3, #0xa
  405560:	2a0303f9 	mov	w25, w3
  405564:	7101c99f 	cmp	w12, #0x72
  405568:	54000109 	b.ls	405588 <__gettextparse+0x598>  // b.plast
  40556c:	f94017e3 	ldr	x3, [sp, #40]
  405570:	5280004c 	mov	w12, #0x2                   	// #2
  405574:	52802039 	mov	w25, #0x101                 	// #257
  405578:	f9000065 	str	x5, [x3]
  40557c:	17fffec9 	b	4050a0 <__gettextparse+0xb0>
  405580:	52802039 	mov	w25, #0x101                 	// #257
  405584:	17ffff5d 	b	4052f8 <__gettextparse+0x308>
  405588:	900002ad 	adrp	x13, 459000 <free_slotinfo+0x30>
  40558c:	911901ad 	add	x13, x13, #0x640
  405590:	786c59ad 	ldrh	w13, [x13, w12, uxtw #1]
  405594:	1000006c 	adr	x12, 4055a0 <__gettextparse+0x5b0>
  405598:	8b2da98d 	add	x13, x12, w13, sxth #2
  40559c:	d61f01a0 	br	x13
  4055a0:	f85f0043 	ldur	x3, [x2, #-16]
  4055a4:	f940005a 	ldr	x26, [x2]
  4055a8:	f100007f 	cmp	x3, #0x0
  4055ac:	fa401b44 	ccmp	x26, #0x0, #0x4, ne  // ne = any
  4055b0:	54fffbe0 	b.eq	40552c <__gettextparse+0x53c>  // b.none
  4055b4:	d2800400 	mov	x0, #0x20                  	// #32
  4055b8:	f9000fe3 	str	x3, [sp, #24]
  4055bc:	f9001be1 	str	x1, [sp, #48]
  4055c0:	f90023e2 	str	x2, [sp, #64]
  4055c4:	94004fe7 	bl	419560 <__libc_malloc>
  4055c8:	f9400fe3 	ldr	x3, [sp, #24]
  4055cc:	f9401be1 	ldr	x1, [sp, #48]
  4055d0:	f94023e2 	ldr	x2, [sp, #64]
  4055d4:	b4fffac0 	cbz	x0, 40552c <__gettextparse+0x53c>
  4055d8:	a900e803 	stp	x3, x26, [x0, #8]
  4055dc:	d2800043 	mov	x3, #0x2                   	// #2
  4055e0:	f2c001c3 	movk	x3, #0xe, lsl #32
  4055e4:	f9000003 	str	x3, [x0]
  4055e8:	17fffeea 	b	405190 <__gettextparse+0x1a0>
  4055ec:	f85f0043 	ldur	x3, [x2, #-16]
  4055f0:	f940005a 	ldr	x26, [x2]
  4055f4:	f100007f 	cmp	x3, #0x0
  4055f8:	f85e0049 	ldur	x9, [x2, #-32]
  4055fc:	fa401b44 	ccmp	x26, #0x0, #0x4, ne  // ne = any
  405600:	fa401924 	ccmp	x9, #0x0, #0x4, ne  // ne = any
  405604:	54001280 	b.eq	405854 <__gettextparse+0x864>  // b.none
  405608:	d2800400 	mov	x0, #0x20                  	// #32
  40560c:	f9000fe9 	str	x9, [sp, #24]
  405610:	f9001be3 	str	x3, [sp, #48]
  405614:	a9040be1 	stp	x1, x2, [sp, #64]
  405618:	94004fd2 	bl	419560 <__libc_malloc>
  40561c:	f9400fe9 	ldr	x9, [sp, #24]
  405620:	f9401be3 	ldr	x3, [sp, #48]
  405624:	a9440be1 	ldp	x1, x2, [sp, #64]
  405628:	b4001160 	cbz	x0, 405854 <__gettextparse+0x864>
  40562c:	a9008c09 	stp	x9, x3, [x0, #8]
  405630:	d2800069 	mov	x9, #0x3                   	// #3
  405634:	f2c00209 	movk	x9, #0x10, lsl #32
  405638:	f9000009 	str	x9, [x0]
  40563c:	f9000c1a 	str	x26, [x0, #24]
  405640:	17fffed4 	b	405190 <__gettextparse+0x1a0>
  405644:	39400569 	ldrb	w9, [x11, #1]
  405648:	5100c063 	sub	w3, w3, #0x30
  40564c:	5100c128 	sub	w8, w9, #0x30
  405650:	93407c63 	sxtw	x3, w3
  405654:	12001d09 	and	w9, w8, #0xff
  405658:	7100253f 	cmp	w9, #0x9
  40565c:	54000128 	b.hi	405680 <__gettextparse+0x690>  // b.pmore
  405660:	38401ca9 	ldrb	w9, [x5, #1]!
  405664:	93407d0b 	sxtw	x11, w8
  405668:	8b030863 	add	x3, x3, x3, lsl #2
  40566c:	5100c128 	sub	w8, w9, #0x30
  405670:	12001d09 	and	w9, w8, #0xff
  405674:	8b030563 	add	x3, x11, x3, lsl #1
  405678:	7100253f 	cmp	w9, #0x9
  40567c:	54ffff29 	b.ls	405660 <__gettextparse+0x670>  // b.plast
  405680:	f9001fe3 	str	x3, [sp, #56]
  405684:	5280016c 	mov	w12, #0xb                   	// #11
  405688:	f94017e3 	ldr	x3, [sp, #40]
  40568c:	528020d9 	mov	w25, #0x106                 	// #262
  405690:	f9000065 	str	x5, [x3]
  405694:	17fffe83 	b	4050a0 <__gettextparse+0xb0>
  405698:	39400569 	ldrb	w9, [x11, #1]
  40569c:	6b03013f 	cmp	w9, w3
  4056a0:	54fff661 	b.ne	40556c <__gettextparse+0x57c>  // b.any
  4056a4:	91000965 	add	x5, x11, #0x2
  4056a8:	f94007e4 	ldr	x4, [sp, #8]
  4056ac:	38e3c88c 	ldrsb	w12, [x4, w3, sxtw]
  4056b0:	f94017e3 	ldr	x3, [sp, #40]
  4056b4:	f9000065 	str	x5, [x3]
  4056b8:	17fffe7a 	b	4050a0 <__gettextparse+0xb0>
  4056bc:	aa1a03e0 	mov	x0, x26
  4056c0:	f9000fe1 	str	x1, [sp, #24]
  4056c4:	f9001be2 	str	x2, [sp, #48]
  4056c8:	97fffe2e 	bl	404f80 <__gettext_free_exp>
  4056cc:	d2800000 	mov	x0, #0x0                   	// #0
  4056d0:	f9400fe1 	ldr	x1, [sp, #24]
  4056d4:	f9401be2 	ldr	x2, [sp, #48]
  4056d8:	17fffeae 	b	405190 <__gettextparse+0x1a0>
  4056dc:	f94017e3 	ldr	x3, [sp, #40]
  4056e0:	5280000c 	mov	w12, #0x0                   	// #0
  4056e4:	52800019 	mov	w25, #0x0                   	// #0
  4056e8:	f900006b 	str	x11, [x3]
  4056ec:	17fffe6e 	b	4050a4 <__gettextparse+0xb4>
  4056f0:	d28000a3 	mov	x3, #0x5                   	// #5
  4056f4:	f9401fe4 	ldr	x4, [sp, #56]
  4056f8:	5280014c 	mov	w12, #0xa                   	// #10
  4056fc:	528020b9 	mov	w25, #0x105                 	// #261
  405700:	b3407c64 	bfxil	x4, x3, #0, #32
  405704:	f9001fe4 	str	x4, [sp, #56]
  405708:	f94017e3 	ldr	x3, [sp, #40]
  40570c:	f9000065 	str	x5, [x3]
  405710:	17fffe64 	b	4050a0 <__gettextparse+0xb0>
  405714:	d2800083 	mov	x3, #0x4                   	// #4
  405718:	17fffff7 	b	4056f4 <__gettextparse+0x704>
  40571c:	d2800063 	mov	x3, #0x3                   	// #3
  405720:	17fffff5 	b	4056f4 <__gettextparse+0x704>
  405724:	39400563 	ldrb	w3, [x11, #1]
  405728:	7100f47f 	cmp	w3, #0x3d
  40572c:	54000d20 	b.eq	4058d0 <__gettextparse+0x8e0>  // b.none
  405730:	f94017e3 	ldr	x3, [sp, #40]
  405734:	528000cc 	mov	w12, #0x6                   	// #6
  405738:	52800439 	mov	w25, #0x21                  	// #33
  40573c:	f9000065 	str	x5, [x3]
  405740:	17fffe58 	b	4050a0 <__gettextparse+0xb0>
  405744:	d28000e3 	mov	x3, #0x7                   	// #7
  405748:	f9401fe4 	ldr	x4, [sp, #56]
  40574c:	5280012c 	mov	w12, #0x9                   	// #9
  405750:	52802099 	mov	w25, #0x104                 	// #260
  405754:	b3407c64 	bfxil	x4, x3, #0, #32
  405758:	f9001fe4 	str	x4, [sp, #56]
  40575c:	f94017e3 	ldr	x3, [sp, #40]
  405760:	f9000065 	str	x5, [x3]
  405764:	17fffe4f 	b	4050a0 <__gettextparse+0xb0>
  405768:	d28000c3 	mov	x3, #0x6                   	// #6
  40576c:	17fffff7 	b	405748 <__gettextparse+0x758>
  405770:	39400563 	ldrb	w3, [x11, #1]
  405774:	7100f47f 	cmp	w3, #0x3d
  405778:	54000a80 	b.eq	4058c8 <__gettextparse+0x8d8>  // b.none
  40577c:	f9401fe4 	ldr	x4, [sp, #56]
  405780:	d2800123 	mov	x3, #0x9                   	// #9
  405784:	5280010c 	mov	w12, #0x8                   	// #8
  405788:	52802079 	mov	w25, #0x103                 	// #259
  40578c:	b3407c64 	bfxil	x4, x3, #0, #32
  405790:	f9001fe4 	str	x4, [sp, #56]
  405794:	f94017e3 	ldr	x3, [sp, #40]
  405798:	f9000065 	str	x5, [x3]
  40579c:	17fffe41 	b	4050a0 <__gettextparse+0xb0>
  4057a0:	39400563 	ldrb	w3, [x11, #1]
  4057a4:	7100f47f 	cmp	w3, #0x3d
  4057a8:	54ffee21 	b.ne	40556c <__gettextparse+0x57c>  // b.any
  4057ac:	d2800183 	mov	x3, #0xc                   	// #12
  4057b0:	f9401fe4 	ldr	x4, [sp, #56]
  4057b4:	9100096b 	add	x11, x11, #0x2
  4057b8:	528000ec 	mov	w12, #0x7                   	// #7
  4057bc:	52802059 	mov	w25, #0x102                 	// #258
  4057c0:	b3407c64 	bfxil	x4, x3, #0, #32
  4057c4:	f9001fe4 	str	x4, [sp, #56]
  4057c8:	f94017e3 	ldr	x3, [sp, #40]
  4057cc:	f900006b 	str	x11, [x3]
  4057d0:	17fffe34 	b	4050a0 <__gettextparse+0xb0>
  4057d4:	39400563 	ldrb	w3, [x11, #1]
  4057d8:	7100f47f 	cmp	w3, #0x3d
  4057dc:	54000620 	b.eq	4058a0 <__gettextparse+0x8b0>  // b.none
  4057e0:	f9401fe3 	ldr	x3, [sp, #56]
  4057e4:	d280010c 	mov	x12, #0x8                   	// #8
  4057e8:	52802079 	mov	w25, #0x103                 	// #259
  4057ec:	b3407d83 	bfxil	x3, x12, #0, #32
  4057f0:	f9001fe3 	str	x3, [sp, #56]
  4057f4:	f94017e3 	ldr	x3, [sp, #40]
  4057f8:	f9000065 	str	x5, [x3]
  4057fc:	17fffe29 	b	4050a0 <__gettextparse+0xb0>
  405800:	d2800400 	mov	x0, #0x20                  	// #32
  405804:	f9000fe1 	str	x1, [sp, #24]
  405808:	f9001be2 	str	x2, [sp, #48]
  40580c:	94004f55 	bl	419560 <__libc_malloc>
  405810:	f9400fe1 	ldr	x1, [sp, #24]
  405814:	f9401be2 	ldr	x2, [sp, #48]
  405818:	b4ffcbc0 	cbz	x0, 405190 <__gettextparse+0x1a0>
  40581c:	f9400043 	ldr	x3, [x2]
  405820:	f9000403 	str	x3, [x0, #8]
  405824:	d2c00023 	mov	x3, #0x100000000           	// #4294967296
  405828:	f9000003 	str	x3, [x0]
  40582c:	17fffe59 	b	405190 <__gettextparse+0x1a0>
  405830:	d2800400 	mov	x0, #0x20                  	// #32
  405834:	f9000fe1 	str	x1, [sp, #24]
  405838:	f9001be2 	str	x2, [sp, #48]
  40583c:	94004f49 	bl	419560 <__libc_malloc>
  405840:	f9400fe1 	ldr	x1, [sp, #24]
  405844:	f9401be2 	ldr	x2, [sp, #48]
  405848:	b4ffca40 	cbz	x0, 405190 <__gettextparse+0x1a0>
  40584c:	f900001f 	str	xzr, [x0]
  405850:	17fffe50 	b	405190 <__gettextparse+0x1a0>
  405854:	aa1a03e0 	mov	x0, x26
  405858:	f9000fe9 	str	x9, [sp, #24]
  40585c:	f9001be3 	str	x3, [sp, #48]
  405860:	a9040be1 	stp	x1, x2, [sp, #64]
  405864:	97fffdc7 	bl	404f80 <__gettext_free_exp>
  405868:	f9401be3 	ldr	x3, [sp, #48]
  40586c:	aa0303e0 	mov	x0, x3
  405870:	97fffdc4 	bl	404f80 <__gettext_free_exp>
  405874:	f9400fe9 	ldr	x9, [sp, #24]
  405878:	aa0903e0 	mov	x0, x9
  40587c:	97fffdc1 	bl	404f80 <__gettext_free_exp>
  405880:	d2800000 	mov	x0, #0x0                   	// #0
  405884:	a9440be1 	ldp	x1, x2, [sp, #64]
  405888:	17fffe42 	b	405190 <__gettextparse+0x1a0>
  40588c:	aa1803fc 	mov	x28, x24
  405890:	52800033 	mov	w19, #0x1                   	// #1
  405894:	17fffebf 	b	405390 <__gettextparse+0x3a0>
  405898:	52800053 	mov	w19, #0x2                   	// #2
  40589c:	17fffebb 	b	405388 <__gettextparse+0x398>
  4058a0:	d2800143 	mov	x3, #0xa                   	// #10
  4058a4:	f9401fe4 	ldr	x4, [sp, #56]
  4058a8:	9100096b 	add	x11, x11, #0x2
  4058ac:	5280010c 	mov	w12, #0x8                   	// #8
  4058b0:	52802079 	mov	w25, #0x103                 	// #259
  4058b4:	b3407c64 	bfxil	x4, x3, #0, #32
  4058b8:	f9001fe4 	str	x4, [sp, #56]
  4058bc:	f94017e3 	ldr	x3, [sp, #40]
  4058c0:	f900006b 	str	x11, [x3]
  4058c4:	17fffdf7 	b	4050a0 <__gettextparse+0xb0>
  4058c8:	d2800163 	mov	x3, #0xb                   	// #11
  4058cc:	17fffff6 	b	4058a4 <__gettextparse+0x8b4>
  4058d0:	d28001a3 	mov	x3, #0xd                   	// #13
  4058d4:	17ffffb7 	b	4057b0 <__gettextparse+0x7c0>
  4058d8:	9400751a 	bl	422d40 <__stack_chk_fail>
  4058dc:	d503201f 	nop

00000000004058e0 <__gettext_extract_plural>:
  4058e0:	d10183ff 	sub	sp, sp, #0x60
  4058e4:	a9027bfd 	stp	x29, x30, [sp, #32]
  4058e8:	910083fd 	add	x29, sp, #0x20
  4058ec:	f9002bf7 	str	x23, [sp, #80]
  4058f0:	b0000477 	adrp	x23, 492000 <tunable_list+0x528>
  4058f4:	a90353f3 	stp	x19, x20, [sp, #48]
  4058f8:	aa0203f4 	mov	x20, x2
  4058fc:	f945fae3 	ldr	x3, [x23, #3056]
  405900:	a9045bf5 	stp	x21, x22, [sp, #64]
  405904:	aa0103f5 	mov	x21, x1
  405908:	f9400061 	ldr	x1, [x3]
  40590c:	f9000fe1 	str	x1, [sp, #24]
  405910:	d2800001 	mov	x1, #0x0                   	// #0
  405914:	b40005c0 	cbz	x0, 4059cc <__gettext_extract_plural+0xec>
  405918:	aa0003f3 	mov	x19, x0
  40591c:	900002a1 	adrp	x1, 459000 <free_slotinfo+0x30>
  405920:	91248021 	add	x1, x1, #0x920
  405924:	9400598f 	bl	41bf60 <strstr>
  405928:	900002a1 	adrp	x1, 459000 <free_slotinfo+0x30>
  40592c:	aa0003f6 	mov	x22, x0
  405930:	9124a021 	add	x1, x1, #0x928
  405934:	aa1303e0 	mov	x0, x19
  405938:	9400598a 	bl	41bf60 <strstr>
  40593c:	f10002df 	cmp	x22, #0x0
  405940:	fa401804 	ccmp	x0, #0x0, #0x4, ne  // ne = any
  405944:	54000440 	b.eq	4059cc <__gettext_extract_plural+0xec>  // b.none
  405948:	39402403 	ldrb	w3, [x0, #9]
  40594c:	91002413 	add	x19, x0, #0x9
  405950:	340003e3 	cbz	w3, 4059cc <__gettext_extract_plural+0xec>
  405954:	b0000460 	adrp	x0, 492000 <tunable_list+0x528>
  405958:	f9476000 	ldr	x0, [x0, #3776]
  40595c:	d53bd041 	mrs	x1, tpidr_el0
  405960:	f8606821 	ldr	x1, [x1, x0]
  405964:	14000003 	b	405970 <__gettext_extract_plural+0x90>
  405968:	38401e63 	ldrb	w3, [x19, #1]!
  40596c:	34000303 	cbz	w3, 4059cc <__gettext_extract_plural+0xec>
  405970:	d37f1c60 	ubfiz	x0, x3, #1, #8
  405974:	78606824 	ldrh	w4, [x1, x0]
  405978:	376fff84 	tbnz	w4, #13, 405968 <__gettext_extract_plural+0x88>
  40597c:	5100c063 	sub	w3, w3, #0x30
  405980:	12001c63 	and	w3, w3, #0xff
  405984:	7100247f 	cmp	w3, #0x9
  405988:	54000228 	b.hi	4059cc <__gettext_extract_plural+0xec>  // b.pmore
  40598c:	910003e1 	mov	x1, sp
  405990:	aa1303e0 	mov	x0, x19
  405994:	52800142 	mov	w2, #0xa                   	// #10
  405998:	9400039b 	bl	406804 <__strtoul>
  40599c:	f94003e1 	ldr	x1, [sp]
  4059a0:	eb13003f 	cmp	x1, x19
  4059a4:	54000140 	b.eq	4059cc <__gettext_extract_plural+0xec>  // b.none
  4059a8:	f9000280 	str	x0, [x20]
  4059ac:	91001ed6 	add	x22, x22, #0x7
  4059b0:	910023e0 	add	x0, sp, #0x8
  4059b4:	f90007f6 	str	x22, [sp, #8]
  4059b8:	97fffd8e 	bl	404ff0 <__gettextparse>
  4059bc:	35000080 	cbnz	w0, 4059cc <__gettext_extract_plural+0xec>
  4059c0:	f9400be0 	ldr	x0, [sp, #16]
  4059c4:	f90002a0 	str	x0, [x21]
  4059c8:	14000006 	b	4059e0 <__gettext_extract_plural+0x100>
  4059cc:	d0000440 	adrp	x0, 48f000 <__FRAME_END__+0x10130>
  4059d0:	91242000 	add	x0, x0, #0x908
  4059d4:	f90002a0 	str	x0, [x21]
  4059d8:	d2800040 	mov	x0, #0x2                   	// #2
  4059dc:	f9000280 	str	x0, [x20]
  4059e0:	f945faf7 	ldr	x23, [x23, #3056]
  4059e4:	f9400fe0 	ldr	x0, [sp, #24]
  4059e8:	f94002e1 	ldr	x1, [x23]
  4059ec:	eb010000 	subs	x0, x0, x1
  4059f0:	d2800001 	mov	x1, #0x0                   	// #0
  4059f4:	540000e1 	b.ne	405a10 <__gettext_extract_plural+0x130>  // b.any
  4059f8:	a9427bfd 	ldp	x29, x30, [sp, #32]
  4059fc:	a94353f3 	ldp	x19, x20, [sp, #48]
  405a00:	a9445bf5 	ldp	x21, x22, [sp, #64]
  405a04:	f9402bf7 	ldr	x23, [sp, #80]
  405a08:	910183ff 	add	sp, sp, #0x60
  405a0c:	d65f03c0 	ret
  405a10:	940074cc 	bl	422d40 <__stack_chk_fail>
  405a14:	d503201f 	nop
  405a18:	d503201f 	nop
  405a1c:	d503201f 	nop

0000000000405a20 <__hash_string>:
  405a20:	aa0003e2 	mov	x2, x0
  405a24:	38401441 	ldrb	w1, [x2], #1
  405a28:	92401c20 	and	x0, x1, #0xff
  405a2c:	350000e1 	cbnz	w1, 405a48 <__hash_string+0x28>
  405a30:	1400000b 	b	405a5c <__hash_string+0x3c>
  405a34:	8b001060 	add	x0, x3, x0, lsl #4
  405a38:	f2640c01 	ands	x1, x0, #0xf0000000
  405a3c:	9260ec03 	and	x3, x0, #0xffffffff0fffffff
  405a40:	ca416061 	eor	x1, x3, x1, lsr #24
  405a44:	9a810000 	csel	x0, x0, x1, eq  // eq = none
  405a48:	39400041 	ldrb	w1, [x2]
  405a4c:	91000442 	add	x2, x2, #0x1
  405a50:	92401c23 	and	x3, x1, #0xff
  405a54:	35ffff01 	cbnz	w1, 405a34 <__hash_string+0x14>
  405a58:	d65f03c0 	ret
  405a5c:	d2800000 	mov	x0, #0x0                   	// #0
  405a60:	d65f03c0 	ret
  405a64:	d503201f 	nop
  405a68:	d503201f 	nop
  405a6c:	d503201f 	nop
  405a70:	d503201f 	nop
  405a74:	d503201f 	nop
  405a78:	d503201f 	nop
  405a7c:	d503201f 	nop

0000000000405a80 <setjmp>:
  405a80:	d503201f 	nop
  405a84:	d2800021 	mov	x1, #0x1                   	// #1
  405a88:	1400001f 	b	405b04 <__sigsetjmp+0x4>
  405a8c:	d503201f 	nop
  405a90:	d503201f 	nop
  405a94:	d503201f 	nop
  405a98:	d503201f 	nop
  405a9c:	d503201f 	nop
  405aa0:	d503201f 	nop
  405aa4:	d503201f 	nop
  405aa8:	d503201f 	nop
  405aac:	d503201f 	nop
  405ab0:	d503201f 	nop
  405ab4:	d503201f 	nop
  405ab8:	d503201f 	nop
  405abc:	d503201f 	nop

0000000000405ac0 <_setjmp>:
  405ac0:	d503201f 	nop
  405ac4:	d2800001 	mov	x1, #0x0                   	// #0
  405ac8:	1400000f 	b	405b04 <__sigsetjmp+0x4>
  405acc:	d503201f 	nop
  405ad0:	d503201f 	nop
  405ad4:	d503201f 	nop
  405ad8:	d503201f 	nop
  405adc:	d503201f 	nop
  405ae0:	d503201f 	nop
  405ae4:	d503201f 	nop
  405ae8:	d503201f 	nop
  405aec:	d503201f 	nop
  405af0:	d503201f 	nop
  405af4:	d503201f 	nop
  405af8:	d503201f 	nop
  405afc:	d503201f 	nop

0000000000405b00 <__sigsetjmp>:
  405b00:	d503201f 	nop
  405b04:	a9005013 	stp	x19, x20, [x0]
  405b08:	a9015815 	stp	x21, x22, [x0, #16]
  405b0c:	a9026017 	stp	x23, x24, [x0, #32]
  405b10:	a9036819 	stp	x25, x26, [x0, #48]
  405b14:	a904701b 	stp	x27, x28, [x0, #64]
  405b18:	90000462 	adrp	x2, 491000 <_nl_C_LC_MONETARY+0x138>
  405b1c:	f944f843 	ldr	x3, [x2, #2544]
  405b20:	ca0303c4 	eor	x4, x30, x3
  405b24:	a905101d 	stp	x29, x4, [x0, #80]
  405b28:	d503201f 	nop
  405b2c:	6d072408 	stp	d8, d9, [x0, #112]
  405b30:	6d082c0a 	stp	d10, d11, [x0, #128]
  405b34:	6d09340c 	stp	d12, d13, [x0, #144]
  405b38:	6d0a3c0e 	stp	d14, d15, [x0, #160]
  405b3c:	910003e4 	mov	x4, sp
  405b40:	90000462 	adrp	x2, 491000 <_nl_C_LC_MONETARY+0x138>
  405b44:	f944f843 	ldr	x3, [x2, #2544]
  405b48:	ca030085 	eor	x5, x4, x3
  405b4c:	f9003405 	str	x5, [x0, #104]
  405b50:	14000004 	b	405b60 <__sigjmp_save>
  405b54:	d503201f 	nop
  405b58:	d503201f 	nop
  405b5c:	d503201f 	nop

0000000000405b60 <__sigjmp_save>:
  405b60:	a9be7bfd 	stp	x29, x30, [sp, #-32]!
  405b64:	910003fd 	mov	x29, sp
  405b68:	f9000bf3 	str	x19, [sp, #16]
  405b6c:	aa0003f3 	mov	x19, x0
  405b70:	350000c1 	cbnz	w1, 405b88 <__sigjmp_save+0x28>
  405b74:	b900b261 	str	w1, [x19, #176]
  405b78:	52800000 	mov	w0, #0x0                   	// #0
  405b7c:	f9400bf3 	ldr	x19, [sp, #16]
  405b80:	a8c27bfd 	ldp	x29, x30, [sp], #32
  405b84:	d65f03c0 	ret
  405b88:	9102e002 	add	x2, x0, #0xb8
  405b8c:	d2800001 	mov	x1, #0x0                   	// #0
  405b90:	52800000 	mov	w0, #0x0                   	// #0
  405b94:	9400001f 	bl	405c10 <__sigprocmask>
  405b98:	7100001f 	cmp	w0, #0x0
  405b9c:	52800000 	mov	w0, #0x0                   	// #0
  405ba0:	1a9f17e1 	cset	w1, eq  // eq = none
  405ba4:	b900b261 	str	w1, [x19, #176]
  405ba8:	f9400bf3 	ldr	x19, [sp, #16]
  405bac:	a8c27bfd 	ldp	x29, x30, [sp], #32
  405bb0:	d65f03c0 	ret
  405bb4:	d503201f 	nop
  405bb8:	d503201f 	nop
  405bbc:	d503201f 	nop

0000000000405bc0 <raise>:
  405bc0:	a9be7bfd 	stp	x29, x30, [sp, #-32]!
  405bc4:	910003fd 	mov	x29, sp
  405bc8:	f9000bf3 	str	x19, [sp, #16]
  405bcc:	2a0003f3 	mov	w19, w0
  405bd0:	94003d60 	bl	415150 <__pthread_self>
  405bd4:	2a1303e1 	mov	w1, w19
  405bd8:	94003aea 	bl	414780 <__pthread_kill>
  405bdc:	35000080 	cbnz	w0, 405bec <raise+0x2c>
  405be0:	f9400bf3 	ldr	x19, [sp, #16]
  405be4:	a8c27bfd 	ldp	x29, x30, [sp], #32
  405be8:	d65f03c0 	ret
