
b6a189a0-7697-4aa8-9d62-80f64ec4e74d.elf:     file format elf64-littleaarch64
b6a189a0-7697-4aa8-9d62-80f64ec4e74d.elf
architecture: aarch64, flags 0x00000150:
HAS_SYMS, DYNAMIC, D_PAGED
start address 0x0000000000000268

Program Header:
    LOAD off    0x0000000000001000 vaddr 0x0000000000000000 paddr 0x0000000000000000 align 2**12
         filesz 0x000000000000d610 memsz 0x000000000000d610 flags r-x
    LOAD off    0x000000000000f000 vaddr 0x000000000000e000 paddr 0x000000000000e000 align 2**12
         filesz 0x000000000000042c memsz 0x000000000000b4c0 flags rw-
 DYNAMIC off    0x000000000000f000 vaddr 0x000000000000e000 paddr 0x000000000000e000 align 2**3
         filesz 0x0000000000000110 memsz 0x0000000000000110 flags rw-
   STACK off    0x0000000000000000 vaddr 0x0000000000000000 paddr 0x0000000000000000 align 2**4
         filesz 0x0000000000000000 memsz 0x0000000000000000 flags rw-

Dynamic Section:
  HASH                 0x000000000000d3b8
  GNU_HASH             0x000000000000d2c8
  STRTAB               0x000000000000d388
  SYMTAB               0x000000000000d2f8
  STRSZ                0x000000000000002e
  SYMENT               0x0000000000000018
  DEBUG                0x0000000000000000
  RELA                 0x000000000000d3e8
  RELASZ               0x0000000000000378
  RELAENT              0x0000000000000018
  FLAGS_1              0x0000000008000000
  RELACOUNT            0x0000000000000017
private flags = 0x0:

Sections:
Idx Name          Size      VMA               LMA               File off  Algn
  0 .ta_head      00000020  0000000000000000  0000000000000000  00001000  2**3
                  CONTENTS, ALLOC, LOAD, READONLY, DATA
  1 .text         0000a330  0000000000000020  0000000000000020  00001020  2**4
                  CONTENTS, ALLOC, LOAD, READONLY, CODE
  2 .eh_frame     00001ef4  000000000000a350  000000000000a350  0000b350  2**3
                  CONTENTS, ALLOC, LOAD, READONLY, DATA
  3 .rodata       00001079  000000000000c248  000000000000c248  0000d248  2**3
                  CONTENTS, ALLOC, LOAD, READONLY, DATA
  4 .gnu.hash     00000030  000000000000d2c8  000000000000d2c8  0000e2c8  2**3
                  CONTENTS, ALLOC, LOAD, READONLY, DATA
  5 .dynsym       00000090  000000000000d2f8  000000000000d2f8  0000e2f8  2**3
                  CONTENTS, ALLOC, LOAD, READONLY, DATA
  6 .dynstr       0000002e  000000000000d388  000000000000d388  0000e388  2**0
                  CONTENTS, ALLOC, LOAD, READONLY, DATA
  7 .hash         0000002c  000000000000d3b8  000000000000d3b8  0000e3b8  2**3
                  CONTENTS, ALLOC, LOAD, READONLY, DATA
  8 .rela.dyn     00000228  000000000000d3e8  000000000000d3e8  0000e3e8  2**3
                  CONTENTS, ALLOC, LOAD, READONLY, DATA
  9 .dynamic      00000110  000000000000e000  000000000000e000  0000f000  2**3
                  CONTENTS, ALLOC, LOAD, DATA
 10 .got          00000090  000000000000e110  000000000000e110  0000f110  2**3
                  CONTENTS, ALLOC, LOAD, DATA
 11 .rela.got     00000150  000000000000e1a0  000000000000e1a0  0000f1a0  2**3
                  CONTENTS, ALLOC, LOAD, READONLY, DATA
 12 .data         0000013c  000000000000e2f0  000000000000e2f0  0000f2f0  2**3
                  CONTENTS, ALLOC, LOAD, DATA
 13 .bss          0000b090  000000000000e430  000000000000e430  0000f42c  2**3
                  ALLOC
 14 .debug_info   00013de1  0000000000000000  0000000000000000  0000f42c  2**0
                  CONTENTS, READONLY, DEBUGGING, OCTETS
 15 .debug_abbrev 0000359c  0000000000000000  0000000000000000  0002320d  2**0
                  CONTENTS, READONLY, DEBUGGING, OCTETS
 16 .debug_loclists 0000c34f  0000000000000000  0000000000000000  000267a9  2**0
                  CONTENTS, READONLY, DEBUGGING, OCTETS
 17 .debug_aranges 00000860  0000000000000000  0000000000000000  00032b00  2**4
                  CONTENTS, READONLY, DEBUGGING, OCTETS
 18 .debug_rnglists 0000073b  0000000000000000  0000000000000000  00033360  2**0
                  CONTENTS, READONLY, DEBUGGING, OCTETS
 19 .debug_macro  0001456c  0000000000000000  0000000000000000  00033a9b  2**0
                  CONTENTS, READONLY, DEBUGGING, OCTETS
 20 .debug_line   00009efd  0000000000000000  0000000000000000  00048007  2**0
                  CONTENTS, READONLY, DEBUGGING, OCTETS
 21 .debug_str    00017162  0000000000000000  0000000000000000  00051f04  2**0
                  CONTENTS, READONLY, DEBUGGING, OCTETS
 22 .debug_line_str 000008d9  0000000000000000  0000000000000000  00069066  2**0
                  CONTENTS, READONLY, DEBUGGING, OCTETS
 23 .comment      0000002d  0000000000000000  0000000000000000  0006993f  2**0
                  CONTENTS, READONLY
SYMBOL TABLE:
0000000000000000 l    d  .ta_head	0000000000000000 .ta_head
0000000000000020 l    d  .text	0000000000000000 .text
000000000000a350 l    d  .eh_frame	0000000000000000 .eh_frame
000000000000c248 l    d  .rodata	0000000000000000 .rodata
000000000000d2c8 l    d  .gnu.hash	0000000000000000 .gnu.hash
000000000000d2f8 l    d  .dynsym	0000000000000000 .dynsym
000000000000d388 l    d  .dynstr	0000000000000000 .dynstr
000000000000d3b8 l    d  .hash	0000000000000000 .hash
000000000000d3e8 l    d  .rela.dyn	0000000000000000 .rela.dyn
000000000000e000 l    d  .dynamic	0000000000000000 .dynamic
000000000000e110 l    d  .got	0000000000000000 .got
000000000000e1a0 l    d  .rela.got	0000000000000000 .rela.got
000000000000e2f0 l    d  .data	0000000000000000 .data
000000000000e430 l    d  .bss	0000000000000000 .bss
0000000000000000 l    d  .debug_info	0000000000000000 .debug_info
0000000000000000 l    d  .debug_abbrev	0000000000000000 .debug_abbrev
0000000000000000 l    d  .debug_loclists	0000000000000000 .debug_loclists
0000000000000000 l    d  .debug_aranges	0000000000000000 .debug_aranges
0000000000000000 l    d  .debug_rnglists	0000000000000000 .debug_rnglists
0000000000000000 l    d  .debug_macro	0000000000000000 .debug_macro
0000000000000000 l    d  .debug_line	0000000000000000 .debug_line
0000000000000000 l    d  .debug_str	0000000000000000 .debug_str
0000000000000000 l    d  .debug_line_str	0000000000000000 .debug_line_str
0000000000000000 l    d  .comment	0000000000000000 .comment
0000000000000000 l    df *ABS*	0000000000000000 user_ta_header.c
000000000000c250 l     O .rodata	0000000000000004 __compound_literal.5
000000000000c254 l     O .rodata	0000000000000004 __compound_literal.4
000000000000c258 l     O .rodata	0000000000000004 __compound_literal.3
000000000000c25c l     O .rodata	0000000000000001 __compound_literal.2
000000000000c25d l     O .rodata	0000000000000001 __compound_literal.1
000000000000c25e l     O .rodata	0000000000000001 __compound_literal.0
0000000000000000 l    df *ABS*	0000000000000000 memcpy.c
0000000000000000 l    df *ABS*	0000000000000000 store_stride_ta.c
000000000000010c l     F .text	000000000000000c secure_trigger_store
0000000000000118 l     F .text	0000000000000008 secure_trigger_load
0000000000000120 l     F .text	000000000000009c load_sequence
0000000000000000 l    df *ABS*	0000000000000000 utee_syscalls_a64.o
0000000000000000 l    df *ABS*	0000000000000000 user_ta_entry.c
0000000000000530 l     F .text	00000000000000b0 _get_fn_array
00000000000005e0 l     F .text	0000000000000098 _fini_iterate_phdr_cb
0000000000000678 l     F .text	0000000000000028 ta_header_get_session
00000000000006a0 l     F .text	0000000000000070 to_utee_params
0000000000000710 l     F .text	0000000000000060 from_utee_params
0000000000000770 l     F .text	0000000000000094 _init_iterate_phdr_cb
0000000000000968 l     F .text	0000000000000094 ta_header_remove_session
000000000000c71d l     O .rodata	0000000000000016 __func__.0
000000000000e430 l     O .bss	0000000000000008 _num_mod_init
000000000000e438 l     O .bss	0000000000000001 init_done
000000000000e3c8 l     O .data	0000000000000010 ta_sessions
000000000000e3d8 l     O .data	0000000000000010 __phdr_info_head
0000000000000000 l    df *ABS*	0000000000000000 abort.c
0000000000000000 l    df *ABS*	0000000000000000 trace_ext.c
0000000000000000 l    df *ABS*	0000000000000000 tee_api.c
0000000000000e50 l     F .text	00000000000000a8 update_out_param
000000000000106c l     F .text	000000000000020c copy_param
000000000000c74b l     O .rodata	000000000000000b __func__.0
000000000000e498 l     O .bss	0000000000000008 tee_api_instance_data
0000000000000000 l    df *ABS*	0000000000000000 tee_api_arith_mpi.c
0000000000001748 l     F .text	0000000000000030 api_panic
0000000000001778 l     F .text	0000000000000030 mpi_panic
00000000000017a8 l     F .text	0000000000000098 get_mpi
0000000000001840 l     F .text	0000000000000064 copy_mpi_to_bigint
00000000000018a4 l     F .text	0000000000000154 bigint_binary
00000000000019f8 l     F .text	0000000000000020 mpi_is_odd
0000000000001a18 l     F .text	0000000000000028 rng_read
0000000000001a40 l     F .text	000000000000057c mpi_egcd
000000000000e4a0 l     O .bss	0000000000003000 data.17
00000000000024b8 l     F .text	00000000000001d8 bigint_binary_mod
000000000000c80d l     O .rodata	0000000000000008 __func__.14
000000000000c815 l     O .rodata	000000000000000e __func__.10
000000000000c823 l     O .rodata	0000000000000009 __func__.2
000000000000c82c l     O .rodata	0000000000000012 __func__.16
000000000000c83e l     O .rodata	000000000000000f __func__.15
000000000000c84d l     O .rodata	000000000000001f __func__.13
000000000000c86c l     O .rodata	0000000000000019 __func__.12
000000000000c885 l     O .rodata	0000000000000012 __func__.6
000000000000c897 l     O .rodata	0000000000000015 __func__.11
000000000000c8ac l     O .rodata	000000000000000e __func__.9
000000000000c8ba l     O .rodata	000000000000000e __func__.8
000000000000c8c8 l     O .rodata	000000000000000e __func__.7
000000000000c8d6 l     O .rodata	0000000000000011 __func__.5
000000000000c8e7 l     O .rodata	0000000000000018 __func__.4
000000000000c8ff l     O .rodata	000000000000001d __func__.3
000000000000c91c l     O .rodata	0000000000000019 __func__.1
000000000000c935 l     O .rodata	0000000000000015 __func__.0
0000000000000000 l    df *ABS*	0000000000000000 tee_api_panic.c
0000000000003580 l     F .text	000000000000001c check_access
00000000000035a4 l     F .text	0000000000000010 check_res.constprop.0
0000000000000000 l    df *ABS*	0000000000000000 tee_system_pta.c
00000000000036e0 l     F .text	0000000000000084 invoke_system_pta
000000000000c270 l     O .rodata	0000000000000010 uuid.2
000000000000c280 l     O .rodata	000000000000000a __func__.1
000000000000c28a l     O .rodata	0000000000000017 __func__.0
00000000000114a0 l     O .bss	0000000000000008 sess.3
0000000000000000 l    df *ABS*	0000000000000000 tcb.c
000000000000ca35 l     O .rodata	0000000000000010 __func__.1
000000000000ca45 l     O .rodata	0000000000000010 __func__.0
00000000000114a8 l     O .bss	0000000000000008 _tls_size
00000000000114b0 l     O .bss	0000000000000008 _tcb
0000000000000000 l    df *ABS*	0000000000000000 assert.c
0000000000000000 l    df *ABS*	0000000000000000 bignum.c
0000000000003d5c l     F .text	000000000000003c mpi_safe_cond_assign
0000000000003d98 l     F .text	0000000000000064 mpi_get_digit
0000000000003dfc l     F .text	000000000000040c mpi_mul_hlp
0000000000004208 l     F .text	0000000000000148 mpi_montmul
0000000000004350 l     F .text	0000000000000080 mpi_montred
00000000000043d0 l     F .text	0000000000000038 mpi_montg_init.isra.0
0000000000004408 l     F .text	00000000000000b4 mpi_bigendian_to_host.part.0
00000000000044bc l     F .text	00000000000000c0 mpi_fill_random_internal
0000000000004708 l     F .text	000000000000006c mbedtls_mpi_resize_clear
00000000000066ec l     F .text	00000000000000cc mpi_check_small_factors
00000000000070ec l     F .text	00000000000002ac mpi_miller_rabin
000000000000c2a4 l     O .rodata	00000000000002a0 small_prime
000000000000c544 l     O .rodata	0000000000000024 gcd_pairs
0000000000000000 l    df *ABS*	0000000000000000 platform_util.c
000000000000e3e8 l     O .data	0000000000000008 memset_func
0000000000000000 l    df *ABS*	0000000000000000 bget_malloc.c
0000000000008aa4 l     F .text	00000000000000cc gen_malloc_add_pool
000000000000d164 l     O .rodata	0000000000000005 __func__.7
000000000000d169 l     O .rodata	0000000000000006 __func__.6
000000000000d16f l     O .rodata	0000000000000005 __func__.4
000000000000d174 l     O .rodata	0000000000000006 __func__.5
000000000000d17a l     O .rodata	0000000000000006 __func__.3
000000000000d180 l     O .rodata	0000000000000014 __func__.2
000000000000d194 l     O .rodata	000000000000000e __func__.1
000000000000d1a2 l     O .rodata	0000000000000013 __func__.0
000000000000e3f0 l     O .data	0000000000000030 malloc_ctx
0000000000000000 l    df *ABS*	0000000000000000 snprintf.c
0000000000000000 l    df *ABS*	0000000000000000 stack_check.c
0000000000000000 l    df *ABS*	0000000000000000 memmove.c
0000000000000000 l    df *ABS*	0000000000000000 memset.c
0000000000000000 l    df *ABS*	0000000000000000 strlen.c
0000000000000000 l    df *ABS*	0000000000000000 snprintk.c
00000000000091d4 l     F .text	0000000000000bc4 kprintf.constprop.0
000000000000c5f2 l     O .rodata	0000000000000011 hexdigits
000000000000c603 l     O .rodata	0000000000000011 HEXDIGITS
0000000000000000 l    df *ABS*	0000000000000000 trace.c
000000000000d207 l     O .rodata	0000000000000005 lvl_strs.0
0000000000000000 l    df *ABS*	0000000000000000 mempool.c
000000000000d295 l     O .rodata	0000000000000013 __func__.2
000000000000d2a8 l     O .rodata	000000000000000b __func__.1
000000000000d2b3 l     O .rodata	000000000000000e __func__.0
0000000000000000 l    df *ABS*	0000000000000000 consttime_memcmp.c
0000000000000000 l    df *ABS*	0000000000000000 memchr.c
0000000000000000 l    df *ABS*	0000000000000000 
000000000000e000 l     O *ABS*	0000000000000000 _DYNAMIC
000000000000e128 l     O *ABS*	0000000000000000 _GLOBAL_OFFSET_TABLE_
0000000000000dd8 g     F .text	0000000000000078 putchar
000000000000334c g     F .text	0000000000000004 TEE_BigIntConvertToFMM
0000000000002db8 g     F .text	000000000000000c TEE_BigIntSquareMod
0000000000002690 g     F .text	00000000000001a8 TEE_BigIntShiftRight
0000000000008c14 g     F .text	0000000000000004 raw_malloc_add_pool
00000000000038c4 g     F .text	00000000000000f4 tee_invoke_supp_plugin
0000000000004620 g     F .text	00000000000000e8 mbedtls_mpi_grow
0000000000001700 g     F .text	0000000000000030 TEE_Realloc
00000000000036c0 g     F .text	0000000000000020 __utee_check_inout_annotation
0000000000008a04 g     F .text	0000000000000010 raw_free
0000000000000c98 g     F .text	0000000000000100 printf
000000000000029c g     F .text	000000000000000c _utee_log
00000000000013ac g     F .text	0000000000000164 TEE_InvokeTACommand
00000000000035b4 g     F .text	000000000000004c __utee_check_outbuf_annotation
000000000000458c g     F .text	0000000000000028 mbedtls_mpi_init_mempool
000000000000041c g     F .text	000000000000000c _utee_cryp_random_number_generate
0000000000004f30 g     F .text	00000000000000c4 mbedtls_mpi_write_binary
00000000000090a4 g     F .text	0000000000000058 vsnprintk
0000000000005884 g     F .text	0000000000000080 mbedtls_mpi_sub_int
0000000000008f44 g     F .text	000000000000005c memmove
0000000000008e0c g     F .text	00000000000000dc snprintf
0000000000002430 g     F .text	0000000000000088 TEE_BigIntCmpS32
000000000000e420 g     O .data	0000000000000008 __stack_chk_guard
0000000000004774 g     F .text	0000000000000118 mbedtls_mpi_shrink
0000000000002944 g     F .text	000000000000000c TEE_BigIntAdd
00000000000003bc g     F .text	000000000000000c _utee_cryp_obj_restrict_usage
000000000000c260 g     O .rodata	0000000000000008 ta_heap_size
0000000000000464 g     F .text	000000000000000c _utee_asymm_operate
0000000000005b60 g     F .text	0000000000000214 mbedtls_mpi_read_string
000000000000295c g     F .text	00000000000000ec TEE_BigIntNeg
00000000000004b8 g     F .text	000000000000000c _utee_storage_free_enum
0000000000000020 g       .text	0000000000000000 __text_start
0000000000005104 g     F .text	00000000000000c0 mbedtls_mpi_shift_r
0000000000008da8 g     F .text	0000000000000064 malloc_buffer_overlaps_heap
0000000000000368 g     F .text	000000000000000c _utee_hash_init
0000000000002da0 g     F .text	000000000000000c TEE_BigIntSubMod
0000000000007aac g     F .text	0000000000000354 mbedtls_mpi_gen_prime
0000000000004bf8 g     F .text	000000000000002c mbedtls_mpi_get_bit
0000000000004df4 g     F .text	0000000000000084 mbedtls_mpi_read_binary
000000000000a034 g     F .text	00000000000000ec trace_printf
00000000000067c0 g     F .text	0000000000000004 mbedtls_mpi_montmul
0000000000000524 g     F .text	000000000000000c _utee_cache_operation
0000000000000020 g     F .text	00000000000000ec memcpy
0000000000003350 g     F .text	00000000000000dc TEE_BigIntConvertFromFMM
000000000000359c g     F .text	0000000000000008 TEE_Panic
0000000000000d98 g     F .text	0000000000000040 puts
000000000000342c g     F .text	0000000000000154 TEE_BigIntComputeFMM
0000000000001660 g     F .text	0000000000000028 TEE_GetREETime
000000000000e2f0 g     O .data	00000000000000d8 ta_props
0000000000003600 g     F .text	0000000000000030 __utee_check_instring_annotation
0000000000008b70 g     F .text	0000000000000018 malloc
0000000000008ee8 g     F .text	0000000000000058 vsnprintf
000000000000e428 g     O .data	0000000000000004 trace_level
0000000000002390 g     F .text	00000000000000a0 TEE_BigIntCmp
000000000000c248 g     O .rodata	0000000000000008 ta_num_props
00000000000087f8 g     F .text	00000000000000d4 bgetr
000000000000047c g     F .text	000000000000000c _utee_storage_obj_open
000000000000a2a0 g     F .text	0000000000000014 mempool_free
0000000000000374 g     F .text	000000000000000c _utee_hash_update
0000000000002140 g     F .text	00000000000000d0 TEE_BigIntConvertToOctetString
0000000000004d04 g     F .text	000000000000005c mbedtls_mpi_bitlen
0000000000002838 g     F .text	000000000000008c TEE_BigIntGetBit
000000000000c268 g     O .rodata	0000000000000003 trace_ext_prefix
00000000000004dc g     F .text	000000000000000c _utee_storage_next_enum
00000000000089f4 g     F .text	0000000000000010 raw_malloc
00000000000084f0 g     F .text	000000000000008c bgetz
000000000000151c g     F .text	000000000000000c TEE_GetInstanceData
0000000000001568 g     F .text	000000000000003c TEE_Wait
0000000000005904 g     F .text	00000000000001b4 mbedtls_mpi_mul_mpi
0000000000001738 g     F .text	0000000000000008 TEE_CacheFlush
0000000000009e10 g     F .text	0000000000000224 trace_vprintf
00000000000001c4 g     F .text	0000000000000004 TA_DestroyEntryPoint
000000000000457c g     F .text	0000000000000010 mbedtls_mpi_init
0000000000000494 g     F .text	000000000000000c _utee_storage_obj_del
0000000000004cb0 g     F .text	0000000000000054 mbedtls_mpi_lsb
0000000000003d04 g     F .text	0000000000000044 _assert_log
0000000000000350 g     F .text	000000000000000c _utee_cryp_state_copy
0000000000003344 g     F .text	0000000000000008 TEE_BigIntFMMContextSizeInU32
0000000000003800 g     F .text	00000000000000c4 tee_unmap
0000000000001fbc g     F .text	0000000000000050 _TEE_MathAPI_Init
00000000000039b8 g     F .text	0000000000000240 __utee_tcb_init
00000000000056f0 g     F .text	0000000000000088 mbedtls_mpi_add_mpi
0000000000000c48 g     F .text	0000000000000020 abort
0000000000007398 g     F .text	00000000000001c0 mbedtls_mpi_random
0000000000008f40 g     F .text	0000000000000004 __stack_chk_fail
000000000000367c g     F .text	0000000000000020 __utee_check_out_annotation
00000000000114c0 g     O .bss	0000000000008000 ta_heap
0000000000002dc4 g     F .text	0000000000000158 TEE_BigIntInvMod
0000000000000804 g     F .text	0000000000000154 __utee_call_elf_init_fn
00000000000001d0 g     F .text	0000000000000004 TA_CloseSessionEntryPoint
00000000000002d8 g     F .text	000000000000000c _utee_close_ta_session
0000000000005778 g     F .text	000000000000008c mbedtls_mpi_sub_mpi
000000000000a2b4 g     F .text	0000000000000070 consttime_memcmp
0000000000000290 g     F .text	000000000000000c _utee_return
00000000000002a8 g     F .text	000000000000000c __utee_panic
0000000000003bf8 g     F .text	000000000000001c __tls_get_addr
00000000000001d4 g     F .text	0000000000000094 TA_InvokeCommandEntryPoint
0000000000000958 g     F .text	0000000000000010 __utee_call_elf_fini_fn
0000000000008be8 g     F .text	0000000000000010 free_wipe
000000000000a1ec g     F .text	0000000000000064 mempool_alloc
0000000000000284 g     F .text	000000000000000c _utee_panic
0000000000008c00 g     F .text	0000000000000014 raw_malloc_init_ctx
000000000000a250 g     F .text	0000000000000050 mempool_calloc
0000000000000518 g     F .text	000000000000000c _utee_cryp_obj_generate_key
0000000000000500 g     F .text	000000000000000c _utee_storage_obj_trunc
0000000000000308 g     F .text	000000000000000c _utee_unmask_cancellation
0000000000008b88 g     F .text	000000000000001c calloc
0000000000001688 g     F .text	0000000000000068 TEE_Malloc
0000000000001058 g     F .text	0000000000000014 TEE_CheckMemoryAccessRights
00000000000002b4 g     F .text	000000000000000c _utee_get_property
0000000000004b90 g     F .text	0000000000000068 mbedtls_mpi_lset
00000000000001c8 g     F .text	0000000000000008 TA_OpenSessionEntryPoint
0000000000003c14 g     F .text	00000000000000f0 dl_iterate_phdr
00000000000194c0 g       .bss	0000000000000000 __ftrace_buf_end
000000000000e490 g     O .bss	0000000000000004 ta_param_types
000000000000629c g     F .text	0000000000000080 mbedtls_mpi_div_int
00000000000079b8 g     F .text	00000000000000e4 mbedtls_mpi_is_prime_ext
000000000000329c g     F .text	0000000000000090 TEE_BigIntIsProbablePrime
0000000000005ab8 g     F .text	00000000000000a8 mbedtls_mpi_mul_int
00000000000067c8 g     F .text	00000000000006dc mbedtls_mpi_exp_mod
00000000000049ec g     F .text	00000000000000a4 mbedtls_mpi_safe_cond_assign
0000000000005330 g     F .text	00000000000000c4 mbedtls_mpi_lt_mpi_ct
000000000000200c g     F .text	0000000000000064 TEE_BigIntInit
0000000000003630 g     F .text	000000000000004c __utee_check_outstring_annotation
0000000000001528 g     F .text	0000000000000008 TEE_MemMove
0000000000008228 g     F .text	0000000000000020 mbedtls_platform_zeroize
0000000000002070 g     F .text	00000000000000d0 TEE_BigIntConvertFromOctetString
0000000000000458 g     F .text	000000000000000c _utee_authenc_dec_final
00000000000051c4 g     F .text	000000000000009c mbedtls_mpi_cmp_abs
00000000000004e8 g     F .text	000000000000000c _utee_storage_obj_read
000000000000a324 g     F .text	000000000000002c memchr
0000000000000f88 g     F .text	0000000000000068 TEE_UnmaskCancellation
0000000000007e00 g     F .text	0000000000000428 mbedtls_mpi_self_test
000000000000050c g     F .text	000000000000000c _utee_storage_obj_seek
00000000000002fc g     F .text	000000000000000c _utee_check_access_rights
00000000000053f4 g     F .text	0000000000000080 mbedtls_mpi_cmp_int
00000000000004c4 g     F .text	000000000000000c _utee_storage_reset_enum
000000000000369c g     F .text	0000000000000024 __utee_check_attr_in_annotation
0000000000000440 g     F .text	000000000000000c _utee_authenc_update_payload
0000000000002d28 g     F .text	000000000000006c TEE_BigIntMod
00000000000063d0 g     F .text	00000000000000a0 mbedtls_mpi_mod_int
0000000000004d7c g     F .text	0000000000000078 mbedtls_mpi_read_binary_le
0000000000002b6c g     F .text	00000000000001bc TEE_BigIntDiv
00000000000003d4 g     F .text	000000000000000c _utee_cryp_obj_alloc
00000000000194c0 g       .bss	0000000000000000 __ftrace_buf_start
000000000000488c g     F .text	00000000000000cc mbedtls_mpi_copy
0000000000009d98 g     F .text	000000000000004c __vsprintf
0000000000000338 g     F .text	000000000000000c _utee_set_ta_time
00000000000002e4 g     F .text	000000000000000c _utee_invoke_ta_command
0000000000008ba4 g     F .text	0000000000000018 realloc
0000000000004958 g     F .text	0000000000000094 mbedtls_mpi_swap
000000000000a124 g     F .text	00000000000000c8 mempool_alloc_pool
0000000000002a48 g     F .text	000000000000011c TEE_BigIntMul
0000000000008bf8 g     F .text	0000000000000008 raw_malloc_get_ctx_size
0000000000004ff4 g     F .text	0000000000000110 mbedtls_mpi_shift_l
0000000000005260 g     F .text	00000000000000d0 mbedtls_mpi_cmp_mpi
0000000000001538 g     F .text	0000000000000008 TEE_MemFill
0000000000008c18 g     F .text	0000000000000014 malloc_add_pool
0000000000009e00 g     F .text	0000000000000010 trace_get_level
0000000000005474 g     F .text	0000000000000120 mbedtls_mpi_add_abs
0000000000003334 g     F .text	0000000000000010 TEE_BigIntFMMSizeInU32
0000000000008a64 g     F .text	0000000000000040 raw_realloc
000000000000332c g     F .text	0000000000000004 TEE_BigIntInitFMM
000000000000038c g     F .text	000000000000000c _utee_cipher_init
00000000000009fc g     F .text	000000000000024c __utee_entry
000000000000a350 g       .text	0000000000000000 __text_end
0000000000002f1c g     F .text	0000000000000110 TEE_BigIntRelativePrime
000000000000631c g     F .text	00000000000000b4 mbedtls_mpi_mod_mpi
00000000000003b0 g     F .text	000000000000000c _utee_cryp_obj_get_info
00000000000088cc g     F .text	00000000000000d4 bpool
0000000000000344 g     F .text	000000000000000c _utee_cryp_state_alloc
0000000000000f20 g     F .text	0000000000000068 TEE_GetCancellationFlag
0000000000006ea4 g     F .text	00000000000001e0 mbedtls_mpi_gcd
000000000000161c g     F .text	0000000000000044 TEE_SetTAPersistentTime
0000000000004e78 g     F .text	00000000000000b8 mbedtls_mpi_write_binary_le
0000000000008fa0 g     F .text	000000000000001c memset
00000000000089a0 g     F .text	0000000000000054 raw_memalign
00000000000015a4 g     F .text	0000000000000078 TEE_GetTAPersistentTime
000000000000a120 g     F .text	0000000000000004 dhex_dump
0000000000000ff0 g     F .text	0000000000000068 TEE_MaskCancellation
00000000000003c8 g     F .text	000000000000000c _utee_cryp_obj_get_attr
0000000000009de4 g     F .text	000000000000001c trace_set_level
00000000000003a4 g     F .text	000000000000000c _utee_cipher_final
000000000000035c g     F .text	000000000000000c _utee_cryp_state_free
00000000000002cc g     F .text	000000000000000c _utee_open_ta_session
00000000000022cc g     F .text	00000000000000c4 TEE_BigIntConvertToS32
0000000000002950 g     F .text	000000000000000c TEE_BigIntSub
000000000000027c g     F .text	0000000000000008 tahead_get_trace_level
00000000000004d0 g     F .text	000000000000000c _utee_storage_start_enum
0000000000003764 g     F .text	000000000000009c tee_map_zi
00000000000067c4 g     F .text	0000000000000004 mbedtls_mpi_montred
0000000000008bbc g     F .text	000000000000001c memalign
0000000000002210 g     F .text	00000000000000bc TEE_BigIntConvertFromS32
0000000000005804 g     F .text	0000000000000080 mbedtls_mpi_add_int
000000000000044c g     F .text	000000000000000c _utee_authenc_enc_final
0000000000008c2c g     F .text	000000000000017c malloc_buffer_is_within_alloced
00000000000003e0 g     F .text	000000000000000c _utee_cryp_obj_close
0000000000003330 g     F .text	0000000000000004 TEE_BigIntInitFMMContext
0000000000000314 g     F .text	000000000000000c _utee_mask_cancellation
00000000000004a0 g     F .text	000000000000000c _utee_storage_obj_rename
0000000000002b64 g     F .text	0000000000000008 TEE_BigIntSquare
00000000000004f4 g     F .text	000000000000000c _utee_storage_obj_write
00000000000001bc g     F .text	0000000000000008 TA_CreateEntryPoint
0000000000000268 g     F .text	0000000000000014 __ta_entry
0000000000000434 g     F .text	000000000000000c _utee_authenc_update_aad
00000000000090fc g     F .text	00000000000000d8 snprintk
00000000000067b8 g     F .text	0000000000000008 mbedtls_mpi_montg_init
00000000000028c4 g     F .text	0000000000000080 TEE_BigIntGetBitCount
0000000000000404 g     F .text	000000000000000c _utee_cryp_obj_copy
0000000000002dac g     F .text	000000000000000c TEE_BigIntMulMod
0000000000007558 g     F .text	0000000000000460 mbedtls_mpi_inv_mod
000000000000e450 g     O .bss	0000000000000040 ta_params
0000000000005d74 g     F .text	0000000000000528 mbedtls_mpi_div_mpi
0000000000004d60 g     F .text	000000000000001c mbedtls_mpi_size
0000000000008248 g     F .text	00000000000002a8 bget
0000000000000320 g     F .text	000000000000000c _utee_wait
0000000000004c24 g     F .text	000000000000008c mbedtls_mpi_set_bit
00000000000016f0 g     F .text	0000000000000010 TEE_Free
0000000000007a9c g     F .text	0000000000000010 mbedtls_mpi_is_prime
0000000000001740 g     F .text	0000000000000008 TEE_CacheInvalidate
0000000000003d48 g     F .text	0000000000000014 _assert_break
0000000000002d94 g     F .text	000000000000000c TEE_BigIntAddMod
000000000000032c g     F .text	000000000000000c _utee_get_time
00000000000003f8 g     F .text	000000000000000c _utee_cryp_obj_populate
0000000000001530 g     F .text	0000000000000008 TEE_MemCompare
0000000000000398 g     F .text	000000000000000c _utee_cipher_update
0000000000008fd8 g     F .text	00000000000000cc __vsnprintf
000000000000e440 g     O .bss	0000000000000010 __elf_phdr_info
0000000000001278 g     F .text	0000000000000134 TEE_OpenTASession
0000000000000c68 g     F .text	0000000000000028 trace_ext_puts
0000000000000c90 g     F .text	0000000000000008 trace_ext_get_thread_id
0000000000000410 g     F .text	000000000000000c _utee_cryp_derive_key
00000000000045b4 g     F .text	000000000000006c mbedtls_mpi_free
00000000000003ec g     F .text	000000000000000c _utee_cryp_obj_reset
0000000000001730 g     F .text	0000000000000008 TEE_CacheClean
00000000000002c0 g     F .text	000000000000000c _utee_get_property_name_to_index
0000000000008a14 g     F .text	0000000000000050 raw_calloc
0000000000004a90 g     F .text	0000000000000100 mbedtls_mpi_safe_cond_swap
0000000000000428 g     F .text	000000000000000c _utee_authenc_init
0000000000008fbc g     F .text	000000000000001c strlen
000000000000302c g     F .text	0000000000000270 TEE_BigIntComputeExtendedGcd
00000000000004ac g     F .text	000000000000000c _utee_storage_alloc_enum
0000000000001540 g     F .text	0000000000000028 TEE_GetSystemTime
0000000000000470 g     F .text	000000000000000c _utee_asymm_verify
0000000000000000 g     O .ta_head	0000000000000020 ta_head
000000000000857c g     F .text	000000000000027c brel
0000000000005594 g     F .text	000000000000015c mbedtls_mpi_sub_abs
0000000000007084 g     F .text	0000000000000068 mbedtls_mpi_fill_random
0000000000001510 g     F .text	000000000000000c TEE_SetInstanceData
00000000000002f0 g     F .text	000000000000000c _utee_get_cancellation_flag
0000000000006470 g     F .text	000000000000027c mbedtls_mpi_write_string
0000000000000ef8 g     F .text	0000000000000028 TEE_CloseTASession
0000000000000488 g     F .text	000000000000000c _utee_storage_obj_create
0000000000008bd8 g     F .text	0000000000000010 free
00000000000114b8 g     O .bss	0000000000000008 mbedtls_mpi_mempool
0000000000000380 g     F .text	000000000000000c _utee_hash_final



Disassembly of section .text:

0000000000000020 <memcpy>:
memcpy():
/home/fangjiang/workspace/optee-os/lib/libutils/isoc/newlib/memcpy.c:106
      20:	f1007c5f 	cmp	x2, #0x1f
      24:	54000629 	b.ls	e8 <memcpy+0xc8>  // b.plast
/home/fangjiang/workspace/optee-os/lib/libutils/isoc/newlib/memcpy.c:106 (discriminator 1)
      28:	aa010005 	orr	x5, x0, x1
      2c:	f24008a5 	ands	x5, x5, #0x7
      30:	54000641 	b.ne	f8 <memcpy+0xd8>  // b.any
      34:	d1008048 	sub	x8, x2, #0x20
/home/fangjiang/workspace/optee-os/lib/libutils/isoc/newlib/memcpy.c:108
      38:	aa0103e3 	mov	x3, x1
      3c:	927be908 	and	x8, x8, #0xffffffffffffffe0
/home/fangjiang/workspace/optee-os/lib/libutils/isoc/newlib/memcpy.c:107
      40:	aa0003e4 	mov	x4, x0
      44:	91008108 	add	x8, x8, #0x20
      48:	8b080007 	add	x7, x0, x8
      4c:	d503201f 	nop
/home/fangjiang/workspace/optee-os/lib/libutils/isoc/newlib/memcpy.c:112
      50:	f9400066 	ldr	x6, [x3]
      54:	f9000086 	str	x6, [x4]
/home/fangjiang/workspace/optee-os/lib/libutils/isoc/newlib/memcpy.c:113
      58:	91008063 	add	x3, x3, #0x20
      5c:	91008084 	add	x4, x4, #0x20
      60:	f85e8066 	ldur	x6, [x3, #-24]
      64:	f81e8086 	stur	x6, [x4, #-24]
/home/fangjiang/workspace/optee-os/lib/libutils/isoc/newlib/memcpy.c:114
      68:	f85f0066 	ldur	x6, [x3, #-16]
      6c:	f81f0086 	stur	x6, [x4, #-16]
/home/fangjiang/workspace/optee-os/lib/libutils/isoc/newlib/memcpy.c:115
      70:	f85f8066 	ldur	x6, [x3, #-8]
      74:	f81f8086 	stur	x6, [x4, #-8]
/home/fangjiang/workspace/optee-os/lib/libutils/isoc/newlib/memcpy.c:111
      78:	eb0400ff 	cmp	x7, x4
      7c:	54fffea1 	b.ne	50 <memcpy+0x30>  // b.any
/home/fangjiang/workspace/optee-os/lib/libutils/isoc/newlib/memcpy.c:115
      80:	8b080021 	add	x1, x1, x8
/home/fangjiang/workspace/optee-os/lib/libutils/isoc/newlib/memcpy.c:116
      84:	92401043 	and	x3, x2, #0x1f
/home/fangjiang/workspace/optee-os/lib/libutils/isoc/newlib/memcpy.c:120
      88:	f27d045f 	tst	x2, #0x18
      8c:	540003c0 	b.eq	104 <memcpy+0xe4>  // b.none
/home/fangjiang/workspace/optee-os/lib/libutils/isoc/newlib/memcpy.c:121
      90:	f8656826 	ldr	x6, [x1, x5]
      94:	f8256886 	str	x6, [x4, x5]
/home/fangjiang/workspace/optee-os/lib/libutils/isoc/newlib/memcpy.c:120
      98:	910020a5 	add	x5, x5, #0x8
      9c:	cb050066 	sub	x6, x3, x5
      a0:	f1001cdf 	cmp	x6, #0x7
      a4:	54ffff68 	b.hi	90 <memcpy+0x70>  // b.pmore
      a8:	d1002063 	sub	x3, x3, #0x8
/home/fangjiang/workspace/optee-os/lib/libutils/isoc/newlib/memcpy.c:122
      ac:	92400842 	and	x2, x2, #0x7
      b0:	927df063 	and	x3, x3, #0xfffffffffffffff8
/home/fangjiang/workspace/optee-os/lib/libutils/isoc/newlib/memcpy.c:130
      b4:	d1000446 	sub	x6, x2, #0x1
      b8:	91002063 	add	x3, x3, #0x8
/home/fangjiang/workspace/optee-os/lib/libutils/isoc/newlib/memcpy.c:121
      bc:	8b030084 	add	x4, x4, x3
      c0:	8b030021 	add	x1, x1, x3
/home/fangjiang/workspace/optee-os/lib/libutils/isoc/newlib/memcpy.c:130
      c4:	b4000102 	cbz	x2, e4 <memcpy+0xc4>
/home/fangjiang/workspace/optee-os/lib/libutils/isoc/newlib/memcpy.c:99
      c8:	d2800002 	mov	x2, #0x0                   	// #0
      cc:	d503201f 	nop
/home/fangjiang/workspace/optee-os/lib/libutils/isoc/newlib/memcpy.c:131
      d0:	38626825 	ldrb	w5, [x1, x2]
/home/fangjiang/workspace/optee-os/lib/libutils/isoc/newlib/memcpy.c:130
      d4:	eb0200df 	cmp	x6, x2
/home/fangjiang/workspace/optee-os/lib/libutils/isoc/newlib/memcpy.c:131
      d8:	38226885 	strb	w5, [x4, x2]
/home/fangjiang/workspace/optee-os/lib/libutils/isoc/newlib/memcpy.c:130
      dc:	91000442 	add	x2, x2, #0x1
      e0:	54ffff81 	b.ne	d0 <memcpy+0xb0>  // b.any
/home/fangjiang/workspace/optee-os/lib/libutils/isoc/newlib/memcpy.c:135
      e4:	d65f03c0 	ret
/home/fangjiang/workspace/optee-os/lib/libutils/isoc/newlib/memcpy.c:99
      e8:	aa0003e4 	mov	x4, x0
/home/fangjiang/workspace/optee-os/lib/libutils/isoc/newlib/memcpy.c:130
      ec:	d1000446 	sub	x6, x2, #0x1
      f0:	b5fffec2 	cbnz	x2, c8 <memcpy+0xa8>
/home/fangjiang/workspace/optee-os/lib/libutils/isoc/newlib/memcpy.c:135
      f4:	d65f03c0 	ret
/home/fangjiang/workspace/optee-os/lib/libutils/isoc/newlib/memcpy.c:130
      f8:	d1000446 	sub	x6, x2, #0x1
/home/fangjiang/workspace/optee-os/lib/libutils/isoc/newlib/memcpy.c:99
      fc:	aa0003e4 	mov	x4, x0
     100:	17fffff2 	b	c8 <memcpy+0xa8>
/home/fangjiang/workspace/optee-os/lib/libutils/isoc/newlib/memcpy.c:120
     104:	aa0303e2 	mov	x2, x3
     108:	17fffff9 	b	ec <memcpy+0xcc>

000000000000010c <secure_trigger_store>:
secure_trigger_store():
/home/fangjiang/workspace/re-prefetcher/store-stride-prefetcher/optee_store_stride_ta/store_stride_ta.c:30
     10c:	12001c01 	and	w1, w0, #0xff
     110:	39000001 	strb	w1, [x0]
/home/fangjiang/workspace/re-prefetcher/store-stride-prefetcher/optee_store_stride_ta/store_stride_ta.c:31
     114:	d65f03c0 	ret

0000000000000118 <secure_trigger_load>:
secure_trigger_load():
/home/fangjiang/workspace/re-prefetcher/store-stride-prefetcher/optee_store_stride_ta/store_stride_ta.c:36
     118:	39400000 	ldrb	w0, [x0]
/home/fangjiang/workspace/re-prefetcher/store-stride-prefetcher/optee_store_stride_ta/store_stride_ta.c:37
     11c:	d65f03c0 	ret

0000000000000120 <load_sequence>:
load_sequence():
/home/fangjiang/workspace/re-prefetcher/store-stride-prefetcher/optee_store_stride_ta/store_stride_ta.c:65
     120:	a9be7bfd 	stp	x29, x30, [sp, #-32]!
     124:	910003fd 	mov	x29, sp
/home/fangjiang/workspace/re-prefetcher/store-stride-prefetcher/optee_store_stride_ta/store_stride_ta.c:75
     128:	39007fff 	strb	wzr, [sp, #31]
/home/fangjiang/workspace/re-prefetcher/store-stride-prefetcher/optee_store_stride_ta/store_stride_ta.c:77
     12c:	71005c1f 	cmp	w0, #0x17
     130:	54000421 	b.ne	1b4 <load_sequence+0x94>  // b.any
/home/fangjiang/workspace/re-prefetcher/store-stride-prefetcher/optee_store_stride_ta/store_stride_ta.c:81
     134:	aa0103e0 	mov	x0, x1
     138:	aa0103e3 	mov	x3, x1
     13c:	12001c42 	and	w2, w2, #0xff
     140:	f8410401 	ldr	x1, [x0], #16
/home/fangjiang/workspace/re-prefetcher/store-stride-prefetcher/optee_store_stride_ta/store_stride_ta.c:83
     144:	b9401064 	ldr	w4, [x3, #16]
/home/fangjiang/workspace/re-prefetcher/store-stride-prefetcher/optee_store_stride_ta/store_stride_ta.c:87
     148:	f100003f 	cmp	x1, #0x0
/home/fangjiang/workspace/re-prefetcher/store-stride-prefetcher/optee_store_stride_ta/store_stride_ta.c:85
     14c:	b9400400 	ldr	w0, [x0, #4]
/home/fangjiang/workspace/re-prefetcher/store-stride-prefetcher/optee_store_stride_ta/store_stride_ta.c:83
     150:	2a0403e5 	mov	w5, w4
/home/fangjiang/workspace/re-prefetcher/store-stride-prefetcher/optee_store_stride_ta/store_stride_ta.c:87
     154:	fa4018a4 	ccmp	x5, #0x0, #0x4, ne  // ne = any
/home/fangjiang/workspace/re-prefetcher/store-stride-prefetcher/optee_store_stride_ta/store_stride_ta.c:85
     158:	0b000042 	add	w2, w2, w0
/home/fangjiang/workspace/re-prefetcher/store-stride-prefetcher/optee_store_stride_ta/store_stride_ta.c:87
     15c:	540002c0 	b.eq	1b4 <load_sequence+0x94>  // b.none
/home/fangjiang/workspace/re-prefetcher/store-stride-prefetcher/optee_store_stride_ta/store_stride_ta.c:87 (discriminator 1)
     160:	340002a2 	cbz	w2, 1b4 <load_sequence+0x94>
/home/fangjiang/workspace/re-prefetcher/store-stride-prefetcher/optee_store_stride_ta/store_stride_ta.c:88 (discriminator 2)
     164:	51000440 	sub	w0, w2, #0x1
/home/fangjiang/workspace/re-prefetcher/store-stride-prefetcher/optee_store_stride_ta/store_stride_ta.c:82 (discriminator 2)
     168:	b9400863 	ldr	w3, [x3, #8]
/home/fangjiang/workspace/re-prefetcher/store-stride-prefetcher/optee_store_stride_ta/store_stride_ta.c:88 (discriminator 2)
     16c:	9ba47c00 	umull	x0, w0, w4
/home/fangjiang/workspace/re-prefetcher/store-stride-prefetcher/optee_store_stride_ta/store_stride_ta.c:87 (discriminator 2)
     170:	eb03001f 	cmp	x0, x3
     174:	54000202 	b.cs	1b4 <load_sequence+0x94>  // b.hs, b.nlast
/home/fangjiang/workspace/re-prefetcher/store-stride-prefetcher/optee_store_stride_ta/store_stride_ta.c:92
     178:	52800004 	mov	w4, #0x0                   	// #0
/home/fangjiang/workspace/re-prefetcher/store-stride-prefetcher/optee_store_stride_ta/store_stride_ta.c:93 (discriminator 3)
     17c:	aa0103e0 	mov	x0, x1
     180:	97ffffe6 	bl	118 <secure_trigger_load>
     184:	39407fe3 	ldrb	w3, [sp, #31]
/home/fangjiang/workspace/re-prefetcher/store-stride-prefetcher/optee_store_stride_ta/store_stride_ta.c:92 (discriminator 3)
     188:	11000484 	add	w4, w4, #0x1
     18c:	8b050021 	add	x1, x1, x5
/home/fangjiang/workspace/re-prefetcher/store-stride-prefetcher/optee_store_stride_ta/store_stride_ta.c:93 (discriminator 3)
     190:	4a000063 	eor	w3, w3, w0
     194:	12001c63 	and	w3, w3, #0xff
     198:	39007fe3 	strb	w3, [sp, #31]
/home/fangjiang/workspace/re-prefetcher/store-stride-prefetcher/optee_store_stride_ta/store_stride_ta.c:92 (discriminator 3)
     19c:	6b04005f 	cmp	w2, w4
     1a0:	54fffee1 	b.ne	17c <load_sequence+0x5c>  // b.any
/home/fangjiang/workspace/re-prefetcher/store-stride-prefetcher/optee_store_stride_ta/store_stride_ta.c:96
     1a4:	39407fe0 	ldrb	w0, [sp, #31]
/home/fangjiang/workspace/re-prefetcher/store-stride-prefetcher/optee_store_stride_ta/store_stride_ta.c:97
     1a8:	52800000 	mov	w0, #0x0                   	// #0
/home/fangjiang/workspace/re-prefetcher/store-stride-prefetcher/optee_store_stride_ta/store_stride_ta.c:98
     1ac:	a8c27bfd 	ldp	x29, x30, [sp], #32
     1b0:	d65f03c0 	ret
/home/fangjiang/workspace/re-prefetcher/store-stride-prefetcher/optee_store_stride_ta/store_stride_ta.c:78
     1b4:	129fff20 	mov	w0, #0xffff0006            	// #-65530
     1b8:	17fffffd 	b	1ac <load_sequence+0x8c>

00000000000001bc <TA_CreateEntryPoint>:
TA_CreateEntryPoint():
/home/fangjiang/workspace/re-prefetcher/store-stride-prefetcher/optee_store_stride_ta/store_stride_ta.c:9
     1bc:	52800000 	mov	w0, #0x0                   	// #0
     1c0:	d65f03c0 	ret

00000000000001c4 <TA_DestroyEntryPoint>:
TA_DestroyEntryPoint():
/home/fangjiang/workspace/re-prefetcher/store-stride-prefetcher/optee_store_stride_ta/store_stride_ta.c:12
     1c4:	d65f03c0 	ret

00000000000001c8 <TA_OpenSessionEntryPoint>:
TA_OpenSessionEntryPoint():
/home/fangjiang/workspace/re-prefetcher/store-stride-prefetcher/optee_store_stride_ta/store_stride_ta.c:21
     1c8:	52800000 	mov	w0, #0x0                   	// #0
     1cc:	d65f03c0 	ret

00000000000001d0 <TA_CloseSessionEntryPoint>:
TA_CloseSessionEntryPoint():
/home/fangjiang/workspace/re-prefetcher/store-stride-prefetcher/optee_store_stride_ta/store_stride_ta.c:25
     1d0:	d65f03c0 	ret

00000000000001d4 <TA_InvokeCommandEntryPoint>:
TA_InvokeCommandEntryPoint():
/home/fangjiang/workspace/re-prefetcher/store-stride-prefetcher/optee_store_stride_ta/store_stride_ta.c:103
     1d4:	2a0103e4 	mov	w4, w1
/home/fangjiang/workspace/re-prefetcher/store-stride-prefetcher/optee_store_stride_ta/store_stride_ta.c:106
     1d8:	71000c3f 	cmp	w1, #0x3
     1dc:	54000128 	b.hi	200 <TA_InvokeCommandEntryPoint+0x2c>  // b.pmore
     1e0:	2a0203e0 	mov	w0, w2
     1e4:	aa0303e1 	mov	x1, x3
     1e8:	90000062 	adrp	x2, c000 <__text_end+0x1cb0>
     1ec:	9109b042 	add	x2, x2, #0x26c
     1f0:	38644842 	ldrb	w2, [x2, w4, uxtw]
     1f4:	10000063 	adr	x3, 200 <TA_InvokeCommandEntryPoint+0x2c>
     1f8:	8b228862 	add	x2, x3, w2, sxtb #2
     1fc:	d61f0040 	br	x2
     200:	129ffea4 	mov	w4, #0xffff000a            	// #-65526
/home/fangjiang/workspace/re-prefetcher/store-stride-prefetcher/optee_store_stride_ta/store_stride_ta.c:118
     204:	2a0403e0 	mov	w0, w4
     208:	d65f03c0 	ret
trigger_store():
/home/fangjiang/workspace/re-prefetcher/store-stride-prefetcher/optee_store_stride_ta/store_stride_ta.c:48
     20c:	71005c1f 	cmp	w0, #0x17
     210:	54000281 	b.ne	260 <TA_InvokeCommandEntryPoint+0x8c>  // b.any
/home/fangjiang/workspace/re-prefetcher/store-stride-prefetcher/optee_store_stride_ta/store_stride_ta.c:52
     214:	f9400020 	ldr	x0, [x1]
/home/fangjiang/workspace/re-prefetcher/store-stride-prefetcher/optee_store_stride_ta/store_stride_ta.c:54
     218:	b9401022 	ldr	w2, [x1, #16]
/home/fangjiang/workspace/re-prefetcher/store-stride-prefetcher/optee_store_stride_ta/store_stride_ta.c:56
     21c:	b9400821 	ldr	w1, [x1, #8]
     220:	f100001f 	cmp	x0, #0x0
     224:	7a421020 	ccmp	w1, w2, #0x0, ne  // ne = any
     228:	540001c9 	b.ls	260 <TA_InvokeCommandEntryPoint+0x8c>  // b.plast
TA_InvokeCommandEntryPoint():
/home/fangjiang/workspace/re-prefetcher/store-stride-prefetcher/optee_store_stride_ta/store_stride_ta.c:103
     22c:	a9bf7bfd 	stp	x29, x30, [sp, #-16]!
trigger_store():
/home/fangjiang/workspace/re-prefetcher/store-stride-prefetcher/optee_store_stride_ta/store_stride_ta.c:60
     230:	8b224000 	add	x0, x0, w2, uxtw
TA_InvokeCommandEntryPoint():
/home/fangjiang/workspace/re-prefetcher/store-stride-prefetcher/optee_store_stride_ta/store_stride_ta.c:103
     234:	910003fd 	mov	x29, sp
trigger_store():
/home/fangjiang/workspace/re-prefetcher/store-stride-prefetcher/optee_store_stride_ta/store_stride_ta.c:60
     238:	97ffffb5 	bl	10c <secure_trigger_store>
TA_InvokeCommandEntryPoint():
/home/fangjiang/workspace/re-prefetcher/store-stride-prefetcher/optee_store_stride_ta/store_stride_ta.c:118
     23c:	2a0403e0 	mov	w0, w4
     240:	a8c17bfd 	ldp	x29, x30, [sp], #16
     244:	d65f03c0 	ret
/home/fangjiang/workspace/re-prefetcher/store-stride-prefetcher/optee_store_stride_ta/store_stride_ta.c:110
     248:	52800022 	mov	w2, #0x1                   	// #1
/home/fangjiang/workspace/re-prefetcher/store-stride-prefetcher/optee_store_stride_ta/store_stride_ta.c:112
     24c:	17ffffb5 	b	120 <load_sequence>
     250:	52800002 	mov	w2, #0x0                   	// #0
     254:	17fffffe 	b	24c <TA_InvokeCommandEntryPoint+0x78>
/home/fangjiang/workspace/re-prefetcher/store-stride-prefetcher/optee_store_stride_ta/store_stride_ta.c:114
     258:	52800004 	mov	w4, #0x0                   	// #0
     25c:	17ffffea 	b	204 <TA_InvokeCommandEntryPoint+0x30>
trigger_store():
/home/fangjiang/workspace/re-prefetcher/store-stride-prefetcher/optee_store_stride_ta/store_stride_ta.c:49
     260:	129fff24 	mov	w4, #0xffff0006            	// #-65530
     264:	17ffffe8 	b	204 <TA_InvokeCommandEntryPoint+0x30>

0000000000000268 <__ta_entry>:
__ta_entry():
/home/fangjiang/workspace/optee-os/out/arm-plat-mediatek/export-ta_arm64/src/user_ta_header.c:48
     268:	a9bf7bfd 	stp	x29, x30, [sp, #-16]!
     26c:	910003fd 	mov	x29, sp
/home/fangjiang/workspace/optee-os/out/arm-plat-mediatek/export-ta_arm64/src/user_ta_header.c:49
     270:	940001e3 	bl	9fc <__utee_entry>
/home/fangjiang/workspace/optee-os/out/arm-plat-mediatek/export-ta_arm64/src/user_ta_header.c:60
     274:	2a0003e0 	mov	w0, w0
     278:	94000006 	bl	290 <_utee_return>

000000000000027c <tahead_get_trace_level>:
tahead_get_trace_level():
/home/fangjiang/workspace/optee-os/out/arm-plat-mediatek/export-ta_arm64/src/user_ta_header.c:154
     27c:	52800020 	mov	w0, #0x1                   	// #1
     280:	d65f03c0 	ret

0000000000000284 <_utee_panic>:
_utee_panic():
/home/fangjiang/workspace/optee-os/lib/libutee/arch/arm/utee_syscalls_a64.S:41
     284:	a9bf7bfd 	stp	x29, x30, [sp, #-16]!
/home/fangjiang/workspace/optee-os/lib/libutee/arch/arm/utee_syscalls_a64.S:42
     288:	910003e1 	mov	x1, sp
/home/fangjiang/workspace/optee-os/lib/libutee/arch/arm/utee_syscalls_a64.S:43
     28c:	94000007 	bl	2a8 <__utee_panic>

0000000000000290 <_utee_return>:
_utee_return():
/home/fangjiang/workspace/optee-os/lib/libutee/arch/arm/utee_syscalls_asm.S:8
     290:	d2800008 	mov	x8, #0x0                   	// #0
     294:	d4000001 	svc	#0x0
     298:	d65f03c0 	ret

000000000000029c <_utee_log>:
_utee_log():
/home/fangjiang/workspace/optee-os/lib/libutee/arch/arm/utee_syscalls_asm.S:10
     29c:	d2800028 	mov	x8, #0x1                   	// #1
     2a0:	d4000001 	svc	#0x0
     2a4:	d65f03c0 	ret

00000000000002a8 <__utee_panic>:
__utee_panic():
/home/fangjiang/workspace/optee-os/lib/libutee/arch/arm/utee_syscalls_asm.S:12
     2a8:	d2800048 	mov	x8, #0x2                   	// #2
     2ac:	d4000001 	svc	#0x0
     2b0:	d65f03c0 	ret

00000000000002b4 <_utee_get_property>:
_utee_get_property():
/home/fangjiang/workspace/optee-os/lib/libutee/arch/arm/utee_syscalls_asm.S:14
     2b4:	d2800068 	mov	x8, #0x3                   	// #3
     2b8:	d4000001 	svc	#0x0
     2bc:	d65f03c0 	ret

00000000000002c0 <_utee_get_property_name_to_index>:
_utee_get_property_name_to_index():
/home/fangjiang/workspace/optee-os/lib/libutee/arch/arm/utee_syscalls_asm.S:16
     2c0:	d2800088 	mov	x8, #0x4                   	// #4
     2c4:	d4000001 	svc	#0x0
     2c8:	d65f03c0 	ret

00000000000002cc <_utee_open_ta_session>:
_utee_open_ta_session():
/home/fangjiang/workspace/optee-os/lib/libutee/arch/arm/utee_syscalls_asm.S:19
     2cc:	d28000a8 	mov	x8, #0x5                   	// #5
     2d0:	d4000001 	svc	#0x0
     2d4:	d65f03c0 	ret

00000000000002d8 <_utee_close_ta_session>:
_utee_close_ta_session():
/home/fangjiang/workspace/optee-os/lib/libutee/arch/arm/utee_syscalls_asm.S:21
     2d8:	d28000c8 	mov	x8, #0x6                   	// #6
     2dc:	d4000001 	svc	#0x0
     2e0:	d65f03c0 	ret

00000000000002e4 <_utee_invoke_ta_command>:
_utee_invoke_ta_command():
/home/fangjiang/workspace/optee-os/lib/libutee/arch/arm/utee_syscalls_asm.S:23
     2e4:	d28000e8 	mov	x8, #0x7                   	// #7
     2e8:	d4000001 	svc	#0x0
     2ec:	d65f03c0 	ret

00000000000002f0 <_utee_get_cancellation_flag>:
_utee_get_cancellation_flag():
/home/fangjiang/workspace/optee-os/lib/libutee/arch/arm/utee_syscalls_asm.S:25
     2f0:	d2800128 	mov	x8, #0x9                   	// #9
     2f4:	d4000001 	svc	#0x0
     2f8:	d65f03c0 	ret

00000000000002fc <_utee_check_access_rights>:
_utee_check_access_rights():
/home/fangjiang/workspace/optee-os/lib/libutee/arch/arm/utee_syscalls_asm.S:28
     2fc:	d2800108 	mov	x8, #0x8                   	// #8
     300:	d4000001 	svc	#0x0
     304:	d65f03c0 	ret

0000000000000308 <_utee_unmask_cancellation>:
_utee_unmask_cancellation():
/home/fangjiang/workspace/optee-os/lib/libutee/arch/arm/utee_syscalls_asm.S:30
     308:	d2800148 	mov	x8, #0xa                   	// #10
     30c:	d4000001 	svc	#0x0
     310:	d65f03c0 	ret

0000000000000314 <_utee_mask_cancellation>:
_utee_mask_cancellation():
/home/fangjiang/workspace/optee-os/lib/libutee/arch/arm/utee_syscalls_asm.S:32
     314:	d2800168 	mov	x8, #0xb                   	// #11
     318:	d4000001 	svc	#0x0
     31c:	d65f03c0 	ret

0000000000000320 <_utee_wait>:
_utee_wait():
/home/fangjiang/workspace/optee-os/lib/libutee/arch/arm/utee_syscalls_asm.S:34
     320:	d2800188 	mov	x8, #0xc                   	// #12
     324:	d4000001 	svc	#0x0
     328:	d65f03c0 	ret

000000000000032c <_utee_get_time>:
_utee_get_time():
/home/fangjiang/workspace/optee-os/lib/libutee/arch/arm/utee_syscalls_asm.S:36
     32c:	d28001a8 	mov	x8, #0xd                   	// #13
     330:	d4000001 	svc	#0x0
     334:	d65f03c0 	ret

0000000000000338 <_utee_set_ta_time>:
_utee_set_ta_time():
/home/fangjiang/workspace/optee-os/lib/libutee/arch/arm/utee_syscalls_asm.S:38
     338:	d28001c8 	mov	x8, #0xe                   	// #14
     33c:	d4000001 	svc	#0x0
     340:	d65f03c0 	ret

0000000000000344 <_utee_cryp_state_alloc>:
_utee_cryp_state_alloc():
/home/fangjiang/workspace/optee-os/lib/libutee/arch/arm/utee_syscalls_asm.S:40
     344:	d28001e8 	mov	x8, #0xf                   	// #15
     348:	d4000001 	svc	#0x0
     34c:	d65f03c0 	ret

0000000000000350 <_utee_cryp_state_copy>:
_utee_cryp_state_copy():
/home/fangjiang/workspace/optee-os/lib/libutee/arch/arm/utee_syscalls_asm.S:42
     350:	d2800208 	mov	x8, #0x10                  	// #16
     354:	d4000001 	svc	#0x0
     358:	d65f03c0 	ret

000000000000035c <_utee_cryp_state_free>:
_utee_cryp_state_free():
/home/fangjiang/workspace/optee-os/lib/libutee/arch/arm/utee_syscalls_asm.S:44
     35c:	d2800228 	mov	x8, #0x11                  	// #17
     360:	d4000001 	svc	#0x0
     364:	d65f03c0 	ret

0000000000000368 <_utee_hash_init>:
_utee_hash_init():
/home/fangjiang/workspace/optee-os/lib/libutee/arch/arm/utee_syscalls_asm.S:46
     368:	d2800248 	mov	x8, #0x12                  	// #18
     36c:	d4000001 	svc	#0x0
     370:	d65f03c0 	ret

0000000000000374 <_utee_hash_update>:
_utee_hash_update():
/home/fangjiang/workspace/optee-os/lib/libutee/arch/arm/utee_syscalls_asm.S:48
     374:	d2800268 	mov	x8, #0x13                  	// #19
     378:	d4000001 	svc	#0x0
     37c:	d65f03c0 	ret

0000000000000380 <_utee_hash_final>:
_utee_hash_final():
/home/fangjiang/workspace/optee-os/lib/libutee/arch/arm/utee_syscalls_asm.S:50
     380:	d2800288 	mov	x8, #0x14                  	// #20
     384:	d4000001 	svc	#0x0
     388:	d65f03c0 	ret

000000000000038c <_utee_cipher_init>:
_utee_cipher_init():
/home/fangjiang/workspace/optee-os/lib/libutee/arch/arm/utee_syscalls_asm.S:52
     38c:	d28002a8 	mov	x8, #0x15                  	// #21
     390:	d4000001 	svc	#0x0
     394:	d65f03c0 	ret

0000000000000398 <_utee_cipher_update>:
_utee_cipher_update():
/home/fangjiang/workspace/optee-os/lib/libutee/arch/arm/utee_syscalls_asm.S:54
     398:	d28002c8 	mov	x8, #0x16                  	// #22
     39c:	d4000001 	svc	#0x0
     3a0:	d65f03c0 	ret

00000000000003a4 <_utee_cipher_final>:
_utee_cipher_final():
/home/fangjiang/workspace/optee-os/lib/libutee/arch/arm/utee_syscalls_asm.S:56
     3a4:	d28002e8 	mov	x8, #0x17                  	// #23
     3a8:	d4000001 	svc	#0x0
     3ac:	d65f03c0 	ret

00000000000003b0 <_utee_cryp_obj_get_info>:
_utee_cryp_obj_get_info():
/home/fangjiang/workspace/optee-os/lib/libutee/arch/arm/utee_syscalls_asm.S:58
     3b0:	d2800308 	mov	x8, #0x18                  	// #24
     3b4:	d4000001 	svc	#0x0
     3b8:	d65f03c0 	ret

00000000000003bc <_utee_cryp_obj_restrict_usage>:
_utee_cryp_obj_restrict_usage():
/home/fangjiang/workspace/optee-os/lib/libutee/arch/arm/utee_syscalls_asm.S:60
     3bc:	d2800328 	mov	x8, #0x19                  	// #25
     3c0:	d4000001 	svc	#0x0
     3c4:	d65f03c0 	ret

00000000000003c8 <_utee_cryp_obj_get_attr>:
_utee_cryp_obj_get_attr():
/home/fangjiang/workspace/optee-os/lib/libutee/arch/arm/utee_syscalls_asm.S:63
     3c8:	d2800348 	mov	x8, #0x1a                  	// #26
     3cc:	d4000001 	svc	#0x0
     3d0:	d65f03c0 	ret

00000000000003d4 <_utee_cryp_obj_alloc>:
_utee_cryp_obj_alloc():
/home/fangjiang/workspace/optee-os/lib/libutee/arch/arm/utee_syscalls_asm.S:65
     3d4:	d2800368 	mov	x8, #0x1b                  	// #27
     3d8:	d4000001 	svc	#0x0
     3dc:	d65f03c0 	ret

00000000000003e0 <_utee_cryp_obj_close>:
_utee_cryp_obj_close():
/home/fangjiang/workspace/optee-os/lib/libutee/arch/arm/utee_syscalls_asm.S:67
     3e0:	d2800388 	mov	x8, #0x1c                  	// #28
     3e4:	d4000001 	svc	#0x0
     3e8:	d65f03c0 	ret

00000000000003ec <_utee_cryp_obj_reset>:
_utee_cryp_obj_reset():
/home/fangjiang/workspace/optee-os/lib/libutee/arch/arm/utee_syscalls_asm.S:69
     3ec:	d28003a8 	mov	x8, #0x1d                  	// #29
     3f0:	d4000001 	svc	#0x0
     3f4:	d65f03c0 	ret

00000000000003f8 <_utee_cryp_obj_populate>:
_utee_cryp_obj_populate():
/home/fangjiang/workspace/optee-os/lib/libutee/arch/arm/utee_syscalls_asm.S:71
     3f8:	d28003c8 	mov	x8, #0x1e                  	// #30
     3fc:	d4000001 	svc	#0x0
     400:	d65f03c0 	ret

0000000000000404 <_utee_cryp_obj_copy>:
_utee_cryp_obj_copy():
/home/fangjiang/workspace/optee-os/lib/libutee/arch/arm/utee_syscalls_asm.S:73
     404:	d28003e8 	mov	x8, #0x1f                  	// #31
     408:	d4000001 	svc	#0x0
     40c:	d65f03c0 	ret

0000000000000410 <_utee_cryp_derive_key>:
_utee_cryp_derive_key():
/home/fangjiang/workspace/optee-os/lib/libutee/arch/arm/utee_syscalls_asm.S:75
     410:	d2800408 	mov	x8, #0x20                  	// #32
     414:	d4000001 	svc	#0x0
     418:	d65f03c0 	ret

000000000000041c <_utee_cryp_random_number_generate>:
_utee_cryp_random_number_generate():
/home/fangjiang/workspace/optee-os/lib/libutee/arch/arm/utee_syscalls_asm.S:77
     41c:	d2800428 	mov	x8, #0x21                  	// #33
     420:	d4000001 	svc	#0x0
     424:	d65f03c0 	ret

0000000000000428 <_utee_authenc_init>:
_utee_authenc_init():
/home/fangjiang/workspace/optee-os/lib/libutee/arch/arm/utee_syscalls_asm.S:80
     428:	d2800448 	mov	x8, #0x22                  	// #34
     42c:	d4000001 	svc	#0x0
     430:	d65f03c0 	ret

0000000000000434 <_utee_authenc_update_aad>:
_utee_authenc_update_aad():
/home/fangjiang/workspace/optee-os/lib/libutee/arch/arm/utee_syscalls_asm.S:82
     434:	d2800468 	mov	x8, #0x23                  	// #35
     438:	d4000001 	svc	#0x0
     43c:	d65f03c0 	ret

0000000000000440 <_utee_authenc_update_payload>:
_utee_authenc_update_payload():
/home/fangjiang/workspace/optee-os/lib/libutee/arch/arm/utee_syscalls_asm.S:84
     440:	d2800488 	mov	x8, #0x24                  	// #36
     444:	d4000001 	svc	#0x0
     448:	d65f03c0 	ret

000000000000044c <_utee_authenc_enc_final>:
_utee_authenc_enc_final():
/home/fangjiang/workspace/optee-os/lib/libutee/arch/arm/utee_syscalls_asm.S:87
     44c:	d28004a8 	mov	x8, #0x25                  	// #37
     450:	d4000001 	svc	#0x0
     454:	d65f03c0 	ret

0000000000000458 <_utee_authenc_dec_final>:
_utee_authenc_dec_final():
/home/fangjiang/workspace/optee-os/lib/libutee/arch/arm/utee_syscalls_asm.S:89
     458:	d28004c8 	mov	x8, #0x26                  	// #38
     45c:	d4000001 	svc	#0x0
     460:	d65f03c0 	ret

0000000000000464 <_utee_asymm_operate>:
_utee_asymm_operate():
/home/fangjiang/workspace/optee-os/lib/libutee/arch/arm/utee_syscalls_asm.S:91
     464:	d28004e8 	mov	x8, #0x27                  	// #39
     468:	d4000001 	svc	#0x0
     46c:	d65f03c0 	ret

0000000000000470 <_utee_asymm_verify>:
_utee_asymm_verify():
/home/fangjiang/workspace/optee-os/lib/libutee/arch/arm/utee_syscalls_asm.S:93
     470:	d2800508 	mov	x8, #0x28                  	// #40
     474:	d4000001 	svc	#0x0
     478:	d65f03c0 	ret

000000000000047c <_utee_storage_obj_open>:
_utee_storage_obj_open():
/home/fangjiang/workspace/optee-os/lib/libutee/arch/arm/utee_syscalls_asm.S:95
     47c:	d2800528 	mov	x8, #0x29                  	// #41
     480:	d4000001 	svc	#0x0
     484:	d65f03c0 	ret

0000000000000488 <_utee_storage_obj_create>:
_utee_storage_obj_create():
/home/fangjiang/workspace/optee-os/lib/libutee/arch/arm/utee_syscalls_asm.S:97
     488:	d2800548 	mov	x8, #0x2a                  	// #42
     48c:	d4000001 	svc	#0x0
     490:	d65f03c0 	ret

0000000000000494 <_utee_storage_obj_del>:
_utee_storage_obj_del():
/home/fangjiang/workspace/optee-os/lib/libutee/arch/arm/utee_syscalls_asm.S:99
     494:	d2800568 	mov	x8, #0x2b                  	// #43
     498:	d4000001 	svc	#0x0
     49c:	d65f03c0 	ret

00000000000004a0 <_utee_storage_obj_rename>:
_utee_storage_obj_rename():
/home/fangjiang/workspace/optee-os/lib/libutee/arch/arm/utee_syscalls_asm.S:101
     4a0:	d2800588 	mov	x8, #0x2c                  	// #44
     4a4:	d4000001 	svc	#0x0
     4a8:	d65f03c0 	ret

00000000000004ac <_utee_storage_alloc_enum>:
_utee_storage_alloc_enum():
/home/fangjiang/workspace/optee-os/lib/libutee/arch/arm/utee_syscalls_asm.S:103
     4ac:	d28005a8 	mov	x8, #0x2d                  	// #45
     4b0:	d4000001 	svc	#0x0
     4b4:	d65f03c0 	ret

00000000000004b8 <_utee_storage_free_enum>:
_utee_storage_free_enum():
/home/fangjiang/workspace/optee-os/lib/libutee/arch/arm/utee_syscalls_asm.S:105
     4b8:	d28005c8 	mov	x8, #0x2e                  	// #46
     4bc:	d4000001 	svc	#0x0
     4c0:	d65f03c0 	ret

00000000000004c4 <_utee_storage_reset_enum>:
_utee_storage_reset_enum():
/home/fangjiang/workspace/optee-os/lib/libutee/arch/arm/utee_syscalls_asm.S:107
     4c4:	d28005e8 	mov	x8, #0x2f                  	// #47
     4c8:	d4000001 	svc	#0x0
     4cc:	d65f03c0 	ret

00000000000004d0 <_utee_storage_start_enum>:
_utee_storage_start_enum():
/home/fangjiang/workspace/optee-os/lib/libutee/arch/arm/utee_syscalls_asm.S:109
     4d0:	d2800608 	mov	x8, #0x30                  	// #48
     4d4:	d4000001 	svc	#0x0
     4d8:	d65f03c0 	ret

00000000000004dc <_utee_storage_next_enum>:
_utee_storage_next_enum():
/home/fangjiang/workspace/optee-os/lib/libutee/arch/arm/utee_syscalls_asm.S:111
     4dc:	d2800628 	mov	x8, #0x31                  	// #49
     4e0:	d4000001 	svc	#0x0
     4e4:	d65f03c0 	ret

00000000000004e8 <_utee_storage_obj_read>:
_utee_storage_obj_read():
/home/fangjiang/workspace/optee-os/lib/libutee/arch/arm/utee_syscalls_asm.S:113
     4e8:	d2800648 	mov	x8, #0x32                  	// #50
     4ec:	d4000001 	svc	#0x0
     4f0:	d65f03c0 	ret

00000000000004f4 <_utee_storage_obj_write>:
_utee_storage_obj_write():
/home/fangjiang/workspace/optee-os/lib/libutee/arch/arm/utee_syscalls_asm.S:115
     4f4:	d2800668 	mov	x8, #0x33                  	// #51
     4f8:	d4000001 	svc	#0x0
     4fc:	d65f03c0 	ret

0000000000000500 <_utee_storage_obj_trunc>:
_utee_storage_obj_trunc():
/home/fangjiang/workspace/optee-os/lib/libutee/arch/arm/utee_syscalls_asm.S:117
     500:	d2800688 	mov	x8, #0x34                  	// #52
     504:	d4000001 	svc	#0x0
     508:	d65f03c0 	ret

000000000000050c <_utee_storage_obj_seek>:
_utee_storage_obj_seek():
/home/fangjiang/workspace/optee-os/lib/libutee/arch/arm/utee_syscalls_asm.S:119
     50c:	d28006a8 	mov	x8, #0x35                  	// #53
     510:	d4000001 	svc	#0x0
     514:	d65f03c0 	ret

0000000000000518 <_utee_cryp_obj_generate_key>:
_utee_cryp_obj_generate_key():
/home/fangjiang/workspace/optee-os/lib/libutee/arch/arm/utee_syscalls_asm.S:121
     518:	d28006c8 	mov	x8, #0x36                  	// #54
     51c:	d4000001 	svc	#0x0
     520:	d65f03c0 	ret

0000000000000524 <_utee_cache_operation>:
_utee_cache_operation():
/home/fangjiang/workspace/optee-os/lib/libutee/arch/arm/utee_syscalls_asm.S:124
     524:	d28008c8 	mov	x8, #0x46                  	// #70
     528:	d4000001 	svc	#0x0
     52c:	d65f03c0 	ret

0000000000000530 <_get_fn_array>:
_get_fn_array():
/home/fangjiang/workspace/optee-os/lib/libutee/arch/arm/user_ta_entry.c:79
     530:	79403009 	ldrh	w9, [x0, #24]
/home/fangjiang/workspace/optee-os/lib/libutee/arch/arm/user_ta_entry.c:90
     534:	93407c21 	sxtw	x1, w1
/home/fangjiang/workspace/optee-os/lib/libutee/arch/arm/user_ta_entry.c:93
     538:	93407c42 	sxtw	x2, w2
/home/fangjiang/workspace/optee-os/lib/libutee/arch/arm/user_ta_entry.c:79
     53c:	d2800007 	mov	x7, #0x0                   	// #0
/home/fangjiang/workspace/optee-os/lib/libutee/arch/arm/user_ta_entry.c:80
     540:	d280070a 	mov	x10, #0x38                  	// #56
/home/fangjiang/workspace/optee-os/lib/libutee/arch/arm/user_ta_entry.c:79 (discriminator 1)
     544:	eb07013f 	cmp	x9, x7
     548:	54000048 	b.hi	550 <_get_fn_array+0x20>  // b.pmore
/home/fangjiang/workspace/optee-os/lib/libutee/arch/arm/user_ta_entry.c:99
     54c:	d65f03c0 	ret
/home/fangjiang/workspace/optee-os/lib/libutee/arch/arm/user_ta_entry.c:80
     550:	9b0a7ce5 	mul	x5, x7, x10
     554:	f9400808 	ldr	x8, [x0, #16]
     558:	8b050106 	add	x6, x8, x5
/home/fangjiang/workspace/optee-os/lib/libutee/arch/arm/user_ta_entry.c:81
     55c:	b8656905 	ldr	w5, [x8, x5]
     560:	710008bf 	cmp	w5, #0x2
     564:	54000060 	b.eq	570 <_get_fn_array+0x40>  // b.none
/home/fangjiang/workspace/optee-os/lib/libutee/arch/arm/user_ta_entry.c:79
     568:	910004e7 	add	x7, x7, #0x1
     56c:	17fffff6 	b	544 <_get_fn_array+0x14>
/home/fangjiang/workspace/optee-os/lib/libutee/arch/arm/user_ta_entry.c:84
     570:	f9400008 	ldr	x8, [x0]
     574:	f94008c5 	ldr	x5, [x6, #16]
/home/fangjiang/workspace/optee-os/lib/libutee/arch/arm/user_ta_entry.c:83
     578:	f94014c6 	ldr	x6, [x6, #40]
/home/fangjiang/workspace/optee-os/lib/libutee/arch/arm/user_ta_entry.c:84
     57c:	8b0800a5 	add	x5, x5, x8
/home/fangjiang/workspace/optee-os/lib/libutee/arch/arm/user_ta_entry.c:85
     580:	927cecc6 	and	x6, x6, #0xfffffffffffffff0
     584:	8b0500c6 	add	x6, x6, x5
/home/fangjiang/workspace/optee-os/lib/libutee/arch/arm/user_ta_entry.c:85 (discriminator 1)
     588:	eb0600bf 	cmp	x5, x6
     58c:	54fffee0 	b.eq	568 <_get_fn_array+0x38>  // b.none
/home/fangjiang/workspace/optee-os/lib/libutee/arch/arm/user_ta_entry.c:86
     590:	f9400068 	ldr	x8, [x3]
     594:	b4000068 	cbz	x8, 5a0 <_get_fn_array+0x70>
/home/fangjiang/workspace/optee-os/lib/libutee/arch/arm/user_ta_entry.c:86 (discriminator 1)
     598:	f9400088 	ldr	x8, [x4]
     59c:	b5fffe68 	cbnz	x8, 568 <_get_fn_array+0x38>
/home/fangjiang/workspace/optee-os/lib/libutee/arch/arm/user_ta_entry.c:88
     5a0:	f94000a8 	ldr	x8, [x5]
     5a4:	b4fffe28 	cbz	x8, 568 <_get_fn_array+0x38>
/home/fangjiang/workspace/optee-os/lib/libutee/arch/arm/user_ta_entry.c:90
     5a8:	eb01011f 	cmp	x8, x1
     5ac:	540000e1 	b.ne	5c8 <_get_fn_array+0x98>  // b.any
/home/fangjiang/workspace/optee-os/lib/libutee/arch/arm/user_ta_entry.c:91
     5b0:	f940000b 	ldr	x11, [x0]
     5b4:	f94004a8 	ldr	x8, [x5, #8]
     5b8:	8b0b0108 	add	x8, x8, x11
     5bc:	f9000068 	str	x8, [x3]
/home/fangjiang/workspace/optee-os/lib/libutee/arch/arm/user_ta_entry.c:96 (discriminator 2)
     5c0:	910040a5 	add	x5, x5, #0x10
/home/fangjiang/workspace/optee-os/lib/libutee/arch/arm/user_ta_entry.c:85 (discriminator 2)
     5c4:	17fffff1 	b	588 <_get_fn_array+0x58>
/home/fangjiang/workspace/optee-os/lib/libutee/arch/arm/user_ta_entry.c:93
     5c8:	eb02011f 	cmp	x8, x2
     5cc:	54ffffa1 	b.ne	5c0 <_get_fn_array+0x90>  // b.any
/home/fangjiang/workspace/optee-os/lib/libutee/arch/arm/user_ta_entry.c:94
     5d0:	f94004a8 	ldr	x8, [x5, #8]
     5d4:	d343fd08 	lsr	x8, x8, #3
     5d8:	f9000088 	str	x8, [x4]
     5dc:	17fffff9 	b	5c0 <_get_fn_array+0x90>

00000000000005e0 <_fini_iterate_phdr_cb>:
_fini_iterate_phdr_cb():
/home/fangjiang/workspace/optee-os/lib/libutee/arch/arm/user_ta_entry.c:135
     5e0:	d10103ff 	sub	sp, sp, #0x40
     5e4:	d0000061 	adrp	x1, e000 <_DYNAMIC>
/home/fangjiang/workspace/optee-os/lib/libutee/arch/arm/user_ta_entry.c:140
     5e8:	910043e4 	add	x4, sp, #0x10
     5ec:	910023e3 	add	x3, sp, #0x8
/home/fangjiang/workspace/optee-os/lib/libutee/arch/arm/user_ta_entry.c:135
     5f0:	a9027bfd 	stp	x29, x30, [sp, #32]
     5f4:	910083fd 	add	x29, sp, #0x20
     5f8:	f9409821 	ldr	x1, [x1, #304]
     5fc:	f9001bf3 	str	x19, [sp, #48]
/home/fangjiang/workspace/optee-os/lib/libutee/arch/arm/user_ta_entry.c:142
     600:	d2800033 	mov	x19, #0x1                   	// #1
/home/fangjiang/workspace/optee-os/lib/libutee/arch/arm/user_ta_entry.c:135
     604:	f9400022 	ldr	x2, [x1]
     608:	f9000fe2 	str	x2, [sp, #24]
     60c:	d2800002 	mov	x2, #0x0                   	// #0
/home/fangjiang/workspace/optee-os/lib/libutee/arch/arm/user_ta_entry.c:140
     610:	52800341 	mov	w1, #0x1a                  	// #26
     614:	52800382 	mov	w2, #0x1c                  	// #28
/home/fangjiang/workspace/optee-os/lib/libutee/arch/arm/user_ta_entry.c:137
     618:	a900ffff 	stp	xzr, xzr, [sp, #8]
/home/fangjiang/workspace/optee-os/lib/libutee/arch/arm/user_ta_entry.c:140
     61c:	97ffffc5 	bl	530 <_get_fn_array>
/home/fangjiang/workspace/optee-os/lib/libutee/arch/arm/user_ta_entry.c:142 (discriminator 1)
     620:	f9400be0 	ldr	x0, [sp, #16]
     624:	eb13001f 	cmp	x0, x19
     628:	54000122 	b.cs	64c <_fini_iterate_phdr_cb+0x6c>  // b.hs, b.nlast
/home/fangjiang/workspace/optee-os/lib/libutee/arch/arm/user_ta_entry.c:146
     62c:	d0000061 	adrp	x1, e000 <_DYNAMIC>
     630:	f9409821 	ldr	x1, [x1, #304]
     634:	f9400fe0 	ldr	x0, [sp, #24]
     638:	f9400022 	ldr	x2, [x1]
     63c:	eb020000 	subs	x0, x0, x2
     640:	d2800002 	mov	x2, #0x0                   	// #0
     644:	54000100 	b.eq	664 <_fini_iterate_phdr_cb+0x84>  // b.none
     648:	9400223e 	bl	8f40 <__stack_chk_fail>
/home/fangjiang/workspace/optee-os/lib/libutee/arch/arm/user_ta_entry.c:143 (discriminator 3)
     64c:	f94007e1 	ldr	x1, [sp, #8]
     650:	cb130000 	sub	x0, x0, x19
/home/fangjiang/workspace/optee-os/lib/libutee/arch/arm/user_ta_entry.c:142 (discriminator 3)
     654:	91000673 	add	x19, x19, #0x1
/home/fangjiang/workspace/optee-os/lib/libutee/arch/arm/user_ta_entry.c:143 (discriminator 3)
     658:	f8607820 	ldr	x0, [x1, x0, lsl #3]
     65c:	d63f0000 	blr	x0
/home/fangjiang/workspace/optee-os/lib/libutee/arch/arm/user_ta_entry.c:142 (discriminator 3)
     660:	17fffff0 	b	620 <_fini_iterate_phdr_cb+0x40>
/home/fangjiang/workspace/optee-os/lib/libutee/arch/arm/user_ta_entry.c:146
     664:	52800000 	mov	w0, #0x0                   	// #0
     668:	a9427bfd 	ldp	x29, x30, [sp, #32]
     66c:	f9401bf3 	ldr	x19, [sp, #48]
     670:	910103ff 	add	sp, sp, #0x40
     674:	d65f03c0 	ret

0000000000000678 <ta_header_get_session>:
ta_header_get_session():
/home/fangjiang/workspace/optee-os/lib/libutee/arch/arm/user_ta_entry.c:183
     678:	2a0003e1 	mov	w1, w0
/home/fangjiang/workspace/optee-os/lib/libutee/arch/arm/user_ta_entry.c:186
     67c:	d0000060 	adrp	x0, e000 <_DYNAMIC>
     680:	f941e400 	ldr	x0, [x0, #968]
/home/fangjiang/workspace/optee-os/lib/libutee/arch/arm/user_ta_entry.c:186 (discriminator 1)
     684:	b5000040 	cbnz	x0, 68c <ta_header_get_session+0x14>
/home/fangjiang/workspace/optee-os/lib/libutee/arch/arm/user_ta_entry.c:191
     688:	d65f03c0 	ret
/home/fangjiang/workspace/optee-os/lib/libutee/arch/arm/user_ta_entry.c:187
     68c:	b9400002 	ldr	w2, [x0]
     690:	6b01005f 	cmp	w2, w1
     694:	54ffffa0 	b.eq	688 <ta_header_get_session+0x10>  // b.none
/home/fangjiang/workspace/optee-os/lib/libutee/arch/arm/user_ta_entry.c:186 (discriminator 2)
     698:	f9400800 	ldr	x0, [x0, #16]
     69c:	17fffffa 	b	684 <ta_header_get_session+0xc>

00000000000006a0 <to_utee_params>:
to_utee_params():
/home/fangjiang/workspace/optee-os/lib/libutee/arch/arm/user_ta_entry.c:245
     6a0:	2a0103e3 	mov	w3, w1
     6a4:	f8008403 	str	x3, [x0], #8
     6a8:	52800003 	mov	w3, #0x0                   	// #0
/home/fangjiang/workspace/optee-os/lib/libutee/arch/arm/user_ta_entry.c:247
     6ac:	1ac32425 	lsr	w5, w1, w3
     6b0:	12000ca4 	and	w4, w5, #0xf
     6b4:	721e04bf 	tst	w5, #0xc
     6b8:	54000181 	b.ne	6e8 <to_utee_params+0x48>  // b.any
     6bc:	340001c4 	cbz	w4, 6f4 <to_utee_params+0x54>
/home/fangjiang/workspace/optee-os/lib/libutee/arch/arm/user_ta_entry.c:251
     6c0:	b9400044 	ldr	w4, [x2]
     6c4:	f9000004 	str	x4, [x0]
/home/fangjiang/workspace/optee-os/lib/libutee/arch/arm/user_ta_entry.c:252
     6c8:	b9400444 	ldr	w4, [x2, #4]
/home/fangjiang/workspace/optee-os/lib/libutee/arch/arm/user_ta_entry.c:246 (discriminator 2)
     6cc:	11001063 	add	w3, w3, #0x4
/home/fangjiang/workspace/optee-os/lib/libutee/arch/arm/user_ta_entry.c:252 (discriminator 2)
     6d0:	f9000404 	str	x4, [x0, #8]
/home/fangjiang/workspace/optee-os/lib/libutee/arch/arm/user_ta_entry.c:246 (discriminator 2)
     6d4:	91004042 	add	x2, x2, #0x10
     6d8:	91004000 	add	x0, x0, #0x10
     6dc:	7100407f 	cmp	w3, #0x10
     6e0:	54fffe61 	b.ne	6ac <to_utee_params+0xc>  // b.any
/home/fangjiang/workspace/optee-os/lib/libutee/arch/arm/user_ta_entry.c:266
     6e4:	d65f03c0 	ret
/home/fangjiang/workspace/optee-os/lib/libutee/arch/arm/user_ta_entry.c:247
     6e8:	51001484 	sub	w4, w4, #0x5
     6ec:	7100089f 	cmp	w4, #0x2
     6f0:	54000089 	b.ls	700 <to_utee_params+0x60>  // b.plast
/home/fangjiang/workspace/optee-os/lib/libutee/arch/arm/user_ta_entry.c:263
     6f4:	d2800004 	mov	x4, #0x0                   	// #0
/home/fangjiang/workspace/optee-os/lib/libutee/arch/arm/user_ta_entry.c:261
     6f8:	f900001f 	str	xzr, [x0]
/home/fangjiang/workspace/optee-os/lib/libutee/arch/arm/user_ta_entry.c:263
     6fc:	17fffff4 	b	6cc <to_utee_params+0x2c>
/home/fangjiang/workspace/optee-os/lib/libutee/arch/arm/user_ta_entry.c:257
     700:	f9400044 	ldr	x4, [x2]
     704:	f9000004 	str	x4, [x0]
/home/fangjiang/workspace/optee-os/lib/libutee/arch/arm/user_ta_entry.c:258
     708:	b9400844 	ldr	w4, [x2, #8]
/home/fangjiang/workspace/optee-os/lib/libutee/arch/arm/user_ta_entry.c:259
     70c:	17fffff0 	b	6cc <to_utee_params+0x2c>

0000000000000710 <from_utee_params>:
from_utee_params():
/home/fangjiang/workspace/optee-os/lib/libutee/arch/arm/user_ta_entry.c:273
     710:	f8408445 	ldr	x5, [x2], #8
     714:	52800003 	mov	w3, #0x0                   	// #0
     718:	2a0503e9 	mov	w9, w5
/home/fangjiang/workspace/optee-os/lib/libutee/arch/arm/user_ta_entry.c:279
     71c:	1ac32528 	lsr	w8, w9, w3
     720:	12000d04 	and	w4, w8, #0xf
/home/fangjiang/workspace/optee-os/lib/libutee/arch/arm/user_ta_entry.c:277
     724:	a9401847 	ldp	x7, x6, [x2]
/home/fangjiang/workspace/optee-os/lib/libutee/arch/arm/user_ta_entry.c:279
     728:	721e051f 	tst	w8, #0xc
     72c:	54000081 	b.ne	73c <from_utee_params+0x2c>  // b.any
     730:	340000c4 	cbz	w4, 748 <from_utee_params+0x38>
/home/fangjiang/workspace/optee-os/lib/libutee/arch/arm/user_ta_entry.c:284
     734:	29001807 	stp	w7, w6, [x0]
/home/fangjiang/workspace/optee-os/lib/libutee/arch/arm/user_ta_entry.c:285
     738:	14000004 	b	748 <from_utee_params+0x38>
/home/fangjiang/workspace/optee-os/lib/libutee/arch/arm/user_ta_entry.c:279
     73c:	51001484 	sub	w4, w4, #0x5
     740:	7100089f 	cmp	w4, #0x2
     744:	54000109 	b.ls	764 <from_utee_params+0x54>  // b.plast
/home/fangjiang/workspace/optee-os/lib/libutee/arch/arm/user_ta_entry.c:275 (discriminator 2)
     748:	11001063 	add	w3, w3, #0x4
     74c:	91004042 	add	x2, x2, #0x10
     750:	91004000 	add	x0, x0, #0x10
     754:	7100407f 	cmp	w3, #0x10
     758:	54fffe21 	b.ne	71c <from_utee_params+0xc>  // b.any
/home/fangjiang/workspace/optee-os/lib/libutee/arch/arm/user_ta_entry.c:298
     75c:	b9000025 	str	w5, [x1]
/home/fangjiang/workspace/optee-os/lib/libutee/arch/arm/user_ta_entry.c:299
     760:	d65f03c0 	ret
/home/fangjiang/workspace/optee-os/lib/libutee/arch/arm/user_ta_entry.c:289
     764:	f9000007 	str	x7, [x0]
/home/fangjiang/workspace/optee-os/lib/libutee/arch/arm/user_ta_entry.c:290
     768:	b9000806 	str	w6, [x0, #8]
/home/fangjiang/workspace/optee-os/lib/libutee/arch/arm/user_ta_entry.c:291
     76c:	17fffff7 	b	748 <from_utee_params+0x38>

0000000000000770 <_init_iterate_phdr_cb>:
_init_iterate_phdr_cb():
/home/fangjiang/workspace/optee-os/lib/libutee/arch/arm/user_ta_entry.c:55
     770:	a9bd7bfd 	stp	x29, x30, [sp, #-48]!
     774:	910003fd 	mov	x29, sp
     778:	a90153f3 	stp	x19, x20, [sp, #16]
     77c:	aa0203f4 	mov	x20, x2
     780:	f90013f5 	str	x21, [sp, #32]
     784:	aa0003f5 	mov	x21, x0
/home/fangjiang/workspace/optee-os/lib/libutee/arch/arm/user_ta_entry.c:59
     788:	d2800a00 	mov	x0, #0x50                  	// #80
     78c:	940020f9 	bl	8b70 <malloc>
/home/fangjiang/workspace/optee-os/lib/libutee/arch/arm/user_ta_entry.c:60
     790:	b5000140 	cbnz	x0, 7b8 <_init_iterate_phdr_cb+0x48>
/home/fangjiang/workspace/optee-os/lib/libutee/arch/arm/user_ta_entry.c:61
     794:	90000064 	adrp	x4, c000 <__text_end+0x1cb0>
     798:	90000060 	adrp	x0, c000 <__text_end+0x1cb0>
     79c:	911c1084 	add	x4, x4, #0x704
     7a0:	911c7400 	add	x0, x0, #0x71d
     7a4:	52800023 	mov	w3, #0x1                   	// #1
     7a8:	52800022 	mov	w2, #0x1                   	// #1
     7ac:	528007a1 	mov	w1, #0x3d                  	// #61
     7b0:	94002621 	bl	a034 <trace_printf>
/home/fangjiang/workspace/optee-os/lib/libutee/arch/arm/user_ta_entry.c:62
     7b4:	94000125 	bl	c48 <abort>
     7b8:	aa0003f3 	mov	x19, x0
/home/fangjiang/workspace/optee-os/lib/libutee/arch/arm/user_ta_entry.c:64
     7bc:	aa1503e1 	mov	x1, x21
     7c0:	d2800802 	mov	x2, #0x40                  	// #64
     7c4:	97fffe17 	bl	20 <memcpy>
/home/fangjiang/workspace/optee-os/lib/libutee/arch/arm/user_ta_entry.c:65
     7c8:	d0000060 	adrp	x0, e000 <_DYNAMIC>
     7cc:	910f2000 	add	x0, x0, #0x3c8
/home/fangjiang/workspace/optee-os/lib/libutee/arch/arm/user_ta_entry.c:68
     7d0:	f94013f5 	ldr	x21, [sp, #32]
/home/fangjiang/workspace/optee-os/lib/libutee/arch/arm/user_ta_entry.c:65
     7d4:	f9400c01 	ldr	x1, [x0, #24]
     7d8:	a904067f 	stp	xzr, x1, [x19, #64]
     7dc:	f9000033 	str	x19, [x1]
     7e0:	91010273 	add	x19, x19, #0x40
     7e4:	f9000c13 	str	x19, [x0, #24]
/home/fangjiang/workspace/optee-os/lib/libutee/arch/arm/user_ta_entry.c:66
     7e8:	f9400280 	ldr	x0, [x20]
     7ec:	91000400 	add	x0, x0, #0x1
     7f0:	f9000280 	str	x0, [x20]
/home/fangjiang/workspace/optee-os/lib/libutee/arch/arm/user_ta_entry.c:68
     7f4:	52800000 	mov	w0, #0x0                   	// #0
     7f8:	a94153f3 	ldp	x19, x20, [sp, #16]
     7fc:	a8c37bfd 	ldp	x29, x30, [sp], #48
     800:	d65f03c0 	ret

0000000000000804 <__utee_call_elf_init_fn>:
__utee_call_elf_init_fn():
/home/fangjiang/workspace/optee-os/lib/libutee/arch/arm/user_ta_entry.c:102
     804:	d101c3ff 	sub	sp, sp, #0x70
     808:	d0000060 	adrp	x0, e000 <_DYNAMIC>
     80c:	a9027bfd 	stp	x29, x30, [sp, #32]
     810:	910083fd 	add	x29, sp, #0x20
     814:	f9409800 	ldr	x0, [x0, #304]
     818:	a90353f3 	stp	x19, x20, [sp, #48]
/home/fangjiang/workspace/optee-os/lib/libutee/arch/arm/user_ta_entry.c:114
     81c:	d0000074 	adrp	x20, e000 <_DYNAMIC>
/home/fangjiang/workspace/optee-os/lib/libutee/arch/arm/user_ta_entry.c:102
     820:	a9045bf5 	stp	x21, x22, [sp, #64]
/home/fangjiang/workspace/optee-os/lib/libutee/arch/arm/user_ta_entry.c:106
     824:	d2800013 	mov	x19, #0x0                   	// #0
/home/fangjiang/workspace/optee-os/lib/libutee/arch/arm/user_ta_entry.c:102
     828:	a90563f7 	stp	x23, x24, [sp, #80]
/home/fangjiang/workspace/optee-os/lib/libutee/arch/arm/user_ta_entry.c:117
     82c:	910043f8 	add	x24, sp, #0x10
/home/fangjiang/workspace/optee-os/lib/libutee/arch/arm/user_ta_entry.c:115
     830:	d0000077 	adrp	x23, e000 <_DYNAMIC>
/home/fangjiang/workspace/optee-os/lib/libutee/arch/arm/user_ta_entry.c:102
     834:	f90033f9 	str	x25, [sp, #96]
/home/fangjiang/workspace/optee-os/lib/libutee/arch/arm/user_ta_entry.c:117
     838:	910003f9 	mov	x25, sp
/home/fangjiang/workspace/optee-os/lib/libutee/arch/arm/user_ta_entry.c:102
     83c:	f9400001 	ldr	x1, [x0]
     840:	f9000fe1 	str	x1, [sp, #24]
     844:	d2800001 	mov	x1, #0x0                   	// #0
/home/fangjiang/workspace/optee-os/lib/libutee/arch/arm/user_ta_entry.c:111
     848:	90000000 	adrp	x0, 0 <ta_head>
     84c:	910023e1 	add	x1, sp, #0x8
     850:	911dc000 	add	x0, x0, #0x770
/home/fangjiang/workspace/optee-os/lib/libutee/arch/arm/user_ta_entry.c:104
     854:	a9007fff 	stp	xzr, xzr, [sp]
/home/fangjiang/workspace/optee-os/lib/libutee/arch/arm/user_ta_entry.c:105
     858:	f9000bff 	str	xzr, [sp, #16]
/home/fangjiang/workspace/optee-os/lib/libutee/arch/arm/user_ta_entry.c:111
     85c:	94000cee 	bl	3c14 <dl_iterate_phdr>
/home/fangjiang/workspace/optee-os/lib/libutee/arch/arm/user_ta_entry.c:114
     860:	910f2280 	add	x0, x20, #0x3c8
     864:	f9400c00 	ldr	x0, [x0, #24]
     868:	f9400400 	ldr	x0, [x0, #8]
     86c:	f9400015 	ldr	x21, [x0]
/home/fangjiang/workspace/optee-os/lib/libutee/arch/arm/user_ta_entry.c:115 (discriminator 1)
     870:	f9421ae1 	ldr	x1, [x23, #1072]
/home/fangjiang/workspace/optee-os/lib/libutee/arch/arm/user_ta_entry.c:114 (discriminator 1)
     874:	b5000155 	cbnz	x21, 89c <__utee_call_elf_init_fn+0x98>
/home/fangjiang/workspace/optee-os/lib/libutee/arch/arm/user_ta_entry.c:127
     878:	910f2294 	add	x20, x20, #0x3c8
/home/fangjiang/workspace/optee-os/lib/libutee/arch/arm/user_ta_entry.c:125
     87c:	8b010273 	add	x19, x19, x1
     880:	f9021af3 	str	x19, [x23, #1072]
/home/fangjiang/workspace/optee-os/lib/libutee/arch/arm/user_ta_entry.c:127
     884:	f9400a80 	ldr	x0, [x20, #16]
/home/fangjiang/workspace/optee-os/lib/libutee/arch/arm/user_ta_entry.c:127 (discriminator 2)
     888:	b40004a0 	cbz	x0, 91c <__utee_call_elf_init_fn+0x118>
/home/fangjiang/workspace/optee-os/lib/libutee/arch/arm/user_ta_entry.c:128 (discriminator 3)
     88c:	a9440413 	ldp	x19, x1, [x0, #64]
     890:	b50003b3 	cbnz	x19, 904 <__utee_call_elf_init_fn+0x100>
/home/fangjiang/workspace/optee-os/lib/libutee/arch/arm/user_ta_entry.c:128 (discriminator 2)
     894:	f9000e81 	str	x1, [x20, #24]
     898:	1400001c 	b	908 <__utee_call_elf_init_fn+0x104>
/home/fangjiang/workspace/optee-os/lib/libutee/arch/arm/user_ta_entry.c:115
     89c:	f94007e0 	ldr	x0, [sp, #8]
     8a0:	cb010000 	sub	x0, x0, x1
     8a4:	eb13001f 	cmp	x0, x19
     8a8:	54fffe80 	b.eq	878 <__utee_call_elf_init_fn+0x74>  // b.none
/home/fangjiang/workspace/optee-os/lib/libutee/arch/arm/user_ta_entry.c:119
     8ac:	d2800016 	mov	x22, #0x0                   	// #0
/home/fangjiang/workspace/optee-os/lib/libutee/arch/arm/user_ta_entry.c:117
     8b0:	aa1803e4 	mov	x4, x24
     8b4:	aa1903e3 	mov	x3, x25
     8b8:	aa1503e0 	mov	x0, x21
     8bc:	52800362 	mov	w2, #0x1b                  	// #27
     8c0:	52800321 	mov	w1, #0x19                  	// #25
     8c4:	97ffff1b 	bl	530 <_get_fn_array>
/home/fangjiang/workspace/optee-os/lib/libutee/arch/arm/user_ta_entry.c:119 (discriminator 1)
     8c8:	f9400be0 	ldr	x0, [sp, #16]
     8cc:	eb16001f 	cmp	x0, x22
     8d0:	54000108 	b.hi	8f0 <__utee_call_elf_init_fn+0xec>  // b.pmore
/home/fangjiang/workspace/optee-os/lib/libutee/arch/arm/user_ta_entry.c:114 (discriminator 2)
     8d4:	f94026a0 	ldr	x0, [x21, #72]
/home/fangjiang/workspace/optee-os/lib/libutee/arch/arm/user_ta_entry.c:123 (discriminator 2)
     8d8:	91000673 	add	x19, x19, #0x1
/home/fangjiang/workspace/optee-os/lib/libutee/arch/arm/user_ta_entry.c:121 (discriminator 2)
     8dc:	f90003ff 	str	xzr, [sp]
/home/fangjiang/workspace/optee-os/lib/libutee/arch/arm/user_ta_entry.c:122 (discriminator 2)
     8e0:	f9000bff 	str	xzr, [sp, #16]
/home/fangjiang/workspace/optee-os/lib/libutee/arch/arm/user_ta_entry.c:114 (discriminator 2)
     8e4:	f9400400 	ldr	x0, [x0, #8]
     8e8:	f9400015 	ldr	x21, [x0]
     8ec:	17ffffe1 	b	870 <__utee_call_elf_init_fn+0x6c>
/home/fangjiang/workspace/optee-os/lib/libutee/arch/arm/user_ta_entry.c:120 (discriminator 3)
     8f0:	f94003e0 	ldr	x0, [sp]
     8f4:	f8767800 	ldr	x0, [x0, x22, lsl #3]
/home/fangjiang/workspace/optee-os/lib/libutee/arch/arm/user_ta_entry.c:119 (discriminator 3)
     8f8:	910006d6 	add	x22, x22, #0x1
/home/fangjiang/workspace/optee-os/lib/libutee/arch/arm/user_ta_entry.c:120 (discriminator 3)
     8fc:	d63f0000 	blr	x0
/home/fangjiang/workspace/optee-os/lib/libutee/arch/arm/user_ta_entry.c:119 (discriminator 3)
     900:	17fffff2 	b	8c8 <__utee_call_elf_init_fn+0xc4>
/home/fangjiang/workspace/optee-os/lib/libutee/arch/arm/user_ta_entry.c:128 (discriminator 1)
     904:	f9002661 	str	x1, [x19, #72]
/home/fangjiang/workspace/optee-os/lib/libutee/arch/arm/user_ta_entry.c:128 (discriminator 4)
     908:	f9402401 	ldr	x1, [x0, #72]
     90c:	f9000033 	str	x19, [x1]
/home/fangjiang/workspace/optee-os/lib/libutee/arch/arm/user_ta_entry.c:129 (discriminator 4)
     910:	940020b2 	bl	8bd8 <free>
/home/fangjiang/workspace/optee-os/lib/libutee/arch/arm/user_ta_entry.c:127 (discriminator 4)
     914:	aa1303e0 	mov	x0, x19
     918:	17ffffdc 	b	888 <__utee_call_elf_init_fn+0x84>
/home/fangjiang/workspace/optee-os/lib/libutee/arch/arm/user_ta_entry.c:131
     91c:	d0000060 	adrp	x0, e000 <_DYNAMIC>
     920:	f9409800 	ldr	x0, [x0, #304]
     924:	f9400fe2 	ldr	x2, [sp, #24]
     928:	f9400001 	ldr	x1, [x0]
     92c:	eb010042 	subs	x2, x2, x1
     930:	d2800001 	mov	x1, #0x0                   	// #0
     934:	54000040 	b.eq	93c <__utee_call_elf_init_fn+0x138>  // b.none
     938:	94002182 	bl	8f40 <__stack_chk_fail>
     93c:	a9427bfd 	ldp	x29, x30, [sp, #32]
     940:	a94353f3 	ldp	x19, x20, [sp, #48]
     944:	a9445bf5 	ldp	x21, x22, [sp, #64]
     948:	a94563f7 	ldp	x23, x24, [sp, #80]
     94c:	f94033f9 	ldr	x25, [sp, #96]
     950:	9101c3ff 	add	sp, sp, #0x70
     954:	d65f03c0 	ret

0000000000000958 <__utee_call_elf_fini_fn>:
__utee_call_elf_fini_fn():
/home/fangjiang/workspace/optee-os/lib/libutee/arch/arm/user_ta_entry.c:150
     958:	d2800001 	mov	x1, #0x0                   	// #0
     95c:	90000000 	adrp	x0, 0 <ta_head>
     960:	91178000 	add	x0, x0, #0x5e0
     964:	14000cac 	b	3c14 <dl_iterate_phdr>

0000000000000968 <ta_header_remove_session>:
ta_header_remove_session():
/home/fangjiang/workspace/optee-os/lib/libutee/arch/arm/user_ta_entry.c:220
     968:	a9be7bfd 	stp	x29, x30, [sp, #-32]!
     96c:	2a0003e2 	mov	w2, w0
     970:	910003fd 	mov	x29, sp
     974:	f9000bf3 	str	x19, [sp, #16]
/home/fangjiang/workspace/optee-os/lib/libutee/arch/arm/user_ta_entry.c:224
     978:	d0000073 	adrp	x19, e000 <_DYNAMIC>
     97c:	f941e660 	ldr	x0, [x19, #968]
/home/fangjiang/workspace/optee-os/lib/libutee/arch/arm/user_ta_entry.c:224 (discriminator 1)
     980:	b5000080 	cbnz	x0, 990 <ta_header_remove_session+0x28>
/home/fangjiang/workspace/optee-os/lib/libutee/arch/arm/user_ta_entry.c:238
     984:	f9400bf3 	ldr	x19, [sp, #16]
     988:	a8c27bfd 	ldp	x29, x30, [sp], #32
     98c:	d65f03c0 	ret
/home/fangjiang/workspace/optee-os/lib/libutee/arch/arm/user_ta_entry.c:225
     990:	b9400003 	ldr	w3, [x0]
/home/fangjiang/workspace/optee-os/lib/libutee/arch/arm/user_ta_entry.c:226
     994:	f9400801 	ldr	x1, [x0, #16]
/home/fangjiang/workspace/optee-os/lib/libutee/arch/arm/user_ta_entry.c:225
     998:	6b02007f 	cmp	w3, w2
     99c:	540002c1 	b.ne	9f4 <ta_header_remove_session+0x8c>  // b.any
/home/fangjiang/workspace/optee-os/lib/libutee/arch/arm/user_ta_entry.c:226
     9a0:	f9400c02 	ldr	x2, [x0, #24]
     9a4:	b4000221 	cbz	x1, 9e8 <ta_header_remove_session+0x80>
/home/fangjiang/workspace/optee-os/lib/libutee/arch/arm/user_ta_entry.c:226 (discriminator 1)
     9a8:	f9000c22 	str	x2, [x1, #24]
/home/fangjiang/workspace/optee-os/lib/libutee/arch/arm/user_ta_entry.c:226 (discriminator 4)
     9ac:	f9400c02 	ldr	x2, [x0, #24]
     9b0:	f9000041 	str	x1, [x2]
/home/fangjiang/workspace/optee-os/lib/libutee/arch/arm/user_ta_entry.c:227 (discriminator 4)
     9b4:	9400034f 	bl	16f0 <TEE_Free>
/home/fangjiang/workspace/optee-os/lib/libutee/arch/arm/user_ta_entry.c:230 (discriminator 4)
     9b8:	d0000060 	adrp	x0, e000 <_DYNAMIC>
     9bc:	f940c800 	ldr	x0, [x0, #400]
     9c0:	f9400801 	ldr	x1, [x0, #16]
/home/fangjiang/workspace/optee-os/lib/libutee/arch/arm/user_ta_entry.c:232 (discriminator 4)
     9c4:	f941e660 	ldr	x0, [x19, #968]
     9c8:	b5fffde0 	cbnz	x0, 984 <ta_header_remove_session+0x1c>
/home/fangjiang/workspace/optee-os/lib/libutee/arch/arm/user_ta_entry.c:232 (discriminator 1)
     9cc:	d2c00280 	mov	x0, #0x1400000000          	// #85899345920
     9d0:	ea21001f 	bics	xzr, x0, x1
     9d4:	54fffd80 	b.eq	984 <ta_header_remove_session+0x1c>  // b.none
uninit_instance():
/home/fangjiang/workspace/optee-os/lib/libutee/arch/arm/user_ta_entry.c:167
     9d8:	97fffdfb 	bl	1c4 <TA_DestroyEntryPoint>
ta_header_remove_session():
/home/fangjiang/workspace/optee-os/lib/libutee/arch/arm/user_ta_entry.c:238
     9dc:	f9400bf3 	ldr	x19, [sp, #16]
     9e0:	a8c27bfd 	ldp	x29, x30, [sp], #32
uninit_instance():
/home/fangjiang/workspace/optee-os/lib/libutee/arch/arm/user_ta_entry.c:168
     9e4:	17ffffdd 	b	958 <__utee_call_elf_fini_fn>
ta_header_remove_session():
/home/fangjiang/workspace/optee-os/lib/libutee/arch/arm/user_ta_entry.c:226 (discriminator 2)
     9e8:	910f2263 	add	x3, x19, #0x3c8
     9ec:	f9000462 	str	x2, [x3, #8]
     9f0:	17ffffef 	b	9ac <ta_header_remove_session+0x44>
/home/fangjiang/workspace/optee-os/lib/libutee/arch/arm/user_ta_entry.c:226
     9f4:	aa0103e0 	mov	x0, x1
     9f8:	17ffffe2 	b	980 <ta_header_remove_session+0x18>

00000000000009fc <__utee_entry>:
__utee_entry():
/home/fangjiang/workspace/optee-os/lib/libutee/arch/arm/user_ta_entry.c:366
     9fc:	d10243ff 	sub	sp, sp, #0x90
     a00:	d0000064 	adrp	x4, e000 <_DYNAMIC>
/home/fangjiang/workspace/optee-os/lib/libutee/arch/arm/user_ta_entry.c:369
     a04:	f100041f 	cmp	x0, #0x1
/home/fangjiang/workspace/optee-os/lib/libutee/arch/arm/user_ta_entry.c:366
     a08:	a9057bfd 	stp	x29, x30, [sp, #80]
     a0c:	910143fd 	add	x29, sp, #0x50
     a10:	a9075bf5 	stp	x21, x22, [sp, #112]
     a14:	aa0103f5 	mov	x21, x1
     a18:	aa0203f6 	mov	x22, x2
     a1c:	f9409881 	ldr	x1, [x4, #304]
     a20:	a90653f3 	stp	x19, x20, [sp, #96]
     a24:	aa0403f4 	mov	x20, x4
     a28:	a90863f7 	stp	x23, x24, [sp, #128]
     a2c:	f9400022 	ldr	x2, [x1]
     a30:	f90027e2 	str	x2, [sp, #72]
     a34:	d2800002 	mov	x2, #0x0                   	// #0
/home/fangjiang/workspace/optee-os/lib/libutee/arch/arm/user_ta_entry.c:369
     a38:	54000a40 	b.eq	b80 <__utee_entry+0x184>  // b.none
     a3c:	f100081f 	cmp	x0, #0x2
     a40:	54000b20 	b.eq	ba4 <__utee_entry+0x1a8>  // b.none
     a44:	b5000e80 	cbnz	x0, c14 <__utee_entry+0x218>
ta_header_add_session():
/home/fangjiang/workspace/optee-os/lib/libutee/arch/arm/user_ta_entry.c:195
     a48:	2a1503e0 	mov	w0, w21
     a4c:	97ffff0b 	bl	678 <ta_header_get_session>
/home/fangjiang/workspace/optee-os/lib/libutee/arch/arm/user_ta_entry.c:198
     a50:	b50005e0 	cbnz	x0, b0c <__utee_entry+0x110>
/home/fangjiang/workspace/optee-os/lib/libutee/arch/arm/user_ta_entry.c:201
     a54:	d0000060 	adrp	x0, e000 <_DYNAMIC>
     a58:	9110c000 	add	x0, x0, #0x430
     a5c:	39402001 	ldrb	w1, [x0, #8]
     a60:	340000e1 	cbz	w1, a7c <__utee_entry+0x80>
/home/fangjiang/workspace/optee-os/lib/libutee/arch/arm/user_ta_entry.c:208
     a64:	52b00001 	mov	w1, #0x80000000            	// #-2147483648
     a68:	52800400 	mov	w0, #0x20                  	// #32
     a6c:	94000307 	bl	1688 <TEE_Malloc>
/home/fangjiang/workspace/optee-os/lib/libutee/arch/arm/user_ta_entry.c:210
     a70:	b50003c0 	cbnz	x0, ae8 <__utee_entry+0xec>
/home/fangjiang/workspace/optee-os/lib/libutee/arch/arm/user_ta_entry.c:211
     a74:	129ffe73 	mov	w19, #0xffff000c            	// #-65524
     a78:	1400000f 	b	ab4 <__utee_entry+0xb8>
/home/fangjiang/workspace/optee-os/lib/libutee/arch/arm/user_ta_entry.c:202
     a7c:	52800021 	mov	w1, #0x1                   	// #1
     a80:	39002001 	strb	w1, [x0, #8]
init_instance():
/home/fangjiang/workspace/optee-os/lib/libutee/arch/arm/user_ta_entry.c:155
     a84:	97fffdfe 	bl	27c <tahead_get_trace_level>
     a88:	940024d7 	bl	9de4 <trace_set_level>
/home/fangjiang/workspace/optee-os/lib/libutee/arch/arm/user_ta_entry.c:157
     a8c:	f9409e80 	ldr	x0, [x20, #312]
     a90:	f9400001 	ldr	x1, [x0]
     a94:	f940b280 	ldr	x0, [x20, #352]
     a98:	94002060 	bl	8c18 <malloc_add_pool>
/home/fangjiang/workspace/optee-os/lib/libutee/arch/arm/user_ta_entry.c:158
     a9c:	94000548 	bl	1fbc <_TEE_MathAPI_Init>
/home/fangjiang/workspace/optee-os/lib/libutee/arch/arm/user_ta_entry.c:159
     aa0:	94000bc6 	bl	39b8 <__utee_tcb_init>
/home/fangjiang/workspace/optee-os/lib/libutee/arch/arm/user_ta_entry.c:160
     aa4:	97ffff58 	bl	804 <__utee_call_elf_init_fn>
/home/fangjiang/workspace/optee-os/lib/libutee/arch/arm/user_ta_entry.c:161
     aa8:	97fffdc5 	bl	1bc <TA_CreateEntryPoint>
     aac:	2a0003f3 	mov	w19, w0
ta_header_add_session():
/home/fangjiang/workspace/optee-os/lib/libutee/arch/arm/user_ta_entry.c:204
     ab0:	34fffda0 	cbz	w0, a64 <__utee_entry+0x68>
ta_header_save_params():
/home/fangjiang/workspace/optee-os/lib/libutee/arch/arm/user_ta_entry.c:174
     ab4:	f940ba80 	ldr	x0, [x20, #368]
/home/fangjiang/workspace/optee-os/lib/libutee/arch/arm/user_ta_entry.c:179
     ab8:	4f000400 	movi	v0.4s, #0x0
/home/fangjiang/workspace/optee-os/lib/libutee/arch/arm/user_ta_entry.c:174
     abc:	b900001f 	str	wzr, [x0]
/home/fangjiang/workspace/optee-os/lib/libutee/arch/arm/user_ta_entry.c:179
     ac0:	f940c280 	ldr	x0, [x20, #384]
__utee_entry():
/home/fangjiang/workspace/optee-os/lib/libutee/arch/arm/user_ta_entry.c:387
     ac4:	f9409a94 	ldr	x20, [x20, #304]
ta_header_save_params():
/home/fangjiang/workspace/optee-os/lib/libutee/arch/arm/user_ta_entry.c:179
     ac8:	ad000000 	stp	q0, q0, [x0]
     acc:	ad010000 	stp	q0, q0, [x0, #32]
__utee_entry():
/home/fangjiang/workspace/optee-os/lib/libutee/arch/arm/user_ta_entry.c:387
     ad0:	f94027e0 	ldr	x0, [sp, #72]
     ad4:	f9400281 	ldr	x1, [x20]
     ad8:	eb010000 	subs	x0, x0, x1
     adc:	d2800001 	mov	x1, #0x0                   	// #0
     ae0:	54000a60 	b.eq	c2c <__utee_entry+0x230>  // b.none
     ae4:	94002117 	bl	8f40 <__stack_chk_fail>
ta_header_add_session():
/home/fangjiang/workspace/optee-os/lib/libutee/arch/arm/user_ta_entry.c:214
     ae8:	d0000061 	adrp	x1, e000 <_DYNAMIC>
     aec:	910f2021 	add	x1, x1, #0x3c8
     af0:	f9400422 	ldr	x2, [x1, #8]
/home/fangjiang/workspace/optee-os/lib/libutee/arch/arm/user_ta_entry.c:212
     af4:	b9000015 	str	w21, [x0]
/home/fangjiang/workspace/optee-os/lib/libutee/arch/arm/user_ta_entry.c:214
     af8:	a900fc1f 	stp	xzr, xzr, [x0, #8]
     afc:	f9000c02 	str	x2, [x0, #24]
     b00:	f9000040 	str	x0, [x2]
     b04:	91004000 	add	x0, x0, #0x10
     b08:	f9000420 	str	x0, [x1, #8]
entry_open_session():
/home/fangjiang/workspace/optee-os/lib/libutee/arch/arm/user_ta_entry.c:313
     b0c:	2a1503e0 	mov	w0, w21
     b10:	97fffeda 	bl	678 <ta_header_get_session>
     b14:	aa0003f3 	mov	x19, x0
/home/fangjiang/workspace/optee-os/lib/libutee/arch/arm/user_ta_entry.c:314
     b18:	b4000860 	cbz	x0, c24 <__utee_entry+0x228>
/home/fangjiang/workspace/optee-os/lib/libutee/arch/arm/user_ta_entry.c:317
     b1c:	910023f7 	add	x23, sp, #0x8
     b20:	aa1603e2 	mov	x2, x22
     b24:	910013e1 	add	x1, sp, #0x4
     b28:	aa1703e0 	mov	x0, x23
     b2c:	97fffef9 	bl	710 <from_utee_params>
/home/fangjiang/workspace/optee-os/lib/libutee/arch/arm/user_ta_entry.c:318
     b30:	b94007f8 	ldr	w24, [sp, #4]
ta_header_save_params():
/home/fangjiang/workspace/optee-os/lib/libutee/arch/arm/user_ta_entry.c:174
     b34:	f940ba80 	ldr	x0, [x20, #368]
/home/fangjiang/workspace/optee-os/lib/libutee/arch/arm/user_ta_entry.c:177
     b38:	aa1703e1 	mov	x1, x23
     b3c:	d2800802 	mov	x2, #0x40                  	// #64
/home/fangjiang/workspace/optee-os/lib/libutee/arch/arm/user_ta_entry.c:174
     b40:	b9000018 	str	w24, [x0]
/home/fangjiang/workspace/optee-os/lib/libutee/arch/arm/user_ta_entry.c:177
     b44:	f940c280 	ldr	x0, [x20, #384]
     b48:	97fffd36 	bl	20 <memcpy>
entry_open_session():
/home/fangjiang/workspace/optee-os/lib/libutee/arch/arm/user_ta_entry.c:320
     b4c:	91002262 	add	x2, x19, #0x8
     b50:	aa1703e1 	mov	x1, x23
     b54:	2a1803e0 	mov	w0, w24
     b58:	97fffd9c 	bl	1c8 <TA_OpenSessionEntryPoint>
/home/fangjiang/workspace/optee-os/lib/libutee/arch/arm/user_ta_entry.c:323
     b5c:	aa1703e2 	mov	x2, x23
/home/fangjiang/workspace/optee-os/lib/libutee/arch/arm/user_ta_entry.c:320
     b60:	2a0003f3 	mov	w19, w0
/home/fangjiang/workspace/optee-os/lib/libutee/arch/arm/user_ta_entry.c:323
     b64:	2a1803e1 	mov	w1, w24
     b68:	aa1603e0 	mov	x0, x22
     b6c:	97fffecd 	bl	6a0 <to_utee_params>
/home/fangjiang/workspace/optee-os/lib/libutee/arch/arm/user_ta_entry.c:325
     b70:	34fffa33 	cbz	w19, ab4 <__utee_entry+0xb8>
/home/fangjiang/workspace/optee-os/lib/libutee/arch/arm/user_ta_entry.c:326
     b74:	2a1503e0 	mov	w0, w21
     b78:	97ffff7c 	bl	968 <ta_header_remove_session>
     b7c:	17ffffce 	b	ab4 <__utee_entry+0xb8>
entry_close_session():
/home/fangjiang/workspace/optee-os/lib/libutee/arch/arm/user_ta_entry.c:332
     b80:	2a1503e0 	mov	w0, w21
     b84:	97fffebd 	bl	678 <ta_header_get_session>
/home/fangjiang/workspace/optee-os/lib/libutee/arch/arm/user_ta_entry.c:334
     b88:	b40004e0 	cbz	x0, c24 <__utee_entry+0x228>
/home/fangjiang/workspace/optee-os/lib/libutee/arch/arm/user_ta_entry.c:337
     b8c:	f9400400 	ldr	x0, [x0, #8]
/home/fangjiang/workspace/optee-os/lib/libutee/arch/arm/user_ta_entry.c:340
     b90:	52800013 	mov	w19, #0x0                   	// #0
/home/fangjiang/workspace/optee-os/lib/libutee/arch/arm/user_ta_entry.c:337
     b94:	97fffd8f 	bl	1d0 <TA_CloseSessionEntryPoint>
/home/fangjiang/workspace/optee-os/lib/libutee/arch/arm/user_ta_entry.c:339
     b98:	2a1503e0 	mov	w0, w21
     b9c:	97ffff73 	bl	968 <ta_header_remove_session>
/home/fangjiang/workspace/optee-os/lib/libutee/arch/arm/user_ta_entry.c:340
     ba0:	17ffffc5 	b	ab4 <__utee_entry+0xb8>
entry_invoke_command():
/home/fangjiang/workspace/optee-os/lib/libutee/arch/arm/user_ta_entry.c:349
     ba4:	2a1503e0 	mov	w0, w21
     ba8:	97fffeb4 	bl	678 <ta_header_get_session>
     bac:	aa0003f3 	mov	x19, x0
/home/fangjiang/workspace/optee-os/lib/libutee/arch/arm/user_ta_entry.c:351
     bb0:	b40003a0 	cbz	x0, c24 <__utee_entry+0x228>
/home/fangjiang/workspace/optee-os/lib/libutee/arch/arm/user_ta_entry.c:354
     bb4:	910023f5 	add	x21, sp, #0x8
     bb8:	aa0303f7 	mov	x23, x3
     bbc:	aa1603e2 	mov	x2, x22
     bc0:	910013e1 	add	x1, sp, #0x4
     bc4:	aa1503e0 	mov	x0, x21
     bc8:	97fffed2 	bl	710 <from_utee_params>
ta_header_save_params():
/home/fangjiang/workspace/optee-os/lib/libutee/arch/arm/user_ta_entry.c:174
     bcc:	f940ba80 	ldr	x0, [x20, #368]
/home/fangjiang/workspace/optee-os/lib/libutee/arch/arm/user_ta_entry.c:177
     bd0:	aa1503e1 	mov	x1, x21
entry_invoke_command():
/home/fangjiang/workspace/optee-os/lib/libutee/arch/arm/user_ta_entry.c:355
     bd4:	b94007f8 	ldr	w24, [sp, #4]
ta_header_save_params():
/home/fangjiang/workspace/optee-os/lib/libutee/arch/arm/user_ta_entry.c:177
     bd8:	d2800802 	mov	x2, #0x40                  	// #64
/home/fangjiang/workspace/optee-os/lib/libutee/arch/arm/user_ta_entry.c:174
     bdc:	b9000018 	str	w24, [x0]
/home/fangjiang/workspace/optee-os/lib/libutee/arch/arm/user_ta_entry.c:177
     be0:	f940c280 	ldr	x0, [x20, #384]
     be4:	97fffd0f 	bl	20 <memcpy>
entry_invoke_command():
/home/fangjiang/workspace/optee-os/lib/libutee/arch/arm/user_ta_entry.c:357
     be8:	f9400660 	ldr	x0, [x19, #8]
     bec:	aa1503e3 	mov	x3, x21
     bf0:	2a1803e2 	mov	w2, w24
     bf4:	2a1703e1 	mov	w1, w23
     bf8:	97fffd77 	bl	1d4 <TA_InvokeCommandEntryPoint>
     bfc:	2a0003f3 	mov	w19, w0
/home/fangjiang/workspace/optee-os/lib/libutee/arch/arm/user_ta_entry.c:360
     c00:	aa1503e2 	mov	x2, x21
     c04:	2a1803e1 	mov	w1, w24
     c08:	aa1603e0 	mov	x0, x22
     c0c:	97fffea5 	bl	6a0 <to_utee_params>
/home/fangjiang/workspace/optee-os/lib/libutee/arch/arm/user_ta_entry.c:361
     c10:	17ffffa9 	b	ab4 <__utee_entry+0xb8>
__utee_entry():
/home/fangjiang/workspace/optee-os/lib/libutee/arch/arm/user_ta_entry.c:381
     c14:	52800000 	mov	w0, #0x0                   	// #0
/home/fangjiang/workspace/optee-os/lib/libutee/arch/arm/user_ta_entry.c:380
     c18:	12800013 	mov	w19, #0xffffffff            	// #-1
/home/fangjiang/workspace/optee-os/lib/libutee/arch/arm/user_ta_entry.c:381
     c1c:	94000a60 	bl	359c <TEE_Panic>
/home/fangjiang/workspace/optee-os/lib/libutee/arch/arm/user_ta_entry.c:382
     c20:	17ffffa5 	b	ab4 <__utee_entry+0xb8>
entry_close_session():
/home/fangjiang/workspace/optee-os/lib/libutee/arch/arm/user_ta_entry.c:335
     c24:	129fff13 	mov	w19, #0xffff0007            	// #-65529
     c28:	17ffffa3 	b	ab4 <__utee_entry+0xb8>
__utee_entry():
/home/fangjiang/workspace/optee-os/lib/libutee/arch/arm/user_ta_entry.c:387
     c2c:	2a1303e0 	mov	w0, w19
     c30:	a9457bfd 	ldp	x29, x30, [sp, #80]
     c34:	a94653f3 	ldp	x19, x20, [sp, #96]
     c38:	a9475bf5 	ldp	x21, x22, [sp, #112]
     c3c:	a94863f7 	ldp	x23, x24, [sp, #128]
     c40:	910243ff 	add	sp, sp, #0x90
     c44:	d65f03c0 	ret

0000000000000c48 <abort>:
abort():
/home/fangjiang/workspace/optee-os/lib/libutee/abort.c:12
     c48:	a9bf7bfd 	stp	x29, x30, [sp, #-16]!
/home/fangjiang/workspace/optee-os/lib/libutee/abort.c:13
     c4c:	90000060 	adrp	x0, c000 <__text_end+0x1cb0>
     c50:	911ccc00 	add	x0, x0, #0x733
/home/fangjiang/workspace/optee-os/lib/libutee/abort.c:12
     c54:	910003fd 	mov	x29, sp
/home/fangjiang/workspace/optee-os/lib/libutee/abort.c:13
     c58:	94000050 	bl	d98 <puts>
/home/fangjiang/workspace/optee-os/lib/libutee/abort.c:14
     c5c:	d2800000 	mov	x0, #0x0                   	// #0
     c60:	97fffd89 	bl	284 <_utee_panic>
/home/fangjiang/workspace/optee-os/lib/libutee/abort.c:16 (discriminator 1)
     c64:	14000000 	b	c64 <abort+0x1c>

0000000000000c68 <trace_ext_puts>:
trace_ext_puts():
/home/fangjiang/workspace/optee-os/lib/libutee/trace_ext.c:22
     c68:	a9be7bfd 	stp	x29, x30, [sp, #-32]!
     c6c:	910003fd 	mov	x29, sp
     c70:	f9000bf3 	str	x19, [sp, #16]
     c74:	aa0003f3 	mov	x19, x0
/home/fangjiang/workspace/optee-os/lib/libutee/trace_ext.c:26
     c78:	940020d1 	bl	8fbc <strlen>
     c7c:	aa0003e1 	mov	x1, x0
     c80:	aa1303e0 	mov	x0, x19
/home/fangjiang/workspace/optee-os/lib/libutee/trace_ext.c:28
     c84:	f9400bf3 	ldr	x19, [sp, #16]
     c88:	a8c27bfd 	ldp	x29, x30, [sp], #32
/home/fangjiang/workspace/optee-os/lib/libutee/trace_ext.c:26
     c8c:	17fffd84 	b	29c <_utee_log>

0000000000000c90 <trace_ext_get_thread_id>:
trace_ext_get_thread_id():
/home/fangjiang/workspace/optee-os/lib/libutee/trace_ext.c:33
     c90:	12800000 	mov	w0, #0xffffffff            	// #-1
     c94:	d65f03c0 	ret

0000000000000c98 <printf>:
printf():
/home/fangjiang/workspace/optee-os/lib/libutee/trace_ext.c:41
     c98:	d108c3ff 	sub	sp, sp, #0x230
     c9c:	a9157bfd 	stp	x29, x30, [sp, #336]
     ca0:	910543fd 	add	x29, sp, #0x150
     ca4:	a91653f3 	stp	x19, x20, [sp, #352]
     ca8:	aa0003f3 	mov	x19, x0
     cac:	910823e0 	add	x0, sp, #0x208
     cb0:	a91f8be1 	stp	x1, x2, [sp, #504]
     cb4:	d0000061 	adrp	x1, e000 <_DYNAMIC>
     cb8:	3d805fe0 	str	q0, [sp, #368]
     cbc:	3d8063e1 	str	q1, [sp, #384]
     cc0:	3d8067e2 	str	q2, [sp, #400]
     cc4:	3d806be3 	str	q3, [sp, #416]
     cc8:	3d806fe4 	str	q4, [sp, #432]
     ccc:	3d8073e5 	str	q5, [sp, #448]
     cd0:	3d8077e6 	str	q6, [sp, #464]
     cd4:	3d807be7 	str	q7, [sp, #480]
     cd8:	f9409821 	ldr	x1, [x1, #304]
     cdc:	a9001003 	stp	x3, x4, [x0]
     ce0:	a9011805 	stp	x5, x6, [x0, #16]
     ce4:	f90117e7 	str	x7, [sp, #552]
     ce8:	f9400020 	ldr	x0, [x1]
     cec:	f900a7e0 	str	x0, [sp, #328]
     cf0:	d2800000 	mov	x0, #0x0                   	// #0
/home/fangjiang/workspace/optee-os/lib/libutee/trace_ext.c:46
     cf4:	94002443 	bl	9e00 <trace_get_level>
     cf8:	7100001f 	cmp	w0, #0x0
     cfc:	5400040d 	b.le	d7c <printf+0xe4>
/home/fangjiang/workspace/optee-os/lib/libutee/trace_ext.c:49
     d00:	9108c3e0 	add	x0, sp, #0x230
/home/fangjiang/workspace/optee-os/lib/libutee/trace_ext.c:50
     d04:	910003e3 	mov	x3, sp
/home/fangjiang/workspace/optee-os/lib/libutee/trace_ext.c:49
     d08:	a90283e0 	stp	x0, x0, [sp, #40]
     d0c:	9107c3e0 	add	x0, sp, #0x1f0
/home/fangjiang/workspace/optee-os/lib/libutee/trace_ext.c:50
     d10:	9100a3e1 	add	x1, sp, #0x28
/home/fangjiang/workspace/optee-os/lib/libutee/trace_ext.c:49
     d14:	f9001fe0 	str	x0, [sp, #56]
     d18:	128006e0 	mov	w0, #0xffffffc8            	// #-56
     d1c:	b90043e0 	str	w0, [sp, #64]
     d20:	12800fe0 	mov	w0, #0xffffff80            	// #-128
/home/fangjiang/workspace/optee-os/lib/libutee/trace_ext.c:50
     d24:	d2800402 	mov	x2, #0x20                  	// #32
     d28:	910123f4 	add	x20, sp, #0x48
/home/fangjiang/workspace/optee-os/lib/libutee/trace_ext.c:49
     d2c:	b90047e0 	str	w0, [sp, #68]
/home/fangjiang/workspace/optee-os/lib/libutee/trace_ext.c:50
     d30:	aa0303e0 	mov	x0, x3
     d34:	97fffcbb 	bl	20 <memcpy>
     d38:	aa0003e3 	mov	x3, x0
     d3c:	aa1303e2 	mov	x2, x19
     d40:	aa1403e0 	mov	x0, x20
     d44:	d2802001 	mov	x1, #0x100                 	// #256
     d48:	94002068 	bl	8ee8 <vsnprintf>
     d4c:	2a0003f3 	mov	w19, w0
/home/fangjiang/workspace/optee-os/lib/libutee/trace_ext.c:53
     d50:	37f80060 	tbnz	w0, #31, d5c <printf+0xc4>
/home/fangjiang/workspace/optee-os/lib/libutee/trace_ext.c:56
     d54:	aa1403e0 	mov	x0, x20
     d58:	97ffffc4 	bl	c68 <trace_ext_puts>
/home/fangjiang/workspace/optee-os/lib/libutee/trace_ext.c:59
     d5c:	d0000061 	adrp	x1, e000 <_DYNAMIC>
     d60:	f9409821 	ldr	x1, [x1, #304]
     d64:	f940a7e0 	ldr	x0, [sp, #328]
     d68:	f9400022 	ldr	x2, [x1]
     d6c:	eb020000 	subs	x0, x0, x2
     d70:	d2800002 	mov	x2, #0x0                   	// #0
     d74:	54000080 	b.eq	d84 <printf+0xec>  // b.none
     d78:	94002072 	bl	8f40 <__stack_chk_fail>
/home/fangjiang/workspace/optee-os/lib/libutee/trace_ext.c:47
     d7c:	52800013 	mov	w19, #0x0                   	// #0
     d80:	17fffff7 	b	d5c <printf+0xc4>
/home/fangjiang/workspace/optee-os/lib/libutee/trace_ext.c:59
     d84:	2a1303e0 	mov	w0, w19
     d88:	a9557bfd 	ldp	x29, x30, [sp, #336]
     d8c:	a95653f3 	ldp	x19, x20, [sp, #352]
     d90:	9108c3ff 	add	sp, sp, #0x230
     d94:	d65f03c0 	ret

0000000000000d98 <puts>:
puts():
/home/fangjiang/workspace/optee-os/lib/libutee/trace_ext.c:62
     d98:	a9be7bfd 	stp	x29, x30, [sp, #-32]!
     d9c:	910003fd 	mov	x29, sp
     da0:	f9000bf3 	str	x19, [sp, #16]
     da4:	aa0003f3 	mov	x19, x0
/home/fangjiang/workspace/optee-os/lib/libutee/trace_ext.c:63
     da8:	94002416 	bl	9e00 <trace_get_level>
     dac:	7100001f 	cmp	w0, #0x0
     db0:	540000cd 	b.le	dc8 <puts+0x30>
/home/fangjiang/workspace/optee-os/lib/libutee/trace_ext.c:64
     db4:	aa1303e0 	mov	x0, x19
     db8:	97ffffac 	bl	c68 <trace_ext_puts>
/home/fangjiang/workspace/optee-os/lib/libutee/trace_ext.c:65
     dbc:	90000060 	adrp	x0, c000 <__text_end+0x1cb0>
     dc0:	913b4000 	add	x0, x0, #0xed0
     dc4:	97ffffa9 	bl	c68 <trace_ext_puts>
/home/fangjiang/workspace/optee-os/lib/libutee/trace_ext.c:68
     dc8:	52800020 	mov	w0, #0x1                   	// #1
     dcc:	f9400bf3 	ldr	x19, [sp, #16]
     dd0:	a8c27bfd 	ldp	x29, x30, [sp], #32
     dd4:	d65f03c0 	ret

0000000000000dd8 <putchar>:
putchar():
/home/fangjiang/workspace/optee-os/lib/libutee/trace_ext.c:71
     dd8:	d100c3ff 	sub	sp, sp, #0x30
     ddc:	d0000061 	adrp	x1, e000 <_DYNAMIC>
     de0:	a9017bfd 	stp	x29, x30, [sp, #16]
     de4:	910043fd 	add	x29, sp, #0x10
     de8:	f9409821 	ldr	x1, [x1, #304]
     dec:	f90013f3 	str	x19, [sp, #32]
     df0:	2a0003f3 	mov	w19, w0
     df4:	f9400020 	ldr	x0, [x1]
     df8:	f90007e0 	str	x0, [sp, #8]
     dfc:	d2800000 	mov	x0, #0x0                   	// #0
/home/fangjiang/workspace/optee-os/lib/libutee/trace_ext.c:72
     e00:	390003f3 	strb	w19, [sp]
     e04:	390007ff 	strb	wzr, [sp, #1]
/home/fangjiang/workspace/optee-os/lib/libutee/trace_ext.c:74
     e08:	940023fe 	bl	9e00 <trace_get_level>
     e0c:	7100001f 	cmp	w0, #0x0
     e10:	5400006d 	b.le	e1c <putchar+0x44>
/home/fangjiang/workspace/optee-os/lib/libutee/trace_ext.c:75
     e14:	910003e0 	mov	x0, sp
     e18:	97ffff94 	bl	c68 <trace_ext_puts>
/home/fangjiang/workspace/optee-os/lib/libutee/trace_ext.c:82
     e1c:	d0000061 	adrp	x1, e000 <_DYNAMIC>
/home/fangjiang/workspace/optee-os/lib/libutee/trace_ext.c:81
     e20:	12001e60 	and	w0, w19, #0xff
/home/fangjiang/workspace/optee-os/lib/libutee/trace_ext.c:82
     e24:	f9409821 	ldr	x1, [x1, #304]
     e28:	f94007e3 	ldr	x3, [sp, #8]
     e2c:	f9400022 	ldr	x2, [x1]
     e30:	eb020063 	subs	x3, x3, x2
     e34:	d2800002 	mov	x2, #0x0                   	// #0
     e38:	54000040 	b.eq	e40 <putchar+0x68>  // b.none
     e3c:	94002041 	bl	8f40 <__stack_chk_fail>
     e40:	a9417bfd 	ldp	x29, x30, [sp, #16]
     e44:	f94013f3 	ldr	x19, [sp, #32]
     e48:	9100c3ff 	add	sp, sp, #0x30
     e4c:	d65f03c0 	ret

0000000000000e50 <update_out_param>:
update_out_param():
/home/fangjiang/workspace/optee-os/lib/libutee/tee_api.c:121
     e50:	a9bc7bfd 	stp	x29, x30, [sp, #-64]!
     e54:	910003fd 	mov	x29, sp
     e58:	a90153f3 	stp	x19, x20, [sp, #16]
/home/fangjiang/workspace/optee-os/lib/libutee/tee_api.c:123
     e5c:	aa0203f4 	mov	x20, x2
     e60:	aa0003f3 	mov	x19, x0
/home/fangjiang/workspace/optee-os/lib/libutee/tee_api.c:121
     e64:	a90363f7 	stp	x23, x24, [sp, #48]
     e68:	aa0103f8 	mov	x24, x1
/home/fangjiang/workspace/optee-os/lib/libutee/tee_api.c:123
     e6c:	f8408697 	ldr	x23, [x20], #8
/home/fangjiang/workspace/optee-os/lib/libutee/tee_api.c:121
     e70:	a9025bf5 	stp	x21, x22, [sp, #32]
/home/fangjiang/workspace/optee-os/lib/libutee/tee_api.c:125
     e74:	d2800015 	mov	x21, #0x0                   	// #0
/home/fangjiang/workspace/optee-os/lib/libutee/tee_api.c:129
     e78:	531e76a0 	lsl	w0, w21, #2
/home/fangjiang/workspace/optee-os/lib/libutee/tee_api.c:127
     e7c:	a9405a82 	ldp	x2, x22, [x20]
/home/fangjiang/workspace/optee-os/lib/libutee/tee_api.c:129
     e80:	1ac026e0 	lsr	w0, w23, w0
     e84:	12000c01 	and	w1, w0, #0xf
     e88:	721e041f 	tst	w0, #0xc
     e8c:	540000a1 	b.ne	ea0 <update_out_param+0x50>  // b.any
     e90:	721f081f 	tst	w0, #0xe
     e94:	540000c0 	b.eq	eac <update_out_param+0x5c>  // b.none
/home/fangjiang/workspace/optee-os/lib/libutee/tee_api.c:133
     e98:	29005a62 	stp	w2, w22, [x19]
/home/fangjiang/workspace/optee-os/lib/libutee/tee_api.c:134
     e9c:	14000004 	b	eac <update_out_param+0x5c>
/home/fangjiang/workspace/optee-os/lib/libutee/tee_api.c:129
     ea0:	51001820 	sub	w0, w1, #0x6
     ea4:	7100041f 	cmp	w0, #0x1
     ea8:	54000169 	b.ls	ed4 <update_out_param+0x84>  // b.plast
/home/fangjiang/workspace/optee-os/lib/libutee/tee_api.c:125 (discriminator 2)
     eac:	910006b5 	add	x21, x21, #0x1
     eb0:	91004294 	add	x20, x20, #0x10
     eb4:	91004273 	add	x19, x19, #0x10
     eb8:	f10012bf 	cmp	x21, #0x4
     ebc:	54fffde1 	b.ne	e78 <update_out_param+0x28>  // b.any
/home/fangjiang/workspace/optee-os/lib/libutee/tee_api.c:146
     ec0:	a94153f3 	ldp	x19, x20, [sp, #16]
     ec4:	a9425bf5 	ldp	x21, x22, [sp, #32]
     ec8:	a94363f7 	ldp	x23, x24, [sp, #48]
     ecc:	a8c47bfd 	ldp	x29, x30, [sp], #64
     ed0:	d65f03c0 	ret
/home/fangjiang/workspace/optee-os/lib/libutee/tee_api.c:137
     ed4:	f8757b01 	ldr	x1, [x24, x21, lsl #3]
     ed8:	b40000c1 	cbz	x1, ef0 <update_out_param+0xa0>
/home/fangjiang/workspace/optee-os/lib/libutee/tee_api.c:139
     edc:	b9400a62 	ldr	w2, [x19, #8]
/home/fangjiang/workspace/optee-os/lib/libutee/tee_api.c:138
     ee0:	f9400260 	ldr	x0, [x19]
/home/fangjiang/workspace/optee-os/lib/libutee/tee_api.c:139
     ee4:	eb16005f 	cmp	x2, x22
/home/fangjiang/workspace/optee-os/lib/libutee/tee_api.c:138
     ee8:	9a969042 	csel	x2, x2, x22, ls  // ls = plast
     eec:	97fffc4d 	bl	20 <memcpy>
/home/fangjiang/workspace/optee-os/lib/libutee/tee_api.c:140
     ef0:	b9000a76 	str	w22, [x19, #8]
/home/fangjiang/workspace/optee-os/lib/libutee/tee_api.c:141
     ef4:	17ffffee 	b	eac <update_out_param+0x5c>

0000000000000ef8 <TEE_CloseTASession>:
TEE_CloseTASession():
/home/fangjiang/workspace/optee-os/lib/libutee/tee_api.c:196
     ef8:	b4000120 	cbz	x0, f1c <TEE_CloseTASession+0x24>
/home/fangjiang/workspace/optee-os/lib/libutee/tee_api.c:195
     efc:	a9bf7bfd 	stp	x29, x30, [sp, #-16]!
     f00:	910003fd 	mov	x29, sp
/home/fangjiang/workspace/optee-os/lib/libutee/tee_api.c:197
     f04:	97fffcf5 	bl	2d8 <_utee_close_ta_session>
/home/fangjiang/workspace/optee-os/lib/libutee/tee_api.c:199
     f08:	34000060 	cbz	w0, f14 <TEE_CloseTASession+0x1c>
/home/fangjiang/workspace/optee-os/lib/libutee/tee_api.c:202
     f0c:	a8c17bfd 	ldp	x29, x30, [sp], #16
/home/fangjiang/workspace/optee-os/lib/libutee/tee_api.c:200
     f10:	140009a3 	b	359c <TEE_Panic>
/home/fangjiang/workspace/optee-os/lib/libutee/tee_api.c:202
     f14:	a8c17bfd 	ldp	x29, x30, [sp], #16
     f18:	d65f03c0 	ret
     f1c:	d65f03c0 	ret

0000000000000f20 <TEE_GetCancellationFlag>:
TEE_GetCancellationFlag():
/home/fangjiang/workspace/optee-os/lib/libutee/tee_api.c:257
     f20:	d10083ff 	sub	sp, sp, #0x20
     f24:	d0000061 	adrp	x1, e000 <_DYNAMIC>
     f28:	a9017bfd 	stp	x29, x30, [sp, #16]
     f2c:	910043fd 	add	x29, sp, #0x10
     f30:	f9409821 	ldr	x1, [x1, #304]
     f34:	f9400020 	ldr	x0, [x1]
     f38:	f90007e0 	str	x0, [sp, #8]
     f3c:	d2800000 	mov	x0, #0x0                   	// #0
/home/fangjiang/workspace/optee-os/lib/libutee/tee_api.c:259
     f40:	910013e0 	add	x0, sp, #0x4
     f44:	97fffceb 	bl	2f0 <_utee_get_cancellation_flag>
/home/fangjiang/workspace/optee-os/lib/libutee/tee_api.c:261
     f48:	34000040 	cbz	w0, f50 <TEE_GetCancellationFlag+0x30>
/home/fangjiang/workspace/optee-os/lib/libutee/tee_api.c:262
     f4c:	b90007ff 	str	wzr, [sp, #4]
/home/fangjiang/workspace/optee-os/lib/libutee/tee_api.c:264
     f50:	d0000061 	adrp	x1, e000 <_DYNAMIC>
/home/fangjiang/workspace/optee-os/lib/libutee/tee_api.c:263
     f54:	b94007e0 	ldr	w0, [sp, #4]
/home/fangjiang/workspace/optee-os/lib/libutee/tee_api.c:264
     f58:	f9409821 	ldr	x1, [x1, #304]
/home/fangjiang/workspace/optee-os/lib/libutee/tee_api.c:263
     f5c:	7100001f 	cmp	w0, #0x0
     f60:	1a9f07e0 	cset	w0, ne  // ne = any
/home/fangjiang/workspace/optee-os/lib/libutee/tee_api.c:264
     f64:	f94007e3 	ldr	x3, [sp, #8]
     f68:	f9400022 	ldr	x2, [x1]
     f6c:	eb020063 	subs	x3, x3, x2
     f70:	d2800002 	mov	x2, #0x0                   	// #0
     f74:	54000040 	b.eq	f7c <TEE_GetCancellationFlag+0x5c>  // b.none
     f78:	94001ff2 	bl	8f40 <__stack_chk_fail>
     f7c:	a9417bfd 	ldp	x29, x30, [sp, #16]
     f80:	910083ff 	add	sp, sp, #0x20
     f84:	d65f03c0 	ret

0000000000000f88 <TEE_UnmaskCancellation>:
TEE_UnmaskCancellation():
/home/fangjiang/workspace/optee-os/lib/libutee/tee_api.c:267
     f88:	d10083ff 	sub	sp, sp, #0x20
     f8c:	d0000061 	adrp	x1, e000 <_DYNAMIC>
     f90:	a9017bfd 	stp	x29, x30, [sp, #16]
     f94:	910043fd 	add	x29, sp, #0x10
     f98:	f9409821 	ldr	x1, [x1, #304]
     f9c:	f9400020 	ldr	x0, [x1]
     fa0:	f90007e0 	str	x0, [sp, #8]
     fa4:	d2800000 	mov	x0, #0x0                   	// #0
/home/fangjiang/workspace/optee-os/lib/libutee/tee_api.c:269
     fa8:	910013e0 	add	x0, sp, #0x4
     fac:	97fffcd7 	bl	308 <_utee_unmask_cancellation>
/home/fangjiang/workspace/optee-os/lib/libutee/tee_api.c:271
     fb0:	34000040 	cbz	w0, fb8 <TEE_UnmaskCancellation+0x30>
/home/fangjiang/workspace/optee-os/lib/libutee/tee_api.c:272
     fb4:	9400097a 	bl	359c <TEE_Panic>
/home/fangjiang/workspace/optee-os/lib/libutee/tee_api.c:274
     fb8:	d0000061 	adrp	x1, e000 <_DYNAMIC>
/home/fangjiang/workspace/optee-os/lib/libutee/tee_api.c:273
     fbc:	b94007e0 	ldr	w0, [sp, #4]
/home/fangjiang/workspace/optee-os/lib/libutee/tee_api.c:274
     fc0:	f9409821 	ldr	x1, [x1, #304]
/home/fangjiang/workspace/optee-os/lib/libutee/tee_api.c:273
     fc4:	7100001f 	cmp	w0, #0x0
     fc8:	1a9f07e0 	cset	w0, ne  // ne = any
/home/fangjiang/workspace/optee-os/lib/libutee/tee_api.c:274
     fcc:	f94007e3 	ldr	x3, [sp, #8]
     fd0:	f9400022 	ldr	x2, [x1]
     fd4:	eb020063 	subs	x3, x3, x2
     fd8:	d2800002 	mov	x2, #0x0                   	// #0
     fdc:	54000040 	b.eq	fe4 <TEE_UnmaskCancellation+0x5c>  // b.none
     fe0:	94001fd8 	bl	8f40 <__stack_chk_fail>
     fe4:	a9417bfd 	ldp	x29, x30, [sp, #16]
     fe8:	910083ff 	add	sp, sp, #0x20
     fec:	d65f03c0 	ret

0000000000000ff0 <TEE_MaskCancellation>:
TEE_MaskCancellation():
/home/fangjiang/workspace/optee-os/lib/libutee/tee_api.c:277
     ff0:	d10083ff 	sub	sp, sp, #0x20
     ff4:	d0000061 	adrp	x1, e000 <_DYNAMIC>
     ff8:	a9017bfd 	stp	x29, x30, [sp, #16]
     ffc:	910043fd 	add	x29, sp, #0x10
    1000:	f9409821 	ldr	x1, [x1, #304]
    1004:	f9400020 	ldr	x0, [x1]
    1008:	f90007e0 	str	x0, [sp, #8]
    100c:	d2800000 	mov	x0, #0x0                   	// #0
/home/fangjiang/workspace/optee-os/lib/libutee/tee_api.c:279
    1010:	910013e0 	add	x0, sp, #0x4
    1014:	97fffcc0 	bl	314 <_utee_mask_cancellation>
/home/fangjiang/workspace/optee-os/lib/libutee/tee_api.c:281
    1018:	34000040 	cbz	w0, 1020 <TEE_MaskCancellation+0x30>
/home/fangjiang/workspace/optee-os/lib/libutee/tee_api.c:282
    101c:	94000960 	bl	359c <TEE_Panic>
/home/fangjiang/workspace/optee-os/lib/libutee/tee_api.c:284
    1020:	b0000061 	adrp	x1, e000 <_DYNAMIC>
/home/fangjiang/workspace/optee-os/lib/libutee/tee_api.c:283
    1024:	b94007e0 	ldr	w0, [sp, #4]
/home/fangjiang/workspace/optee-os/lib/libutee/tee_api.c:284
    1028:	f9409821 	ldr	x1, [x1, #304]
/home/fangjiang/workspace/optee-os/lib/libutee/tee_api.c:283
    102c:	7100001f 	cmp	w0, #0x0
    1030:	1a9f07e0 	cset	w0, ne  // ne = any
/home/fangjiang/workspace/optee-os/lib/libutee/tee_api.c:284
    1034:	f94007e3 	ldr	x3, [sp, #8]
    1038:	f9400022 	ldr	x2, [x1]
    103c:	eb020063 	subs	x3, x3, x2
    1040:	d2800002 	mov	x2, #0x0                   	// #0
    1044:	54000040 	b.eq	104c <TEE_MaskCancellation+0x5c>  // b.none
    1048:	94001fbe 	bl	8f40 <__stack_chk_fail>
    104c:	a9417bfd 	ldp	x29, x30, [sp, #16]
    1050:	910083ff 	add	sp, sp, #0x20
    1054:	d65f03c0 	ret

0000000000001058 <TEE_CheckMemoryAccessRights>:
TEE_CheckMemoryAccessRights():
/home/fangjiang/workspace/optee-os/lib/libutee/tee_api.c:293
    1058:	34000062 	cbz	w2, 1064 <TEE_CheckMemoryAccessRights+0xc>
/home/fangjiang/workspace/optee-os/lib/libutee/tee_api.c:297
    105c:	2a0203e2 	mov	w2, w2
    1060:	17fffca7 	b	2fc <_utee_check_access_rights>
/home/fangjiang/workspace/optee-os/lib/libutee/tee_api.c:309
    1064:	52800000 	mov	w0, #0x0                   	// #0
    1068:	d65f03c0 	ret

000000000000106c <copy_param>:
copy_param():
/home/fangjiang/workspace/optee-os/lib/libutee/tee_api.c:29
    106c:	d10203ff 	sub	sp, sp, #0x80
    1070:	b0000066 	adrp	x6, e000 <_DYNAMIC>
    1074:	a9027bfd 	stp	x29, x30, [sp, #32]
    1078:	910083fd 	add	x29, sp, #0x20
    107c:	f94098c6 	ldr	x6, [x6, #304]
    1080:	a90563f7 	stp	x23, x24, [sp, #80]
    1084:	aa0303f8 	mov	x24, x3
    1088:	aa0403f7 	mov	x23, x4
    108c:	a90353f3 	stp	x19, x20, [sp, #48]
/home/fangjiang/workspace/optee-os/lib/libutee/tee_api.c:66
    1090:	910043e3 	add	x3, sp, #0x10
/home/fangjiang/workspace/optee-os/lib/libutee/tee_api.c:29
    1094:	a9045bf5 	stp	x21, x22, [sp, #64]
    1098:	aa0003f4 	mov	x20, x0
    109c:	2a0103f5 	mov	w21, w1
    10a0:	a9066bf9 	stp	x25, x26, [sp, #96]
    10a4:	aa0503f6 	mov	x22, x5
    10a8:	aa0203f3 	mov	x19, x2
    10ac:	a90773fb 	stp	x27, x28, [sp, #112]
/home/fangjiang/workspace/optee-os/lib/libutee/tee_api.c:46
    10b0:	aa0203fc 	mov	x28, x2
/home/fangjiang/workspace/optee-os/lib/libutee/tee_api.c:32
    10b4:	d280001b 	mov	x27, #0x0                   	// #0
/home/fangjiang/workspace/optee-os/lib/libutee/tee_api.c:29
    10b8:	f94000c0 	ldr	x0, [x6]
    10bc:	f9000fe0 	str	x0, [sp, #24]
    10c0:	d2800000 	mov	x0, #0x0                   	// #0
/home/fangjiang/workspace/optee-os/lib/libutee/tee_api.c:45
    10c4:	f900031f 	str	xzr, [x24]
/home/fangjiang/workspace/optee-os/lib/libutee/tee_api.c:47
    10c8:	d2800019 	mov	x25, #0x0                   	// #0
/home/fangjiang/workspace/optee-os/lib/libutee/tee_api.c:66
    10cc:	52800024 	mov	w4, #0x1                   	// #1
/home/fangjiang/workspace/optee-os/lib/libutee/tee_api.c:46
    10d0:	f90002ff 	str	xzr, [x23]
/home/fangjiang/workspace/optee-os/lib/libutee/tee_api.c:34
    10d4:	b90013ff 	str	wzr, [sp, #16]
/home/fangjiang/workspace/optee-os/lib/libutee/tee_api.c:49
    10d8:	531e7720 	lsl	w0, w25, #2
/home/fangjiang/workspace/optee-os/lib/libutee/tee_api.c:48
    10dc:	f8397adf 	str	xzr, [x22, x25, lsl #3]
/home/fangjiang/workspace/optee-os/lib/libutee/tee_api.c:49
    10e0:	1ac026a0 	lsr	w0, w21, w0
    10e4:	12000c00 	and	w0, w0, #0xf
    10e8:	51001400 	sub	w0, w0, #0x5
    10ec:	7100081f 	cmp	w0, #0x2
    10f0:	54000248 	b.hi	1138 <copy_param+0xcc>  // b.pmore
/home/fangjiang/workspace/optee-os/lib/libutee/tee_api.c:53
    10f4:	f9400381 	ldr	x1, [x28]
/home/fangjiang/workspace/optee-os/lib/libutee/tee_api.c:54
    10f8:	b9400b82 	ldr	w2, [x28, #8]
/home/fangjiang/workspace/optee-os/lib/libutee/tee_api.c:64
    10fc:	f100003f 	cmp	x1, #0x0
/home/fangjiang/workspace/optee-os/lib/libutee/tee_api.c:54
    1100:	2a0203fa 	mov	w26, w2
/home/fangjiang/workspace/optee-os/lib/libutee/tee_api.c:64
    1104:	fa401b44 	ccmp	x26, #0x0, #0x4, ne  // ne = any
    1108:	54000180 	b.eq	1138 <copy_param+0xcc>  // b.none
/home/fangjiang/workspace/optee-os/lib/libutee/tee_api.c:65 (discriminator 1)
    110c:	52800020 	mov	w0, #0x1                   	// #1
    1110:	f90003e3 	str	x3, [sp]
    1114:	b9000fe4 	str	w4, [sp, #12]
    1118:	97ffffd0 	bl	1058 <TEE_CheckMemoryAccessRights>
/home/fangjiang/workspace/optee-os/lib/libutee/tee_api.c:64 (discriminator 1)
    111c:	b9400fe4 	ldr	w4, [sp, #12]
    1120:	f94003e3 	ldr	x3, [sp]
    1124:	350000a0 	cbnz	w0, 1138 <copy_param+0xcc>
/home/fangjiang/workspace/optee-os/lib/libutee/tee_api.c:67
    1128:	91003f5a 	add	x26, x26, #0xf
/home/fangjiang/workspace/optee-os/lib/libutee/tee_api.c:66
    112c:	38236b24 	strb	w4, [x25, x3]
/home/fangjiang/workspace/optee-os/lib/libutee/tee_api.c:67
    1130:	927cef5a 	and	x26, x26, #0xfffffffffffffff0
    1134:	8b1a037b 	add	x27, x27, x26
/home/fangjiang/workspace/optee-os/lib/libutee/tee_api.c:47 (discriminator 2)
    1138:	91000739 	add	x25, x25, #0x1
    113c:	9100439c 	add	x28, x28, #0x10
    1140:	f100133f 	cmp	x25, #0x4
    1144:	54fffca1 	b.ne	10d8 <copy_param+0x6c>  // b.any
/home/fangjiang/workspace/optee-os/lib/libutee/tee_api.c:75
    1148:	b400031b 	cbz	x27, 11a8 <copy_param+0x13c>
/home/fangjiang/workspace/optee-os/lib/libutee/tee_api.c:76
    114c:	2a1903e1 	mov	w1, w25
    1150:	aa1b03e0 	mov	x0, x27
    1154:	94000984 	bl	3764 <tee_map_zi>
    1158:	aa0003e6 	mov	x6, x0
/home/fangjiang/workspace/optee-os/lib/libutee/tee_api.c:77
    115c:	b40007a0 	cbz	x0, 1250 <copy_param+0x1e4>
/home/fangjiang/workspace/optee-os/lib/libutee/tee_api.c:79
    1160:	f9000300 	str	x0, [x24]
/home/fangjiang/workspace/optee-os/lib/libutee/tee_api.c:80
    1164:	f90002fb 	str	x27, [x23]
/home/fangjiang/workspace/optee-os/lib/libutee/tee_api.c:95
    1168:	910043fa 	add	x26, sp, #0x10
/home/fangjiang/workspace/optee-os/lib/libutee/tee_api.c:83
    116c:	2a1503e0 	mov	w0, w21
/home/fangjiang/workspace/optee-os/lib/libutee/tee_api.c:84
    1170:	d2800017 	mov	x23, #0x0                   	// #0
/home/fangjiang/workspace/optee-os/lib/libutee/tee_api.c:83
    1174:	f8008680 	str	x0, [x20], #8
/home/fangjiang/workspace/optee-os/lib/libutee/tee_api.c:85
    1178:	531e76e1 	lsl	w1, w23, #2
    117c:	1ac126a1 	lsr	w1, w21, w1
    1180:	12000c20 	and	w0, w1, #0xf
    1184:	71000c1f 	cmp	w0, #0x3
    1188:	540003c0 	b.eq	1200 <copy_param+0x194>  // b.none
    118c:	721e043f 	tst	w1, #0xc
    1190:	54000101 	b.ne	11b0 <copy_param+0x144>  // b.any
    1194:	7100041f 	cmp	w0, #0x1
    1198:	54000340 	b.eq	1200 <copy_param+0x194>  // b.none
/home/fangjiang/workspace/optee-os/lib/libutee/tee_api.c:111
    119c:	d2800019 	mov	x25, #0x0                   	// #0
/home/fangjiang/workspace/optee-os/lib/libutee/tee_api.c:109
    11a0:	f900029f 	str	xzr, [x20]
/home/fangjiang/workspace/optee-os/lib/libutee/tee_api.c:111
    11a4:	14000019 	b	1208 <copy_param+0x19c>
/home/fangjiang/workspace/optee-os/lib/libutee/tee_api.c:31
    11a8:	d2800006 	mov	x6, #0x0                   	// #0
    11ac:	17ffffef 	b	1168 <copy_param+0xfc>
/home/fangjiang/workspace/optee-os/lib/libutee/tee_api.c:85
    11b0:	51001401 	sub	w1, w0, #0x5
    11b4:	7100083f 	cmp	w1, #0x2
    11b8:	54ffff28 	b.hi	119c <copy_param+0x130>  // b.pmore
/home/fangjiang/workspace/optee-os/lib/libutee/tee_api.c:95
    11bc:	387a6ae1 	ldrb	w1, [x23, x26]
/home/fangjiang/workspace/optee-os/lib/libutee/tee_api.c:94
    11c0:	b9400a79 	ldr	w25, [x19, #8]
/home/fangjiang/workspace/optee-os/lib/libutee/tee_api.c:95
    11c4:	34000401 	cbz	w1, 1244 <copy_param+0x1d8>
/home/fangjiang/workspace/optee-os/lib/libutee/tee_api.c:98
    11c8:	91003f38 	add	x24, x25, #0xf
/home/fangjiang/workspace/optee-os/lib/libutee/tee_api.c:97
    11cc:	f8377ac6 	str	x6, [x22, x23, lsl #3]
/home/fangjiang/workspace/optee-os/lib/libutee/tee_api.c:98
    11d0:	927cef18 	and	x24, x24, #0xfffffffffffffff0
    11d4:	8b1800d8 	add	x24, x6, x24
/home/fangjiang/workspace/optee-os/lib/libutee/tee_api.c:99
    11d8:	7100181f 	cmp	w0, #0x6
    11dc:	540000c0 	b.eq	11f4 <copy_param+0x188>  // b.none
/home/fangjiang/workspace/optee-os/lib/libutee/tee_api.c:101
    11e0:	f9400261 	ldr	x1, [x19]
    11e4:	aa0603e0 	mov	x0, x6
    11e8:	aa1903e2 	mov	x2, x25
    11ec:	97fffb8d 	bl	20 <memcpy>
    11f0:	aa0003e6 	mov	x6, x0
/home/fangjiang/workspace/optee-os/lib/libutee/tee_api.c:105
    11f4:	f9000286 	str	x6, [x20]
/home/fangjiang/workspace/optee-os/lib/libutee/tee_api.c:107
    11f8:	aa1803e6 	mov	x6, x24
    11fc:	14000003 	b	1208 <copy_param+0x19c>
/home/fangjiang/workspace/optee-os/lib/libutee/tee_api.c:89
    1200:	29406660 	ldp	w0, w25, [x19]
/home/fangjiang/workspace/optee-os/lib/libutee/tee_api.c:88
    1204:	f9000280 	str	x0, [x20]
/home/fangjiang/workspace/optee-os/lib/libutee/tee_api.c:84 (discriminator 2)
    1208:	910006f7 	add	x23, x23, #0x1
/home/fangjiang/workspace/optee-os/lib/libutee/tee_api.c:89 (discriminator 2)
    120c:	f9000699 	str	x25, [x20, #8]
/home/fangjiang/workspace/optee-os/lib/libutee/tee_api.c:84 (discriminator 2)
    1210:	91004273 	add	x19, x19, #0x10
    1214:	91004294 	add	x20, x20, #0x10
    1218:	f10012ff 	cmp	x23, #0x4
    121c:	54fffae1 	b.ne	1178 <copy_param+0x10c>  // b.any
/home/fangjiang/workspace/optee-os/lib/libutee/tee_api.c:115
    1220:	52800000 	mov	w0, #0x0                   	// #0
/home/fangjiang/workspace/optee-os/lib/libutee/tee_api.c:116
    1224:	b0000066 	adrp	x6, e000 <_DYNAMIC>
    1228:	f94098c6 	ldr	x6, [x6, #304]
    122c:	f9400fe1 	ldr	x1, [sp, #24]
    1230:	f94000c2 	ldr	x2, [x6]
    1234:	eb020021 	subs	x1, x1, x2
    1238:	d2800002 	mov	x2, #0x0                   	// #0
    123c:	540000e0 	b.eq	1258 <copy_param+0x1ec>  // b.none
    1240:	94001f40 	bl	8f40 <__stack_chk_fail>
/home/fangjiang/workspace/optee-os/lib/libutee/tee_api.c:103
    1244:	aa0603f8 	mov	x24, x6
    1248:	f9400266 	ldr	x6, [x19]
    124c:	17ffffea 	b	11f4 <copy_param+0x188>
/home/fangjiang/workspace/optee-os/lib/libutee/tee_api.c:78
    1250:	129ffe60 	mov	w0, #0xffff000c            	// #-65524
    1254:	17fffff4 	b	1224 <copy_param+0x1b8>
/home/fangjiang/workspace/optee-os/lib/libutee/tee_api.c:116
    1258:	a9427bfd 	ldp	x29, x30, [sp, #32]
    125c:	a94353f3 	ldp	x19, x20, [sp, #48]
    1260:	a9445bf5 	ldp	x21, x22, [sp, #64]
    1264:	a94563f7 	ldp	x23, x24, [sp, #80]
    1268:	a9466bf9 	ldp	x25, x26, [sp, #96]
    126c:	a94773fb 	ldp	x27, x28, [sp, #112]
    1270:	910203ff 	add	sp, sp, #0x80
    1274:	d65f03c0 	ret

0000000000001278 <TEE_OpenTASession>:
TEE_OpenTASession():
/home/fangjiang/workspace/optee-os/lib/libutee/tee_api.c:154
    1278:	d10383ff 	sub	sp, sp, #0xe0
    127c:	b0000066 	adrp	x6, e000 <_DYNAMIC>
    1280:	a9097bfd 	stp	x29, x30, [sp, #144]
    1284:	910243fd 	add	x29, sp, #0x90
    1288:	f94098c6 	ldr	x6, [x6, #304]
    128c:	a90a53f3 	stp	x19, x20, [sp, #160]
    1290:	2a0203f3 	mov	w19, w2
    1294:	a90b5bf5 	stp	x21, x22, [sp, #176]
    1298:	aa0303f4 	mov	x20, x3
    129c:	aa0403f5 	mov	x21, x4
    12a0:	a90c63f7 	stp	x23, x24, [sp, #192]
    12a4:	aa0003f7 	mov	x23, x0
    12a8:	2a0103f8 	mov	w24, w1
    12ac:	a90d6bf9 	stp	x25, x26, [sp, #208]
    12b0:	aa0503f9 	mov	x25, x5
    12b4:	f94000c0 	ldr	x0, [x6]
    12b8:	f90047e0 	str	x0, [sp, #136]
    12bc:	d2800000 	mov	x0, #0x0                   	// #0
/home/fangjiang/workspace/optee-os/lib/libutee/tee_api.c:157
    12c0:	b9000fff 	str	wzr, [sp, #12]
/home/fangjiang/workspace/optee-os/lib/libutee/tee_api.c:159
    12c4:	a9017fff 	stp	xzr, xzr, [sp, #16]
/home/fangjiang/workspace/optee-os/lib/libutee/tee_api.c:160
    12c8:	a9027fff 	stp	xzr, xzr, [sp, #32]
    12cc:	a9037fff 	stp	xzr, xzr, [sp, #48]
/home/fangjiang/workspace/optee-os/lib/libutee/tee_api.c:162
    12d0:	34000082 	cbz	w2, 12e0 <TEE_OpenTASession+0x68>
/home/fangjiang/workspace/optee-os/lib/libutee/tee_api.c:163
    12d4:	aa0303e0 	mov	x0, x3
    12d8:	d2800801 	mov	x1, #0x40                  	// #64
    12dc:	940008f9 	bl	36c0 <__utee_check_inout_annotation>
/home/fangjiang/workspace/optee-os/lib/libutee/tee_api.c:166
    12e0:	aa1503e0 	mov	x0, x21
    12e4:	d2800101 	mov	x1, #0x8                   	// #8
/home/fangjiang/workspace/optee-os/lib/libutee/tee_api.c:168
    12e8:	910083fa 	add	x26, sp, #0x20
/home/fangjiang/workspace/optee-os/lib/libutee/tee_api.c:166
    12ec:	940008e4 	bl	367c <__utee_check_out_annotation>
/home/fangjiang/workspace/optee-os/lib/libutee/tee_api.c:168
    12f0:	910103f6 	add	x22, sp, #0x40
    12f4:	2a1303e1 	mov	w1, w19
    12f8:	aa1a03e5 	mov	x5, x26
    12fc:	910063e4 	add	x4, sp, #0x18
    1300:	910043e3 	add	x3, sp, #0x10
    1304:	aa1403e2 	mov	x2, x20
    1308:	aa1603e0 	mov	x0, x22
    130c:	97ffff58 	bl	106c <copy_param>
    1310:	2a0003f3 	mov	w19, w0
/home/fangjiang/workspace/optee-os/lib/libutee/tee_api.c:169
    1314:	35000260 	cbnz	w0, 1360 <TEE_OpenTASession+0xe8>
/home/fangjiang/workspace/optee-os/lib/libutee/tee_api.c:171
    1318:	aa1903e4 	mov	x4, x25
    131c:	910033e3 	add	x3, sp, #0xc
    1320:	aa1603e2 	mov	x2, x22
    1324:	2a1803e1 	mov	w1, w24
    1328:	aa1703e0 	mov	x0, x23
    132c:	97fffbe8 	bl	2cc <_utee_open_ta_session>
/home/fangjiang/workspace/optee-os/lib/libutee/tee_api.c:173
    1330:	aa1603e2 	mov	x2, x22
/home/fangjiang/workspace/optee-os/lib/libutee/tee_api.c:171
    1334:	2a0003f3 	mov	w19, w0
/home/fangjiang/workspace/optee-os/lib/libutee/tee_api.c:173
    1338:	aa1a03e1 	mov	x1, x26
    133c:	aa1403e0 	mov	x0, x20
    1340:	97fffec4 	bl	e50 <update_out_param>
/home/fangjiang/workspace/optee-os/lib/libutee/tee_api.c:174
    1344:	f9400be0 	ldr	x0, [sp, #16]
    1348:	b40000a0 	cbz	x0, 135c <TEE_OpenTASession+0xe4>
/home/fangjiang/workspace/optee-os/lib/libutee/tee_api.c:175
    134c:	f9400fe1 	ldr	x1, [sp, #24]
    1350:	9400092c 	bl	3800 <tee_unmap>
/home/fangjiang/workspace/optee-os/lib/libutee/tee_api.c:177
    1354:	34000040 	cbz	w0, 135c <TEE_OpenTASession+0xe4>
/home/fangjiang/workspace/optee-os/lib/libutee/tee_api.c:178
    1358:	94000891 	bl	359c <TEE_Panic>
/home/fangjiang/workspace/optee-os/lib/libutee/tee_api.c:187
    135c:	34000053 	cbz	w19, 1364 <TEE_OpenTASession+0xec>
/home/fangjiang/workspace/optee-os/lib/libutee/tee_api.c:188
    1360:	b9000fff 	str	wzr, [sp, #12]
/home/fangjiang/workspace/optee-os/lib/libutee/tee_api.c:192
    1364:	b0000066 	adrp	x6, e000 <_DYNAMIC>
/home/fangjiang/workspace/optee-os/lib/libutee/tee_api.c:190
    1368:	b9400fe0 	ldr	w0, [sp, #12]
    136c:	f90002a0 	str	x0, [x21]
/home/fangjiang/workspace/optee-os/lib/libutee/tee_api.c:192
    1370:	f94098c6 	ldr	x6, [x6, #304]
    1374:	f94047e0 	ldr	x0, [sp, #136]
    1378:	f94000c1 	ldr	x1, [x6]
    137c:	eb010000 	subs	x0, x0, x1
    1380:	d2800001 	mov	x1, #0x0                   	// #0
    1384:	54000040 	b.eq	138c <TEE_OpenTASession+0x114>  // b.none
    1388:	94001eee 	bl	8f40 <__stack_chk_fail>
    138c:	2a1303e0 	mov	w0, w19
    1390:	a9497bfd 	ldp	x29, x30, [sp, #144]
    1394:	a94a53f3 	ldp	x19, x20, [sp, #160]
    1398:	a94b5bf5 	ldp	x21, x22, [sp, #176]
    139c:	a94c63f7 	ldp	x23, x24, [sp, #192]
    13a0:	a94d6bf9 	ldp	x25, x26, [sp, #208]
    13a4:	910383ff 	add	sp, sp, #0xe0
    13a8:	d65f03c0 	ret

00000000000013ac <TEE_InvokeTACommand>:
TEE_InvokeTACommand():
/home/fangjiang/workspace/optee-os/lib/libutee/tee_api.c:209
    13ac:	d10383ff 	sub	sp, sp, #0xe0
    13b0:	b0000066 	adrp	x6, e000 <_DYNAMIC>
    13b4:	a9097bfd 	stp	x29, x30, [sp, #144]
    13b8:	910243fd 	add	x29, sp, #0x90
    13bc:	f94098c6 	ldr	x6, [x6, #304]
    13c0:	a90a53f3 	stp	x19, x20, [sp, #160]
    13c4:	2a0303f3 	mov	w19, w3
    13c8:	a90b5bf5 	stp	x21, x22, [sp, #176]
    13cc:	aa0003f6 	mov	x22, x0
    13d0:	aa0403f5 	mov	x21, x4
    13d4:	a90c63f7 	stp	x23, x24, [sp, #192]
    13d8:	aa0503f4 	mov	x20, x5
    13dc:	2a0103f7 	mov	w23, w1
    13e0:	a90d6bf9 	stp	x25, x26, [sp, #208]
    13e4:	2a0203f8 	mov	w24, w2
    13e8:	f94000c0 	ldr	x0, [x6]
    13ec:	f90047e0 	str	x0, [sp, #136]
    13f0:	d2800000 	mov	x0, #0x0                   	// #0
/home/fangjiang/workspace/optee-os/lib/libutee/tee_api.c:214
    13f4:	a9017fff 	stp	xzr, xzr, [sp, #16]
/home/fangjiang/workspace/optee-os/lib/libutee/tee_api.c:211
    13f8:	52800060 	mov	w0, #0x3                   	// #3
    13fc:	b9000fe0 	str	w0, [sp, #12]
/home/fangjiang/workspace/optee-os/lib/libutee/tee_api.c:215
    1400:	a9027fff 	stp	xzr, xzr, [sp, #32]
    1404:	a9037fff 	stp	xzr, xzr, [sp, #48]
/home/fangjiang/workspace/optee-os/lib/libutee/tee_api.c:217
    1408:	34000083 	cbz	w3, 1418 <TEE_InvokeTACommand+0x6c>
/home/fangjiang/workspace/optee-os/lib/libutee/tee_api.c:218
    140c:	aa0403e0 	mov	x0, x4
    1410:	d2800801 	mov	x1, #0x40                  	// #64
    1414:	940008ab 	bl	36c0 <__utee_check_inout_annotation>
/home/fangjiang/workspace/optee-os/lib/libutee/tee_api.c:221
    1418:	b4000094 	cbz	x20, 1428 <TEE_InvokeTACommand+0x7c>
/home/fangjiang/workspace/optee-os/lib/libutee/tee_api.c:222
    141c:	aa1403e0 	mov	x0, x20
    1420:	d2800081 	mov	x1, #0x4                   	// #4
    1424:	94000896 	bl	367c <__utee_check_out_annotation>
/home/fangjiang/workspace/optee-os/lib/libutee/tee_api.c:225
    1428:	910083fa 	add	x26, sp, #0x20
    142c:	910103f9 	add	x25, sp, #0x40
    1430:	2a1303e1 	mov	w1, w19
    1434:	aa1a03e5 	mov	x5, x26
    1438:	910063e4 	add	x4, sp, #0x18
    143c:	910043e3 	add	x3, sp, #0x10
    1440:	aa1503e2 	mov	x2, x21
    1444:	aa1903e0 	mov	x0, x25
    1448:	97ffff09 	bl	106c <copy_param>
    144c:	2a0003f3 	mov	w19, w0
/home/fangjiang/workspace/optee-os/lib/libutee/tee_api.c:226
    1450:	35000240 	cbnz	w0, 1498 <TEE_InvokeTACommand+0xec>
/home/fangjiang/workspace/optee-os/lib/libutee/tee_api.c:228
    1454:	910033e4 	add	x4, sp, #0xc
    1458:	aa1903e3 	mov	x3, x25
    145c:	2a1803e2 	mov	w2, w24
    1460:	2a1703e1 	mov	w1, w23
    1464:	aa1603e0 	mov	x0, x22
    1468:	97fffb9f 	bl	2e4 <_utee_invoke_ta_command>
/home/fangjiang/workspace/optee-os/lib/libutee/tee_api.c:231
    146c:	aa1903e2 	mov	x2, x25
/home/fangjiang/workspace/optee-os/lib/libutee/tee_api.c:228
    1470:	2a0003f3 	mov	w19, w0
/home/fangjiang/workspace/optee-os/lib/libutee/tee_api.c:231
    1474:	aa1a03e1 	mov	x1, x26
    1478:	aa1503e0 	mov	x0, x21
    147c:	97fffe75 	bl	e50 <update_out_param>
/home/fangjiang/workspace/optee-os/lib/libutee/tee_api.c:232
    1480:	f9400be0 	ldr	x0, [sp, #16]
    1484:	b40000a0 	cbz	x0, 1498 <TEE_InvokeTACommand+0xec>
/home/fangjiang/workspace/optee-os/lib/libutee/tee_api.c:233
    1488:	f9400fe1 	ldr	x1, [sp, #24]
    148c:	940008dd 	bl	3800 <tee_unmap>
/home/fangjiang/workspace/optee-os/lib/libutee/tee_api.c:235
    1490:	34000040 	cbz	w0, 1498 <TEE_InvokeTACommand+0xec>
/home/fangjiang/workspace/optee-os/lib/libutee/tee_api.c:236
    1494:	94000842 	bl	359c <TEE_Panic>
/home/fangjiang/workspace/optee-os/lib/libutee/tee_api.c:241
    1498:	b9400fe0 	ldr	w0, [sp, #12]
/home/fangjiang/workspace/optee-os/lib/libutee/tee_api.c:240
    149c:	b4000054 	cbz	x20, 14a4 <TEE_InvokeTACommand+0xf8>
/home/fangjiang/workspace/optee-os/lib/libutee/tee_api.c:241
    14a0:	b9000280 	str	w0, [x20]
/home/fangjiang/workspace/optee-os/lib/libutee/tee_api.c:243
    14a4:	7100101f 	cmp	w0, #0x4
    14a8:	54000140 	b.eq	14d0 <TEE_InvokeTACommand+0x124>  // b.none
/home/fangjiang/workspace/optee-os/lib/libutee/tee_api.c:246
    14ac:	7100027f 	cmp	w19, #0x0
    14b0:	129ffe60 	mov	w0, #0xffff000c            	// #-65524
    14b4:	7a401264 	ccmp	w19, w0, #0x4, ne  // ne = any
    14b8:	540000c0 	b.eq	14d0 <TEE_InvokeTACommand+0x124>  // b.none
/home/fangjiang/workspace/optee-os/lib/libutee/tee_api.c:247
    14bc:	1299fb60 	mov	w0, #0xffff3024            	// #-53212
    14c0:	6b00027f 	cmp	w19, w0
    14c4:	54000060 	b.eq	14d0 <TEE_InvokeTACommand+0x124>  // b.none
/home/fangjiang/workspace/optee-os/lib/libutee/tee_api.c:249
    14c8:	2a1303e0 	mov	w0, w19
    14cc:	94000834 	bl	359c <TEE_Panic>
/home/fangjiang/workspace/optee-os/lib/libutee/tee_api.c:252
    14d0:	b0000066 	adrp	x6, e000 <_DYNAMIC>
    14d4:	f94098c6 	ldr	x6, [x6, #304]
    14d8:	f94047e0 	ldr	x0, [sp, #136]
    14dc:	f94000c1 	ldr	x1, [x6]
    14e0:	eb010000 	subs	x0, x0, x1
    14e4:	d2800001 	mov	x1, #0x0                   	// #0
    14e8:	54000040 	b.eq	14f0 <TEE_InvokeTACommand+0x144>  // b.none
    14ec:	94001e95 	bl	8f40 <__stack_chk_fail>
    14f0:	2a1303e0 	mov	w0, w19
    14f4:	a9497bfd 	ldp	x29, x30, [sp, #144]
    14f8:	a94a53f3 	ldp	x19, x20, [sp, #160]
    14fc:	a94b5bf5 	ldp	x21, x22, [sp, #176]
    1500:	a94c63f7 	ldp	x23, x24, [sp, #192]
    1504:	a94d6bf9 	ldp	x25, x26, [sp, #208]
    1508:	910383ff 	add	sp, sp, #0xe0
    150c:	d65f03c0 	ret

0000000000001510 <TEE_SetInstanceData>:
TEE_SetInstanceData():
/home/fangjiang/workspace/optee-os/lib/libutee/tee_api.c:313
    1510:	b0000061 	adrp	x1, e000 <_DYNAMIC>
    1514:	f9024c20 	str	x0, [x1, #1176]
/home/fangjiang/workspace/optee-os/lib/libutee/tee_api.c:314
    1518:	d65f03c0 	ret

000000000000151c <TEE_GetInstanceData>:
TEE_GetInstanceData():
/home/fangjiang/workspace/optee-os/lib/libutee/tee_api.c:319
    151c:	b0000060 	adrp	x0, e000 <_DYNAMIC>
    1520:	f9424c00 	ldr	x0, [x0, #1176]
    1524:	d65f03c0 	ret

0000000000001528 <TEE_MemMove>:
TEE_MemMove():
/home/fangjiang/workspace/optee-os/lib/libutee/tee_api.c:323
    1528:	2a0203e2 	mov	w2, w2
    152c:	14001e86 	b	8f44 <memmove>

0000000000001530 <TEE_MemCompare>:
TEE_MemCompare():
/home/fangjiang/workspace/optee-os/lib/libutee/tee_api.c:328
    1530:	2a0203e2 	mov	w2, w2
    1534:	14002360 	b	a2b4 <consttime_memcmp>

0000000000001538 <TEE_MemFill>:
TEE_MemFill():
/home/fangjiang/workspace/optee-os/lib/libutee/tee_api.c:333
    1538:	2a0203e2 	mov	w2, w2
    153c:	14001e99 	b	8fa0 <memset>

0000000000001540 <TEE_GetSystemTime>:
TEE_GetSystemTime():
/home/fangjiang/workspace/optee-os/lib/libutee/tee_api.c:339
    1540:	a9bf7bfd 	stp	x29, x30, [sp, #-16]!
/home/fangjiang/workspace/optee-os/lib/libutee/tee_api.c:340
    1544:	aa0003e1 	mov	x1, x0
    1548:	d2800000 	mov	x0, #0x0                   	// #0
/home/fangjiang/workspace/optee-os/lib/libutee/tee_api.c:339
    154c:	910003fd 	mov	x29, sp
/home/fangjiang/workspace/optee-os/lib/libutee/tee_api.c:340
    1550:	97fffb77 	bl	32c <_utee_get_time>
/home/fangjiang/workspace/optee-os/lib/libutee/tee_api.c:342
    1554:	34000060 	cbz	w0, 1560 <TEE_GetSystemTime+0x20>
/home/fangjiang/workspace/optee-os/lib/libutee/tee_api.c:344
    1558:	a8c17bfd 	ldp	x29, x30, [sp], #16
/home/fangjiang/workspace/optee-os/lib/libutee/tee_api.c:343
    155c:	14000810 	b	359c <TEE_Panic>
/home/fangjiang/workspace/optee-os/lib/libutee/tee_api.c:344
    1560:	a8c17bfd 	ldp	x29, x30, [sp], #16
    1564:	d65f03c0 	ret

0000000000001568 <TEE_Wait>:
TEE_Wait():
/home/fangjiang/workspace/optee-os/lib/libutee/tee_api.c:347
    1568:	a9be7bfd 	stp	x29, x30, [sp, #-32]!
/home/fangjiang/workspace/optee-os/lib/libutee/tee_api.c:348
    156c:	2a0003e0 	mov	w0, w0
/home/fangjiang/workspace/optee-os/lib/libutee/tee_api.c:347
    1570:	910003fd 	mov	x29, sp
    1574:	f9000bf3 	str	x19, [sp, #16]
/home/fangjiang/workspace/optee-os/lib/libutee/tee_api.c:348
    1578:	97fffb6a 	bl	320 <_utee_wait>
/home/fangjiang/workspace/optee-os/lib/libutee/tee_api.c:350
    157c:	7100001f 	cmp	w0, #0x0
    1580:	129fffa1 	mov	w1, #0xffff0002            	// #-65534
/home/fangjiang/workspace/optee-os/lib/libutee/tee_api.c:348
    1584:	2a0003f3 	mov	w19, w0
/home/fangjiang/workspace/optee-os/lib/libutee/tee_api.c:350
    1588:	7a411004 	ccmp	w0, w1, #0x4, ne  // ne = any
    158c:	54000040 	b.eq	1594 <TEE_Wait+0x2c>  // b.none
/home/fangjiang/workspace/optee-os/lib/libutee/tee_api.c:351
    1590:	94000803 	bl	359c <TEE_Panic>
/home/fangjiang/workspace/optee-os/lib/libutee/tee_api.c:354
    1594:	2a1303e0 	mov	w0, w19
    1598:	f9400bf3 	ldr	x19, [sp, #16]
    159c:	a8c27bfd 	ldp	x29, x30, [sp], #32
    15a0:	d65f03c0 	ret

00000000000015a4 <TEE_GetTAPersistentTime>:
TEE_GetTAPersistentTime():
/home/fangjiang/workspace/optee-os/lib/libutee/tee_api.c:357
    15a4:	a9be7bfd 	stp	x29, x30, [sp, #-32]!
/home/fangjiang/workspace/optee-os/lib/libutee/tee_api.c:360
    15a8:	aa0003e1 	mov	x1, x0
/home/fangjiang/workspace/optee-os/lib/libutee/tee_api.c:357
    15ac:	910003fd 	mov	x29, sp
    15b0:	a90153f3 	stp	x19, x20, [sp, #16]
    15b4:	aa0003f4 	mov	x20, x0
/home/fangjiang/workspace/optee-os/lib/libutee/tee_api.c:360
    15b8:	d2800020 	mov	x0, #0x1                   	// #1
    15bc:	97fffb5c 	bl	32c <_utee_get_time>
/home/fangjiang/workspace/optee-os/lib/libutee/tee_api.c:362
    15c0:	7100001f 	cmp	w0, #0x0
/home/fangjiang/workspace/optee-os/lib/libutee/tee_api.c:360
    15c4:	2a0003f3 	mov	w19, w0
/home/fangjiang/workspace/optee-os/lib/libutee/tee_api.c:362
    15c8:	1a9f07e2 	cset	w2, ne  // ne = any
    15cc:	1299fe00 	mov	w0, #0xffff300f            	// #-53233
    15d0:	6b00027f 	cmp	w19, w0
    15d4:	1a9f07e0 	cset	w0, ne  // ne = any
    15d8:	6a000040 	ands	w0, w2, w0
    15dc:	54000040 	b.eq	15e4 <TEE_GetTAPersistentTime+0x40>  // b.none
/home/fangjiang/workspace/optee-os/lib/libutee/tee_api.c:364
    15e0:	29007e9f 	stp	wzr, wzr, [x20]
/home/fangjiang/workspace/optee-os/lib/libutee/tee_api.c:368
    15e4:	11402e61 	add	w1, w19, #0xb, lsl #12
/home/fangjiang/workspace/optee-os/lib/libutee/tee_api.c:367
    15e8:	7100005f 	cmp	w2, #0x0
    15ec:	7a411820 	ccmp	w1, #0x1, #0x0, ne  // ne = any
    15f0:	540000e9 	b.ls	160c <TEE_GetTAPersistentTime+0x68>  // b.plast
/home/fangjiang/workspace/optee-os/lib/libutee/tee_api.c:369
    15f4:	340000c0 	cbz	w0, 160c <TEE_GetTAPersistentTime+0x68>
/home/fangjiang/workspace/optee-os/lib/libutee/tee_api.c:370
    15f8:	129ffe60 	mov	w0, #0xffff000c            	// #-65524
    15fc:	6b00027f 	cmp	w19, w0
    1600:	54000060 	b.eq	160c <TEE_GetTAPersistentTime+0x68>  // b.none
/home/fangjiang/workspace/optee-os/lib/libutee/tee_api.c:372
    1604:	2a1303e0 	mov	w0, w19
    1608:	940007e5 	bl	359c <TEE_Panic>
/home/fangjiang/workspace/optee-os/lib/libutee/tee_api.c:375
    160c:	2a1303e0 	mov	w0, w19
    1610:	a94153f3 	ldp	x19, x20, [sp, #16]
    1614:	a8c27bfd 	ldp	x29, x30, [sp], #32
    1618:	d65f03c0 	ret

000000000000161c <TEE_SetTAPersistentTime>:
TEE_SetTAPersistentTime():
/home/fangjiang/workspace/optee-os/lib/libutee/tee_api.c:378
    161c:	a9be7bfd 	stp	x29, x30, [sp, #-32]!
    1620:	910003fd 	mov	x29, sp
    1624:	f9000bf3 	str	x19, [sp, #16]
/home/fangjiang/workspace/optee-os/lib/libutee/tee_api.c:381
    1628:	97fffb44 	bl	338 <_utee_set_ta_time>
/home/fangjiang/workspace/optee-os/lib/libutee/tee_api.c:383
    162c:	7100001f 	cmp	w0, #0x0
    1630:	129ffe61 	mov	w1, #0xffff000c            	// #-65524
/home/fangjiang/workspace/optee-os/lib/libutee/tee_api.c:381
    1634:	2a0003f3 	mov	w19, w0
/home/fangjiang/workspace/optee-os/lib/libutee/tee_api.c:383
    1638:	7a411004 	ccmp	w0, w1, #0x4, ne  // ne = any
    163c:	540000a0 	b.eq	1650 <TEE_SetTAPersistentTime+0x34>  // b.none
/home/fangjiang/workspace/optee-os/lib/libutee/tee_api.c:384
    1640:	1299f7c1 	mov	w1, #0xffff3041            	// #-53183
    1644:	6b01001f 	cmp	w0, w1
    1648:	54000040 	b.eq	1650 <TEE_SetTAPersistentTime+0x34>  // b.none
/home/fangjiang/workspace/optee-os/lib/libutee/tee_api.c:386
    164c:	940007d4 	bl	359c <TEE_Panic>
/home/fangjiang/workspace/optee-os/lib/libutee/tee_api.c:389
    1650:	2a1303e0 	mov	w0, w19
    1654:	f9400bf3 	ldr	x19, [sp, #16]
    1658:	a8c27bfd 	ldp	x29, x30, [sp], #32
    165c:	d65f03c0 	ret

0000000000001660 <TEE_GetREETime>:
TEE_GetREETime():
/home/fangjiang/workspace/optee-os/lib/libutee/tee_api.c:392
    1660:	a9bf7bfd 	stp	x29, x30, [sp, #-16]!
/home/fangjiang/workspace/optee-os/lib/libutee/tee_api.c:393
    1664:	aa0003e1 	mov	x1, x0
    1668:	d2800040 	mov	x0, #0x2                   	// #2
/home/fangjiang/workspace/optee-os/lib/libutee/tee_api.c:392
    166c:	910003fd 	mov	x29, sp
/home/fangjiang/workspace/optee-os/lib/libutee/tee_api.c:393
    1670:	97fffb2f 	bl	32c <_utee_get_time>
/home/fangjiang/workspace/optee-os/lib/libutee/tee_api.c:395
    1674:	34000060 	cbz	w0, 1680 <TEE_GetREETime+0x20>
/home/fangjiang/workspace/optee-os/lib/libutee/tee_api.c:397
    1678:	a8c17bfd 	ldp	x29, x30, [sp], #16
/home/fangjiang/workspace/optee-os/lib/libutee/tee_api.c:396
    167c:	140007c8 	b	359c <TEE_Panic>
/home/fangjiang/workspace/optee-os/lib/libutee/tee_api.c:397
    1680:	a8c17bfd 	ldp	x29, x30, [sp], #16
    1684:	d65f03c0 	ret

0000000000001688 <TEE_Malloc>:
TEE_Malloc():
/home/fangjiang/workspace/optee-os/lib/libutee/tee_api.c:401
    1688:	34000300 	cbz	w0, 16e8 <TEE_Malloc+0x60>
    168c:	2a0103e5 	mov	w5, w1
/home/fangjiang/workspace/optee-os/lib/libutee/tee_api.c:404
    1690:	35000081 	cbnz	w1, 16a0 <TEE_Malloc+0x18>
/home/fangjiang/workspace/optee-os/lib/libutee/tee_api.c:405
    1694:	2a0003e1 	mov	w1, w0
    1698:	d2800020 	mov	x0, #0x1                   	// #1
    169c:	14001d3b 	b	8b88 <calloc>
/home/fangjiang/workspace/optee-os/lib/libutee/tee_api.c:406
    16a0:	52b00001 	mov	w1, #0x80000000            	// #-2147483648
    16a4:	6b0100bf 	cmp	w5, w1
    16a8:	54000061 	b.ne	16b4 <TEE_Malloc+0x2c>  // b.any
/home/fangjiang/workspace/optee-os/lib/libutee/tee_api.c:407
    16ac:	2a0003e0 	mov	w0, w0
    16b0:	14001d30 	b	8b70 <malloc>
/home/fangjiang/workspace/optee-os/lib/libutee/tee_api.c:400
    16b4:	a9bf7bfd 	stp	x29, x30, [sp, #-16]!
/home/fangjiang/workspace/optee-os/lib/libutee/tee_api.c:409
    16b8:	52800023 	mov	w3, #0x1                   	// #1
    16bc:	52800022 	mov	w2, #0x1                   	// #1
/home/fangjiang/workspace/optee-os/lib/libutee/tee_api.c:400
    16c0:	910003fd 	mov	x29, sp
/home/fangjiang/workspace/optee-os/lib/libutee/tee_api.c:409
    16c4:	52803321 	mov	w1, #0x199                 	// #409
    16c8:	f0000044 	adrp	x4, c000 <__text_end+0x1cb0>
    16cc:	f0000040 	adrp	x0, c000 <__text_end+0x1cb0>
    16d0:	911ce884 	add	x4, x4, #0x73a
    16d4:	911d2c00 	add	x0, x0, #0x74b
    16d8:	94002257 	bl	a034 <trace_printf>
/home/fangjiang/workspace/optee-os/lib/libutee/tee_api.c:411
    16dc:	d2800000 	mov	x0, #0x0                   	// #0
/home/fangjiang/workspace/optee-os/lib/libutee/tee_api.c:412
    16e0:	a8c17bfd 	ldp	x29, x30, [sp], #16
    16e4:	d65f03c0 	ret
/home/fangjiang/workspace/optee-os/lib/libutee/tee_api.c:402
    16e8:	d2800020 	mov	x0, #0x1                   	// #1
/home/fangjiang/workspace/optee-os/lib/libutee/tee_api.c:412
    16ec:	d65f03c0 	ret

00000000000016f0 <TEE_Free>:
TEE_Free():
/home/fangjiang/workspace/optee-os/lib/libutee/tee_api.c:429
    16f0:	f100041f 	cmp	x0, #0x1
    16f4:	54000040 	b.eq	16fc <TEE_Free+0xc>  // b.none
/home/fangjiang/workspace/optee-os/lib/libutee/tee_api.c:430
    16f8:	14001d38 	b	8bd8 <free>
/home/fangjiang/workspace/optee-os/lib/libutee/tee_api.c:431
    16fc:	d65f03c0 	ret

0000000000001700 <TEE_Realloc>:
TEE_Realloc():
/home/fangjiang/workspace/optee-os/lib/libutee/tee_api.c:416
    1700:	340000c1 	cbz	w1, 1718 <TEE_Realloc+0x18>
/home/fangjiang/workspace/optee-os/lib/libutee/tee_api.c:422
    1704:	2a0103e1 	mov	w1, w1
/home/fangjiang/workspace/optee-os/lib/libutee/tee_api.c:421
    1708:	f100041f 	cmp	x0, #0x1
    170c:	54000041 	b.ne	1714 <TEE_Realloc+0x14>  // b.any
/home/fangjiang/workspace/optee-os/lib/libutee/tee_api.c:422
    1710:	14001d1e 	b	8b88 <calloc>
/home/fangjiang/workspace/optee-os/lib/libutee/tee_api.c:424
    1714:	14001d24 	b	8ba4 <realloc>
/home/fangjiang/workspace/optee-os/lib/libutee/tee_api.c:415
    1718:	a9bf7bfd 	stp	x29, x30, [sp, #-16]!
    171c:	910003fd 	mov	x29, sp
/home/fangjiang/workspace/optee-os/lib/libutee/tee_api.c:417
    1720:	97fffff4 	bl	16f0 <TEE_Free>
/home/fangjiang/workspace/optee-os/lib/libutee/tee_api.c:425
    1724:	d2800020 	mov	x0, #0x1                   	// #1
    1728:	a8c17bfd 	ldp	x29, x30, [sp], #16
    172c:	d65f03c0 	ret

0000000000001730 <TEE_CacheClean>:
TEE_CacheClean():
/home/fangjiang/workspace/optee-os/lib/libutee/tee_api.c:436
    1730:	d2800002 	mov	x2, #0x0                   	// #0
    1734:	17fffb7c 	b	524 <_utee_cache_operation>

0000000000001738 <TEE_CacheFlush>:
TEE_CacheFlush():
/home/fangjiang/workspace/optee-os/lib/libutee/tee_api.c:440
    1738:	d2800022 	mov	x2, #0x1                   	// #1
    173c:	17fffb7a 	b	524 <_utee_cache_operation>

0000000000001740 <TEE_CacheInvalidate>:
TEE_CacheInvalidate():
/home/fangjiang/workspace/optee-os/lib/libutee/tee_api.c:445
    1740:	d2800042 	mov	x2, #0x2                   	// #2
    1744:	17fffb78 	b	524 <_utee_cache_operation>

0000000000001748 <api_panic>:
api_panic():
/home/fangjiang/workspace/optee-os/lib/libutee/tee_api_arith_mpi.c:19
    1748:	a9bf7bfd 	stp	x29, x30, [sp, #-16]!
/home/fangjiang/workspace/optee-os/lib/libutee/tee_api_arith_mpi.c:20
    174c:	aa0203e3 	mov	x3, x2
    1750:	2a0103e2 	mov	w2, w1
    1754:	aa0003e1 	mov	x1, x0
/home/fangjiang/workspace/optee-os/lib/libutee/tee_api_arith_mpi.c:19
    1758:	910003fd 	mov	x29, sp
/home/fangjiang/workspace/optee-os/lib/libutee/tee_api_arith_mpi.c:20
    175c:	f0000040 	adrp	x0, c000 <__text_end+0x1cb0>
    1760:	911d5800 	add	x0, x0, #0x756
    1764:	97fffd4d 	bl	c98 <printf>
/home/fangjiang/workspace/optee-os/lib/libutee/tee_api_arith_mpi.c:21
    1768:	528c24e0 	mov	w0, #0x6127                	// #24871
    176c:	72a01620 	movk	w0, #0xb1, lsl #16
    1770:	9400078b 	bl	359c <TEE_Panic>
/home/fangjiang/workspace/optee-os/lib/libutee/tee_api_arith_mpi.c:22 (discriminator 1)
    1774:	14000000 	b	1774 <api_panic+0x2c>

0000000000001778 <mpi_panic>:
mpi_panic():
/home/fangjiang/workspace/optee-os/lib/libutee/tee_api_arith_mpi.c:29
    1778:	a9bf7bfd 	stp	x29, x30, [sp, #-16]!
/home/fangjiang/workspace/optee-os/lib/libutee/tee_api_arith_mpi.c:30
    177c:	2a0203e3 	mov	w3, w2
    1780:	2a0103e2 	mov	w2, w1
    1784:	aa0003e1 	mov	x1, x0
/home/fangjiang/workspace/optee-os/lib/libutee/tee_api_arith_mpi.c:29
    1788:	910003fd 	mov	x29, sp
/home/fangjiang/workspace/optee-os/lib/libutee/tee_api_arith_mpi.c:30
    178c:	f0000040 	adrp	x0, c000 <__text_end+0x1cb0>
    1790:	911dd800 	add	x0, x0, #0x776
    1794:	97fffd41 	bl	c98 <printf>
/home/fangjiang/workspace/optee-os/lib/libutee/tee_api_arith_mpi.c:31
    1798:	528c24e0 	mov	w0, #0x6127                	// #24871
    179c:	72a01620 	movk	w0, #0xb1, lsl #16
    17a0:	9400077f 	bl	359c <TEE_Panic>
/home/fangjiang/workspace/optee-os/lib/libutee/tee_api_arith_mpi.c:32 (discriminator 1)
    17a4:	14000000 	b	17a4 <mpi_panic+0x2c>

00000000000017a8 <get_mpi>:
get_mpi():
/home/fangjiang/workspace/optee-os/lib/libutee/tee_api_arith_mpi.c:86
    17a8:	a9bd7bfd 	stp	x29, x30, [sp, #-48]!
    17ac:	910003fd 	mov	x29, sp
    17b0:	a90153f3 	stp	x19, x20, [sp, #16]
    17b4:	aa0103f3 	mov	x19, x1
    17b8:	a9025bf5 	stp	x21, x22, [sp, #32]
    17bc:	aa0003f5 	mov	x21, x0
/home/fangjiang/workspace/optee-os/lib/libutee/tee_api_arith_mpi.c:101
    17c0:	94000b73 	bl	458c <mbedtls_mpi_init_mempool>
/home/fangjiang/workspace/optee-os/lib/libutee/tee_api_arith_mpi.c:103
    17c4:	b4000373 	cbz	x19, 1830 <get_mpi+0x88>
/home/fangjiang/workspace/optee-os/lib/libutee/tee_api_arith_mpi.c:106
    17c8:	79400e74 	ldrh	w20, [x19, #6]
/home/fangjiang/workspace/optee-os/lib/libutee/tee_api_arith_mpi.c:105
    17cc:	91002276 	add	x22, x19, #0x8
/home/fangjiang/workspace/optee-os/lib/libutee/tee_api_arith_mpi.c:109
    17d0:	91001261 	add	x1, x19, #0x4
    17d4:	b4000074 	cbz	x20, 17e0 <get_mpi+0x38>
/home/fangjiang/workspace/optee-os/lib/libutee/tee_api_arith_mpi.c:109 (discriminator 1)
    17d8:	b8747820 	ldr	w0, [x1, x20, lsl #2]
    17dc:	34000140 	cbz	w0, 1804 <get_mpi+0x5c>
/home/fangjiang/workspace/optee-os/lib/libutee/tee_api_arith_mpi.c:112
    17e0:	aa1403e1 	mov	x1, x20
    17e4:	aa1503e0 	mov	x0, x21
    17e8:	94000b8e 	bl	4620 <mbedtls_mpi_grow>
    17ec:	2a0003e2 	mov	w2, w0
    17f0:	340000e0 	cbz	w0, 180c <get_mpi+0x64>
/home/fangjiang/workspace/optee-os/lib/libutee/tee_api_arith_mpi.c:112 (discriminator 1)
    17f4:	f0000040 	adrp	x0, c000 <__text_end+0x1cb0>
    17f8:	52800e01 	mov	w1, #0x70                  	// #112
    17fc:	91203400 	add	x0, x0, #0x80d
    1800:	97ffffde 	bl	1778 <mpi_panic>
/home/fangjiang/workspace/optee-os/lib/libutee/tee_api_arith_mpi.c:110
    1804:	d1000694 	sub	x20, x20, #0x1
    1808:	17fffff3 	b	17d4 <get_mpi+0x2c>
/home/fangjiang/workspace/optee-os/lib/libutee/tee_api_arith_mpi.c:113 (discriminator 2)
    180c:	b9400260 	ldr	w0, [x19]
/home/fangjiang/workspace/optee-os/lib/libutee/tee_api_arith_mpi.c:114 (discriminator 2)
    1810:	d37ef682 	lsl	x2, x20, #2
/home/fangjiang/workspace/optee-os/lib/libutee/tee_api_arith_mpi.c:113 (discriminator 2)
    1814:	790002a0 	strh	w0, [x21]
/home/fangjiang/workspace/optee-os/lib/libutee/tee_api_arith_mpi.c:114 (discriminator 2)
    1818:	aa1603e1 	mov	x1, x22
/home/fangjiang/workspace/optee-os/lib/libutee/tee_api_arith_mpi.c:116 (discriminator 2)
    181c:	a94153f3 	ldp	x19, x20, [sp, #16]
/home/fangjiang/workspace/optee-os/lib/libutee/tee_api_arith_mpi.c:114 (discriminator 2)
    1820:	f9400aa0 	ldr	x0, [x21, #16]
/home/fangjiang/workspace/optee-os/lib/libutee/tee_api_arith_mpi.c:116 (discriminator 2)
    1824:	a9425bf5 	ldp	x21, x22, [sp, #32]
    1828:	a8c37bfd 	ldp	x29, x30, [sp], #48
/home/fangjiang/workspace/optee-os/lib/libutee/tee_api_arith_mpi.c:114 (discriminator 2)
    182c:	17fff9fd 	b	20 <memcpy>
/home/fangjiang/workspace/optee-os/lib/libutee/tee_api_arith_mpi.c:116
    1830:	a94153f3 	ldp	x19, x20, [sp, #16]
    1834:	a9425bf5 	ldp	x21, x22, [sp, #32]
    1838:	a8c37bfd 	ldp	x29, x30, [sp], #48
    183c:	d65f03c0 	ret

0000000000001840 <copy_mpi_to_bigint>:
copy_mpi_to_bigint():
/home/fangjiang/workspace/optee-os/lib/libutee/tee_api_arith_mpi.c:61
    1840:	aa0003e4 	mov	x4, x0
    1844:	aa0103e0 	mov	x0, x1
/home/fangjiang/workspace/optee-os/lib/libutee/tee_api_arith_mpi.c:66
    1848:	a9408482 	ldp	x2, x1, [x4, #8]
/home/fangjiang/workspace/optee-os/lib/libutee/tee_api_arith_mpi.c:63
    184c:	aa0203e3 	mov	x3, x2
/home/fangjiang/workspace/optee-os/lib/libutee/tee_api_arith_mpi.c:66
    1850:	b40000e3 	cbz	x3, 186c <copy_mpi_to_bigint+0x2c>
/home/fangjiang/workspace/optee-os/lib/libutee/tee_api_arith_mpi.c:66 (discriminator 1)
    1854:	8b030825 	add	x5, x1, x3, lsl #2
    1858:	b85fc0a5 	ldur	w5, [x5, #-4]
    185c:	340001c5 	cbz	w5, 1894 <copy_mpi_to_bigint+0x54>
/home/fangjiang/workspace/optee-os/lib/libutee/tee_api_arith_mpi.c:69
    1860:	79400805 	ldrh	w5, [x0, #4]
    1864:	eb0300bf 	cmp	x5, x3
    1868:	540001a3 	b.cc	189c <copy_mpi_to_bigint+0x5c>  // b.lo, b.ul, b.last
/home/fangjiang/workspace/optee-os/lib/libutee/tee_api_arith_mpi.c:61
    186c:	a9bf7bfd 	stp	x29, x30, [sp, #-16]!
/home/fangjiang/workspace/optee-os/lib/libutee/tee_api_arith_mpi.c:74
    1870:	d37ef442 	lsl	x2, x2, #2
/home/fangjiang/workspace/optee-os/lib/libutee/tee_api_arith_mpi.c:61
    1874:	910003fd 	mov	x29, sp
/home/fangjiang/workspace/optee-os/lib/libutee/tee_api_arith_mpi.c:72
    1878:	79000c03 	strh	w3, [x0, #6]
/home/fangjiang/workspace/optee-os/lib/libutee/tee_api_arith_mpi.c:73
    187c:	79c00083 	ldrsh	w3, [x4]
    1880:	b8008403 	str	w3, [x0], #8
/home/fangjiang/workspace/optee-os/lib/libutee/tee_api_arith_mpi.c:74
    1884:	97fff9e7 	bl	20 <memcpy>
/home/fangjiang/workspace/optee-os/lib/libutee/tee_api_arith_mpi.c:76
    1888:	52800000 	mov	w0, #0x0                   	// #0
/home/fangjiang/workspace/optee-os/lib/libutee/tee_api_arith_mpi.c:77
    188c:	a8c17bfd 	ldp	x29, x30, [sp], #16
    1890:	d65f03c0 	ret
/home/fangjiang/workspace/optee-os/lib/libutee/tee_api_arith_mpi.c:67
    1894:	d1000463 	sub	x3, x3, #0x1
    1898:	17ffffee 	b	1850 <copy_mpi_to_bigint+0x10>
/home/fangjiang/workspace/optee-os/lib/libutee/tee_api_arith_mpi.c:70
    189c:	1299fe00 	mov	w0, #0xffff300f            	// #-53233
/home/fangjiang/workspace/optee-os/lib/libutee/tee_api_arith_mpi.c:77
    18a0:	d65f03c0 	ret

00000000000018a4 <bigint_binary>:
bigint_binary():
/home/fangjiang/workspace/optee-os/lib/libutee/tee_api_arith_mpi.c:319
    18a4:	d10283ff 	sub	sp, sp, #0xa0
    18a8:	b0000064 	adrp	x4, e000 <_DYNAMIC>
    18ac:	a9057bfd 	stp	x29, x30, [sp, #80]
    18b0:	910143fd 	add	x29, sp, #0x50
    18b4:	f9409884 	ldr	x4, [x4, #304]
    18b8:	a90653f3 	stp	x19, x20, [sp, #96]
    18bc:	aa0003f4 	mov	x20, x0
    18c0:	a9075bf5 	stp	x21, x22, [sp, #112]
/home/fangjiang/workspace/optee-os/lib/libutee/tee_api_arith_mpi.c:326
    18c4:	910003f3 	mov	x19, sp
/home/fangjiang/workspace/optee-os/lib/libutee/tee_api_arith_mpi.c:319
    18c8:	aa0203f5 	mov	x21, x2
    18cc:	a90863f7 	stp	x23, x24, [sp, #128]
    18d0:	aa0103f7 	mov	x23, x1
/home/fangjiang/workspace/optee-os/lib/libutee/tee_api_arith_mpi.c:326
    18d4:	aa1403e1 	mov	x1, x20
/home/fangjiang/workspace/optee-os/lib/libutee/tee_api_arith_mpi.c:319
    18d8:	a9096bf9 	stp	x25, x26, [sp, #144]
    18dc:	aa0303f9 	mov	x25, x3
    18e0:	910063fa 	add	x26, sp, #0x18
    18e4:	f9400080 	ldr	x0, [x4]
    18e8:	f90027e0 	str	x0, [sp, #72]
    18ec:	d2800000 	mov	x0, #0x0                   	// #0
/home/fangjiang/workspace/optee-os/lib/libutee/tee_api_arith_mpi.c:326
    18f0:	aa1303e0 	mov	x0, x19
    18f4:	97ffffad 	bl	17a8 <get_mpi>
/home/fangjiang/workspace/optee-os/lib/libutee/tee_api_arith_mpi.c:328
    18f8:	eb17029f 	cmp	x20, x23
    18fc:	54000320 	b.eq	1960 <bigint_binary+0xbc>  // b.none
/home/fangjiang/workspace/optee-os/lib/libutee/tee_api_arith_mpi.c:323
    1900:	aa1a03f6 	mov	x22, x26
/home/fangjiang/workspace/optee-os/lib/libutee/tee_api_arith_mpi.c:331
    1904:	aa1703e1 	mov	x1, x23
    1908:	aa1a03e0 	mov	x0, x26
    190c:	97ffffa7 	bl	17a8 <get_mpi>
/home/fangjiang/workspace/optee-os/lib/libutee/tee_api_arith_mpi.c:333
    1910:	eb15029f 	cmp	x20, x21
    1914:	9100c3f8 	add	x24, sp, #0x30
    1918:	54000280 	b.eq	1968 <bigint_binary+0xc4>  // b.none
/home/fangjiang/workspace/optee-os/lib/libutee/tee_api_arith_mpi.c:335
    191c:	eb1502ff 	cmp	x23, x21
    1920:	54000280 	b.eq	1970 <bigint_binary+0xcc>  // b.none
/home/fangjiang/workspace/optee-os/lib/libutee/tee_api_arith_mpi.c:338
    1924:	aa1503e1 	mov	x1, x21
/home/fangjiang/workspace/optee-os/lib/libutee/tee_api_arith_mpi.c:324
    1928:	aa1803f5 	mov	x21, x24
/home/fangjiang/workspace/optee-os/lib/libutee/tee_api_arith_mpi.c:338
    192c:	aa1803e0 	mov	x0, x24
    1930:	97ffff9e 	bl	17a8 <get_mpi>
/home/fangjiang/workspace/optee-os/lib/libutee/tee_api_arith_mpi.c:340
    1934:	aa1503e2 	mov	x2, x21
    1938:	aa1603e1 	mov	x1, x22
    193c:	aa1303e0 	mov	x0, x19
    1940:	d63f0320 	blr	x25
    1944:	2a0003e2 	mov	w2, w0
    1948:	34000180 	cbz	w0, 1978 <bigint_binary+0xd4>
/home/fangjiang/workspace/optee-os/lib/libutee/tee_api_arith_mpi.c:340 (discriminator 1)
    194c:	52802a81 	mov	w1, #0x154                 	// #340
/home/fangjiang/workspace/optee-os/lib/libutee/tee_api_arith_mpi.c:342 (discriminator 1)
    1950:	f0000040 	adrp	x0, c000 <__text_end+0x1cb0>
    1954:	91203400 	add	x0, x0, #0x80d
    1958:	91002000 	add	x0, x0, #0x8
    195c:	97ffff87 	bl	1778 <mpi_panic>
/home/fangjiang/workspace/optee-os/lib/libutee/tee_api_arith_mpi.c:329
    1960:	aa1303f6 	mov	x22, x19
    1964:	17ffffeb 	b	1910 <bigint_binary+0x6c>
/home/fangjiang/workspace/optee-os/lib/libutee/tee_api_arith_mpi.c:334
    1968:	aa1303f5 	mov	x21, x19
    196c:	17fffff2 	b	1934 <bigint_binary+0x90>
/home/fangjiang/workspace/optee-os/lib/libutee/tee_api_arith_mpi.c:336
    1970:	aa1603f5 	mov	x21, x22
    1974:	17fffff0 	b	1934 <bigint_binary+0x90>
/home/fangjiang/workspace/optee-os/lib/libutee/tee_api_arith_mpi.c:342 (discriminator 2)
    1978:	aa1403e1 	mov	x1, x20
    197c:	aa1303e0 	mov	x0, x19
    1980:	97ffffb0 	bl	1840 <copy_mpi_to_bigint>
    1984:	2a0003e2 	mov	w2, w0
    1988:	34000060 	cbz	w0, 1994 <bigint_binary+0xf0>
/home/fangjiang/workspace/optee-os/lib/libutee/tee_api_arith_mpi.c:342 (discriminator 1)
    198c:	52802ac1 	mov	w1, #0x156                 	// #342
    1990:	17fffff0 	b	1950 <bigint_binary+0xac>
/home/fangjiang/workspace/optee-os/lib/libutee/tee_api_arith_mpi.c:343 (discriminator 2)
    1994:	aa1303e0 	mov	x0, x19
    1998:	94000b07 	bl	45b4 <mbedtls_mpi_free>
/home/fangjiang/workspace/optee-os/lib/libutee/tee_api_arith_mpi.c:344 (discriminator 2)
    199c:	eb1a02df 	cmp	x22, x26
    19a0:	54000061 	b.ne	19ac <bigint_binary+0x108>  // b.any
/home/fangjiang/workspace/optee-os/lib/libutee/tee_api_arith_mpi.c:345
    19a4:	aa1603e0 	mov	x0, x22
    19a8:	94000b03 	bl	45b4 <mbedtls_mpi_free>
/home/fangjiang/workspace/optee-os/lib/libutee/tee_api_arith_mpi.c:346
    19ac:	eb1802bf 	cmp	x21, x24
    19b0:	54000061 	b.ne	19bc <bigint_binary+0x118>  // b.any
/home/fangjiang/workspace/optee-os/lib/libutee/tee_api_arith_mpi.c:347
    19b4:	aa1503e0 	mov	x0, x21
    19b8:	94000aff 	bl	45b4 <mbedtls_mpi_free>
/home/fangjiang/workspace/optee-os/lib/libutee/tee_api_arith_mpi.c:348
    19bc:	b0000064 	adrp	x4, e000 <_DYNAMIC>
    19c0:	f9409884 	ldr	x4, [x4, #304]
    19c4:	f94027e0 	ldr	x0, [sp, #72]
    19c8:	f9400081 	ldr	x1, [x4]
    19cc:	eb010000 	subs	x0, x0, x1
    19d0:	d2800001 	mov	x1, #0x0                   	// #0
    19d4:	54000040 	b.eq	19dc <bigint_binary+0x138>  // b.none
    19d8:	94001d5a 	bl	8f40 <__stack_chk_fail>
    19dc:	a9457bfd 	ldp	x29, x30, [sp, #80]
    19e0:	a94653f3 	ldp	x19, x20, [sp, #96]
    19e4:	a9475bf5 	ldp	x21, x22, [sp, #112]
    19e8:	a94863f7 	ldp	x23, x24, [sp, #128]
    19ec:	a9496bf9 	ldp	x25, x26, [sp, #144]
    19f0:	910283ff 	add	sp, sp, #0xa0
    19f4:	d65f03c0 	ret

00000000000019f8 <mpi_is_odd>:
mpi_is_odd():
/home/fangjiang/workspace/optee-os/lib/libutee/tee_api_arith_mpi.c:591
    19f8:	a9bf7bfd 	stp	x29, x30, [sp, #-16]!
/home/fangjiang/workspace/optee-os/lib/libutee/tee_api_arith_mpi.c:592
    19fc:	d2800001 	mov	x1, #0x0                   	// #0
/home/fangjiang/workspace/optee-os/lib/libutee/tee_api_arith_mpi.c:591
    1a00:	910003fd 	mov	x29, sp
/home/fangjiang/workspace/optee-os/lib/libutee/tee_api_arith_mpi.c:592
    1a04:	94000c7d 	bl	4bf8 <mbedtls_mpi_get_bit>
    1a08:	7100001f 	cmp	w0, #0x0
/home/fangjiang/workspace/optee-os/lib/libutee/tee_api_arith_mpi.c:593
    1a0c:	1a9f07e0 	cset	w0, ne  // ne = any
    1a10:	a8c17bfd 	ldp	x29, x30, [sp], #16
    1a14:	d65f03c0 	ret

0000000000001a18 <rng_read>:
rng_read():
/home/fangjiang/workspace/optee-os/lib/libutee/tee_api_arith_mpi.c:756
    1a18:	a9bf7bfd 	stp	x29, x30, [sp, #-16]!
    1a1c:	aa0103e0 	mov	x0, x1
    1a20:	aa0203e1 	mov	x1, x2
    1a24:	910003fd 	mov	x29, sp
/home/fangjiang/workspace/optee-os/lib/libutee/tee_api_arith_mpi.c:757
    1a28:	97fffa7d 	bl	41c <_utee_cryp_random_number_generate>
/home/fangjiang/workspace/optee-os/lib/libutee/tee_api_arith_mpi.c:758
    1a2c:	7100001f 	cmp	w0, #0x0
/home/fangjiang/workspace/optee-os/lib/libutee/tee_api_arith_mpi.c:760
    1a30:	a8c17bfd 	ldp	x29, x30, [sp], #16
    1a34:	12800020 	mov	w0, #0xfffffffe            	// #-2
    1a38:	1a9f1000 	csel	w0, w0, wzr, ne  // ne = any
    1a3c:	d65f03c0 	ret

0000000000001a40 <mpi_egcd>:
mpi_egcd():
/home/fangjiang/workspace/optee-os/lib/libutee/tee_api_arith_mpi.c:606
    1a40:	d10483ff 	sub	sp, sp, #0x120
    1a44:	a90c7bfd 	stp	x29, x30, [sp, #192]
    1a48:	910303fd 	add	x29, sp, #0xc0
    1a4c:	a90e5bf5 	stp	x21, x22, [sp, #224]
    1a50:	aa0003f5 	mov	x21, x0
    1a54:	b0000060 	adrp	x0, e000 <_DYNAMIC>
    1a58:	a90013e2 	stp	x2, x4, [sp]
get_mpi():
/home/fangjiang/workspace/optee-os/lib/libutee/tee_api_arith_mpi.c:101
    1a5c:	910283f6 	add	x22, sp, #0xa0
mpi_egcd():
/home/fangjiang/workspace/optee-os/lib/libutee/tee_api_arith_mpi.c:606
    1a60:	f9409800 	ldr	x0, [x0, #304]
    1a64:	a90d53f3 	stp	x19, x20, [sp, #208]
get_mpi():
/home/fangjiang/workspace/optee-os/lib/libutee/tee_api_arith_mpi.c:101
    1a68:	910103f4 	add	x20, sp, #0x40
mpi_egcd():
/home/fangjiang/workspace/optee-os/lib/libutee/tee_api_arith_mpi.c:606
    1a6c:	a90f63f7 	stp	x23, x24, [sp, #240]
get_mpi():
/home/fangjiang/workspace/optee-os/lib/libutee/tee_api_arith_mpi.c:101
    1a70:	910043f8 	add	x24, sp, #0x10
    1a74:	9100a3f7 	add	x23, sp, #0x28
mpi_egcd():
/home/fangjiang/workspace/optee-os/lib/libutee/tee_api_arith_mpi.c:606
    1a78:	a9106bf9 	stp	x25, x26, [sp, #256]
get_mpi():
/home/fangjiang/workspace/optee-os/lib/libutee/tee_api_arith_mpi.c:101
    1a7c:	910163f3 	add	x19, sp, #0x58
    1a80:	9101c3fa 	add	x26, sp, #0x70
mpi_egcd():
/home/fangjiang/workspace/optee-os/lib/libutee/tee_api_arith_mpi.c:606
    1a84:	a91173fb 	stp	x27, x28, [sp, #272]
    1a88:	aa0103fb 	mov	x27, x1
    1a8c:	aa0303fc 	mov	x28, x3
    1a90:	f9400001 	ldr	x1, [x0]
    1a94:	f9005fe1 	str	x1, [sp, #184]
    1a98:	d2800001 	mov	x1, #0x0                   	// #0
get_mpi():
/home/fangjiang/workspace/optee-os/lib/libutee/tee_api_arith_mpi.c:101
    1a9c:	aa1803e0 	mov	x0, x24
    1aa0:	910223f9 	add	x25, sp, #0x88
    1aa4:	94000aba 	bl	458c <mbedtls_mpi_init_mempool>
    1aa8:	aa1703e0 	mov	x0, x23
    1aac:	94000ab8 	bl	458c <mbedtls_mpi_init_mempool>
    1ab0:	aa1403e0 	mov	x0, x20
    1ab4:	94000ab6 	bl	458c <mbedtls_mpi_init_mempool>
    1ab8:	aa1303e0 	mov	x0, x19
    1abc:	94000ab4 	bl	458c <mbedtls_mpi_init_mempool>
    1ac0:	aa1a03e0 	mov	x0, x26
    1ac4:	94000ab2 	bl	458c <mbedtls_mpi_init_mempool>
    1ac8:	aa1903e0 	mov	x0, x25
    1acc:	94000ab0 	bl	458c <mbedtls_mpi_init_mempool>
    1ad0:	aa1603e0 	mov	x0, x22
    1ad4:	94000aae 	bl	458c <mbedtls_mpi_init_mempool>
mpi_egcd():
/home/fangjiang/workspace/optee-os/lib/libutee/tee_api_arith_mpi.c:625
    1ad8:	f94007e0 	ldr	x0, [sp, #8]
    1adc:	52800001 	mov	w1, #0x0                   	// #0
    1ae0:	94000e45 	bl	53f4 <mbedtls_mpi_cmp_int>
    1ae4:	35000320 	cbnz	w0, 1b48 <mpi_egcd+0x108>
/home/fangjiang/workspace/optee-os/lib/libutee/tee_api_arith_mpi.c:626
    1ae8:	aa1b03e0 	mov	x0, x27
    1aec:	52800021 	mov	w1, #0x1                   	// #1
    1af0:	94000c28 	bl	4b90 <mbedtls_mpi_lset>
    1af4:	2a0003e2 	mov	w2, w0
    1af8:	340000c0 	cbz	w0, 1b10 <mpi_egcd+0xd0>
/home/fangjiang/workspace/optee-os/lib/libutee/tee_api_arith_mpi.c:626 (discriminator 1)
    1afc:	52804e41 	mov	w1, #0x272                 	// #626
/home/fangjiang/workspace/optee-os/lib/libutee/tee_api_arith_mpi.c:627 (discriminator 1)
    1b00:	f0000040 	adrp	x0, c000 <__text_end+0x1cb0>
    1b04:	91203400 	add	x0, x0, #0x80d
    1b08:	91005800 	add	x0, x0, #0x16
    1b0c:	97ffff1b 	bl	1778 <mpi_panic>
/home/fangjiang/workspace/optee-os/lib/libutee/tee_api_arith_mpi.c:627 (discriminator 2)
    1b10:	f94003e0 	ldr	x0, [sp]
    1b14:	52800001 	mov	w1, #0x0                   	// #0
    1b18:	94000c1e 	bl	4b90 <mbedtls_mpi_lset>
    1b1c:	2a0003e2 	mov	w2, w0
    1b20:	34000060 	cbz	w0, 1b2c <mpi_egcd+0xec>
/home/fangjiang/workspace/optee-os/lib/libutee/tee_api_arith_mpi.c:627 (discriminator 1)
    1b24:	52804e61 	mov	w1, #0x273                 	// #627
    1b28:	17fffff6 	b	1b00 <mpi_egcd+0xc0>
/home/fangjiang/workspace/optee-os/lib/libutee/tee_api_arith_mpi.c:628 (discriminator 2)
    1b2c:	aa1c03e1 	mov	x1, x28
    1b30:	aa1503e0 	mov	x0, x21
    1b34:	94000b56 	bl	488c <mbedtls_mpi_copy>
    1b38:	2a0003e2 	mov	w2, w0
    1b3c:	34002040 	cbz	w0, 1f44 <mpi_egcd+0x504>
/home/fangjiang/workspace/optee-os/lib/libutee/tee_api_arith_mpi.c:628 (discriminator 1)
    1b40:	52804e81 	mov	w1, #0x274                 	// #628
    1b44:	17ffffef 	b	1b00 <mpi_egcd+0xc0>
/home/fangjiang/workspace/optee-os/lib/libutee/tee_api_arith_mpi.c:632
    1b48:	aa1c03e1 	mov	x1, x28
    1b4c:	aa1a03e0 	mov	x0, x26
    1b50:	94000b4f 	bl	488c <mbedtls_mpi_copy>
    1b54:	2a0003e2 	mov	w2, w0
    1b58:	34000060 	cbz	w0, 1b64 <mpi_egcd+0x124>
/home/fangjiang/workspace/optee-os/lib/libutee/tee_api_arith_mpi.c:632 (discriminator 1)
    1b5c:	52804f01 	mov	w1, #0x278                 	// #632
    1b60:	17ffffe8 	b	1b00 <mpi_egcd+0xc0>
/home/fangjiang/workspace/optee-os/lib/libutee/tee_api_arith_mpi.c:633 (discriminator 2)
    1b64:	f94007e1 	ldr	x1, [sp, #8]
    1b68:	aa1903e0 	mov	x0, x25
/home/fangjiang/workspace/optee-os/lib/libutee/tee_api_arith_mpi.c:635 (discriminator 2)
    1b6c:	5280001c 	mov	w28, #0x0                   	// #0
/home/fangjiang/workspace/optee-os/lib/libutee/tee_api_arith_mpi.c:633 (discriminator 2)
    1b70:	94000b47 	bl	488c <mbedtls_mpi_copy>
    1b74:	2a0003e2 	mov	w2, w0
    1b78:	34000140 	cbz	w0, 1ba0 <mpi_egcd+0x160>
/home/fangjiang/workspace/optee-os/lib/libutee/tee_api_arith_mpi.c:633 (discriminator 1)
    1b7c:	52804f21 	mov	w1, #0x279                 	// #633
    1b80:	17ffffe0 	b	1b00 <mpi_egcd+0xc0>
/home/fangjiang/workspace/optee-os/lib/libutee/tee_api_arith_mpi.c:639 (discriminator 2)
    1b84:	aa1903e0 	mov	x0, x25
    1b88:	d2800021 	mov	x1, #0x1                   	// #1
    1b8c:	94000d5e 	bl	5104 <mbedtls_mpi_shift_r>
    1b90:	2a0003e2 	mov	w2, w0
    1b94:	34000060 	cbz	w0, 1ba0 <mpi_egcd+0x160>
/home/fangjiang/workspace/optee-os/lib/libutee/tee_api_arith_mpi.c:639 (discriminator 1)
    1b98:	52804fe1 	mov	w1, #0x27f                 	// #639
    1b9c:	17ffffd9 	b	1b00 <mpi_egcd+0xc0>
mpi_is_even():
/home/fangjiang/workspace/optee-os/lib/libutee/tee_api_arith_mpi.c:597 (discriminator 2)
    1ba0:	aa1a03e0 	mov	x0, x26
    1ba4:	97ffff95 	bl	19f8 <mpi_is_odd>
mpi_egcd():
/home/fangjiang/workspace/optee-os/lib/libutee/tee_api_arith_mpi.c:636 (discriminator 2)
    1ba8:	72001c1f 	tst	w0, #0xff
    1bac:	54000100 	b.eq	1bcc <mpi_egcd+0x18c>  // b.none
/home/fangjiang/workspace/optee-os/lib/libutee/tee_api_arith_mpi.c:642
    1bb0:	aa1a03e1 	mov	x1, x26
    1bb4:	aa1603e0 	mov	x0, x22
    1bb8:	94000b35 	bl	488c <mbedtls_mpi_copy>
    1bbc:	2a0003e2 	mov	w2, w0
    1bc0:	340001e0 	cbz	w0, 1bfc <mpi_egcd+0x1bc>
/home/fangjiang/workspace/optee-os/lib/libutee/tee_api_arith_mpi.c:642 (discriminator 1)
    1bc4:	52805041 	mov	w1, #0x282                 	// #642
    1bc8:	17ffffce 	b	1b00 <mpi_egcd+0xc0>
mpi_is_even():
/home/fangjiang/workspace/optee-os/lib/libutee/tee_api_arith_mpi.c:597
    1bcc:	aa1903e0 	mov	x0, x25
    1bd0:	97ffff8a 	bl	19f8 <mpi_is_odd>
mpi_egcd():
/home/fangjiang/workspace/optee-os/lib/libutee/tee_api_arith_mpi.c:636
    1bd4:	72001c1f 	tst	w0, #0xff
    1bd8:	54fffec1 	b.ne	1bb0 <mpi_egcd+0x170>  // b.any
/home/fangjiang/workspace/optee-os/lib/libutee/tee_api_arith_mpi.c:638
    1bdc:	aa1a03e0 	mov	x0, x26
    1be0:	d2800021 	mov	x1, #0x1                   	// #1
/home/fangjiang/workspace/optee-os/lib/libutee/tee_api_arith_mpi.c:637
    1be4:	1100079c 	add	w28, w28, #0x1
/home/fangjiang/workspace/optee-os/lib/libutee/tee_api_arith_mpi.c:638
    1be8:	94000d47 	bl	5104 <mbedtls_mpi_shift_r>
    1bec:	2a0003e2 	mov	w2, w0
    1bf0:	34fffca0 	cbz	w0, 1b84 <mpi_egcd+0x144>
/home/fangjiang/workspace/optee-os/lib/libutee/tee_api_arith_mpi.c:638 (discriminator 1)
    1bf4:	52804fc1 	mov	w1, #0x27e                 	// #638
    1bf8:	17ffffc2 	b	1b00 <mpi_egcd+0xc0>
/home/fangjiang/workspace/optee-os/lib/libutee/tee_api_arith_mpi.c:643 (discriminator 2)
    1bfc:	aa1903e1 	mov	x1, x25
    1c00:	aa1503e0 	mov	x0, x21
    1c04:	94000b22 	bl	488c <mbedtls_mpi_copy>
    1c08:	2a0003e2 	mov	w2, w0
    1c0c:	34000060 	cbz	w0, 1c18 <mpi_egcd+0x1d8>
/home/fangjiang/workspace/optee-os/lib/libutee/tee_api_arith_mpi.c:643 (discriminator 1)
    1c10:	52805061 	mov	w1, #0x283                 	// #643
    1c14:	17ffffbb 	b	1b00 <mpi_egcd+0xc0>
/home/fangjiang/workspace/optee-os/lib/libutee/tee_api_arith_mpi.c:644 (discriminator 2)
    1c18:	aa1803e0 	mov	x0, x24
    1c1c:	52800021 	mov	w1, #0x1                   	// #1
    1c20:	94000bdc 	bl	4b90 <mbedtls_mpi_lset>
    1c24:	2a0003e2 	mov	w2, w0
    1c28:	34000060 	cbz	w0, 1c34 <mpi_egcd+0x1f4>
/home/fangjiang/workspace/optee-os/lib/libutee/tee_api_arith_mpi.c:644 (discriminator 1)
    1c2c:	52805081 	mov	w1, #0x284                 	// #644
    1c30:	17ffffb4 	b	1b00 <mpi_egcd+0xc0>
/home/fangjiang/workspace/optee-os/lib/libutee/tee_api_arith_mpi.c:645 (discriminator 2)
    1c34:	aa1703e0 	mov	x0, x23
    1c38:	52800001 	mov	w1, #0x0                   	// #0
    1c3c:	94000bd5 	bl	4b90 <mbedtls_mpi_lset>
    1c40:	2a0003e2 	mov	w2, w0
    1c44:	34000060 	cbz	w0, 1c50 <mpi_egcd+0x210>
/home/fangjiang/workspace/optee-os/lib/libutee/tee_api_arith_mpi.c:645 (discriminator 1)
    1c48:	528050a1 	mov	w1, #0x285                 	// #645
    1c4c:	17ffffad 	b	1b00 <mpi_egcd+0xc0>
/home/fangjiang/workspace/optee-os/lib/libutee/tee_api_arith_mpi.c:646 (discriminator 2)
    1c50:	aa1403e0 	mov	x0, x20
    1c54:	52800001 	mov	w1, #0x0                   	// #0
    1c58:	94000bce 	bl	4b90 <mbedtls_mpi_lset>
    1c5c:	2a0003e2 	mov	w2, w0
    1c60:	34000060 	cbz	w0, 1c6c <mpi_egcd+0x22c>
/home/fangjiang/workspace/optee-os/lib/libutee/tee_api_arith_mpi.c:646 (discriminator 1)
    1c64:	528050c1 	mov	w1, #0x286                 	// #646
    1c68:	17ffffa6 	b	1b00 <mpi_egcd+0xc0>
/home/fangjiang/workspace/optee-os/lib/libutee/tee_api_arith_mpi.c:647 (discriminator 2)
    1c6c:	aa1303e0 	mov	x0, x19
    1c70:	52800021 	mov	w1, #0x1                   	// #1
    1c74:	94000bc7 	bl	4b90 <mbedtls_mpi_lset>
    1c78:	2a0003e2 	mov	w2, w0
    1c7c:	34001320 	cbz	w0, 1ee0 <mpi_egcd+0x4a0>
/home/fangjiang/workspace/optee-os/lib/libutee/tee_api_arith_mpi.c:647 (discriminator 1)
    1c80:	528050e1 	mov	w1, #0x287                 	// #647
    1c84:	17ffff9f 	b	1b00 <mpi_egcd+0xc0>
/home/fangjiang/workspace/optee-os/lib/libutee/tee_api_arith_mpi.c:651
    1c88:	aa1603e0 	mov	x0, x22
    1c8c:	d2800021 	mov	x1, #0x1                   	// #1
    1c90:	94000d1d 	bl	5104 <mbedtls_mpi_shift_r>
    1c94:	2a0003e2 	mov	w2, w0
    1c98:	34000060 	cbz	w0, 1ca4 <mpi_egcd+0x264>
/home/fangjiang/workspace/optee-os/lib/libutee/tee_api_arith_mpi.c:651 (discriminator 1)
    1c9c:	52805161 	mov	w1, #0x28b                 	// #651
    1ca0:	17ffff98 	b	1b00 <mpi_egcd+0xc0>
/home/fangjiang/workspace/optee-os/lib/libutee/tee_api_arith_mpi.c:652 (discriminator 2)
    1ca4:	aa1803e0 	mov	x0, x24
    1ca8:	97ffff54 	bl	19f8 <mpi_is_odd>
    1cac:	72001c1f 	tst	w0, #0xff
    1cb0:	54000120 	b.eq	1cd4 <mpi_egcd+0x294>  // b.none
/home/fangjiang/workspace/optee-os/lib/libutee/tee_api_arith_mpi.c:653
    1cb4:	aa1903e2 	mov	x2, x25
    1cb8:	aa1803e1 	mov	x1, x24
    1cbc:	aa1803e0 	mov	x0, x24
    1cc0:	94000e8c 	bl	56f0 <mbedtls_mpi_add_mpi>
    1cc4:	2a0003e2 	mov	w2, w0
    1cc8:	340001c0 	cbz	w0, 1d00 <mpi_egcd+0x2c0>
/home/fangjiang/workspace/optee-os/lib/libutee/tee_api_arith_mpi.c:653 (discriminator 1)
    1ccc:	528051a1 	mov	w1, #0x28d                 	// #653
    1cd0:	17ffff8c 	b	1b00 <mpi_egcd+0xc0>
/home/fangjiang/workspace/optee-os/lib/libutee/tee_api_arith_mpi.c:652 (discriminator 1)
    1cd4:	aa1703e0 	mov	x0, x23
    1cd8:	97ffff48 	bl	19f8 <mpi_is_odd>
    1cdc:	72001c1f 	tst	w0, #0xff
    1ce0:	54fffea1 	b.ne	1cb4 <mpi_egcd+0x274>  // b.any
/home/fangjiang/workspace/optee-os/lib/libutee/tee_api_arith_mpi.c:656
    1ce4:	aa1803e0 	mov	x0, x24
    1ce8:	d2800021 	mov	x1, #0x1                   	// #1
    1cec:	94000d06 	bl	5104 <mbedtls_mpi_shift_r>
    1cf0:	2a0003e2 	mov	w2, w0
    1cf4:	34000160 	cbz	w0, 1d20 <mpi_egcd+0x2e0>
/home/fangjiang/workspace/optee-os/lib/libutee/tee_api_arith_mpi.c:656 (discriminator 1)
    1cf8:	52805201 	mov	w1, #0x290                 	// #656
    1cfc:	17ffff81 	b	1b00 <mpi_egcd+0xc0>
/home/fangjiang/workspace/optee-os/lib/libutee/tee_api_arith_mpi.c:654 (discriminator 2)
    1d00:	aa1a03e2 	mov	x2, x26
    1d04:	aa1703e1 	mov	x1, x23
    1d08:	aa1703e0 	mov	x0, x23
    1d0c:	94000e9b 	bl	5778 <mbedtls_mpi_sub_mpi>
    1d10:	2a0003e2 	mov	w2, w0
    1d14:	34fffe80 	cbz	w0, 1ce4 <mpi_egcd+0x2a4>
/home/fangjiang/workspace/optee-os/lib/libutee/tee_api_arith_mpi.c:654 (discriminator 1)
    1d18:	528051c1 	mov	w1, #0x28e                 	// #654
    1d1c:	17ffff79 	b	1b00 <mpi_egcd+0xc0>
/home/fangjiang/workspace/optee-os/lib/libutee/tee_api_arith_mpi.c:657 (discriminator 2)
    1d20:	aa1703e0 	mov	x0, x23
    1d24:	d2800021 	mov	x1, #0x1                   	// #1
    1d28:	94000cf7 	bl	5104 <mbedtls_mpi_shift_r>
    1d2c:	2a0003e2 	mov	w2, w0
    1d30:	34000060 	cbz	w0, 1d3c <mpi_egcd+0x2fc>
/home/fangjiang/workspace/optee-os/lib/libutee/tee_api_arith_mpi.c:657 (discriminator 1)
    1d34:	52805221 	mov	w1, #0x291                 	// #657
    1d38:	17ffff72 	b	1b00 <mpi_egcd+0xc0>
mpi_is_even():
/home/fangjiang/workspace/optee-os/lib/libutee/tee_api_arith_mpi.c:597 (discriminator 2)
    1d3c:	aa1603e0 	mov	x0, x22
    1d40:	97ffff2e 	bl	19f8 <mpi_is_odd>
mpi_egcd():
/home/fangjiang/workspace/optee-os/lib/libutee/tee_api_arith_mpi.c:650 (discriminator 2)
    1d44:	72001c1f 	tst	w0, #0xff
    1d48:	54fffa00 	b.eq	1c88 <mpi_egcd+0x248>  // b.none
mpi_is_even():
/home/fangjiang/workspace/optee-os/lib/libutee/tee_api_arith_mpi.c:597 (discriminator 2)
    1d4c:	aa1503e0 	mov	x0, x21
    1d50:	97ffff2a 	bl	19f8 <mpi_is_odd>
mpi_egcd():
/home/fangjiang/workspace/optee-os/lib/libutee/tee_api_arith_mpi.c:660 (discriminator 2)
    1d54:	72001c1f 	tst	w0, #0xff
    1d58:	540001a0 	b.eq	1d8c <mpi_egcd+0x34c>  // b.none
/home/fangjiang/workspace/optee-os/lib/libutee/tee_api_arith_mpi.c:671
    1d5c:	aa1503e1 	mov	x1, x21
    1d60:	aa1603e0 	mov	x0, x22
    1d64:	94000d3f 	bl	5260 <mbedtls_mpi_cmp_mpi>
    1d68:	37f808c0 	tbnz	w0, #31, 1e80 <mpi_egcd+0x440>
/home/fangjiang/workspace/optee-os/lib/libutee/tee_api_arith_mpi.c:672
    1d6c:	aa1503e2 	mov	x2, x21
    1d70:	aa1603e1 	mov	x1, x22
    1d74:	aa1603e0 	mov	x0, x22
    1d78:	94000e80 	bl	5778 <mbedtls_mpi_sub_mpi>
    1d7c:	2a0003e2 	mov	w2, w0
    1d80:	34000600 	cbz	w0, 1e40 <mpi_egcd+0x400>
/home/fangjiang/workspace/optee-os/lib/libutee/tee_api_arith_mpi.c:672 (discriminator 1)
    1d84:	52805401 	mov	w1, #0x2a0                 	// #672
    1d88:	17ffff5e 	b	1b00 <mpi_egcd+0xc0>
/home/fangjiang/workspace/optee-os/lib/libutee/tee_api_arith_mpi.c:661
    1d8c:	aa1503e0 	mov	x0, x21
    1d90:	d2800021 	mov	x1, #0x1                   	// #1
    1d94:	94000cdc 	bl	5104 <mbedtls_mpi_shift_r>
    1d98:	2a0003e2 	mov	w2, w0
    1d9c:	34000060 	cbz	w0, 1da8 <mpi_egcd+0x368>
/home/fangjiang/workspace/optee-os/lib/libutee/tee_api_arith_mpi.c:661 (discriminator 1)
    1da0:	528052a1 	mov	w1, #0x295                 	// #661
    1da4:	17ffff57 	b	1b00 <mpi_egcd+0xc0>
/home/fangjiang/workspace/optee-os/lib/libutee/tee_api_arith_mpi.c:662 (discriminator 2)
    1da8:	aa1403e0 	mov	x0, x20
    1dac:	97ffff13 	bl	19f8 <mpi_is_odd>
    1db0:	72001c1f 	tst	w0, #0xff
    1db4:	54000120 	b.eq	1dd8 <mpi_egcd+0x398>  // b.none
/home/fangjiang/workspace/optee-os/lib/libutee/tee_api_arith_mpi.c:663
    1db8:	aa1903e2 	mov	x2, x25
    1dbc:	aa1403e1 	mov	x1, x20
    1dc0:	aa1403e0 	mov	x0, x20
    1dc4:	94000e4b 	bl	56f0 <mbedtls_mpi_add_mpi>
    1dc8:	2a0003e2 	mov	w2, w0
    1dcc:	340001c0 	cbz	w0, 1e04 <mpi_egcd+0x3c4>
/home/fangjiang/workspace/optee-os/lib/libutee/tee_api_arith_mpi.c:663 (discriminator 1)
    1dd0:	528052e1 	mov	w1, #0x297                 	// #663
    1dd4:	17ffff4b 	b	1b00 <mpi_egcd+0xc0>
/home/fangjiang/workspace/optee-os/lib/libutee/tee_api_arith_mpi.c:662 (discriminator 1)
    1dd8:	aa1303e0 	mov	x0, x19
    1ddc:	97ffff07 	bl	19f8 <mpi_is_odd>
    1de0:	72001c1f 	tst	w0, #0xff
    1de4:	54fffea1 	b.ne	1db8 <mpi_egcd+0x378>  // b.any
/home/fangjiang/workspace/optee-os/lib/libutee/tee_api_arith_mpi.c:666
    1de8:	aa1403e0 	mov	x0, x20
    1dec:	d2800021 	mov	x1, #0x1                   	// #1
    1df0:	94000cc5 	bl	5104 <mbedtls_mpi_shift_r>
    1df4:	2a0003e2 	mov	w2, w0
    1df8:	34000160 	cbz	w0, 1e24 <mpi_egcd+0x3e4>
/home/fangjiang/workspace/optee-os/lib/libutee/tee_api_arith_mpi.c:666 (discriminator 1)
    1dfc:	52805341 	mov	w1, #0x29a                 	// #666
    1e00:	17ffff40 	b	1b00 <mpi_egcd+0xc0>
/home/fangjiang/workspace/optee-os/lib/libutee/tee_api_arith_mpi.c:664 (discriminator 2)
    1e04:	aa1a03e2 	mov	x2, x26
    1e08:	aa1303e1 	mov	x1, x19
    1e0c:	aa1303e0 	mov	x0, x19
    1e10:	94000e5a 	bl	5778 <mbedtls_mpi_sub_mpi>
    1e14:	2a0003e2 	mov	w2, w0
    1e18:	34fffe80 	cbz	w0, 1de8 <mpi_egcd+0x3a8>
/home/fangjiang/workspace/optee-os/lib/libutee/tee_api_arith_mpi.c:664 (discriminator 1)
    1e1c:	52805301 	mov	w1, #0x298                 	// #664
    1e20:	17ffff38 	b	1b00 <mpi_egcd+0xc0>
/home/fangjiang/workspace/optee-os/lib/libutee/tee_api_arith_mpi.c:667 (discriminator 2)
    1e24:	aa1303e0 	mov	x0, x19
    1e28:	d2800021 	mov	x1, #0x1                   	// #1
    1e2c:	94000cb6 	bl	5104 <mbedtls_mpi_shift_r>
    1e30:	2a0003e2 	mov	w2, w0
    1e34:	34fff8c0 	cbz	w0, 1d4c <mpi_egcd+0x30c>
/home/fangjiang/workspace/optee-os/lib/libutee/tee_api_arith_mpi.c:667 (discriminator 1)
    1e38:	52805361 	mov	w1, #0x29b                 	// #667
    1e3c:	17ffff31 	b	1b00 <mpi_egcd+0xc0>
/home/fangjiang/workspace/optee-os/lib/libutee/tee_api_arith_mpi.c:673 (discriminator 2)
    1e40:	aa1403e2 	mov	x2, x20
    1e44:	aa1803e1 	mov	x1, x24
    1e48:	aa1803e0 	mov	x0, x24
    1e4c:	94000e4b 	bl	5778 <mbedtls_mpi_sub_mpi>
    1e50:	2a0003e2 	mov	w2, w0
    1e54:	34000060 	cbz	w0, 1e60 <mpi_egcd+0x420>
/home/fangjiang/workspace/optee-os/lib/libutee/tee_api_arith_mpi.c:673 (discriminator 1)
    1e58:	52805421 	mov	w1, #0x2a1                 	// #673
    1e5c:	17ffff29 	b	1b00 <mpi_egcd+0xc0>
/home/fangjiang/workspace/optee-os/lib/libutee/tee_api_arith_mpi.c:674 (discriminator 2)
    1e60:	aa1303e2 	mov	x2, x19
    1e64:	aa1703e1 	mov	x1, x23
    1e68:	aa1703e0 	mov	x0, x23
    1e6c:	94000e43 	bl	5778 <mbedtls_mpi_sub_mpi>
    1e70:	2a0003e2 	mov	w2, w0
    1e74:	34000360 	cbz	w0, 1ee0 <mpi_egcd+0x4a0>
/home/fangjiang/workspace/optee-os/lib/libutee/tee_api_arith_mpi.c:674 (discriminator 1)
    1e78:	52805441 	mov	w1, #0x2a2                 	// #674
    1e7c:	17ffff21 	b	1b00 <mpi_egcd+0xc0>
/home/fangjiang/workspace/optee-os/lib/libutee/tee_api_arith_mpi.c:676
    1e80:	aa1603e2 	mov	x2, x22
    1e84:	aa1503e1 	mov	x1, x21
    1e88:	aa1503e0 	mov	x0, x21
    1e8c:	94000e3b 	bl	5778 <mbedtls_mpi_sub_mpi>
    1e90:	2a0003e2 	mov	w2, w0
    1e94:	34000060 	cbz	w0, 1ea0 <mpi_egcd+0x460>
/home/fangjiang/workspace/optee-os/lib/libutee/tee_api_arith_mpi.c:676 (discriminator 1)
    1e98:	52805481 	mov	w1, #0x2a4                 	// #676
    1e9c:	17ffff19 	b	1b00 <mpi_egcd+0xc0>
/home/fangjiang/workspace/optee-os/lib/libutee/tee_api_arith_mpi.c:677 (discriminator 2)
    1ea0:	aa1803e2 	mov	x2, x24
    1ea4:	aa1403e1 	mov	x1, x20
    1ea8:	aa1403e0 	mov	x0, x20
    1eac:	94000e33 	bl	5778 <mbedtls_mpi_sub_mpi>
    1eb0:	2a0003e2 	mov	w2, w0
    1eb4:	34000060 	cbz	w0, 1ec0 <mpi_egcd+0x480>
/home/fangjiang/workspace/optee-os/lib/libutee/tee_api_arith_mpi.c:677 (discriminator 1)
    1eb8:	528054a1 	mov	w1, #0x2a5                 	// #677
    1ebc:	17ffff11 	b	1b00 <mpi_egcd+0xc0>
/home/fangjiang/workspace/optee-os/lib/libutee/tee_api_arith_mpi.c:678 (discriminator 2)
    1ec0:	aa1703e2 	mov	x2, x23
    1ec4:	aa1303e1 	mov	x1, x19
    1ec8:	aa1303e0 	mov	x0, x19
    1ecc:	94000e2b 	bl	5778 <mbedtls_mpi_sub_mpi>
    1ed0:	2a0003e2 	mov	w2, w0
    1ed4:	34000060 	cbz	w0, 1ee0 <mpi_egcd+0x4a0>
/home/fangjiang/workspace/optee-os/lib/libutee/tee_api_arith_mpi.c:678 (discriminator 1)
    1ed8:	528054c1 	mov	w1, #0x2a6                 	// #678
    1edc:	17ffff09 	b	1b00 <mpi_egcd+0xc0>
/home/fangjiang/workspace/optee-os/lib/libutee/tee_api_arith_mpi.c:649 (discriminator 2)
    1ee0:	aa1603e0 	mov	x0, x22
    1ee4:	52800001 	mov	w1, #0x0                   	// #0
    1ee8:	94000d43 	bl	53f4 <mbedtls_mpi_cmp_int>
    1eec:	35fff280 	cbnz	w0, 1d3c <mpi_egcd+0x2fc>
/home/fangjiang/workspace/optee-os/lib/libutee/tee_api_arith_mpi.c:682
    1ef0:	aa1403e1 	mov	x1, x20
    1ef4:	aa1b03e0 	mov	x0, x27
    1ef8:	94000a65 	bl	488c <mbedtls_mpi_copy>
    1efc:	2a0003e2 	mov	w2, w0
    1f00:	34000060 	cbz	w0, 1f0c <mpi_egcd+0x4cc>
/home/fangjiang/workspace/optee-os/lib/libutee/tee_api_arith_mpi.c:682 (discriminator 1)
    1f04:	52805541 	mov	w1, #0x2aa                 	// #682
    1f08:	17fffefe 	b	1b00 <mpi_egcd+0xc0>
/home/fangjiang/workspace/optee-os/lib/libutee/tee_api_arith_mpi.c:683 (discriminator 2)
    1f0c:	f94003e0 	ldr	x0, [sp]
    1f10:	aa1303e1 	mov	x1, x19
    1f14:	94000a5e 	bl	488c <mbedtls_mpi_copy>
    1f18:	2a0003e2 	mov	w2, w0
    1f1c:	34000060 	cbz	w0, 1f28 <mpi_egcd+0x4e8>
/home/fangjiang/workspace/optee-os/lib/libutee/tee_api_arith_mpi.c:683 (discriminator 1)
    1f20:	52805561 	mov	w1, #0x2ab                 	// #683
    1f24:	17fffef7 	b	1b00 <mpi_egcd+0xc0>
/home/fangjiang/workspace/optee-os/lib/libutee/tee_api_arith_mpi.c:684 (discriminator 2)
    1f28:	2a1c03e1 	mov	w1, w28
    1f2c:	aa1503e0 	mov	x0, x21
    1f30:	94000c31 	bl	4ff4 <mbedtls_mpi_shift_l>
    1f34:	2a0003e2 	mov	w2, w0
    1f38:	34000060 	cbz	w0, 1f44 <mpi_egcd+0x504>
/home/fangjiang/workspace/optee-os/lib/libutee/tee_api_arith_mpi.c:684 (discriminator 1)
    1f3c:	52805581 	mov	w1, #0x2ac                 	// #684
    1f40:	17fffef0 	b	1b00 <mpi_egcd+0xc0>
/home/fangjiang/workspace/optee-os/lib/libutee/tee_api_arith_mpi.c:687
    1f44:	aa1803e0 	mov	x0, x24
    1f48:	9400099b 	bl	45b4 <mbedtls_mpi_free>
/home/fangjiang/workspace/optee-os/lib/libutee/tee_api_arith_mpi.c:688
    1f4c:	aa1703e0 	mov	x0, x23
    1f50:	94000999 	bl	45b4 <mbedtls_mpi_free>
/home/fangjiang/workspace/optee-os/lib/libutee/tee_api_arith_mpi.c:689
    1f54:	aa1403e0 	mov	x0, x20
    1f58:	94000997 	bl	45b4 <mbedtls_mpi_free>
/home/fangjiang/workspace/optee-os/lib/libutee/tee_api_arith_mpi.c:690
    1f5c:	aa1303e0 	mov	x0, x19
    1f60:	94000995 	bl	45b4 <mbedtls_mpi_free>
/home/fangjiang/workspace/optee-os/lib/libutee/tee_api_arith_mpi.c:691
    1f64:	aa1a03e0 	mov	x0, x26
    1f68:	94000993 	bl	45b4 <mbedtls_mpi_free>
/home/fangjiang/workspace/optee-os/lib/libutee/tee_api_arith_mpi.c:692
    1f6c:	aa1903e0 	mov	x0, x25
    1f70:	94000991 	bl	45b4 <mbedtls_mpi_free>
/home/fangjiang/workspace/optee-os/lib/libutee/tee_api_arith_mpi.c:693
    1f74:	aa1603e0 	mov	x0, x22
    1f78:	9400098f 	bl	45b4 <mbedtls_mpi_free>
/home/fangjiang/workspace/optee-os/lib/libutee/tee_api_arith_mpi.c:694
    1f7c:	b0000060 	adrp	x0, e000 <_DYNAMIC>
    1f80:	f9409800 	ldr	x0, [x0, #304]
    1f84:	f9405fe2 	ldr	x2, [sp, #184]
    1f88:	f9400001 	ldr	x1, [x0]
    1f8c:	eb010042 	subs	x2, x2, x1
    1f90:	d2800001 	mov	x1, #0x0                   	// #0
    1f94:	54000040 	b.eq	1f9c <mpi_egcd+0x55c>  // b.none
    1f98:	94001bea 	bl	8f40 <__stack_chk_fail>
    1f9c:	a94c7bfd 	ldp	x29, x30, [sp, #192]
    1fa0:	a94d53f3 	ldp	x19, x20, [sp, #208]
    1fa4:	a94e5bf5 	ldp	x21, x22, [sp, #224]
    1fa8:	a94f63f7 	ldp	x23, x24, [sp, #240]
    1fac:	a9506bf9 	ldp	x25, x26, [sp, #256]
    1fb0:	a95173fb 	ldp	x27, x28, [sp, #272]
    1fb4:	910483ff 	add	sp, sp, #0x120
    1fb8:	d65f03c0 	ret

0000000000001fbc <_TEE_MathAPI_Init>:
_TEE_MathAPI_Init():
/home/fangjiang/workspace/optee-os/lib/libutee/tee_api_arith_mpi.c:44
    1fbc:	a9bf7bfd 	stp	x29, x30, [sp, #-16]!
/home/fangjiang/workspace/optee-os/lib/libutee/tee_api_arith_mpi.c:47
    1fc0:	d2860001 	mov	x1, #0x3000                	// #12288
    1fc4:	d2800002 	mov	x2, #0x0                   	// #0
/home/fangjiang/workspace/optee-os/lib/libutee/tee_api_arith_mpi.c:44
    1fc8:	910003fd 	mov	x29, sp
/home/fangjiang/workspace/optee-os/lib/libutee/tee_api_arith_mpi.c:47
    1fcc:	b0000060 	adrp	x0, e000 <_DYNAMIC>
    1fd0:	91128000 	add	x0, x0, #0x4a0
    1fd4:	94002054 	bl	a124 <mempool_alloc_pool>
    1fd8:	b0000061 	adrp	x1, e000 <_DYNAMIC>
    1fdc:	f940cc21 	ldr	x1, [x1, #408]
    1fe0:	f9000020 	str	x0, [x1]
/home/fangjiang/workspace/optee-os/lib/libutee/tee_api_arith_mpi.c:48
    1fe4:	b5000100 	cbnz	x0, 2004 <_TEE_MathAPI_Init+0x48>
/home/fangjiang/workspace/optee-os/lib/libutee/tee_api_arith_mpi.c:49
    1fe8:	f0000040 	adrp	x0, c000 <__text_end+0x1cb0>
    1fec:	91203400 	add	x0, x0, #0x80d
    1ff0:	f0000042 	adrp	x2, c000 <__text_end+0x1cb0>
    1ff4:	91007c00 	add	x0, x0, #0x1f
    1ff8:	911e6c42 	add	x2, x2, #0x79b
    1ffc:	52800621 	mov	w1, #0x31                  	// #49
    2000:	97fffdd2 	bl	1748 <api_panic>
/home/fangjiang/workspace/optee-os/lib/libutee/tee_api_arith_mpi.c:50
    2004:	a8c17bfd 	ldp	x29, x30, [sp], #16
    2008:	d65f03c0 	ret

000000000000200c <TEE_BigIntInit>:
TEE_BigIntInit():
/home/fangjiang/workspace/optee-os/lib/libutee/tee_api_arith_mpi.c:119
    200c:	a9be7bfd 	stp	x29, x30, [sp, #-32]!
    2010:	910003fd 	mov	x29, sp
    2014:	a90153f3 	stp	x19, x20, [sp, #16]
    2018:	2a0103f3 	mov	w19, w1
    201c:	aa0003f4 	mov	x20, x0
/home/fangjiang/workspace/optee-os/lib/libutee/tee_api_arith_mpi.c:122
    2020:	d37e7e62 	ubfiz	x2, x19, #2, #32
    2024:	52800001 	mov	w1, #0x0                   	// #0
    2028:	94001bde 	bl	8fa0 <memset>
/home/fangjiang/workspace/optee-os/lib/libutee/tee_api_arith_mpi.c:124
    202c:	51000a73 	sub	w19, w19, #0x2
/home/fangjiang/workspace/optee-os/lib/libutee/tee_api_arith_mpi.c:123
    2030:	52800020 	mov	w0, #0x1                   	// #1
    2034:	b9000280 	str	w0, [x20]
/home/fangjiang/workspace/optee-os/lib/libutee/tee_api_arith_mpi.c:124
    2038:	5284e200 	mov	w0, #0x2710                	// #10000
    203c:	6b00027f 	cmp	w19, w0
    2040:	54000109 	b.ls	2060 <TEE_BigIntInit+0x54>  // b.plast
/home/fangjiang/workspace/optee-os/lib/libutee/tee_api_arith_mpi.c:125
    2044:	d0000040 	adrp	x0, c000 <__text_end+0x1cb0>
    2048:	91203400 	add	x0, x0, #0x80d
    204c:	d0000042 	adrp	x2, c000 <__text_end+0x1cb0>
    2050:	9100c400 	add	x0, x0, #0x31
    2054:	911ef042 	add	x2, x2, #0x7bc
    2058:	52800fa1 	mov	w1, #0x7d                  	// #125
    205c:	97fffdbb 	bl	1748 <api_panic>
/home/fangjiang/workspace/optee-os/lib/libutee/tee_api_arith_mpi.c:126
    2060:	79000a93 	strh	w19, [x20, #4]
/home/fangjiang/workspace/optee-os/lib/libutee/tee_api_arith_mpi.c:127
    2064:	a94153f3 	ldp	x19, x20, [sp, #16]
    2068:	a8c27bfd 	ldp	x29, x30, [sp], #32
    206c:	d65f03c0 	ret

0000000000002070 <TEE_BigIntConvertFromOctetString>:
TEE_BigIntConvertFromOctetString():
/home/fangjiang/workspace/optee-os/lib/libutee/tee_api_arith_mpi.c:132
    2070:	d10183ff 	sub	sp, sp, #0x60
    2074:	90000064 	adrp	x4, e000 <_DYNAMIC>
    2078:	a9027bfd 	stp	x29, x30, [sp, #32]
    207c:	910083fd 	add	x29, sp, #0x20
    2080:	f9409884 	ldr	x4, [x4, #304]
    2084:	a90353f3 	stp	x19, x20, [sp, #48]
get_mpi():
/home/fangjiang/workspace/optee-os/lib/libutee/tee_api_arith_mpi.c:101
    2088:	910003f4 	mov	x20, sp
TEE_BigIntConvertFromOctetString():
/home/fangjiang/workspace/optee-os/lib/libutee/tee_api_arith_mpi.c:132
    208c:	a9045bf5 	stp	x21, x22, [sp, #64]
    2090:	aa0003f5 	mov	x21, x0
    2094:	aa0103f6 	mov	x22, x1
    2098:	f9002bf7 	str	x23, [sp, #80]
    209c:	2a0303f3 	mov	w19, w3
    20a0:	2a0203f7 	mov	w23, w2
    20a4:	f9400080 	ldr	x0, [x4]
    20a8:	f9000fe0 	str	x0, [sp, #24]
    20ac:	d2800000 	mov	x0, #0x0                   	// #0
get_mpi():
/home/fangjiang/workspace/optee-os/lib/libutee/tee_api_arith_mpi.c:101
    20b0:	aa1403e0 	mov	x0, x20
    20b4:	94000936 	bl	458c <mbedtls_mpi_init_mempool>
TEE_BigIntConvertFromOctetString():
/home/fangjiang/workspace/optee-os/lib/libutee/tee_api_arith_mpi.c:138
    20b8:	2a1703e2 	mov	w2, w23
    20bc:	aa1603e1 	mov	x1, x22
    20c0:	aa1403e0 	mov	x0, x20
    20c4:	94000b4c 	bl	4df4 <mbedtls_mpi_read_binary>
    20c8:	35000240 	cbnz	w0, 2110 <TEE_BigIntConvertFromOctetString+0xa0>
/home/fangjiang/workspace/optee-os/lib/libutee/tee_api_arith_mpi.c:143
    20cc:	36f80073 	tbz	w19, #31, 20d8 <TEE_BigIntConvertFromOctetString+0x68>
/home/fangjiang/workspace/optee-os/lib/libutee/tee_api_arith_mpi.c:144
    20d0:	12800000 	mov	w0, #0xffffffff            	// #-1
    20d4:	790003e0 	strh	w0, [sp]
/home/fangjiang/workspace/optee-os/lib/libutee/tee_api_arith_mpi.c:147
    20d8:	aa1503e1 	mov	x1, x21
    20dc:	aa1403e0 	mov	x0, x20
    20e0:	97fffdd8 	bl	1840 <copy_mpi_to_bigint>
    20e4:	2a0003f3 	mov	w19, w0
/home/fangjiang/workspace/optee-os/lib/libutee/tee_api_arith_mpi.c:149
    20e8:	aa1403e0 	mov	x0, x20
    20ec:	94000932 	bl	45b4 <mbedtls_mpi_free>
/home/fangjiang/workspace/optee-os/lib/libutee/tee_api_arith_mpi.c:152
    20f0:	90000064 	adrp	x4, e000 <_DYNAMIC>
    20f4:	f9409884 	ldr	x4, [x4, #304]
    20f8:	f9400fe0 	ldr	x0, [sp, #24]
    20fc:	f9400081 	ldr	x1, [x4]
    2100:	eb010000 	subs	x0, x0, x1
    2104:	d2800001 	mov	x1, #0x0                   	// #0
    2108:	540000e0 	b.eq	2124 <TEE_BigIntConvertFromOctetString+0xb4>  // b.none
    210c:	94001b8d 	bl	8f40 <__stack_chk_fail>
/home/fangjiang/workspace/optee-os/lib/libutee/tee_api_arith_mpi.c:143
    2110:	36f80073 	tbz	w19, #31, 211c <TEE_BigIntConvertFromOctetString+0xac>
/home/fangjiang/workspace/optee-os/lib/libutee/tee_api_arith_mpi.c:144
    2114:	12800000 	mov	w0, #0xffffffff            	// #-1
    2118:	790003e0 	strh	w0, [sp]
/home/fangjiang/workspace/optee-os/lib/libutee/tee_api_arith_mpi.c:143
    211c:	1299fe13 	mov	w19, #0xffff300f            	// #-53233
    2120:	17fffff2 	b	20e8 <TEE_BigIntConvertFromOctetString+0x78>
/home/fangjiang/workspace/optee-os/lib/libutee/tee_api_arith_mpi.c:152
    2124:	2a1303e0 	mov	w0, w19
    2128:	a9427bfd 	ldp	x29, x30, [sp, #32]
    212c:	a94353f3 	ldp	x19, x20, [sp, #48]
    2130:	a9445bf5 	ldp	x21, x22, [sp, #64]
    2134:	f9402bf7 	ldr	x23, [sp, #80]
    2138:	910183ff 	add	sp, sp, #0x60
    213c:	d65f03c0 	ret

0000000000002140 <TEE_BigIntConvertToOctetString>:
TEE_BigIntConvertToOctetString():
/home/fangjiang/workspace/optee-os/lib/libutee/tee_api_arith_mpi.c:156
    2140:	d10143ff 	sub	sp, sp, #0x50
    2144:	90000063 	adrp	x3, e000 <_DYNAMIC>
    2148:	a9027bfd 	stp	x29, x30, [sp, #32]
    214c:	910083fd 	add	x29, sp, #0x20
    2150:	f9409863 	ldr	x3, [x3, #304]
    2154:	a90353f3 	stp	x19, x20, [sp, #48]
/home/fangjiang/workspace/optee-os/lib/libutee/tee_api_arith_mpi.c:161
    2158:	910003f4 	mov	x20, sp
/home/fangjiang/workspace/optee-os/lib/libutee/tee_api_arith_mpi.c:156
    215c:	a9045bf5 	stp	x21, x22, [sp, #64]
    2160:	aa0103f5 	mov	x21, x1
    2164:	aa0203e1 	mov	x1, x2
    2168:	aa0003f6 	mov	x22, x0
    216c:	f9400060 	ldr	x0, [x3]
    2170:	f9000fe0 	str	x0, [sp, #24]
    2174:	d2800000 	mov	x0, #0x0                   	// #0
/home/fangjiang/workspace/optee-os/lib/libutee/tee_api_arith_mpi.c:161
    2178:	aa1403e0 	mov	x0, x20
    217c:	97fffd8b 	bl	17a8 <get_mpi>
/home/fangjiang/workspace/optee-os/lib/libutee/tee_api_arith_mpi.c:163
    2180:	aa1403e0 	mov	x0, x20
    2184:	94000af7 	bl	4d60 <mbedtls_mpi_size>
    2188:	aa0003f3 	mov	x19, x0
/home/fangjiang/workspace/optee-os/lib/libutee/tee_api_arith_mpi.c:164
    218c:	b94002a0 	ldr	w0, [x21]
    2190:	eb13001f 	cmp	x0, x19
    2194:	540001a3 	b.cc	21c8 <TEE_BigIntConvertToOctetString+0x88>  // b.lo, b.ul, b.last
/home/fangjiang/workspace/optee-os/lib/libutee/tee_api_arith_mpi.c:165
    2198:	aa1303e2 	mov	x2, x19
    219c:	aa1603e1 	mov	x1, x22
    21a0:	aa1403e0 	mov	x0, x20
/home/fangjiang/workspace/optee-os/lib/libutee/tee_api_arith_mpi.c:157
    21a4:	52800016 	mov	w22, #0x0                   	// #0
/home/fangjiang/workspace/optee-os/lib/libutee/tee_api_arith_mpi.c:165
    21a8:	94000b62 	bl	4f30 <mbedtls_mpi_write_binary>
    21ac:	2a0003e2 	mov	w2, w0
    21b0:	340000e0 	cbz	w0, 21cc <TEE_BigIntConvertToOctetString+0x8c>
/home/fangjiang/workspace/optee-os/lib/libutee/tee_api_arith_mpi.c:165 (discriminator 1)
    21b4:	d0000040 	adrp	x0, c000 <__text_end+0x1cb0>
    21b8:	91203400 	add	x0, x0, #0x80d
    21bc:	91010000 	add	x0, x0, #0x40
    21c0:	528014a1 	mov	w1, #0xa5                  	// #165
    21c4:	97fffd6d 	bl	1778 <mpi_panic>
/home/fangjiang/workspace/optee-os/lib/libutee/tee_api_arith_mpi.c:167
    21c8:	129ffdf6 	mov	w22, #0xffff0010            	// #-65520
/home/fangjiang/workspace/optee-os/lib/libutee/tee_api_arith_mpi.c:169
    21cc:	b90002b3 	str	w19, [x21]
/home/fangjiang/workspace/optee-os/lib/libutee/tee_api_arith_mpi.c:171
    21d0:	aa1403e0 	mov	x0, x20
    21d4:	940008f8 	bl	45b4 <mbedtls_mpi_free>
/home/fangjiang/workspace/optee-os/lib/libutee/tee_api_arith_mpi.c:174
    21d8:	90000063 	adrp	x3, e000 <_DYNAMIC>
    21dc:	f9409863 	ldr	x3, [x3, #304]
    21e0:	f9400fe0 	ldr	x0, [sp, #24]
    21e4:	f9400061 	ldr	x1, [x3]
    21e8:	eb010000 	subs	x0, x0, x1
    21ec:	d2800001 	mov	x1, #0x0                   	// #0
    21f0:	54000040 	b.eq	21f8 <TEE_BigIntConvertToOctetString+0xb8>  // b.none
    21f4:	94001b53 	bl	8f40 <__stack_chk_fail>
    21f8:	2a1603e0 	mov	w0, w22
    21fc:	a9427bfd 	ldp	x29, x30, [sp, #32]
    2200:	a94353f3 	ldp	x19, x20, [sp, #48]
    2204:	a9445bf5 	ldp	x21, x22, [sp, #64]
    2208:	910143ff 	add	sp, sp, #0x50
    220c:	d65f03c0 	ret

0000000000002210 <TEE_BigIntConvertFromS32>:
TEE_BigIntConvertFromS32():
/home/fangjiang/workspace/optee-os/lib/libutee/tee_api_arith_mpi.c:177
    2210:	d10143ff 	sub	sp, sp, #0x50
    2214:	a9027bfd 	stp	x29, x30, [sp, #32]
    2218:	910083fd 	add	x29, sp, #0x20
    221c:	a90353f3 	stp	x19, x20, [sp, #48]
    2220:	90000073 	adrp	x19, e000 <_DYNAMIC>
/home/fangjiang/workspace/optee-os/lib/libutee/tee_api_arith_mpi.c:180
    2224:	910003f4 	mov	x20, sp
/home/fangjiang/workspace/optee-os/lib/libutee/tee_api_arith_mpi.c:177
    2228:	a9045bf5 	stp	x21, x22, [sp, #64]
    222c:	aa0003f5 	mov	x21, x0
    2230:	2a0103f6 	mov	w22, w1
    2234:	f9409a60 	ldr	x0, [x19, #304]
    2238:	f9400001 	ldr	x1, [x0]
    223c:	f9000fe1 	str	x1, [sp, #24]
    2240:	d2800001 	mov	x1, #0x0                   	// #0
/home/fangjiang/workspace/optee-os/lib/libutee/tee_api_arith_mpi.c:180
    2244:	aa1403e0 	mov	x0, x20
    2248:	aa1503e1 	mov	x1, x21
    224c:	97fffd57 	bl	17a8 <get_mpi>
/home/fangjiang/workspace/optee-os/lib/libutee/tee_api_arith_mpi.c:182
    2250:	2a1603e1 	mov	w1, w22
    2254:	aa1403e0 	mov	x0, x20
    2258:	94000a4e 	bl	4b90 <mbedtls_mpi_lset>
    225c:	340000e0 	cbz	w0, 2278 <TEE_BigIntConvertFromS32+0x68>
    2260:	2a0003e2 	mov	w2, w0
/home/fangjiang/workspace/optee-os/lib/libutee/tee_api_arith_mpi.c:182 (discriminator 1)
    2264:	528016c1 	mov	w1, #0xb6                  	// #182
/home/fangjiang/workspace/optee-os/lib/libutee/tee_api_arith_mpi.c:184 (discriminator 1)
    2268:	d0000040 	adrp	x0, c000 <__text_end+0x1cb0>
    226c:	91203400 	add	x0, x0, #0x80d
    2270:	91017c00 	add	x0, x0, #0x5f
    2274:	97fffd41 	bl	1778 <mpi_panic>
/home/fangjiang/workspace/optee-os/lib/libutee/tee_api_arith_mpi.c:184 (discriminator 2)
    2278:	aa1503e1 	mov	x1, x21
    227c:	aa1403e0 	mov	x0, x20
    2280:	97fffd70 	bl	1840 <copy_mpi_to_bigint>
    2284:	2a0003e2 	mov	w2, w0
    2288:	34000060 	cbz	w0, 2294 <TEE_BigIntConvertFromS32+0x84>
/home/fangjiang/workspace/optee-os/lib/libutee/tee_api_arith_mpi.c:184 (discriminator 1)
    228c:	52801701 	mov	w1, #0xb8                  	// #184
    2290:	17fffff6 	b	2268 <TEE_BigIntConvertFromS32+0x58>
/home/fangjiang/workspace/optee-os/lib/libutee/tee_api_arith_mpi.c:185 (discriminator 2)
    2294:	aa1403e0 	mov	x0, x20
    2298:	940008c7 	bl	45b4 <mbedtls_mpi_free>
/home/fangjiang/workspace/optee-os/lib/libutee/tee_api_arith_mpi.c:186 (discriminator 2)
    229c:	f9409a73 	ldr	x19, [x19, #304]
    22a0:	f9400fe0 	ldr	x0, [sp, #24]
    22a4:	f9400261 	ldr	x1, [x19]
    22a8:	eb010000 	subs	x0, x0, x1
    22ac:	d2800001 	mov	x1, #0x0                   	// #0
    22b0:	54000040 	b.eq	22b8 <TEE_BigIntConvertFromS32+0xa8>  // b.none
/home/fangjiang/workspace/optee-os/lib/libutee/tee_api_arith_mpi.c:186
    22b4:	94001b23 	bl	8f40 <__stack_chk_fail>
    22b8:	a9427bfd 	ldp	x29, x30, [sp, #32]
    22bc:	a94353f3 	ldp	x19, x20, [sp, #48]
    22c0:	a9445bf5 	ldp	x21, x22, [sp, #64]
    22c4:	910143ff 	add	sp, sp, #0x50
    22c8:	d65f03c0 	ret

00000000000022cc <TEE_BigIntConvertToS32>:
TEE_BigIntConvertToS32():
/home/fangjiang/workspace/optee-os/lib/libutee/tee_api_arith_mpi.c:189
    22cc:	d10143ff 	sub	sp, sp, #0x50
    22d0:	90000062 	adrp	x2, e000 <_DYNAMIC>
    22d4:	a9037bfd 	stp	x29, x30, [sp, #48]
    22d8:	9100c3fd 	add	x29, sp, #0x30
    22dc:	f9409842 	ldr	x2, [x2, #304]
    22e0:	a90453f3 	stp	x19, x20, [sp, #64]
/home/fangjiang/workspace/optee-os/lib/libutee/tee_api_arith_mpi.c:194
    22e4:	910043f4 	add	x20, sp, #0x10
/home/fangjiang/workspace/optee-os/lib/libutee/tee_api_arith_mpi.c:189
    22e8:	aa0003f3 	mov	x19, x0
    22ec:	f9400040 	ldr	x0, [x2]
    22f0:	f90017e0 	str	x0, [sp, #40]
    22f4:	d2800000 	mov	x0, #0x0                   	// #0
/home/fangjiang/workspace/optee-os/lib/libutee/tee_api_arith_mpi.c:194
    22f8:	aa1403e0 	mov	x0, x20
    22fc:	97fffd2b 	bl	17a8 <get_mpi>
/home/fangjiang/workspace/optee-os/lib/libutee/tee_api_arith_mpi.c:196
    2300:	910033e1 	add	x1, sp, #0xc
    2304:	aa1403e0 	mov	x0, x20
    2308:	d2800082 	mov	x2, #0x4                   	// #4
    230c:	94000b09 	bl	4f30 <mbedtls_mpi_write_binary>
    2310:	34000180 	cbz	w0, 2340 <TEE_BigIntConvertToS32+0x74>
/home/fangjiang/workspace/optee-os/lib/libutee/tee_api_arith_mpi.c:197
    2314:	1299fe13 	mov	w19, #0xffff300f            	// #-53233
/home/fangjiang/workspace/optee-os/lib/libutee/tee_api_arith_mpi.c:210
    2318:	aa1403e0 	mov	x0, x20
    231c:	940008a6 	bl	45b4 <mbedtls_mpi_free>
/home/fangjiang/workspace/optee-os/lib/libutee/tee_api_arith_mpi.c:213
    2320:	90000062 	adrp	x2, e000 <_DYNAMIC>
    2324:	f9409842 	ldr	x2, [x2, #304]
    2328:	f94017e0 	ldr	x0, [sp, #40]
    232c:	f9400041 	ldr	x1, [x2]
    2330:	eb010000 	subs	x0, x0, x1
    2334:	d2800001 	mov	x1, #0x0                   	// #0
    2338:	54000220 	b.eq	237c <TEE_BigIntConvertToS32+0xb0>  // b.none
    233c:	94001b01 	bl	8f40 <__stack_chk_fail>
/home/fangjiang/workspace/optee-os/lib/libutee/tee_api_arith_mpi.c:202
    2340:	b9400fe1 	ldr	w1, [sp, #12]
/home/fangjiang/workspace/optee-os/lib/libutee/tee_api_arith_mpi.c:201
    2344:	79c023e2 	ldrsh	w2, [sp, #16]
/home/fangjiang/workspace/optee-os/lib/libutee/tee_api_arith_mpi.c:202
    2348:	5ac00820 	rev	w0, w1
    234c:	5ac00821 	rev	w1, w1
/home/fangjiang/workspace/optee-os/lib/libutee/tee_api_arith_mpi.c:201
    2350:	7100005f 	cmp	w2, #0x0
    2354:	540000cd 	b.le	236c <TEE_BigIntConvertToS32+0xa0>
/home/fangjiang/workspace/optee-os/lib/libutee/tee_api_arith_mpi.c:202
    2358:	eb20c03f 	cmp	x1, w0, sxtw
    235c:	b9000260 	str	w0, [x19]
/home/fangjiang/workspace/optee-os/lib/libutee/tee_api_arith_mpi.c:205
    2360:	54fffda1 	b.ne	2314 <TEE_BigIntConvertToS32+0x48>  // b.any
/home/fangjiang/workspace/optee-os/lib/libutee/tee_api_arith_mpi.c:190
    2364:	52800013 	mov	w19, #0x0                   	// #0
    2368:	17ffffec 	b	2318 <TEE_BigIntConvertToS32+0x4c>
/home/fangjiang/workspace/optee-os/lib/libutee/tee_api_arith_mpi.c:205
    236c:	cb0103e1 	neg	x1, x1
    2370:	b9000261 	str	w1, [x19]
    2374:	eb21c03f 	cmp	x1, w1, sxtw
    2378:	17fffffa 	b	2360 <TEE_BigIntConvertToS32+0x94>
/home/fangjiang/workspace/optee-os/lib/libutee/tee_api_arith_mpi.c:213
    237c:	2a1303e0 	mov	w0, w19
    2380:	a9437bfd 	ldp	x29, x30, [sp, #48]
    2384:	a94453f3 	ldp	x19, x20, [sp, #64]
    2388:	910143ff 	add	sp, sp, #0x50
    238c:	d65f03c0 	ret

0000000000002390 <TEE_BigIntCmp>:
TEE_BigIntCmp():
/home/fangjiang/workspace/optee-os/lib/libutee/tee_api_arith_mpi.c:216
    2390:	d101c3ff 	sub	sp, sp, #0x70
    2394:	a9047bfd 	stp	x29, x30, [sp, #64]
    2398:	910103fd 	add	x29, sp, #0x40
    239c:	a9065bf5 	stp	x21, x22, [sp, #96]
    23a0:	90000075 	adrp	x21, e000 <_DYNAMIC>
    23a4:	aa0103f6 	mov	x22, x1
    23a8:	f9409aa1 	ldr	x1, [x21, #304]
    23ac:	a90553f3 	stp	x19, x20, [sp, #80]
/home/fangjiang/workspace/optee-os/lib/libutee/tee_api_arith_mpi.c:221
    23b0:	910023f4 	add	x20, sp, #0x8
/home/fangjiang/workspace/optee-os/lib/libutee/tee_api_arith_mpi.c:216
    23b4:	f9400022 	ldr	x2, [x1]
    23b8:	f9001fe2 	str	x2, [sp, #56]
    23bc:	d2800002 	mov	x2, #0x0                   	// #0
/home/fangjiang/workspace/optee-os/lib/libutee/tee_api_arith_mpi.c:222
    23c0:	910083f3 	add	x19, sp, #0x20
/home/fangjiang/workspace/optee-os/lib/libutee/tee_api_arith_mpi.c:221
    23c4:	aa0003e1 	mov	x1, x0
    23c8:	aa1403e0 	mov	x0, x20
    23cc:	97fffcf7 	bl	17a8 <get_mpi>
/home/fangjiang/workspace/optee-os/lib/libutee/tee_api_arith_mpi.c:222
    23d0:	aa1603e1 	mov	x1, x22
    23d4:	aa1303e0 	mov	x0, x19
    23d8:	97fffcf4 	bl	17a8 <get_mpi>
/home/fangjiang/workspace/optee-os/lib/libutee/tee_api_arith_mpi.c:224
    23dc:	aa1303e1 	mov	x1, x19
    23e0:	aa1403e0 	mov	x0, x20
    23e4:	94000b9f 	bl	5260 <mbedtls_mpi_cmp_mpi>
    23e8:	2a0003f6 	mov	w22, w0
/home/fangjiang/workspace/optee-os/lib/libutee/tee_api_arith_mpi.c:226
    23ec:	aa1403e0 	mov	x0, x20
    23f0:	94000871 	bl	45b4 <mbedtls_mpi_free>
/home/fangjiang/workspace/optee-os/lib/libutee/tee_api_arith_mpi.c:227
    23f4:	aa1303e0 	mov	x0, x19
    23f8:	9400086f 	bl	45b4 <mbedtls_mpi_free>
/home/fangjiang/workspace/optee-os/lib/libutee/tee_api_arith_mpi.c:230
    23fc:	f9409ab5 	ldr	x21, [x21, #304]
    2400:	f9401fe0 	ldr	x0, [sp, #56]
    2404:	f94002a1 	ldr	x1, [x21]
    2408:	eb010000 	subs	x0, x0, x1
    240c:	d2800001 	mov	x1, #0x0                   	// #0
    2410:	54000040 	b.eq	2418 <TEE_BigIntCmp+0x88>  // b.none
    2414:	94001acb 	bl	8f40 <__stack_chk_fail>
    2418:	2a1603e0 	mov	w0, w22
    241c:	a9447bfd 	ldp	x29, x30, [sp, #64]
    2420:	a94553f3 	ldp	x19, x20, [sp, #80]
    2424:	a9465bf5 	ldp	x21, x22, [sp, #96]
    2428:	9101c3ff 	add	sp, sp, #0x70
    242c:	d65f03c0 	ret

0000000000002430 <TEE_BigIntCmpS32>:
TEE_BigIntCmpS32():
/home/fangjiang/workspace/optee-os/lib/libutee/tee_api_arith_mpi.c:233
    2430:	d10143ff 	sub	sp, sp, #0x50
    2434:	a9027bfd 	stp	x29, x30, [sp, #32]
    2438:	910083fd 	add	x29, sp, #0x20
    243c:	a90353f3 	stp	x19, x20, [sp, #48]
    2440:	90000074 	adrp	x20, e000 <_DYNAMIC>
/home/fangjiang/workspace/optee-os/lib/libutee/tee_api_arith_mpi.c:237
    2444:	910003f3 	mov	x19, sp
/home/fangjiang/workspace/optee-os/lib/libutee/tee_api_arith_mpi.c:233
    2448:	f90023f5 	str	x21, [sp, #64]
    244c:	2a0103f5 	mov	w21, w1
    2450:	f9409a81 	ldr	x1, [x20, #304]
    2454:	f9400022 	ldr	x2, [x1]
    2458:	f9000fe2 	str	x2, [sp, #24]
    245c:	d2800002 	mov	x2, #0x0                   	// #0
/home/fangjiang/workspace/optee-os/lib/libutee/tee_api_arith_mpi.c:237
    2460:	aa0003e1 	mov	x1, x0
    2464:	aa1303e0 	mov	x0, x19
    2468:	97fffcd0 	bl	17a8 <get_mpi>
/home/fangjiang/workspace/optee-os/lib/libutee/tee_api_arith_mpi.c:239
    246c:	2a1503e1 	mov	w1, w21
    2470:	aa1303e0 	mov	x0, x19
    2474:	94000be0 	bl	53f4 <mbedtls_mpi_cmp_int>
    2478:	2a0003f5 	mov	w21, w0
/home/fangjiang/workspace/optee-os/lib/libutee/tee_api_arith_mpi.c:241
    247c:	aa1303e0 	mov	x0, x19
    2480:	9400084d 	bl	45b4 <mbedtls_mpi_free>
/home/fangjiang/workspace/optee-os/lib/libutee/tee_api_arith_mpi.c:244
    2484:	f9409a94 	ldr	x20, [x20, #304]
    2488:	f9400fe0 	ldr	x0, [sp, #24]
    248c:	f9400281 	ldr	x1, [x20]
    2490:	eb010000 	subs	x0, x0, x1
    2494:	d2800001 	mov	x1, #0x0                   	// #0
    2498:	54000040 	b.eq	24a0 <TEE_BigIntCmpS32+0x70>  // b.none
    249c:	94001aa9 	bl	8f40 <__stack_chk_fail>
    24a0:	2a1503e0 	mov	w0, w21
    24a4:	a9427bfd 	ldp	x29, x30, [sp, #32]
    24a8:	a94353f3 	ldp	x19, x20, [sp, #48]
    24ac:	f94023f5 	ldr	x21, [sp, #64]
    24b0:	910143ff 	add	sp, sp, #0x50
    24b4:	d65f03c0 	ret

00000000000024b8 <bigint_binary_mod>:
bigint_binary_mod():
/home/fangjiang/workspace/optee-os/lib/libutee/tee_api_arith_mpi.c:354
    24b8:	d10383ff 	sub	sp, sp, #0xe0
    24bc:	90000065 	adrp	x5, e000 <_DYNAMIC>
    24c0:	a9087bfd 	stp	x29, x30, [sp, #128]
    24c4:	910203fd 	add	x29, sp, #0x80
    24c8:	f94098a5 	ldr	x5, [x5, #304]
    24cc:	a90953f3 	stp	x19, x20, [sp, #144]
    24d0:	aa0003f4 	mov	x20, x0
    24d4:	a90a5bf5 	stp	x21, x22, [sp, #160]
    24d8:	aa0203f5 	mov	x21, x2
    24dc:	aa0303f6 	mov	x22, x3
    24e0:	a90b63f7 	stp	x23, x24, [sp, #176]
    24e4:	aa0103f7 	mov	x23, x1
/home/fangjiang/workspace/optee-os/lib/libutee/tee_api_arith_mpi.c:363
    24e8:	52800041 	mov	w1, #0x2                   	// #2
/home/fangjiang/workspace/optee-os/lib/libutee/tee_api_arith_mpi.c:354
    24ec:	a90c6bf9 	stp	x25, x26, [sp, #192]
    24f0:	aa0403f9 	mov	x25, x4
    24f4:	f9006bfb 	str	x27, [sp, #208]
    24f8:	f94000a0 	ldr	x0, [x5]
    24fc:	f9003fe0 	str	x0, [sp, #120]
    2500:	d2800000 	mov	x0, #0x0                   	// #0
/home/fangjiang/workspace/optee-os/lib/libutee/tee_api_arith_mpi.c:363
    2504:	aa0303e0 	mov	x0, x3
    2508:	97ffffca 	bl	2430 <TEE_BigIntCmpS32>
    250c:	36f80100 	tbz	w0, #31, 252c <bigint_binary_mod+0x74>
/home/fangjiang/workspace/optee-os/lib/libutee/tee_api_arith_mpi.c:364
    2510:	d0000040 	adrp	x0, c000 <__text_end+0x1cb0>
    2514:	91203400 	add	x0, x0, #0x80d
    2518:	d0000042 	adrp	x2, c000 <__text_end+0x1cb0>
    251c:	9101e000 	add	x0, x0, #0x78
    2520:	911f3442 	add	x2, x2, #0x7cd
    2524:	52802d81 	mov	w1, #0x16c                 	// #364
    2528:	97fffc88 	bl	1748 <api_panic>
/home/fangjiang/workspace/optee-os/lib/libutee/tee_api_arith_mpi.c:366
    252c:	910003f3 	mov	x19, sp
    2530:	aa1403e1 	mov	x1, x20
    2534:	aa1303e0 	mov	x0, x19
/home/fangjiang/workspace/optee-os/lib/libutee/tee_api_arith_mpi.c:367
    2538:	910123f8 	add	x24, sp, #0x48
/home/fangjiang/workspace/optee-os/lib/libutee/tee_api_arith_mpi.c:366
    253c:	97fffc9b 	bl	17a8 <get_mpi>
/home/fangjiang/workspace/optee-os/lib/libutee/tee_api_arith_mpi.c:367
    2540:	910063fb 	add	x27, sp, #0x18
    2544:	aa1603e1 	mov	x1, x22
    2548:	aa1803e0 	mov	x0, x24
    254c:	97fffc97 	bl	17a8 <get_mpi>
/home/fangjiang/workspace/optee-os/lib/libutee/tee_api_arith_mpi.c:369
    2550:	eb17029f 	cmp	x20, x23
    2554:	54000380 	b.eq	25c4 <bigint_binary_mod+0x10c>  // b.none
/home/fangjiang/workspace/optee-os/lib/libutee/tee_api_arith_mpi.c:359
    2558:	aa1b03f6 	mov	x22, x27
/home/fangjiang/workspace/optee-os/lib/libutee/tee_api_arith_mpi.c:372
    255c:	aa1703e1 	mov	x1, x23
    2560:	aa1b03e0 	mov	x0, x27
    2564:	97fffc91 	bl	17a8 <get_mpi>
/home/fangjiang/workspace/optee-os/lib/libutee/tee_api_arith_mpi.c:374
    2568:	eb15029f 	cmp	x20, x21
    256c:	9100c3fa 	add	x26, sp, #0x30
    2570:	540002e0 	b.eq	25cc <bigint_binary_mod+0x114>  // b.none
/home/fangjiang/workspace/optee-os/lib/libutee/tee_api_arith_mpi.c:376
    2574:	eb1502ff 	cmp	x23, x21
    2578:	540002e0 	b.eq	25d4 <bigint_binary_mod+0x11c>  // b.none
/home/fangjiang/workspace/optee-os/lib/libutee/tee_api_arith_mpi.c:379
    257c:	aa1503e1 	mov	x1, x21
/home/fangjiang/workspace/optee-os/lib/libutee/tee_api_arith_mpi.c:360
    2580:	aa1a03f5 	mov	x21, x26
/home/fangjiang/workspace/optee-os/lib/libutee/tee_api_arith_mpi.c:379
    2584:	aa1a03e0 	mov	x0, x26
    2588:	97fffc88 	bl	17a8 <get_mpi>
get_mpi():
/home/fangjiang/workspace/optee-os/lib/libutee/tee_api_arith_mpi.c:101
    258c:	910183f7 	add	x23, sp, #0x60
    2590:	aa1703e0 	mov	x0, x23
    2594:	940007fe 	bl	458c <mbedtls_mpi_init_mempool>
bigint_binary_mod():
/home/fangjiang/workspace/optee-os/lib/libutee/tee_api_arith_mpi.c:383
    2598:	aa1503e2 	mov	x2, x21
    259c:	aa1603e1 	mov	x1, x22
    25a0:	aa1703e0 	mov	x0, x23
    25a4:	d63f0320 	blr	x25
    25a8:	2a0003e2 	mov	w2, w0
    25ac:	34000180 	cbz	w0, 25dc <bigint_binary_mod+0x124>
/home/fangjiang/workspace/optee-os/lib/libutee/tee_api_arith_mpi.c:383 (discriminator 1)
    25b0:	52802fe1 	mov	w1, #0x17f                 	// #383
/home/fangjiang/workspace/optee-os/lib/libutee/tee_api_arith_mpi.c:384 (discriminator 1)
    25b4:	d0000040 	adrp	x0, c000 <__text_end+0x1cb0>
    25b8:	91203400 	add	x0, x0, #0x80d
    25bc:	9101e000 	add	x0, x0, #0x78
    25c0:	97fffc6e 	bl	1778 <mpi_panic>
/home/fangjiang/workspace/optee-os/lib/libutee/tee_api_arith_mpi.c:370
    25c4:	aa1303f6 	mov	x22, x19
    25c8:	17ffffe8 	b	2568 <bigint_binary_mod+0xb0>
/home/fangjiang/workspace/optee-os/lib/libutee/tee_api_arith_mpi.c:375
    25cc:	aa1303f5 	mov	x21, x19
    25d0:	17ffffef 	b	258c <bigint_binary_mod+0xd4>
/home/fangjiang/workspace/optee-os/lib/libutee/tee_api_arith_mpi.c:377
    25d4:	aa1603f5 	mov	x21, x22
    25d8:	17ffffed 	b	258c <bigint_binary_mod+0xd4>
/home/fangjiang/workspace/optee-os/lib/libutee/tee_api_arith_mpi.c:384 (discriminator 2)
    25dc:	aa1803e2 	mov	x2, x24
    25e0:	aa1703e1 	mov	x1, x23
    25e4:	aa1303e0 	mov	x0, x19
    25e8:	94000f4d 	bl	631c <mbedtls_mpi_mod_mpi>
    25ec:	2a0003e2 	mov	w2, w0
    25f0:	34000060 	cbz	w0, 25fc <bigint_binary_mod+0x144>
/home/fangjiang/workspace/optee-os/lib/libutee/tee_api_arith_mpi.c:384 (discriminator 1)
    25f4:	52803001 	mov	w1, #0x180                 	// #384
    25f8:	17ffffef 	b	25b4 <bigint_binary_mod+0xfc>
/home/fangjiang/workspace/optee-os/lib/libutee/tee_api_arith_mpi.c:386 (discriminator 2)
    25fc:	aa1403e1 	mov	x1, x20
    2600:	aa1303e0 	mov	x0, x19
    2604:	97fffc8f 	bl	1840 <copy_mpi_to_bigint>
    2608:	2a0003e2 	mov	w2, w0
    260c:	34000060 	cbz	w0, 2618 <bigint_binary_mod+0x160>
/home/fangjiang/workspace/optee-os/lib/libutee/tee_api_arith_mpi.c:386 (discriminator 1)
    2610:	52803041 	mov	w1, #0x182                 	// #386
    2614:	17ffffe8 	b	25b4 <bigint_binary_mod+0xfc>
/home/fangjiang/workspace/optee-os/lib/libutee/tee_api_arith_mpi.c:387 (discriminator 2)
    2618:	aa1303e0 	mov	x0, x19
    261c:	940007e6 	bl	45b4 <mbedtls_mpi_free>
/home/fangjiang/workspace/optee-os/lib/libutee/tee_api_arith_mpi.c:388 (discriminator 2)
    2620:	eb1b02df 	cmp	x22, x27
    2624:	54000061 	b.ne	2630 <bigint_binary_mod+0x178>  // b.any
/home/fangjiang/workspace/optee-os/lib/libutee/tee_api_arith_mpi.c:389
    2628:	aa1603e0 	mov	x0, x22
    262c:	940007e2 	bl	45b4 <mbedtls_mpi_free>
/home/fangjiang/workspace/optee-os/lib/libutee/tee_api_arith_mpi.c:390
    2630:	eb1a02bf 	cmp	x21, x26
    2634:	54000061 	b.ne	2640 <bigint_binary_mod+0x188>  // b.any
/home/fangjiang/workspace/optee-os/lib/libutee/tee_api_arith_mpi.c:391
    2638:	aa1503e0 	mov	x0, x21
    263c:	940007de 	bl	45b4 <mbedtls_mpi_free>
/home/fangjiang/workspace/optee-os/lib/libutee/tee_api_arith_mpi.c:392
    2640:	aa1703e0 	mov	x0, x23
    2644:	940007dc 	bl	45b4 <mbedtls_mpi_free>
/home/fangjiang/workspace/optee-os/lib/libutee/tee_api_arith_mpi.c:393
    2648:	aa1803e0 	mov	x0, x24
    264c:	940007da 	bl	45b4 <mbedtls_mpi_free>
/home/fangjiang/workspace/optee-os/lib/libutee/tee_api_arith_mpi.c:394
    2650:	90000065 	adrp	x5, e000 <_DYNAMIC>
    2654:	f94098a5 	ldr	x5, [x5, #304]
    2658:	f9403fe0 	ldr	x0, [sp, #120]
    265c:	f94000a1 	ldr	x1, [x5]
    2660:	eb010000 	subs	x0, x0, x1
    2664:	d2800001 	mov	x1, #0x0                   	// #0
    2668:	54000040 	b.eq	2670 <bigint_binary_mod+0x1b8>  // b.none
    266c:	94001a35 	bl	8f40 <__stack_chk_fail>
    2670:	a9487bfd 	ldp	x29, x30, [sp, #128]
    2674:	a94953f3 	ldp	x19, x20, [sp, #144]
    2678:	a94a5bf5 	ldp	x21, x22, [sp, #160]
    267c:	a94b63f7 	ldp	x23, x24, [sp, #176]
    2680:	a94c6bf9 	ldp	x25, x26, [sp, #192]
    2684:	f9406bfb 	ldr	x27, [sp, #208]
    2688:	910383ff 	add	sp, sp, #0xe0
    268c:	d65f03c0 	ret

0000000000002690 <TEE_BigIntShiftRight>:
TEE_BigIntShiftRight():
/home/fangjiang/workspace/optee-os/lib/libutee/tee_api_arith_mpi.c:247
    2690:	d10243ff 	sub	sp, sp, #0x90
    2694:	90000063 	adrp	x3, e000 <_DYNAMIC>
    2698:	a9057bfd 	stp	x29, x30, [sp, #80]
    269c:	910143fd 	add	x29, sp, #0x50
    26a0:	f9409863 	ldr	x3, [x3, #304]
    26a4:	a90653f3 	stp	x19, x20, [sp, #96]
    26a8:	aa0003f4 	mov	x20, x0
    26ac:	a9075bf5 	stp	x21, x22, [sp, #112]
/home/fangjiang/workspace/optee-os/lib/libutee/tee_api_arith_mpi.c:251
    26b0:	910003f3 	mov	x19, sp
/home/fangjiang/workspace/optee-os/lib/libutee/tee_api_arith_mpi.c:247
    26b4:	aa0103f6 	mov	x22, x1
    26b8:	f90043f7 	str	x23, [sp, #128]
/home/fangjiang/workspace/optee-os/lib/libutee/tee_api_arith_mpi.c:251
    26bc:	aa0003e1 	mov	x1, x0
/home/fangjiang/workspace/optee-os/lib/libutee/tee_api_arith_mpi.c:247
    26c0:	aa0203f7 	mov	x23, x2
    26c4:	f9400060 	ldr	x0, [x3]
    26c8:	f90027e0 	str	x0, [sp, #72]
    26cc:	d2800000 	mov	x0, #0x0                   	// #0
/home/fangjiang/workspace/optee-os/lib/libutee/tee_api_arith_mpi.c:251
    26d0:	aa1303e0 	mov	x0, x19
    26d4:	97fffc35 	bl	17a8 <get_mpi>
/home/fangjiang/workspace/optee-os/lib/libutee/tee_api_arith_mpi.c:253
    26d8:	eb16029f 	cmp	x20, x22
    26dc:	54000161 	b.ne	2708 <TEE_BigIntShiftRight+0x78>  // b.any
/home/fangjiang/workspace/optee-os/lib/libutee/tee_api_arith_mpi.c:254
    26e0:	aa1703e1 	mov	x1, x23
    26e4:	aa1303e0 	mov	x0, x19
    26e8:	94000a87 	bl	5104 <mbedtls_mpi_shift_r>
    26ec:	2a0003e2 	mov	w2, w0
    26f0:	34000760 	cbz	w0, 27dc <TEE_BigIntShiftRight+0x14c>
/home/fangjiang/workspace/optee-os/lib/libutee/tee_api_arith_mpi.c:254 (discriminator 1)
    26f4:	52801fc1 	mov	w1, #0xfe                  	// #254
/home/fangjiang/workspace/optee-os/lib/libutee/tee_api_arith_mpi.c:261 (discriminator 1)
    26f8:	d0000040 	adrp	x0, c000 <__text_end+0x1cb0>
    26fc:	91203400 	add	x0, x0, #0x80d
    2700:	91022800 	add	x0, x0, #0x8a
    2704:	97fffc1d 	bl	1778 <mpi_panic>
/home/fangjiang/workspace/optee-os/lib/libutee/tee_api_arith_mpi.c:258
    2708:	aa1603e1 	mov	x1, x22
    270c:	910063f5 	add	x21, sp, #0x18
    2710:	aa1503e0 	mov	x0, x21
    2714:	97fffc25 	bl	17a8 <get_mpi>
/home/fangjiang/workspace/optee-os/lib/libutee/tee_api_arith_mpi.c:260
    2718:	aa1303e0 	mov	x0, x19
    271c:	94000991 	bl	4d60 <mbedtls_mpi_size>
    2720:	aa0003f6 	mov	x22, x0
    2724:	aa1503e0 	mov	x0, x21
    2728:	9400098e 	bl	4d60 <mbedtls_mpi_size>
    272c:	eb0002df 	cmp	x22, x0
    2730:	540001e3 	b.cc	276c <TEE_BigIntShiftRight+0xdc>  // b.lo, b.ul, b.last
/home/fangjiang/workspace/optee-os/lib/libutee/tee_api_arith_mpi.c:261
    2734:	aa1503e1 	mov	x1, x21
    2738:	aa1303e0 	mov	x0, x19
    273c:	94000854 	bl	488c <mbedtls_mpi_copy>
    2740:	2a0003e2 	mov	w2, w0
    2744:	34000060 	cbz	w0, 2750 <TEE_BigIntShiftRight+0xc0>
/home/fangjiang/workspace/optee-os/lib/libutee/tee_api_arith_mpi.c:261 (discriminator 1)
    2748:	528020a1 	mov	w1, #0x105                 	// #261
    274c:	17ffffeb 	b	26f8 <TEE_BigIntShiftRight+0x68>
/home/fangjiang/workspace/optee-os/lib/libutee/tee_api_arith_mpi.c:262 (discriminator 2)
    2750:	aa1703e1 	mov	x1, x23
    2754:	aa1303e0 	mov	x0, x19
    2758:	94000a6b 	bl	5104 <mbedtls_mpi_shift_r>
    275c:	2a0003e2 	mov	w2, w0
    2760:	340003a0 	cbz	w0, 27d4 <TEE_BigIntShiftRight+0x144>
/home/fangjiang/workspace/optee-os/lib/libutee/tee_api_arith_mpi.c:262 (discriminator 1)
    2764:	528020c1 	mov	w1, #0x106                 	// #262
    2768:	17ffffe4 	b	26f8 <TEE_BigIntShiftRight+0x68>
get_mpi():
/home/fangjiang/workspace/optee-os/lib/libutee/tee_api_arith_mpi.c:101
    276c:	9100c3f6 	add	x22, sp, #0x30
    2770:	aa1603e0 	mov	x0, x22
    2774:	94000786 	bl	458c <mbedtls_mpi_init_mempool>
TEE_BigIntShiftRight():
/home/fangjiang/workspace/optee-os/lib/libutee/tee_api_arith_mpi.c:273
    2778:	aa1503e1 	mov	x1, x21
    277c:	aa1603e0 	mov	x0, x22
    2780:	94000843 	bl	488c <mbedtls_mpi_copy>
    2784:	2a0003e2 	mov	w2, w0
    2788:	34000060 	cbz	w0, 2794 <TEE_BigIntShiftRight+0x104>
/home/fangjiang/workspace/optee-os/lib/libutee/tee_api_arith_mpi.c:273 (discriminator 1)
    278c:	52802221 	mov	w1, #0x111                 	// #273
    2790:	17ffffda 	b	26f8 <TEE_BigIntShiftRight+0x68>
/home/fangjiang/workspace/optee-os/lib/libutee/tee_api_arith_mpi.c:274 (discriminator 2)
    2794:	aa1703e1 	mov	x1, x23
    2798:	aa1603e0 	mov	x0, x22
    279c:	94000a5a 	bl	5104 <mbedtls_mpi_shift_r>
    27a0:	2a0003e2 	mov	w2, w0
    27a4:	34000060 	cbz	w0, 27b0 <TEE_BigIntShiftRight+0x120>
/home/fangjiang/workspace/optee-os/lib/libutee/tee_api_arith_mpi.c:274 (discriminator 1)
    27a8:	52802241 	mov	w1, #0x112                 	// #274
    27ac:	17ffffd3 	b	26f8 <TEE_BigIntShiftRight+0x68>
/home/fangjiang/workspace/optee-os/lib/libutee/tee_api_arith_mpi.c:275 (discriminator 2)
    27b0:	aa1603e1 	mov	x1, x22
    27b4:	aa1303e0 	mov	x0, x19
    27b8:	94000835 	bl	488c <mbedtls_mpi_copy>
    27bc:	2a0003e2 	mov	w2, w0
    27c0:	34000060 	cbz	w0, 27cc <TEE_BigIntShiftRight+0x13c>
/home/fangjiang/workspace/optee-os/lib/libutee/tee_api_arith_mpi.c:275 (discriminator 1)
    27c4:	52802261 	mov	w1, #0x113                 	// #275
    27c8:	17ffffcc 	b	26f8 <TEE_BigIntShiftRight+0x68>
/home/fangjiang/workspace/optee-os/lib/libutee/tee_api_arith_mpi.c:277 (discriminator 2)
    27cc:	aa1603e0 	mov	x0, x22
    27d0:	94000779 	bl	45b4 <mbedtls_mpi_free>
/home/fangjiang/workspace/optee-os/lib/libutee/tee_api_arith_mpi.c:280
    27d4:	aa1503e0 	mov	x0, x21
    27d8:	94000777 	bl	45b4 <mbedtls_mpi_free>
/home/fangjiang/workspace/optee-os/lib/libutee/tee_api_arith_mpi.c:283
    27dc:	aa1403e1 	mov	x1, x20
    27e0:	aa1303e0 	mov	x0, x19
    27e4:	97fffc17 	bl	1840 <copy_mpi_to_bigint>
    27e8:	2a0003e2 	mov	w2, w0
    27ec:	34000060 	cbz	w0, 27f8 <TEE_BigIntShiftRight+0x168>
/home/fangjiang/workspace/optee-os/lib/libutee/tee_api_arith_mpi.c:283 (discriminator 1)
    27f0:	52802361 	mov	w1, #0x11b                 	// #283
    27f4:	17ffffc1 	b	26f8 <TEE_BigIntShiftRight+0x68>
/home/fangjiang/workspace/optee-os/lib/libutee/tee_api_arith_mpi.c:284 (discriminator 2)
    27f8:	aa1303e0 	mov	x0, x19
    27fc:	9400076e 	bl	45b4 <mbedtls_mpi_free>
/home/fangjiang/workspace/optee-os/lib/libutee/tee_api_arith_mpi.c:285 (discriminator 2)
    2800:	90000063 	adrp	x3, e000 <_DYNAMIC>
    2804:	f9409863 	ldr	x3, [x3, #304]
    2808:	f94027e0 	ldr	x0, [sp, #72]
    280c:	f9400061 	ldr	x1, [x3]
    2810:	eb010000 	subs	x0, x0, x1
    2814:	d2800001 	mov	x1, #0x0                   	// #0
    2818:	54000040 	b.eq	2820 <TEE_BigIntShiftRight+0x190>  // b.none
/home/fangjiang/workspace/optee-os/lib/libutee/tee_api_arith_mpi.c:285
    281c:	940019c9 	bl	8f40 <__stack_chk_fail>
    2820:	a9457bfd 	ldp	x29, x30, [sp, #80]
    2824:	a94653f3 	ldp	x19, x20, [sp, #96]
    2828:	a9475bf5 	ldp	x21, x22, [sp, #112]
    282c:	f94043f7 	ldr	x23, [sp, #128]
    2830:	910243ff 	add	sp, sp, #0x90
    2834:	d65f03c0 	ret

0000000000002838 <TEE_BigIntGetBit>:
TEE_BigIntGetBit():
/home/fangjiang/workspace/optee-os/lib/libutee/tee_api_arith_mpi.c:288
    2838:	d10143ff 	sub	sp, sp, #0x50
    283c:	a9027bfd 	stp	x29, x30, [sp, #32]
    2840:	910083fd 	add	x29, sp, #0x20
    2844:	a90353f3 	stp	x19, x20, [sp, #48]
    2848:	90000074 	adrp	x20, e000 <_DYNAMIC>
/home/fangjiang/workspace/optee-os/lib/libutee/tee_api_arith_mpi.c:292
    284c:	910003f3 	mov	x19, sp
/home/fangjiang/workspace/optee-os/lib/libutee/tee_api_arith_mpi.c:288
    2850:	f90023f5 	str	x21, [sp, #64]
    2854:	2a0103f5 	mov	w21, w1
    2858:	f9409a81 	ldr	x1, [x20, #304]
    285c:	f9400022 	ldr	x2, [x1]
    2860:	f9000fe2 	str	x2, [sp, #24]
    2864:	d2800002 	mov	x2, #0x0                   	// #0
/home/fangjiang/workspace/optee-os/lib/libutee/tee_api_arith_mpi.c:292
    2868:	aa0003e1 	mov	x1, x0
    286c:	aa1303e0 	mov	x0, x19
    2870:	97fffbce 	bl	17a8 <get_mpi>
/home/fangjiang/workspace/optee-os/lib/libutee/tee_api_arith_mpi.c:294
    2874:	2a1503e1 	mov	w1, w21
    2878:	aa1303e0 	mov	x0, x19
    287c:	940008df 	bl	4bf8 <mbedtls_mpi_get_bit>
    2880:	2a0003f5 	mov	w21, w0
/home/fangjiang/workspace/optee-os/lib/libutee/tee_api_arith_mpi.c:296
    2884:	aa1303e0 	mov	x0, x19
    2888:	9400074b 	bl	45b4 <mbedtls_mpi_free>
/home/fangjiang/workspace/optee-os/lib/libutee/tee_api_arith_mpi.c:299
    288c:	f9409a94 	ldr	x20, [x20, #304]
/home/fangjiang/workspace/optee-os/lib/libutee/tee_api_arith_mpi.c:294
    2890:	710002bf 	cmp	w21, #0x0
    2894:	1a9f07e0 	cset	w0, ne  // ne = any
/home/fangjiang/workspace/optee-os/lib/libutee/tee_api_arith_mpi.c:299
    2898:	f9400fe1 	ldr	x1, [sp, #24]
    289c:	f9400282 	ldr	x2, [x20]
    28a0:	eb020021 	subs	x1, x1, x2
    28a4:	d2800002 	mov	x2, #0x0                   	// #0
    28a8:	54000040 	b.eq	28b0 <TEE_BigIntGetBit+0x78>  // b.none
    28ac:	940019a5 	bl	8f40 <__stack_chk_fail>
    28b0:	a9427bfd 	ldp	x29, x30, [sp, #32]
    28b4:	a94353f3 	ldp	x19, x20, [sp, #48]
    28b8:	f94023f5 	ldr	x21, [sp, #64]
    28bc:	910143ff 	add	sp, sp, #0x50
    28c0:	d65f03c0 	ret

00000000000028c4 <TEE_BigIntGetBitCount>:
TEE_BigIntGetBitCount():
/home/fangjiang/workspace/optee-os/lib/libutee/tee_api_arith_mpi.c:302
    28c4:	d10143ff 	sub	sp, sp, #0x50
    28c8:	a9027bfd 	stp	x29, x30, [sp, #32]
    28cc:	910083fd 	add	x29, sp, #0x20
    28d0:	a90353f3 	stp	x19, x20, [sp, #48]
    28d4:	90000074 	adrp	x20, e000 <_DYNAMIC>
/home/fangjiang/workspace/optee-os/lib/libutee/tee_api_arith_mpi.c:306
    28d8:	910003f3 	mov	x19, sp
/home/fangjiang/workspace/optee-os/lib/libutee/tee_api_arith_mpi.c:302
    28dc:	f9409a81 	ldr	x1, [x20, #304]
    28e0:	f90023f5 	str	x21, [sp, #64]
    28e4:	f9400022 	ldr	x2, [x1]
    28e8:	f9000fe2 	str	x2, [sp, #24]
    28ec:	d2800002 	mov	x2, #0x0                   	// #0
/home/fangjiang/workspace/optee-os/lib/libutee/tee_api_arith_mpi.c:306
    28f0:	aa0003e1 	mov	x1, x0
    28f4:	aa1303e0 	mov	x0, x19
    28f8:	97fffbac 	bl	17a8 <get_mpi>
/home/fangjiang/workspace/optee-os/lib/libutee/tee_api_arith_mpi.c:308
    28fc:	aa1303e0 	mov	x0, x19
    2900:	94000901 	bl	4d04 <mbedtls_mpi_bitlen>
    2904:	aa0003f5 	mov	x21, x0
/home/fangjiang/workspace/optee-os/lib/libutee/tee_api_arith_mpi.c:310
    2908:	aa1303e0 	mov	x0, x19
    290c:	9400072a 	bl	45b4 <mbedtls_mpi_free>
/home/fangjiang/workspace/optee-os/lib/libutee/tee_api_arith_mpi.c:313
    2910:	f9409a94 	ldr	x20, [x20, #304]
    2914:	f9400fe0 	ldr	x0, [sp, #24]
    2918:	f9400281 	ldr	x1, [x20]
    291c:	eb010000 	subs	x0, x0, x1
    2920:	d2800001 	mov	x1, #0x0                   	// #0
    2924:	54000040 	b.eq	292c <TEE_BigIntGetBitCount+0x68>  // b.none
    2928:	94001986 	bl	8f40 <__stack_chk_fail>
    292c:	2a1503e0 	mov	w0, w21
    2930:	a9427bfd 	ldp	x29, x30, [sp, #32]
    2934:	a94353f3 	ldp	x19, x20, [sp, #48]
    2938:	f94023f5 	ldr	x21, [sp, #64]
    293c:	910143ff 	add	sp, sp, #0x50
    2940:	d65f03c0 	ret

0000000000002944 <TEE_BigIntAdd>:
TEE_BigIntAdd():
/home/fangjiang/workspace/optee-os/lib/libutee/tee_api_arith_mpi.c:399
    2944:	90000063 	adrp	x3, e000 <_DYNAMIC>
    2948:	f940ac63 	ldr	x3, [x3, #344]
    294c:	17fffbd6 	b	18a4 <bigint_binary>

0000000000002950 <TEE_BigIntSub>:
TEE_BigIntSub():
/home/fangjiang/workspace/optee-os/lib/libutee/tee_api_arith_mpi.c:405
    2950:	90000063 	adrp	x3, e000 <_DYNAMIC>
    2954:	f940b463 	ldr	x3, [x3, #360]
    2958:	17fffbd3 	b	18a4 <bigint_binary>

000000000000295c <TEE_BigIntNeg>:
TEE_BigIntNeg():
/home/fangjiang/workspace/optee-os/lib/libutee/tee_api_arith_mpi.c:409
    295c:	d101c3ff 	sub	sp, sp, #0x70
    2960:	90000062 	adrp	x2, e000 <_DYNAMIC>
    2964:	a9047bfd 	stp	x29, x30, [sp, #64]
    2968:	910103fd 	add	x29, sp, #0x40
    296c:	f9409842 	ldr	x2, [x2, #304]
    2970:	a90553f3 	stp	x19, x20, [sp, #80]
    2974:	aa0003f3 	mov	x19, x0
    2978:	a9065bf5 	stp	x21, x22, [sp, #96]
/home/fangjiang/workspace/optee-os/lib/libutee/tee_api_arith_mpi.c:412
    297c:	910023f4 	add	x20, sp, #0x8
/home/fangjiang/workspace/optee-os/lib/libutee/tee_api_arith_mpi.c:409
    2980:	aa0103f5 	mov	x21, x1
    2984:	f9400040 	ldr	x0, [x2]
    2988:	f9001fe0 	str	x0, [sp, #56]
    298c:	d2800000 	mov	x0, #0x0                   	// #0
/home/fangjiang/workspace/optee-os/lib/libutee/tee_api_arith_mpi.c:412
    2990:	aa1303e1 	mov	x1, x19
    2994:	aa1403e0 	mov	x0, x20
    2998:	97fffb84 	bl	17a8 <get_mpi>
/home/fangjiang/workspace/optee-os/lib/libutee/tee_api_arith_mpi.c:414
    299c:	eb15027f 	cmp	x19, x21
    29a0:	54000220 	b.eq	29e4 <TEE_BigIntNeg+0x88>  // b.none
/home/fangjiang/workspace/optee-os/lib/libutee/tee_api_arith_mpi.c:417
    29a4:	910083f6 	add	x22, sp, #0x20
    29a8:	aa1503e1 	mov	x1, x21
    29ac:	aa1603e0 	mov	x0, x22
    29b0:	97fffb7e 	bl	17a8 <get_mpi>
/home/fangjiang/workspace/optee-os/lib/libutee/tee_api_arith_mpi.c:419
    29b4:	aa1603e1 	mov	x1, x22
    29b8:	aa1403e0 	mov	x0, x20
    29bc:	940007b4 	bl	488c <mbedtls_mpi_copy>
    29c0:	2a0003e2 	mov	w2, w0
    29c4:	340000c0 	cbz	w0, 29dc <TEE_BigIntNeg+0x80>
/home/fangjiang/workspace/optee-os/lib/libutee/tee_api_arith_mpi.c:419 (discriminator 1)
    29c8:	52803461 	mov	w1, #0x1a3                 	// #419
/home/fangjiang/workspace/optee-os/lib/libutee/tee_api_arith_mpi.c:426 (discriminator 1)
    29cc:	d0000040 	adrp	x0, c000 <__text_end+0x1cb0>
    29d0:	91203400 	add	x0, x0, #0x80d
    29d4:	91027c00 	add	x0, x0, #0x9f
    29d8:	97fffb68 	bl	1778 <mpi_panic>
/home/fangjiang/workspace/optee-os/lib/libutee/tee_api_arith_mpi.c:421 (discriminator 2)
    29dc:	aa1603e0 	mov	x0, x22
    29e0:	940006f5 	bl	45b4 <mbedtls_mpi_free>
/home/fangjiang/workspace/optee-os/lib/libutee/tee_api_arith_mpi.c:424
    29e4:	794013e0 	ldrh	w0, [sp, #8]
/home/fangjiang/workspace/optee-os/lib/libutee/tee_api_arith_mpi.c:426
    29e8:	aa1303e1 	mov	x1, x19
/home/fangjiang/workspace/optee-os/lib/libutee/tee_api_arith_mpi.c:424
    29ec:	4b0003e0 	neg	w0, w0
    29f0:	790013e0 	strh	w0, [sp, #8]
/home/fangjiang/workspace/optee-os/lib/libutee/tee_api_arith_mpi.c:426
    29f4:	aa1403e0 	mov	x0, x20
    29f8:	97fffb92 	bl	1840 <copy_mpi_to_bigint>
    29fc:	2a0003e2 	mov	w2, w0
    2a00:	34000060 	cbz	w0, 2a0c <TEE_BigIntNeg+0xb0>
/home/fangjiang/workspace/optee-os/lib/libutee/tee_api_arith_mpi.c:426 (discriminator 1)
    2a04:	52803541 	mov	w1, #0x1aa                 	// #426
    2a08:	17fffff1 	b	29cc <TEE_BigIntNeg+0x70>
/home/fangjiang/workspace/optee-os/lib/libutee/tee_api_arith_mpi.c:427 (discriminator 2)
    2a0c:	aa1403e0 	mov	x0, x20
    2a10:	940006e9 	bl	45b4 <mbedtls_mpi_free>
/home/fangjiang/workspace/optee-os/lib/libutee/tee_api_arith_mpi.c:428 (discriminator 2)
    2a14:	90000062 	adrp	x2, e000 <_DYNAMIC>
    2a18:	f9409842 	ldr	x2, [x2, #304]
    2a1c:	f9401fe0 	ldr	x0, [sp, #56]
    2a20:	f9400041 	ldr	x1, [x2]
    2a24:	eb010000 	subs	x0, x0, x1
    2a28:	d2800001 	mov	x1, #0x0                   	// #0
    2a2c:	54000040 	b.eq	2a34 <TEE_BigIntNeg+0xd8>  // b.none
/home/fangjiang/workspace/optee-os/lib/libutee/tee_api_arith_mpi.c:428
    2a30:	94001944 	bl	8f40 <__stack_chk_fail>
    2a34:	a9447bfd 	ldp	x29, x30, [sp, #64]
    2a38:	a94553f3 	ldp	x19, x20, [sp, #80]
    2a3c:	a9465bf5 	ldp	x21, x22, [sp, #96]
    2a40:	9101c3ff 	add	sp, sp, #0x70
    2a44:	d65f03c0 	ret

0000000000002a48 <TEE_BigIntMul>:
TEE_BigIntMul():
/home/fangjiang/workspace/optee-os/lib/libutee/tee_api_arith_mpi.c:432
    2a48:	d101c3ff 	sub	sp, sp, #0x70
    2a4c:	a9027bfd 	stp	x29, x30, [sp, #32]
    2a50:	910083fd 	add	x29, sp, #0x20
    2a54:	f90033f9 	str	x25, [sp, #96]
    2a58:	90000079 	adrp	x25, e000 <_DYNAMIC>
    2a5c:	a90563f7 	stp	x23, x24, [sp, #80]
    2a60:	aa0003f7 	mov	x23, x0
    2a64:	aa1903f8 	mov	x24, x25
    2a68:	f9409b20 	ldr	x0, [x25, #304]
    2a6c:	a90353f3 	stp	x19, x20, [sp, #48]
    2a70:	a9045bf5 	stp	x21, x22, [sp, #64]
    2a74:	aa0103f5 	mov	x21, x1
    2a78:	aa0203f6 	mov	x22, x2
    2a7c:	f9400001 	ldr	x1, [x0]
    2a80:	f9000fe1 	str	x1, [sp, #24]
    2a84:	d2800001 	mov	x1, #0x0                   	// #0
/home/fangjiang/workspace/optee-os/lib/libutee/tee_api_arith_mpi.c:433
    2a88:	aa1503e0 	mov	x0, x21
    2a8c:	97ffff8e 	bl	28c4 <TEE_BigIntGetBitCount>
    2a90:	2a0003f3 	mov	w19, w0
/home/fangjiang/workspace/optee-os/lib/libutee/tee_api_arith_mpi.c:434
    2a94:	aa1603e0 	mov	x0, x22
    2a98:	97ffff8b 	bl	28c4 <TEE_BigIntGetBitCount>
    2a9c:	2a0003e0 	mov	w0, w0
/home/fangjiang/workspace/optee-os/lib/libutee/tee_api_arith_mpi.c:435
    2aa0:	91007e73 	add	x19, x19, #0x1f
    2aa4:	91007c00 	add	x0, x0, #0x1f
/home/fangjiang/workspace/optee-os/lib/libutee/tee_api_arith_mpi.c:436
    2aa8:	f90007ff 	str	xzr, [sp, #8]
    2aac:	b90013ff 	str	wzr, [sp, #16]
/home/fangjiang/workspace/optee-os/lib/libutee/tee_api_arith_mpi.c:435
    2ab0:	d345fc00 	lsr	x0, x0, #5
    2ab4:	8b531413 	add	x19, x0, x19, lsr #5
/home/fangjiang/workspace/optee-os/lib/libutee/tee_api_arith_mpi.c:439
    2ab8:	f940cf20 	ldr	x0, [x25, #408]
/home/fangjiang/workspace/optee-os/lib/libutee/tee_api_arith_mpi.c:435
    2abc:	91001273 	add	x19, x19, #0x4
/home/fangjiang/workspace/optee-os/lib/libutee/tee_api_arith_mpi.c:439
    2ac0:	d37ef661 	lsl	x1, x19, #2
    2ac4:	f9400000 	ldr	x0, [x0]
    2ac8:	94001dc9 	bl	a1ec <mempool_alloc>
    2acc:	aa0003f4 	mov	x20, x0
/home/fangjiang/workspace/optee-os/lib/libutee/tee_api_arith_mpi.c:440
    2ad0:	b5000060 	cbnz	x0, 2adc <TEE_BigIntMul+0x94>
/home/fangjiang/workspace/optee-os/lib/libutee/tee_api_arith_mpi.c:441
    2ad4:	129ffe60 	mov	w0, #0xffff000c            	// #-65524
    2ad8:	940002b1 	bl	359c <TEE_Panic>
/home/fangjiang/workspace/optee-os/lib/libutee/tee_api_arith_mpi.c:443
    2adc:	2a1303e1 	mov	w1, w19
    2ae0:	aa1403e0 	mov	x0, x20
/home/fangjiang/workspace/optee-os/lib/libutee/tee_api_arith_mpi.c:444
    2ae4:	910023f3 	add	x19, sp, #0x8
/home/fangjiang/workspace/optee-os/lib/libutee/tee_api_arith_mpi.c:443
    2ae8:	97fffd49 	bl	200c <TEE_BigIntInit>
/home/fangjiang/workspace/optee-os/lib/libutee/tee_api_arith_mpi.c:444
    2aec:	aa1303e0 	mov	x0, x19
    2af0:	52800061 	mov	w1, #0x3                   	// #3
    2af4:	97fffd46 	bl	200c <TEE_BigIntInit>
/home/fangjiang/workspace/optee-os/lib/libutee/tee_api_arith_mpi.c:446
    2af8:	f940ab03 	ldr	x3, [x24, #336]
    2afc:	aa1603e2 	mov	x2, x22
    2b00:	aa1503e1 	mov	x1, x21
    2b04:	aa1403e0 	mov	x0, x20
    2b08:	97fffb67 	bl	18a4 <bigint_binary>
/home/fangjiang/workspace/optee-os/lib/libutee/tee_api_arith_mpi.c:448
    2b0c:	aa1303e2 	mov	x2, x19
    2b10:	aa1403e1 	mov	x1, x20
    2b14:	aa1703e0 	mov	x0, x23
    2b18:	97ffff8b 	bl	2944 <TEE_BigIntAdd>
/home/fangjiang/workspace/optee-os/lib/libutee/tee_api_arith_mpi.c:450
    2b1c:	f940cf00 	ldr	x0, [x24, #408]
    2b20:	aa1403e1 	mov	x1, x20
    2b24:	f9400000 	ldr	x0, [x0]
    2b28:	94001dde 	bl	a2a0 <mempool_free>
/home/fangjiang/workspace/optee-os/lib/libutee/tee_api_arith_mpi.c:451
    2b2c:	f9409b18 	ldr	x24, [x24, #304]
    2b30:	f9400fe0 	ldr	x0, [sp, #24]
    2b34:	f9400301 	ldr	x1, [x24]
    2b38:	eb010000 	subs	x0, x0, x1
    2b3c:	d2800001 	mov	x1, #0x0                   	// #0
    2b40:	54000040 	b.eq	2b48 <TEE_BigIntMul+0x100>  // b.none
    2b44:	940018ff 	bl	8f40 <__stack_chk_fail>
    2b48:	a9427bfd 	ldp	x29, x30, [sp, #32]
    2b4c:	a94353f3 	ldp	x19, x20, [sp, #48]
    2b50:	a9445bf5 	ldp	x21, x22, [sp, #64]
    2b54:	a94563f7 	ldp	x23, x24, [sp, #80]
    2b58:	f94033f9 	ldr	x25, [sp, #96]
    2b5c:	9101c3ff 	add	sp, sp, #0x70
    2b60:	d65f03c0 	ret

0000000000002b64 <TEE_BigIntSquare>:
TEE_BigIntSquare():
/home/fangjiang/workspace/optee-os/lib/libutee/tee_api_arith_mpi.c:454
    2b64:	aa0103e2 	mov	x2, x1
/home/fangjiang/workspace/optee-os/lib/libutee/tee_api_arith_mpi.c:455
    2b68:	17ffffb8 	b	2a48 <TEE_BigIntMul>

0000000000002b6c <TEE_BigIntDiv>:
TEE_BigIntDiv():
/home/fangjiang/workspace/optee-os/lib/libutee/tee_api_arith_mpi.c:460
    2b6c:	d10343ff 	sub	sp, sp, #0xd0
    2b70:	90000064 	adrp	x4, e000 <_DYNAMIC>
    2b74:	a9077bfd 	stp	x29, x30, [sp, #112]
    2b78:	9101c3fd 	add	x29, sp, #0x70
    2b7c:	f9409884 	ldr	x4, [x4, #304]
    2b80:	a90853f3 	stp	x19, x20, [sp, #128]
    2b84:	aa0003f4 	mov	x20, x0
    2b88:	a9095bf5 	stp	x21, x22, [sp, #144]
    2b8c:	aa0103f3 	mov	x19, x1
/home/fangjiang/workspace/optee-os/lib/libutee/tee_api_arith_mpi.c:468
    2b90:	aa0003e1 	mov	x1, x0
/home/fangjiang/workspace/optee-os/lib/libutee/tee_api_arith_mpi.c:460
    2b94:	a90a63f7 	stp	x23, x24, [sp, #160]
/home/fangjiang/workspace/optee-os/lib/libutee/tee_api_arith_mpi.c:468
    2b98:	910023f8 	add	x24, sp, #0x8
/home/fangjiang/workspace/optee-os/lib/libutee/tee_api_arith_mpi.c:460
    2b9c:	aa0303f5 	mov	x21, x3
    2ba0:	a90b6bf9 	stp	x25, x26, [sp, #176]
/home/fangjiang/workspace/optee-os/lib/libutee/tee_api_arith_mpi.c:469
    2ba4:	910083f7 	add	x23, sp, #0x20
/home/fangjiang/workspace/optee-os/lib/libutee/tee_api_arith_mpi.c:460
    2ba8:	aa0203f9 	mov	x25, x2
    2bac:	f90063fb 	str	x27, [sp, #192]
    2bb0:	9100e3fb 	add	x27, sp, #0x38
    2bb4:	f9400080 	ldr	x0, [x4]
    2bb8:	f90037e0 	str	x0, [sp, #104]
    2bbc:	d2800000 	mov	x0, #0x0                   	// #0
/home/fangjiang/workspace/optee-os/lib/libutee/tee_api_arith_mpi.c:468
    2bc0:	aa1803e0 	mov	x0, x24
    2bc4:	97fffaf9 	bl	17a8 <get_mpi>
/home/fangjiang/workspace/optee-os/lib/libutee/tee_api_arith_mpi.c:469
    2bc8:	aa1303e1 	mov	x1, x19
    2bcc:	aa1703e0 	mov	x0, x23
    2bd0:	97fffaf6 	bl	17a8 <get_mpi>
/home/fangjiang/workspace/optee-os/lib/libutee/tee_api_arith_mpi.c:471
    2bd4:	eb19029f 	cmp	x20, x25
    2bd8:	540003c0 	b.eq	2c50 <TEE_BigIntDiv+0xe4>  // b.none
/home/fangjiang/workspace/optee-os/lib/libutee/tee_api_arith_mpi.c:473
    2bdc:	eb19027f 	cmp	x19, x25
    2be0:	540003c0 	b.eq	2c58 <TEE_BigIntDiv+0xec>  // b.none
/home/fangjiang/workspace/optee-os/lib/libutee/tee_api_arith_mpi.c:465
    2be4:	aa1b03f6 	mov	x22, x27
/home/fangjiang/workspace/optee-os/lib/libutee/tee_api_arith_mpi.c:476
    2be8:	aa1903e1 	mov	x1, x25
    2bec:	aa1b03e0 	mov	x0, x27
    2bf0:	97fffaee 	bl	17a8 <get_mpi>
/home/fangjiang/workspace/optee-os/lib/libutee/tee_api_arith_mpi.c:478
    2bf4:	eb15029f 	cmp	x20, x21
    2bf8:	910143fa 	add	x26, sp, #0x50
    2bfc:	54000320 	b.eq	2c60 <TEE_BigIntDiv+0xf4>  // b.none
/home/fangjiang/workspace/optee-os/lib/libutee/tee_api_arith_mpi.c:480
    2c00:	eb15027f 	cmp	x19, x21
    2c04:	54000320 	b.eq	2c68 <TEE_BigIntDiv+0xfc>  // b.none
/home/fangjiang/workspace/optee-os/lib/libutee/tee_api_arith_mpi.c:482
    2c08:	eb15033f 	cmp	x25, x21
    2c0c:	54000320 	b.eq	2c70 <TEE_BigIntDiv+0x104>  // b.none
/home/fangjiang/workspace/optee-os/lib/libutee/tee_api_arith_mpi.c:485
    2c10:	aa1503e1 	mov	x1, x21
/home/fangjiang/workspace/optee-os/lib/libutee/tee_api_arith_mpi.c:466
    2c14:	aa1a03f5 	mov	x21, x26
/home/fangjiang/workspace/optee-os/lib/libutee/tee_api_arith_mpi.c:485
    2c18:	aa1a03e0 	mov	x0, x26
    2c1c:	97fffae3 	bl	17a8 <get_mpi>
/home/fangjiang/workspace/optee-os/lib/libutee/tee_api_arith_mpi.c:487
    2c20:	aa1603e2 	mov	x2, x22
    2c24:	aa1503e3 	mov	x3, x21
    2c28:	aa1703e1 	mov	x1, x23
    2c2c:	aa1803e0 	mov	x0, x24
    2c30:	94000c51 	bl	5d74 <mbedtls_mpi_div_mpi>
    2c34:	2a0003e2 	mov	w2, w0
    2c38:	34000200 	cbz	w0, 2c78 <TEE_BigIntDiv+0x10c>
/home/fangjiang/workspace/optee-os/lib/libutee/tee_api_arith_mpi.c:487 (discriminator 1)
    2c3c:	52803ce1 	mov	w1, #0x1e7                 	// #487
/home/fangjiang/workspace/optee-os/lib/libutee/tee_api_arith_mpi.c:490 (discriminator 1)
    2c40:	d0000040 	adrp	x0, c000 <__text_end+0x1cb0>
    2c44:	91203400 	add	x0, x0, #0x80d
    2c48:	9102b400 	add	x0, x0, #0xad
    2c4c:	97fffacb 	bl	1778 <mpi_panic>
/home/fangjiang/workspace/optee-os/lib/libutee/tee_api_arith_mpi.c:472
    2c50:	aa1803f6 	mov	x22, x24
    2c54:	17ffffe8 	b	2bf4 <TEE_BigIntDiv+0x88>
/home/fangjiang/workspace/optee-os/lib/libutee/tee_api_arith_mpi.c:474
    2c58:	aa1703f6 	mov	x22, x23
    2c5c:	17ffffe6 	b	2bf4 <TEE_BigIntDiv+0x88>
/home/fangjiang/workspace/optee-os/lib/libutee/tee_api_arith_mpi.c:479
    2c60:	aa1803f5 	mov	x21, x24
    2c64:	17ffffef 	b	2c20 <TEE_BigIntDiv+0xb4>
/home/fangjiang/workspace/optee-os/lib/libutee/tee_api_arith_mpi.c:481
    2c68:	aa1703f5 	mov	x21, x23
    2c6c:	17ffffed 	b	2c20 <TEE_BigIntDiv+0xb4>
/home/fangjiang/workspace/optee-os/lib/libutee/tee_api_arith_mpi.c:483
    2c70:	aa1603f5 	mov	x21, x22
    2c74:	17ffffeb 	b	2c20 <TEE_BigIntDiv+0xb4>
/home/fangjiang/workspace/optee-os/lib/libutee/tee_api_arith_mpi.c:489 (discriminator 2)
    2c78:	b4000114 	cbz	x20, 2c98 <TEE_BigIntDiv+0x12c>
/home/fangjiang/workspace/optee-os/lib/libutee/tee_api_arith_mpi.c:490
    2c7c:	aa1403e1 	mov	x1, x20
    2c80:	aa1803e0 	mov	x0, x24
    2c84:	97fffaef 	bl	1840 <copy_mpi_to_bigint>
    2c88:	2a0003e2 	mov	w2, w0
    2c8c:	34000060 	cbz	w0, 2c98 <TEE_BigIntDiv+0x12c>
/home/fangjiang/workspace/optee-os/lib/libutee/tee_api_arith_mpi.c:490 (discriminator 1)
    2c90:	52803d41 	mov	w1, #0x1ea                 	// #490
    2c94:	17ffffeb 	b	2c40 <TEE_BigIntDiv+0xd4>
/home/fangjiang/workspace/optee-os/lib/libutee/tee_api_arith_mpi.c:491
    2c98:	b4000113 	cbz	x19, 2cb8 <TEE_BigIntDiv+0x14c>
/home/fangjiang/workspace/optee-os/lib/libutee/tee_api_arith_mpi.c:492
    2c9c:	aa1303e1 	mov	x1, x19
    2ca0:	aa1703e0 	mov	x0, x23
    2ca4:	97fffae7 	bl	1840 <copy_mpi_to_bigint>
    2ca8:	2a0003e2 	mov	w2, w0
    2cac:	34000060 	cbz	w0, 2cb8 <TEE_BigIntDiv+0x14c>
/home/fangjiang/workspace/optee-os/lib/libutee/tee_api_arith_mpi.c:492 (discriminator 1)
    2cb0:	52803d81 	mov	w1, #0x1ec                 	// #492
    2cb4:	17ffffe3 	b	2c40 <TEE_BigIntDiv+0xd4>
/home/fangjiang/workspace/optee-os/lib/libutee/tee_api_arith_mpi.c:493
    2cb8:	aa1803e0 	mov	x0, x24
    2cbc:	9400063e 	bl	45b4 <mbedtls_mpi_free>
/home/fangjiang/workspace/optee-os/lib/libutee/tee_api_arith_mpi.c:494
    2cc0:	aa1703e0 	mov	x0, x23
    2cc4:	9400063c 	bl	45b4 <mbedtls_mpi_free>
/home/fangjiang/workspace/optee-os/lib/libutee/tee_api_arith_mpi.c:495
    2cc8:	eb1b02df 	cmp	x22, x27
    2ccc:	54000061 	b.ne	2cd8 <TEE_BigIntDiv+0x16c>  // b.any
/home/fangjiang/workspace/optee-os/lib/libutee/tee_api_arith_mpi.c:496
    2cd0:	aa1603e0 	mov	x0, x22
    2cd4:	94000638 	bl	45b4 <mbedtls_mpi_free>
/home/fangjiang/workspace/optee-os/lib/libutee/tee_api_arith_mpi.c:497
    2cd8:	eb1a02bf 	cmp	x21, x26
    2cdc:	54000061 	b.ne	2ce8 <TEE_BigIntDiv+0x17c>  // b.any
/home/fangjiang/workspace/optee-os/lib/libutee/tee_api_arith_mpi.c:498
    2ce0:	aa1503e0 	mov	x0, x21
    2ce4:	94000634 	bl	45b4 <mbedtls_mpi_free>
/home/fangjiang/workspace/optee-os/lib/libutee/tee_api_arith_mpi.c:499
    2ce8:	90000064 	adrp	x4, e000 <_DYNAMIC>
    2cec:	f9409884 	ldr	x4, [x4, #304]
    2cf0:	f94037e0 	ldr	x0, [sp, #104]
    2cf4:	f9400081 	ldr	x1, [x4]
    2cf8:	eb010000 	subs	x0, x0, x1
    2cfc:	d2800001 	mov	x1, #0x0                   	// #0
    2d00:	54000040 	b.eq	2d08 <TEE_BigIntDiv+0x19c>  // b.none
    2d04:	9400188f 	bl	8f40 <__stack_chk_fail>
    2d08:	a9477bfd 	ldp	x29, x30, [sp, #112]
    2d0c:	a94853f3 	ldp	x19, x20, [sp, #128]
    2d10:	a9495bf5 	ldp	x21, x22, [sp, #144]
    2d14:	a94a63f7 	ldp	x23, x24, [sp, #160]
    2d18:	a94b6bf9 	ldp	x25, x26, [sp, #176]
    2d1c:	f94063fb 	ldr	x27, [sp, #192]
    2d20:	910343ff 	add	sp, sp, #0xd0
    2d24:	d65f03c0 	ret

0000000000002d28 <TEE_BigIntMod>:
TEE_BigIntMod():
/home/fangjiang/workspace/optee-os/lib/libutee/tee_api_arith_mpi.c:502
    2d28:	a9bd7bfd 	stp	x29, x30, [sp, #-48]!
    2d2c:	910003fd 	mov	x29, sp
    2d30:	a90153f3 	stp	x19, x20, [sp, #16]
    2d34:	aa0003f4 	mov	x20, x0
    2d38:	aa0203f3 	mov	x19, x2
/home/fangjiang/workspace/optee-os/lib/libutee/tee_api_arith_mpi.c:503
    2d3c:	aa0203e0 	mov	x0, x2
/home/fangjiang/workspace/optee-os/lib/libutee/tee_api_arith_mpi.c:502
    2d40:	f90013f5 	str	x21, [sp, #32]
    2d44:	aa0103f5 	mov	x21, x1
/home/fangjiang/workspace/optee-os/lib/libutee/tee_api_arith_mpi.c:503
    2d48:	52800041 	mov	w1, #0x2                   	// #2
    2d4c:	97fffdb9 	bl	2430 <TEE_BigIntCmpS32>
    2d50:	36f80100 	tbz	w0, #31, 2d70 <TEE_BigIntMod+0x48>
/home/fangjiang/workspace/optee-os/lib/libutee/tee_api_arith_mpi.c:504
    2d54:	d0000040 	adrp	x0, c000 <__text_end+0x1cb0>
    2d58:	91203400 	add	x0, x0, #0x80d
    2d5c:	d0000042 	adrp	x2, c000 <__text_end+0x1cb0>
    2d60:	9102ec00 	add	x0, x0, #0xbb
    2d64:	911f3442 	add	x2, x2, #0x7cd
    2d68:	52803f01 	mov	w1, #0x1f8                 	// #504
    2d6c:	97fffa77 	bl	1748 <api_panic>
/home/fangjiang/workspace/optee-os/lib/libutee/tee_api_arith_mpi.c:506
    2d70:	aa1303e2 	mov	x2, x19
    2d74:	aa1503e1 	mov	x1, x21
    2d78:	aa1403e0 	mov	x0, x20
    2d7c:	90000063 	adrp	x3, e000 <_DYNAMIC>
/home/fangjiang/workspace/optee-os/lib/libutee/tee_api_arith_mpi.c:507
    2d80:	a94153f3 	ldp	x19, x20, [sp, #16]
    2d84:	f94013f5 	ldr	x21, [sp, #32]
    2d88:	a8c37bfd 	ldp	x29, x30, [sp], #48
/home/fangjiang/workspace/optee-os/lib/libutee/tee_api_arith_mpi.c:506
    2d8c:	f940bc63 	ldr	x3, [x3, #376]
    2d90:	17fffac5 	b	18a4 <bigint_binary>

0000000000002d94 <TEE_BigIntAddMod>:
TEE_BigIntAddMod():
/home/fangjiang/workspace/optee-os/lib/libutee/tee_api_arith_mpi.c:512
    2d94:	90000064 	adrp	x4, e000 <_DYNAMIC>
    2d98:	f940ac84 	ldr	x4, [x4, #344]
    2d9c:	17fffdc7 	b	24b8 <bigint_binary_mod>

0000000000002da0 <TEE_BigIntSubMod>:
TEE_BigIntSubMod():
/home/fangjiang/workspace/optee-os/lib/libutee/tee_api_arith_mpi.c:518
    2da0:	90000064 	adrp	x4, e000 <_DYNAMIC>
    2da4:	f940b484 	ldr	x4, [x4, #360]
    2da8:	17fffdc4 	b	24b8 <bigint_binary_mod>

0000000000002dac <TEE_BigIntMulMod>:
TEE_BigIntMulMod():
/home/fangjiang/workspace/optee-os/lib/libutee/tee_api_arith_mpi.c:524
    2dac:	90000064 	adrp	x4, e000 <_DYNAMIC>
    2db0:	f940a884 	ldr	x4, [x4, #336]
    2db4:	17fffdc1 	b	24b8 <bigint_binary_mod>

0000000000002db8 <TEE_BigIntSquareMod>:
TEE_BigIntSquareMod():
/home/fangjiang/workspace/optee-os/lib/libutee/tee_api_arith_mpi.c:530
    2db8:	aa0203e3 	mov	x3, x2
    2dbc:	aa0103e2 	mov	x2, x1
    2dc0:	17fffffb 	b	2dac <TEE_BigIntMulMod>

0000000000002dc4 <TEE_BigIntInvMod>:
TEE_BigIntInvMod():
/home/fangjiang/workspace/optee-os/lib/libutee/tee_api_arith_mpi.c:535
    2dc4:	d10243ff 	sub	sp, sp, #0x90
    2dc8:	90000063 	adrp	x3, e000 <_DYNAMIC>
    2dcc:	a9057bfd 	stp	x29, x30, [sp, #80]
    2dd0:	910143fd 	add	x29, sp, #0x50
    2dd4:	f9409863 	ldr	x3, [x3, #304]
    2dd8:	a90653f3 	stp	x19, x20, [sp, #96]
    2ddc:	aa0003f4 	mov	x20, x0
    2de0:	a9075bf5 	stp	x21, x22, [sp, #112]
    2de4:	aa0103f5 	mov	x21, x1
    2de8:	aa0203f6 	mov	x22, x2
    2dec:	f90043f7 	str	x23, [sp, #128]
/home/fangjiang/workspace/optee-os/lib/libutee/tee_api_arith_mpi.c:541
    2df0:	52800041 	mov	w1, #0x2                   	// #2
/home/fangjiang/workspace/optee-os/lib/libutee/tee_api_arith_mpi.c:535
    2df4:	f9400060 	ldr	x0, [x3]
    2df8:	f90027e0 	str	x0, [sp, #72]
    2dfc:	d2800000 	mov	x0, #0x0                   	// #0
/home/fangjiang/workspace/optee-os/lib/libutee/tee_api_arith_mpi.c:541
    2e00:	aa0203e0 	mov	x0, x2
    2e04:	97fffd8b 	bl	2430 <TEE_BigIntCmpS32>
    2e08:	36f80100 	tbz	w0, #31, 2e28 <TEE_BigIntInvMod+0x64>
/home/fangjiang/workspace/optee-os/lib/libutee/tee_api_arith_mpi.c:542
    2e0c:	d0000040 	adrp	x0, c000 <__text_end+0x1cb0>
    2e10:	91203400 	add	x0, x0, #0x80d
    2e14:	d0000042 	adrp	x2, c000 <__text_end+0x1cb0>
    2e18:	91032400 	add	x0, x0, #0xc9
    2e1c:	911f8842 	add	x2, x2, #0x7e2
    2e20:	528043c1 	mov	w1, #0x21e                 	// #542
    2e24:	97fffa49 	bl	1748 <api_panic>
/home/fangjiang/workspace/optee-os/lib/libutee/tee_api_arith_mpi.c:541 (discriminator 1)
    2e28:	aa1503e0 	mov	x0, x21
    2e2c:	52800001 	mov	w1, #0x0                   	// #0
    2e30:	97fffd80 	bl	2430 <TEE_BigIntCmpS32>
    2e34:	34fffec0 	cbz	w0, 2e0c <TEE_BigIntInvMod+0x48>
/home/fangjiang/workspace/optee-os/lib/libutee/tee_api_arith_mpi.c:544
    2e38:	910003f3 	mov	x19, sp
    2e3c:	aa1403e1 	mov	x1, x20
    2e40:	aa1303e0 	mov	x0, x19
/home/fangjiang/workspace/optee-os/lib/libutee/tee_api_arith_mpi.c:545
    2e44:	9100c3f7 	add	x23, sp, #0x30
/home/fangjiang/workspace/optee-os/lib/libutee/tee_api_arith_mpi.c:544
    2e48:	97fffa58 	bl	17a8 <get_mpi>
/home/fangjiang/workspace/optee-os/lib/libutee/tee_api_arith_mpi.c:545
    2e4c:	aa1603e1 	mov	x1, x22
    2e50:	aa1703e0 	mov	x0, x23
    2e54:	97fffa55 	bl	17a8 <get_mpi>
/home/fangjiang/workspace/optee-os/lib/libutee/tee_api_arith_mpi.c:547
    2e58:	910063f6 	add	x22, sp, #0x18
    2e5c:	eb1402bf 	cmp	x21, x20
    2e60:	54000200 	b.eq	2ea0 <TEE_BigIntInvMod+0xdc>  // b.none
/home/fangjiang/workspace/optee-os/lib/libutee/tee_api_arith_mpi.c:550
    2e64:	aa1503e1 	mov	x1, x21
/home/fangjiang/workspace/optee-os/lib/libutee/tee_api_arith_mpi.c:539
    2e68:	aa1603f5 	mov	x21, x22
/home/fangjiang/workspace/optee-os/lib/libutee/tee_api_arith_mpi.c:550
    2e6c:	aa1603e0 	mov	x0, x22
    2e70:	97fffa4e 	bl	17a8 <get_mpi>
/home/fangjiang/workspace/optee-os/lib/libutee/tee_api_arith_mpi.c:552
    2e74:	aa1703e2 	mov	x2, x23
    2e78:	aa1503e1 	mov	x1, x21
    2e7c:	aa1303e0 	mov	x0, x19
    2e80:	940011b6 	bl	7558 <mbedtls_mpi_inv_mod>
    2e84:	2a0003e2 	mov	w2, w0
    2e88:	34000100 	cbz	w0, 2ea8 <TEE_BigIntInvMod+0xe4>
/home/fangjiang/workspace/optee-os/lib/libutee/tee_api_arith_mpi.c:552 (discriminator 1)
    2e8c:	52804501 	mov	w1, #0x228                 	// #552
/home/fangjiang/workspace/optee-os/lib/libutee/tee_api_arith_mpi.c:554 (discriminator 1)
    2e90:	d0000040 	adrp	x0, c000 <__text_end+0x1cb0>
    2e94:	91203400 	add	x0, x0, #0x80d
    2e98:	91032400 	add	x0, x0, #0xc9
    2e9c:	97fffa37 	bl	1778 <mpi_panic>
/home/fangjiang/workspace/optee-os/lib/libutee/tee_api_arith_mpi.c:548
    2ea0:	aa1303f5 	mov	x21, x19
    2ea4:	17fffff4 	b	2e74 <TEE_BigIntInvMod+0xb0>
/home/fangjiang/workspace/optee-os/lib/libutee/tee_api_arith_mpi.c:554 (discriminator 2)
    2ea8:	aa1403e1 	mov	x1, x20
    2eac:	aa1303e0 	mov	x0, x19
    2eb0:	97fffa64 	bl	1840 <copy_mpi_to_bigint>
    2eb4:	2a0003e2 	mov	w2, w0
    2eb8:	34000060 	cbz	w0, 2ec4 <TEE_BigIntInvMod+0x100>
/home/fangjiang/workspace/optee-os/lib/libutee/tee_api_arith_mpi.c:554 (discriminator 1)
    2ebc:	52804541 	mov	w1, #0x22a                 	// #554
    2ec0:	17fffff4 	b	2e90 <TEE_BigIntInvMod+0xcc>
/home/fangjiang/workspace/optee-os/lib/libutee/tee_api_arith_mpi.c:555 (discriminator 2)
    2ec4:	aa1303e0 	mov	x0, x19
    2ec8:	940005bb 	bl	45b4 <mbedtls_mpi_free>
/home/fangjiang/workspace/optee-os/lib/libutee/tee_api_arith_mpi.c:556 (discriminator 2)
    2ecc:	aa1703e0 	mov	x0, x23
    2ed0:	940005b9 	bl	45b4 <mbedtls_mpi_free>
/home/fangjiang/workspace/optee-os/lib/libutee/tee_api_arith_mpi.c:557 (discriminator 2)
    2ed4:	eb1602bf 	cmp	x21, x22
    2ed8:	54000061 	b.ne	2ee4 <TEE_BigIntInvMod+0x120>  // b.any
/home/fangjiang/workspace/optee-os/lib/libutee/tee_api_arith_mpi.c:558
    2edc:	aa1503e0 	mov	x0, x21
    2ee0:	940005b5 	bl	45b4 <mbedtls_mpi_free>
/home/fangjiang/workspace/optee-os/lib/libutee/tee_api_arith_mpi.c:559
    2ee4:	90000063 	adrp	x3, e000 <_DYNAMIC>
    2ee8:	f9409863 	ldr	x3, [x3, #304]
    2eec:	f94027e0 	ldr	x0, [sp, #72]
    2ef0:	f9400061 	ldr	x1, [x3]
    2ef4:	eb010000 	subs	x0, x0, x1
    2ef8:	d2800001 	mov	x1, #0x0                   	// #0
    2efc:	54000040 	b.eq	2f04 <TEE_BigIntInvMod+0x140>  // b.none
    2f00:	94001810 	bl	8f40 <__stack_chk_fail>
    2f04:	a9457bfd 	ldp	x29, x30, [sp, #80]
    2f08:	a94653f3 	ldp	x19, x20, [sp, #96]
    2f0c:	a9475bf5 	ldp	x21, x22, [sp, #112]
    2f10:	f94043f7 	ldr	x23, [sp, #128]
    2f14:	910243ff 	add	sp, sp, #0x90
    2f18:	d65f03c0 	ret

0000000000002f1c <TEE_BigIntRelativePrime>:
TEE_BigIntRelativePrime():
/home/fangjiang/workspace/optee-os/lib/libutee/tee_api_arith_mpi.c:562
    2f1c:	d10243ff 	sub	sp, sp, #0x90
    2f20:	90000062 	adrp	x2, e000 <_DYNAMIC>
    2f24:	a9057bfd 	stp	x29, x30, [sp, #80]
    2f28:	910143fd 	add	x29, sp, #0x50
    2f2c:	f9409842 	ldr	x2, [x2, #304]
    2f30:	a90653f3 	stp	x19, x20, [sp, #96]
    2f34:	aa0003f3 	mov	x19, x0
    2f38:	a9075bf5 	stp	x21, x22, [sp, #112]
/home/fangjiang/workspace/optee-os/lib/libutee/tee_api_arith_mpi.c:569
    2f3c:	910003f4 	mov	x20, sp
/home/fangjiang/workspace/optee-os/lib/libutee/tee_api_arith_mpi.c:562
    2f40:	aa0103f5 	mov	x21, x1
    2f44:	f90043f7 	str	x23, [sp, #128]
/home/fangjiang/workspace/optee-os/lib/libutee/tee_api_arith_mpi.c:569
    2f48:	aa0003e1 	mov	x1, x0
/home/fangjiang/workspace/optee-os/lib/libutee/tee_api_arith_mpi.c:562
    2f4c:	f9400040 	ldr	x0, [x2]
    2f50:	f90027e0 	str	x0, [sp, #72]
    2f54:	d2800000 	mov	x0, #0x0                   	// #0
/home/fangjiang/workspace/optee-os/lib/libutee/tee_api_arith_mpi.c:569
    2f58:	aa1403e0 	mov	x0, x20
    2f5c:	97fffa13 	bl	17a8 <get_mpi>
/home/fangjiang/workspace/optee-os/lib/libutee/tee_api_arith_mpi.c:571
    2f60:	eb15027f 	cmp	x19, x21
    2f64:	910063f3 	add	x19, sp, #0x18
    2f68:	54000260 	b.eq	2fb4 <TEE_BigIntRelativePrime+0x98>  // b.none
/home/fangjiang/workspace/optee-os/lib/libutee/tee_api_arith_mpi.c:566
    2f6c:	aa1303f6 	mov	x22, x19
/home/fangjiang/workspace/optee-os/lib/libutee/tee_api_arith_mpi.c:574
    2f70:	aa1503e1 	mov	x1, x21
    2f74:	aa1303e0 	mov	x0, x19
    2f78:	97fffa0c 	bl	17a8 <get_mpi>
get_mpi():
/home/fangjiang/workspace/optee-os/lib/libutee/tee_api_arith_mpi.c:101
    2f7c:	9100c3f5 	add	x21, sp, #0x30
    2f80:	aa1503e0 	mov	x0, x21
    2f84:	94000582 	bl	458c <mbedtls_mpi_init_mempool>
TEE_BigIntRelativePrime():
/home/fangjiang/workspace/optee-os/lib/libutee/tee_api_arith_mpi.c:578
    2f88:	aa1303e2 	mov	x2, x19
    2f8c:	aa1403e1 	mov	x1, x20
    2f90:	aa1503e0 	mov	x0, x21
    2f94:	94000fc4 	bl	6ea4 <mbedtls_mpi_gcd>
    2f98:	2a0003e2 	mov	w2, w0
    2f9c:	34000100 	cbz	w0, 2fbc <TEE_BigIntRelativePrime+0xa0>
/home/fangjiang/workspace/optee-os/lib/libutee/tee_api_arith_mpi.c:578 (discriminator 1)
    2fa0:	d0000040 	adrp	x0, c000 <__text_end+0x1cb0>
    2fa4:	91203400 	add	x0, x0, #0x80d
    2fa8:	91036800 	add	x0, x0, #0xda
    2fac:	52804841 	mov	w1, #0x242                 	// #578
    2fb0:	97fff9f2 	bl	1778 <mpi_panic>
/home/fangjiang/workspace/optee-os/lib/libutee/tee_api_arith_mpi.c:572
    2fb4:	aa1403f6 	mov	x22, x20
    2fb8:	17fffff1 	b	2f7c <TEE_BigIntRelativePrime+0x60>
/home/fangjiang/workspace/optee-os/lib/libutee/tee_api_arith_mpi.c:580 (discriminator 2)
    2fbc:	52800021 	mov	w1, #0x1                   	// #1
    2fc0:	aa1503e0 	mov	x0, x21
    2fc4:	9400090c 	bl	53f4 <mbedtls_mpi_cmp_int>
    2fc8:	7100001f 	cmp	w0, #0x0
    2fcc:	1a9f17f7 	cset	w23, eq  // eq = none
/home/fangjiang/workspace/optee-os/lib/libutee/tee_api_arith_mpi.c:582 (discriminator 2)
    2fd0:	aa1503e0 	mov	x0, x21
    2fd4:	94000578 	bl	45b4 <mbedtls_mpi_free>
/home/fangjiang/workspace/optee-os/lib/libutee/tee_api_arith_mpi.c:583 (discriminator 2)
    2fd8:	aa1403e0 	mov	x0, x20
    2fdc:	94000576 	bl	45b4 <mbedtls_mpi_free>
/home/fangjiang/workspace/optee-os/lib/libutee/tee_api_arith_mpi.c:584 (discriminator 2)
    2fe0:	eb1302df 	cmp	x22, x19
    2fe4:	54000061 	b.ne	2ff0 <TEE_BigIntRelativePrime+0xd4>  // b.any
/home/fangjiang/workspace/optee-os/lib/libutee/tee_api_arith_mpi.c:585
    2fe8:	aa1603e0 	mov	x0, x22
    2fec:	94000572 	bl	45b4 <mbedtls_mpi_free>
/home/fangjiang/workspace/optee-os/lib/libutee/tee_api_arith_mpi.c:588
    2ff0:	90000062 	adrp	x2, e000 <_DYNAMIC>
    2ff4:	f9409842 	ldr	x2, [x2, #304]
    2ff8:	f94027e0 	ldr	x0, [sp, #72]
    2ffc:	f9400041 	ldr	x1, [x2]
    3000:	eb010000 	subs	x0, x0, x1
    3004:	d2800001 	mov	x1, #0x0                   	// #0
    3008:	54000040 	b.eq	3010 <TEE_BigIntRelativePrime+0xf4>  // b.none
    300c:	940017cd 	bl	8f40 <__stack_chk_fail>
    3010:	2a1703e0 	mov	w0, w23
    3014:	a9457bfd 	ldp	x29, x30, [sp, #80]
    3018:	a94653f3 	ldp	x19, x20, [sp, #96]
    301c:	a9475bf5 	ldp	x21, x22, [sp, #112]
    3020:	f94043f7 	ldr	x23, [sp, #128]
    3024:	910243ff 	add	sp, sp, #0x90
    3028:	d65f03c0 	ret

000000000000302c <TEE_BigIntComputeExtendedGcd>:
TEE_BigIntComputeExtendedGcd():
/home/fangjiang/workspace/optee-os/lib/libutee/tee_api_arith_mpi.c:699
    302c:	d103c3ff 	sub	sp, sp, #0xf0
    3030:	a9097bfd 	stp	x29, x30, [sp, #144]
    3034:	910243fd 	add	x29, sp, #0x90
    3038:	a90d6bf9 	stp	x25, x26, [sp, #208]
    303c:	aa0003fa 	mov	x26, x0
    3040:	f0000040 	adrp	x0, e000 <_DYNAMIC>
    3044:	a90a53f3 	stp	x19, x20, [sp, #160]
    3048:	aa0103f9 	mov	x25, x1
    304c:	aa0403f3 	mov	x19, x4
    3050:	f9409800 	ldr	x0, [x0, #304]
    3054:	a90b5bf5 	stp	x21, x22, [sp, #176]
/home/fangjiang/workspace/optee-os/lib/libutee/tee_api_arith_mpi.c:705
    3058:	910043f5 	add	x21, sp, #0x10
/home/fangjiang/workspace/optee-os/lib/libutee/tee_api_arith_mpi.c:699
    305c:	a90c63f7 	stp	x23, x24, [sp, #192]
    3060:	aa0303f6 	mov	x22, x3
    3064:	aa0203f8 	mov	x24, x2
    3068:	a90e73fb 	stp	x27, x28, [sp, #224]
/home/fangjiang/workspace/optee-os/lib/libutee/tee_api_arith_mpi.c:706
    306c:	9100a3f4 	add	x20, sp, #0x28
    3070:	910103fb 	add	x27, sp, #0x40
/home/fangjiang/workspace/optee-os/lib/libutee/tee_api_arith_mpi.c:699
    3074:	f9400001 	ldr	x1, [x0]
    3078:	f90047e1 	str	x1, [sp, #136]
    307c:	d2800001 	mov	x1, #0x0                   	// #0
/home/fangjiang/workspace/optee-os/lib/libutee/tee_api_arith_mpi.c:705
    3080:	aa1503e0 	mov	x0, x21
    3084:	aa1a03e1 	mov	x1, x26
    3088:	97fff9c8 	bl	17a8 <get_mpi>
/home/fangjiang/workspace/optee-os/lib/libutee/tee_api_arith_mpi.c:706
    308c:	aa1603e1 	mov	x1, x22
    3090:	aa1403e0 	mov	x0, x20
    3094:	97fff9c5 	bl	17a8 <get_mpi>
/home/fangjiang/workspace/optee-os/lib/libutee/tee_api_arith_mpi.c:708
    3098:	eb1302df 	cmp	x22, x19
    309c:	54000240 	b.eq	30e4 <TEE_BigIntComputeExtendedGcd+0xb8>  // b.none
/home/fangjiang/workspace/optee-os/lib/libutee/tee_api_arith_mpi.c:711
    30a0:	aa1303e1 	mov	x1, x19
/home/fangjiang/workspace/optee-os/lib/libutee/tee_api_arith_mpi.c:703
    30a4:	aa1b03f3 	mov	x19, x27
/home/fangjiang/workspace/optee-os/lib/libutee/tee_api_arith_mpi.c:711
    30a8:	aa1b03e0 	mov	x0, x27
    30ac:	97fff9bf 	bl	17a8 <get_mpi>
/home/fangjiang/workspace/optee-os/lib/libutee/tee_api_arith_mpi.c:713
    30b0:	aa180320 	orr	x0, x25, x24
    30b4:	b50001c0 	cbnz	x0, 30ec <TEE_BigIntComputeExtendedGcd+0xc0>
/home/fangjiang/workspace/optee-os/lib/libutee/tee_api_arith_mpi.c:714
    30b8:	aa1303e2 	mov	x2, x19
    30bc:	aa1403e1 	mov	x1, x20
    30c0:	aa1503e0 	mov	x0, x21
    30c4:	94000f78 	bl	6ea4 <mbedtls_mpi_gcd>
    30c8:	2a0003e2 	mov	w2, w0
    30cc:	34000aa0 	cbz	w0, 3220 <TEE_BigIntComputeExtendedGcd+0x1f4>
/home/fangjiang/workspace/optee-os/lib/libutee/tee_api_arith_mpi.c:714 (discriminator 1)
    30d0:	52805941 	mov	w1, #0x2ca                 	// #714
/home/fangjiang/workspace/optee-os/lib/libutee/tee_api_arith_mpi.c:730 (discriminator 1)
    30d4:	b0000040 	adrp	x0, c000 <__text_end+0x1cb0>
    30d8:	91203400 	add	x0, x0, #0x80d
    30dc:	9103c800 	add	x0, x0, #0xf2
    30e0:	97fff9a6 	bl	1778 <mpi_panic>
/home/fangjiang/workspace/optee-os/lib/libutee/tee_api_arith_mpi.c:709
    30e4:	aa1403f3 	mov	x19, x20
    30e8:	17fffff2 	b	30b0 <TEE_BigIntComputeExtendedGcd+0x84>
/home/fangjiang/workspace/optee-os/lib/libutee/tee_api_arith_mpi.c:719
    30ec:	39c00260 	ldrsb	w0, [x19]
/home/fangjiang/workspace/optee-os/lib/libutee/tee_api_arith_mpi.c:725
    30f0:	910163f7 	add	x23, sp, #0x58
/home/fangjiang/workspace/optee-os/lib/libutee/tee_api_arith_mpi.c:718
    30f4:	39c0a3fc 	ldrsb	w28, [sp, #40]
/home/fangjiang/workspace/optee-os/lib/libutee/tee_api_arith_mpi.c:725
    30f8:	aa1903e1 	mov	x1, x25
/home/fangjiang/workspace/optee-os/lib/libutee/tee_api_arith_mpi.c:719
    30fc:	b9000fe0 	str	w0, [sp, #12]
/home/fangjiang/workspace/optee-os/lib/libutee/tee_api_arith_mpi.c:722
    3100:	52800020 	mov	w0, #0x1                   	// #1
    3104:	790053e0 	strh	w0, [sp, #40]
/home/fangjiang/workspace/optee-os/lib/libutee/tee_api_arith_mpi.c:726
    3108:	9101c3f6 	add	x22, sp, #0x70
/home/fangjiang/workspace/optee-os/lib/libutee/tee_api_arith_mpi.c:723
    310c:	79000260 	strh	w0, [x19]
/home/fangjiang/workspace/optee-os/lib/libutee/tee_api_arith_mpi.c:725
    3110:	aa1703e0 	mov	x0, x23
    3114:	97fff9a5 	bl	17a8 <get_mpi>
/home/fangjiang/workspace/optee-os/lib/libutee/tee_api_arith_mpi.c:726
    3118:	aa1803e1 	mov	x1, x24
    311c:	aa1603e0 	mov	x0, x22
    3120:	97fff9a2 	bl	17a8 <get_mpi>
/home/fangjiang/workspace/optee-os/lib/libutee/tee_api_arith_mpi.c:728
    3124:	aa1303e1 	mov	x1, x19
    3128:	aa1403e0 	mov	x0, x20
    312c:	94000826 	bl	51c4 <mbedtls_mpi_cmp_abs>
/home/fangjiang/workspace/optee-os/lib/libutee/tee_api_arith_mpi.c:729
    3130:	7100001f 	cmp	w0, #0x0
    3134:	350002c0 	cbnz	w0, 318c <TEE_BigIntComputeExtendedGcd+0x160>
/home/fangjiang/workspace/optee-os/lib/libutee/tee_api_arith_mpi.c:730
    3138:	aa1403e1 	mov	x1, x20
    313c:	aa1503e0 	mov	x0, x21
    3140:	940005d3 	bl	488c <mbedtls_mpi_copy>
    3144:	2a0003e2 	mov	w2, w0
    3148:	34000060 	cbz	w0, 3154 <TEE_BigIntComputeExtendedGcd+0x128>
/home/fangjiang/workspace/optee-os/lib/libutee/tee_api_arith_mpi.c:730 (discriminator 1)
    314c:	52805b41 	mov	w1, #0x2da                 	// #730
    3150:	17ffffe1 	b	30d4 <TEE_BigIntComputeExtendedGcd+0xa8>
/home/fangjiang/workspace/optee-os/lib/libutee/tee_api_arith_mpi.c:731 (discriminator 2)
    3154:	aa1703e0 	mov	x0, x23
    3158:	52800021 	mov	w1, #0x1                   	// #1
    315c:	9400068d 	bl	4b90 <mbedtls_mpi_lset>
    3160:	2a0003e2 	mov	w2, w0
    3164:	34000060 	cbz	w0, 3170 <TEE_BigIntComputeExtendedGcd+0x144>
/home/fangjiang/workspace/optee-os/lib/libutee/tee_api_arith_mpi.c:731 (discriminator 1)
    3168:	52805b61 	mov	w1, #0x2db                 	// #731
    316c:	17ffffda 	b	30d4 <TEE_BigIntComputeExtendedGcd+0xa8>
/home/fangjiang/workspace/optee-os/lib/libutee/tee_api_arith_mpi.c:732 (discriminator 2)
    3170:	aa1603e0 	mov	x0, x22
    3174:	52800001 	mov	w1, #0x0                   	// #0
    3178:	94000686 	bl	4b90 <mbedtls_mpi_lset>
    317c:	2a0003e2 	mov	w2, w0
    3180:	34000140 	cbz	w0, 31a8 <TEE_BigIntComputeExtendedGcd+0x17c>
/home/fangjiang/workspace/optee-os/lib/libutee/tee_api_arith_mpi.c:732 (discriminator 1)
    3184:	52805b81 	mov	w1, #0x2dc                 	// #732
    3188:	17ffffd3 	b	30d4 <TEE_BigIntComputeExtendedGcd+0xa8>
/home/fangjiang/workspace/optee-os/lib/libutee/tee_api_arith_mpi.c:733
    318c:	540002ad 	b.le	31e0 <TEE_BigIntComputeExtendedGcd+0x1b4>
/home/fangjiang/workspace/optee-os/lib/libutee/tee_api_arith_mpi.c:734
    3190:	aa1303e4 	mov	x4, x19
    3194:	aa1403e3 	mov	x3, x20
    3198:	aa1603e2 	mov	x2, x22
    319c:	aa1703e1 	mov	x1, x23
/home/fangjiang/workspace/optee-os/lib/libutee/tee_api_arith_mpi.c:736
    31a0:	aa1503e0 	mov	x0, x21
    31a4:	97fffa27 	bl	1a40 <mpi_egcd>
/home/fangjiang/workspace/optee-os/lib/libutee/tee_api_arith_mpi.c:739
    31a8:	7940b3e0 	ldrh	w0, [sp, #88]
/home/fangjiang/workspace/optee-os/lib/libutee/tee_api_arith_mpi.c:740
    31ac:	b9400fe1 	ldr	w1, [sp, #12]
/home/fangjiang/workspace/optee-os/lib/libutee/tee_api_arith_mpi.c:739
    31b0:	1b007f9c 	mul	w28, w28, w0
/home/fangjiang/workspace/optee-os/lib/libutee/tee_api_arith_mpi.c:740
    31b4:	7940e3e0 	ldrh	w0, [sp, #112]
/home/fangjiang/workspace/optee-os/lib/libutee/tee_api_arith_mpi.c:739
    31b8:	7900b3fc 	strh	w28, [sp, #88]
/home/fangjiang/workspace/optee-os/lib/libutee/tee_api_arith_mpi.c:740
    31bc:	1b007c20 	mul	w0, w1, w0
/home/fangjiang/workspace/optee-os/lib/libutee/tee_api_arith_mpi.c:742
    31c0:	aa1903e1 	mov	x1, x25
/home/fangjiang/workspace/optee-os/lib/libutee/tee_api_arith_mpi.c:740
    31c4:	7900e3e0 	strh	w0, [sp, #112]
/home/fangjiang/workspace/optee-os/lib/libutee/tee_api_arith_mpi.c:742
    31c8:	aa1703e0 	mov	x0, x23
    31cc:	97fff99d 	bl	1840 <copy_mpi_to_bigint>
    31d0:	2a0003e2 	mov	w2, w0
    31d4:	34000100 	cbz	w0, 31f4 <TEE_BigIntComputeExtendedGcd+0x1c8>
/home/fangjiang/workspace/optee-os/lib/libutee/tee_api_arith_mpi.c:742 (discriminator 1)
    31d8:	52805cc1 	mov	w1, #0x2e6                 	// #742
    31dc:	17ffffbe 	b	30d4 <TEE_BigIntComputeExtendedGcd+0xa8>
/home/fangjiang/workspace/optee-os/lib/libutee/tee_api_arith_mpi.c:736
    31e0:	aa1403e4 	mov	x4, x20
    31e4:	aa1303e3 	mov	x3, x19
    31e8:	aa1703e2 	mov	x2, x23
    31ec:	aa1603e1 	mov	x1, x22
    31f0:	17ffffec 	b	31a0 <TEE_BigIntComputeExtendedGcd+0x174>
/home/fangjiang/workspace/optee-os/lib/libutee/tee_api_arith_mpi.c:743 (discriminator 2)
    31f4:	aa1803e1 	mov	x1, x24
    31f8:	aa1603e0 	mov	x0, x22
    31fc:	97fff991 	bl	1840 <copy_mpi_to_bigint>
    3200:	2a0003e2 	mov	w2, w0
    3204:	34000060 	cbz	w0, 3210 <TEE_BigIntComputeExtendedGcd+0x1e4>
/home/fangjiang/workspace/optee-os/lib/libutee/tee_api_arith_mpi.c:743 (discriminator 1)
    3208:	52805ce1 	mov	w1, #0x2e7                 	// #743
    320c:	17ffffb2 	b	30d4 <TEE_BigIntComputeExtendedGcd+0xa8>
/home/fangjiang/workspace/optee-os/lib/libutee/tee_api_arith_mpi.c:744 (discriminator 2)
    3210:	aa1703e0 	mov	x0, x23
    3214:	940004e8 	bl	45b4 <mbedtls_mpi_free>
/home/fangjiang/workspace/optee-os/lib/libutee/tee_api_arith_mpi.c:745 (discriminator 2)
    3218:	aa1603e0 	mov	x0, x22
    321c:	940004e6 	bl	45b4 <mbedtls_mpi_free>
/home/fangjiang/workspace/optee-os/lib/libutee/tee_api_arith_mpi.c:748
    3220:	aa1a03e1 	mov	x1, x26
    3224:	aa1503e0 	mov	x0, x21
    3228:	97fff986 	bl	1840 <copy_mpi_to_bigint>
    322c:	2a0003e2 	mov	w2, w0
    3230:	34000060 	cbz	w0, 323c <TEE_BigIntComputeExtendedGcd+0x210>
/home/fangjiang/workspace/optee-os/lib/libutee/tee_api_arith_mpi.c:748 (discriminator 1)
    3234:	52805d81 	mov	w1, #0x2ec                 	// #748
    3238:	17ffffa7 	b	30d4 <TEE_BigIntComputeExtendedGcd+0xa8>
/home/fangjiang/workspace/optee-os/lib/libutee/tee_api_arith_mpi.c:749 (discriminator 2)
    323c:	aa1503e0 	mov	x0, x21
    3240:	940004dd 	bl	45b4 <mbedtls_mpi_free>
/home/fangjiang/workspace/optee-os/lib/libutee/tee_api_arith_mpi.c:750 (discriminator 2)
    3244:	aa1403e0 	mov	x0, x20
    3248:	940004db 	bl	45b4 <mbedtls_mpi_free>
/home/fangjiang/workspace/optee-os/lib/libutee/tee_api_arith_mpi.c:751 (discriminator 2)
    324c:	eb1b027f 	cmp	x19, x27
    3250:	54000061 	b.ne	325c <TEE_BigIntComputeExtendedGcd+0x230>  // b.any
/home/fangjiang/workspace/optee-os/lib/libutee/tee_api_arith_mpi.c:752
    3254:	aa1303e0 	mov	x0, x19
    3258:	940004d7 	bl	45b4 <mbedtls_mpi_free>
/home/fangjiang/workspace/optee-os/lib/libutee/tee_api_arith_mpi.c:753
    325c:	f0000040 	adrp	x0, e000 <_DYNAMIC>
    3260:	f9409800 	ldr	x0, [x0, #304]
    3264:	f94047e2 	ldr	x2, [sp, #136]
    3268:	f9400001 	ldr	x1, [x0]
    326c:	eb010042 	subs	x2, x2, x1
    3270:	d2800001 	mov	x1, #0x0                   	// #0
    3274:	54000040 	b.eq	327c <TEE_BigIntComputeExtendedGcd+0x250>  // b.none
    3278:	94001732 	bl	8f40 <__stack_chk_fail>
    327c:	a9497bfd 	ldp	x29, x30, [sp, #144]
    3280:	a94a53f3 	ldp	x19, x20, [sp, #160]
    3284:	a94b5bf5 	ldp	x21, x22, [sp, #176]
    3288:	a94c63f7 	ldp	x23, x24, [sp, #192]
    328c:	a94d6bf9 	ldp	x25, x26, [sp, #208]
    3290:	a94e73fb 	ldp	x27, x28, [sp, #224]
    3294:	9103c3ff 	add	sp, sp, #0xf0
    3298:	d65f03c0 	ret

000000000000329c <TEE_BigIntIsProbablePrime>:
TEE_BigIntIsProbablePrime():
/home/fangjiang/workspace/optee-os/lib/libutee/tee_api_arith_mpi.c:764
    329c:	d10143ff 	sub	sp, sp, #0x50
    32a0:	a9027bfd 	stp	x29, x30, [sp, #32]
    32a4:	910083fd 	add	x29, sp, #0x20
    32a8:	a90353f3 	stp	x19, x20, [sp, #48]
    32ac:	f0000054 	adrp	x20, e000 <_DYNAMIC>
/home/fangjiang/workspace/optee-os/lib/libutee/tee_api_arith_mpi.c:768
    32b0:	910003f3 	mov	x19, sp
/home/fangjiang/workspace/optee-os/lib/libutee/tee_api_arith_mpi.c:764
    32b4:	f9409a81 	ldr	x1, [x20, #304]
    32b8:	f90023f5 	str	x21, [sp, #64]
    32bc:	f9400022 	ldr	x2, [x1]
    32c0:	f9000fe2 	str	x2, [sp, #24]
    32c4:	d2800002 	mov	x2, #0x0                   	// #0
/home/fangjiang/workspace/optee-os/lib/libutee/tee_api_arith_mpi.c:768
    32c8:	aa0003e1 	mov	x1, x0
    32cc:	aa1303e0 	mov	x0, x19
    32d0:	97fff936 	bl	17a8 <get_mpi>
/home/fangjiang/workspace/optee-os/lib/libutee/tee_api_arith_mpi.c:770
    32d4:	d0ffffe1 	adrp	x1, 1000 <TEE_MaskCancellation+0x10>
    32d8:	91286021 	add	x1, x1, #0xa18
    32dc:	d2800002 	mov	x2, #0x0                   	// #0
    32e0:	aa1303e0 	mov	x0, x19
    32e4:	940011ee 	bl	7a9c <mbedtls_mpi_is_prime>
    32e8:	2a0003f5 	mov	w21, w0
/home/fangjiang/workspace/optee-os/lib/libutee/tee_api_arith_mpi.c:772
    32ec:	aa1303e0 	mov	x0, x19
    32f0:	940004b1 	bl	45b4 <mbedtls_mpi_free>
/home/fangjiang/workspace/optee-os/lib/libutee/tee_api_arith_mpi.c:778
    32f4:	f9409a94 	ldr	x20, [x20, #304]
/home/fangjiang/workspace/optee-os/lib/libutee/tee_api_arith_mpi.c:774
    32f8:	710002bf 	cmp	w21, #0x0
    32fc:	1a9f17e0 	cset	w0, eq  // eq = none
/home/fangjiang/workspace/optee-os/lib/libutee/tee_api_arith_mpi.c:778
    3300:	f9400fe1 	ldr	x1, [sp, #24]
    3304:	f9400282 	ldr	x2, [x20]
    3308:	eb020021 	subs	x1, x1, x2
    330c:	d2800002 	mov	x2, #0x0                   	// #0
    3310:	54000040 	b.eq	3318 <TEE_BigIntIsProbablePrime+0x7c>  // b.none
    3314:	9400170b 	bl	8f40 <__stack_chk_fail>
    3318:	a9427bfd 	ldp	x29, x30, [sp, #32]
    331c:	a94353f3 	ldp	x19, x20, [sp, #48]
    3320:	f94023f5 	ldr	x21, [sp, #64]
    3324:	910143ff 	add	sp, sp, #0x50
    3328:	d65f03c0 	ret

000000000000332c <TEE_BigIntInitFMM>:
TEE_BigIntInitFMM():
/home/fangjiang/workspace/optee-os/lib/libutee/tee_api_arith_mpi.c:790
    332c:	17fffb38 	b	200c <TEE_BigIntInit>

0000000000003330 <TEE_BigIntInitFMMContext>:
TEE_BigIntInitFMMContext():
/home/fangjiang/workspace/optee-os/lib/libutee/tee_api_arith_mpi.c:797
    3330:	d65f03c0 	ret

0000000000003334 <TEE_BigIntFMMSizeInU32>:
TEE_BigIntFMMSizeInU32():
/home/fangjiang/workspace/optee-os/lib/libutee/tee_api_arith_mpi.c:801
    3334:	11007c00 	add	w0, w0, #0x1f
    3338:	53057c00 	lsr	w0, w0, #5
/home/fangjiang/workspace/optee-os/lib/libutee/tee_api_arith_mpi.c:802
    333c:	11000800 	add	w0, w0, #0x2
    3340:	d65f03c0 	ret

0000000000003344 <TEE_BigIntFMMContextSizeInU32>:
TEE_BigIntFMMContextSizeInU32():
/home/fangjiang/workspace/optee-os/lib/libutee/tee_api_arith_mpi.c:808
    3344:	52800020 	mov	w0, #0x1                   	// #1
    3348:	d65f03c0 	ret

000000000000334c <TEE_BigIntConvertToFMM>:
TEE_BigIntConvertToFMM():
/home/fangjiang/workspace/optee-os/lib/libutee/tee_api_arith_mpi.c:814
    334c:	17fffe77 	b	2d28 <TEE_BigIntMod>

0000000000003350 <TEE_BigIntConvertFromFMM>:
TEE_BigIntConvertFromFMM():
/home/fangjiang/workspace/optee-os/lib/libutee/tee_api_arith_mpi.c:820
    3350:	d10203ff 	sub	sp, sp, #0x80
    3354:	a9047bfd 	stp	x29, x30, [sp, #64]
    3358:	910103fd 	add	x29, sp, #0x40
    335c:	a90553f3 	stp	x19, x20, [sp, #80]
    3360:	f0000053 	adrp	x19, e000 <_DYNAMIC>
/home/fangjiang/workspace/optee-os/lib/libutee/tee_api_arith_mpi.c:824
    3364:	910023f4 	add	x20, sp, #0x8
/home/fangjiang/workspace/optee-os/lib/libutee/tee_api_arith_mpi.c:820
    3368:	a9065bf5 	stp	x21, x22, [sp, #96]
    336c:	aa0003f5 	mov	x21, x0
/home/fangjiang/workspace/optee-os/lib/libutee/tee_api_arith_mpi.c:825
    3370:	910083f6 	add	x22, sp, #0x20
/home/fangjiang/workspace/optee-os/lib/libutee/tee_api_arith_mpi.c:820
    3374:	f9409a60 	ldr	x0, [x19, #304]
    3378:	f9003bf7 	str	x23, [sp, #112]
    337c:	aa0103f7 	mov	x23, x1
    3380:	f9400001 	ldr	x1, [x0]
    3384:	f9001fe1 	str	x1, [sp, #56]
    3388:	d2800001 	mov	x1, #0x0                   	// #0
/home/fangjiang/workspace/optee-os/lib/libutee/tee_api_arith_mpi.c:824
    338c:	aa1403e0 	mov	x0, x20
    3390:	aa1503e1 	mov	x1, x21
    3394:	97fff905 	bl	17a8 <get_mpi>
/home/fangjiang/workspace/optee-os/lib/libutee/tee_api_arith_mpi.c:825
    3398:	aa1703e1 	mov	x1, x23
    339c:	aa1603e0 	mov	x0, x22
    33a0:	97fff902 	bl	17a8 <get_mpi>
/home/fangjiang/workspace/optee-os/lib/libutee/tee_api_arith_mpi.c:827
    33a4:	aa1603e1 	mov	x1, x22
    33a8:	aa1403e0 	mov	x0, x20
    33ac:	94000538 	bl	488c <mbedtls_mpi_copy>
    33b0:	340000e0 	cbz	w0, 33cc <TEE_BigIntConvertFromFMM+0x7c>
    33b4:	2a0003e2 	mov	w2, w0
/home/fangjiang/workspace/optee-os/lib/libutee/tee_api_arith_mpi.c:827 (discriminator 1)
    33b8:	52806761 	mov	w1, #0x33b                 	// #827
/home/fangjiang/workspace/optee-os/lib/libutee/tee_api_arith_mpi.c:829 (discriminator 1)
    33bc:	b0000040 	adrp	x0, c000 <__text_end+0x1cb0>
    33c0:	91203400 	add	x0, x0, #0x80d
    33c4:	91043c00 	add	x0, x0, #0x10f
    33c8:	97fff8ec 	bl	1778 <mpi_panic>
/home/fangjiang/workspace/optee-os/lib/libutee/tee_api_arith_mpi.c:829 (discriminator 2)
    33cc:	aa1503e1 	mov	x1, x21
    33d0:	aa1403e0 	mov	x0, x20
    33d4:	97fff91b 	bl	1840 <copy_mpi_to_bigint>
    33d8:	2a0003e2 	mov	w2, w0
    33dc:	34000060 	cbz	w0, 33e8 <TEE_BigIntConvertFromFMM+0x98>
/home/fangjiang/workspace/optee-os/lib/libutee/tee_api_arith_mpi.c:829 (discriminator 1)
    33e0:	528067a1 	mov	w1, #0x33d                 	// #829
    33e4:	17fffff6 	b	33bc <TEE_BigIntConvertFromFMM+0x6c>
/home/fangjiang/workspace/optee-os/lib/libutee/tee_api_arith_mpi.c:830 (discriminator 2)
    33e8:	aa1403e0 	mov	x0, x20
    33ec:	94000472 	bl	45b4 <mbedtls_mpi_free>
/home/fangjiang/workspace/optee-os/lib/libutee/tee_api_arith_mpi.c:831 (discriminator 2)
    33f0:	aa1603e0 	mov	x0, x22
    33f4:	94000470 	bl	45b4 <mbedtls_mpi_free>
/home/fangjiang/workspace/optee-os/lib/libutee/tee_api_arith_mpi.c:832 (discriminator 2)
    33f8:	f9409a73 	ldr	x19, [x19, #304]
    33fc:	f9401fe0 	ldr	x0, [sp, #56]
    3400:	f9400261 	ldr	x1, [x19]
    3404:	eb010000 	subs	x0, x0, x1
    3408:	d2800001 	mov	x1, #0x0                   	// #0
    340c:	54000040 	b.eq	3414 <TEE_BigIntConvertFromFMM+0xc4>  // b.none
/home/fangjiang/workspace/optee-os/lib/libutee/tee_api_arith_mpi.c:832
    3410:	940016cc 	bl	8f40 <__stack_chk_fail>
    3414:	a9447bfd 	ldp	x29, x30, [sp, #64]
    3418:	a94553f3 	ldp	x19, x20, [sp, #80]
    341c:	a9465bf5 	ldp	x21, x22, [sp, #96]
    3420:	f9403bf7 	ldr	x23, [sp, #112]
    3424:	910203ff 	add	sp, sp, #0x80
    3428:	d65f03c0 	ret

000000000000342c <TEE_BigIntComputeFMM>:
TEE_BigIntComputeFMM():
/home/fangjiang/workspace/optee-os/lib/libutee/tee_api_arith_mpi.c:837
    342c:	d10343ff 	sub	sp, sp, #0xd0
    3430:	a9087bfd 	stp	x29, x30, [sp, #128]
    3434:	910203fd 	add	x29, sp, #0x80
    3438:	a90953f3 	stp	x19, x20, [sp, #144]
    343c:	f0000053 	adrp	x19, e000 <_DYNAMIC>
/home/fangjiang/workspace/optee-os/lib/libutee/tee_api_arith_mpi.c:844
    3440:	910003f4 	mov	x20, sp
/home/fangjiang/workspace/optee-os/lib/libutee/tee_api_arith_mpi.c:837
    3444:	a90a5bf5 	stp	x21, x22, [sp, #160]
    3448:	aa0003f5 	mov	x21, x0
    344c:	aa0303f6 	mov	x22, x3
    3450:	f9409a60 	ldr	x0, [x19, #304]
    3454:	a90b63f7 	stp	x23, x24, [sp, #176]
    3458:	aa0103f8 	mov	x24, x1
    345c:	f90063f9 	str	x25, [sp, #192]
/home/fangjiang/workspace/optee-os/lib/libutee/tee_api_arith_mpi.c:845
    3460:	910063f7 	add	x23, sp, #0x18
/home/fangjiang/workspace/optee-os/lib/libutee/tee_api_arith_mpi.c:837
    3464:	aa0203f9 	mov	x25, x2
    3468:	f9400001 	ldr	x1, [x0]
    346c:	f9003fe1 	str	x1, [sp, #120]
    3470:	d2800001 	mov	x1, #0x0                   	// #0
/home/fangjiang/workspace/optee-os/lib/libutee/tee_api_arith_mpi.c:844
    3474:	aa1403e0 	mov	x0, x20
    3478:	aa1503e1 	mov	x1, x21
    347c:	97fff8cb 	bl	17a8 <get_mpi>
/home/fangjiang/workspace/optee-os/lib/libutee/tee_api_arith_mpi.c:845
    3480:	aa1803e1 	mov	x1, x24
    3484:	aa1703e0 	mov	x0, x23
/home/fangjiang/workspace/optee-os/lib/libutee/tee_api_arith_mpi.c:846
    3488:	9100c3f8 	add	x24, sp, #0x30
/home/fangjiang/workspace/optee-os/lib/libutee/tee_api_arith_mpi.c:845
    348c:	97fff8c7 	bl	17a8 <get_mpi>
/home/fangjiang/workspace/optee-os/lib/libutee/tee_api_arith_mpi.c:846
    3490:	aa1903e1 	mov	x1, x25
    3494:	aa1803e0 	mov	x0, x24
    3498:	97fff8c4 	bl	17a8 <get_mpi>
/home/fangjiang/workspace/optee-os/lib/libutee/tee_api_arith_mpi.c:847
    349c:	910123f9 	add	x25, sp, #0x48
    34a0:	aa1603e1 	mov	x1, x22
    34a4:	aa1903e0 	mov	x0, x25
get_mpi():
/home/fangjiang/workspace/optee-os/lib/libutee/tee_api_arith_mpi.c:101
    34a8:	910183f6 	add	x22, sp, #0x60
TEE_BigIntComputeFMM():
/home/fangjiang/workspace/optee-os/lib/libutee/tee_api_arith_mpi.c:847
    34ac:	97fff8bf 	bl	17a8 <get_mpi>
get_mpi():
/home/fangjiang/workspace/optee-os/lib/libutee/tee_api_arith_mpi.c:101
    34b0:	aa1603e0 	mov	x0, x22
    34b4:	94000436 	bl	458c <mbedtls_mpi_init_mempool>
TEE_BigIntComputeFMM():
/home/fangjiang/workspace/optee-os/lib/libutee/tee_api_arith_mpi.c:850
    34b8:	aa1803e2 	mov	x2, x24
    34bc:	aa1703e1 	mov	x1, x23
    34c0:	aa1603e0 	mov	x0, x22
    34c4:	94000910 	bl	5904 <mbedtls_mpi_mul_mpi>
    34c8:	340000e0 	cbz	w0, 34e4 <TEE_BigIntComputeFMM+0xb8>
    34cc:	2a0003e2 	mov	w2, w0
/home/fangjiang/workspace/optee-os/lib/libutee/tee_api_arith_mpi.c:850 (discriminator 1)
    34d0:	52806a41 	mov	w1, #0x352                 	// #850
/home/fangjiang/workspace/optee-os/lib/libutee/tee_api_arith_mpi.c:851 (discriminator 1)
    34d4:	b0000040 	adrp	x0, c000 <__text_end+0x1cb0>
    34d8:	91203400 	add	x0, x0, #0x80d
    34dc:	9104a000 	add	x0, x0, #0x128
    34e0:	97fff8a6 	bl	1778 <mpi_panic>
/home/fangjiang/workspace/optee-os/lib/libutee/tee_api_arith_mpi.c:851 (discriminator 2)
    34e4:	aa1903e2 	mov	x2, x25
    34e8:	aa1603e1 	mov	x1, x22
    34ec:	aa1403e0 	mov	x0, x20
    34f0:	94000b8b 	bl	631c <mbedtls_mpi_mod_mpi>
    34f4:	2a0003e2 	mov	w2, w0
    34f8:	34000060 	cbz	w0, 3504 <TEE_BigIntComputeFMM+0xd8>
/home/fangjiang/workspace/optee-os/lib/libutee/tee_api_arith_mpi.c:851 (discriminator 1)
    34fc:	52806a61 	mov	w1, #0x353                 	// #851
    3500:	17fffff5 	b	34d4 <TEE_BigIntComputeFMM+0xa8>
/home/fangjiang/workspace/optee-os/lib/libutee/tee_api_arith_mpi.c:853 (discriminator 2)
    3504:	aa1603e0 	mov	x0, x22
    3508:	9400042b 	bl	45b4 <mbedtls_mpi_free>
/home/fangjiang/workspace/optee-os/lib/libutee/tee_api_arith_mpi.c:854 (discriminator 2)
    350c:	aa1903e0 	mov	x0, x25
    3510:	94000429 	bl	45b4 <mbedtls_mpi_free>
/home/fangjiang/workspace/optee-os/lib/libutee/tee_api_arith_mpi.c:855 (discriminator 2)
    3514:	aa1803e0 	mov	x0, x24
    3518:	94000427 	bl	45b4 <mbedtls_mpi_free>
/home/fangjiang/workspace/optee-os/lib/libutee/tee_api_arith_mpi.c:856 (discriminator 2)
    351c:	aa1703e0 	mov	x0, x23
    3520:	94000425 	bl	45b4 <mbedtls_mpi_free>
/home/fangjiang/workspace/optee-os/lib/libutee/tee_api_arith_mpi.c:857 (discriminator 2)
    3524:	aa1503e1 	mov	x1, x21
    3528:	aa1403e0 	mov	x0, x20
    352c:	97fff8c5 	bl	1840 <copy_mpi_to_bigint>
    3530:	2a0003e2 	mov	w2, w0
    3534:	34000060 	cbz	w0, 3540 <TEE_BigIntComputeFMM+0x114>
/home/fangjiang/workspace/optee-os/lib/libutee/tee_api_arith_mpi.c:857 (discriminator 1)
    3538:	52806b21 	mov	w1, #0x359                 	// #857
    353c:	17ffffe6 	b	34d4 <TEE_BigIntComputeFMM+0xa8>
/home/fangjiang/workspace/optee-os/lib/libutee/tee_api_arith_mpi.c:858 (discriminator 2)
    3540:	aa1403e0 	mov	x0, x20
    3544:	9400041c 	bl	45b4 <mbedtls_mpi_free>
/home/fangjiang/workspace/optee-os/lib/libutee/tee_api_arith_mpi.c:859 (discriminator 2)
    3548:	f9409a73 	ldr	x19, [x19, #304]
    354c:	f9403fe0 	ldr	x0, [sp, #120]
    3550:	f9400261 	ldr	x1, [x19]
    3554:	eb010000 	subs	x0, x0, x1
    3558:	d2800001 	mov	x1, #0x0                   	// #0
    355c:	54000040 	b.eq	3564 <TEE_BigIntComputeFMM+0x138>  // b.none
/home/fangjiang/workspace/optee-os/lib/libutee/tee_api_arith_mpi.c:859
    3560:	94001678 	bl	8f40 <__stack_chk_fail>
    3564:	a9487bfd 	ldp	x29, x30, [sp, #128]
    3568:	a94953f3 	ldp	x19, x20, [sp, #144]
    356c:	a94a5bf5 	ldp	x21, x22, [sp, #160]
    3570:	a94b63f7 	ldp	x23, x24, [sp, #176]
    3574:	f94063f9 	ldr	x25, [sp, #192]
    3578:	910343ff 	add	sp, sp, #0xd0
    357c:	d65f03c0 	ret

0000000000003580 <check_access>:
check_access():
/home/fangjiang/workspace/optee-os/lib/libutee/tee_api_panic.c:40
    3580:	b4000062 	cbz	x2, 358c <check_access+0xc>
/home/fangjiang/workspace/optee-os/lib/libutee/tee_api_panic.c:43
    3584:	b4000081 	cbz	x1, 3594 <check_access+0x14>
/home/fangjiang/workspace/optee-os/lib/libutee/tee_api_panic.c:47
    3588:	17fff6b4 	b	1058 <TEE_CheckMemoryAccessRights>
/home/fangjiang/workspace/optee-os/lib/libutee/tee_api_panic.c:41
    358c:	52800000 	mov	w0, #0x0                   	// #0
/home/fangjiang/workspace/optee-os/lib/libutee/tee_api_panic.c:50
    3590:	d65f03c0 	ret
/home/fangjiang/workspace/optee-os/lib/libutee/tee_api_panic.c:44
    3594:	129ffe00 	mov	w0, #0xffff000f            	// #-65521
    3598:	17fffffe 	b	3590 <check_access+0x10>

000000000000359c <TEE_Panic>:
TEE_Panic():
/home/fangjiang/workspace/optee-os/lib/libutee/tee_api_panic.c:24
    359c:	2a0003e0 	mov	w0, w0
    35a0:	17fff339 	b	284 <_utee_panic>

00000000000035a4 <check_res.constprop.0>:
check_res():
/home/fangjiang/workspace/optee-os/lib/libutee/tee_api_panic.c:32
    35a4:	34000060 	cbz	w0, 35b0 <check_res.constprop.0+0xc>
/home/fangjiang/workspace/optee-os/lib/libutee/tee_api_panic.c:34
    35a8:	52800000 	mov	w0, #0x0                   	// #0
    35ac:	17fffffc 	b	359c <TEE_Panic>
/home/fangjiang/workspace/optee-os/lib/libutee/tee_api_panic.c:36
    35b0:	d65f03c0 	ret

00000000000035b4 <__utee_check_outbuf_annotation>:
__utee_check_outbuf_annotation():
/home/fangjiang/workspace/optee-os/lib/libutee/tee_api_panic.c:53
    35b4:	a9be7bfd 	stp	x29, x30, [sp, #-32]!
    35b8:	910003fd 	mov	x29, sp
    35bc:	a90153f3 	stp	x19, x20, [sp, #16]
    35c0:	aa0003f4 	mov	x20, x0
    35c4:	aa0103f3 	mov	x19, x1
check_access():
/home/fangjiang/workspace/optee-os/lib/libutee/tee_api_panic.c:43
    35c8:	b4000181 	cbz	x1, 35f8 <__utee_check_outbuf_annotation+0x44>
/home/fangjiang/workspace/optee-os/lib/libutee/tee_api_panic.c:47
    35cc:	52800082 	mov	w2, #0x4                   	// #4
    35d0:	52800060 	mov	w0, #0x3                   	// #3
    35d4:	97fff6a1 	bl	1058 <TEE_CheckMemoryAccessRights>
__utee_check_outbuf_annotation():
/home/fangjiang/workspace/optee-os/lib/libutee/tee_api_panic.c:54
    35d8:	97fffff3 	bl	35a4 <check_res.constprop.0>
/home/fangjiang/workspace/optee-os/lib/libutee/tee_api_panic.c:56
    35dc:	b9400262 	ldr	w2, [x19]
    35e0:	aa1403e1 	mov	x1, x20
    35e4:	528000c0 	mov	w0, #0x6                   	// #6
    35e8:	97ffffe6 	bl	3580 <check_access>
/home/fangjiang/workspace/optee-os/lib/libutee/tee_api_panic.c:58
    35ec:	a94153f3 	ldp	x19, x20, [sp, #16]
    35f0:	a8c27bfd 	ldp	x29, x30, [sp], #32
/home/fangjiang/workspace/optee-os/lib/libutee/tee_api_panic.c:56
    35f4:	17ffffec 	b	35a4 <check_res.constprop.0>
check_access():
/home/fangjiang/workspace/optee-os/lib/libutee/tee_api_panic.c:44
    35f8:	129ffe00 	mov	w0, #0xffff000f            	// #-65521
    35fc:	17fffff7 	b	35d8 <__utee_check_outbuf_annotation+0x24>

0000000000003600 <__utee_check_instring_annotation>:
__utee_check_instring_annotation():
/home/fangjiang/workspace/optee-os/lib/libutee/tee_api_panic.c:61
    3600:	a9be7bfd 	stp	x29, x30, [sp, #-32]!
    3604:	910003fd 	mov	x29, sp
    3608:	f9000bf3 	str	x19, [sp, #16]
    360c:	aa0003f3 	mov	x19, x0
/home/fangjiang/workspace/optee-os/lib/libutee/tee_api_panic.c:63
    3610:	9400166b 	bl	8fbc <strlen>
/home/fangjiang/workspace/optee-os/lib/libutee/tee_api_panic.c:62
    3614:	91000402 	add	x2, x0, #0x1
    3618:	aa1303e1 	mov	x1, x19
    361c:	52800020 	mov	w0, #0x1                   	// #1
    3620:	97ffffd8 	bl	3580 <check_access>
/home/fangjiang/workspace/optee-os/lib/libutee/tee_api_panic.c:64
    3624:	f9400bf3 	ldr	x19, [sp, #16]
    3628:	a8c27bfd 	ldp	x29, x30, [sp], #32
/home/fangjiang/workspace/optee-os/lib/libutee/tee_api_panic.c:62
    362c:	17ffffde 	b	35a4 <check_res.constprop.0>

0000000000003630 <__utee_check_outstring_annotation>:
__utee_check_outstring_annotation():
/home/fangjiang/workspace/optee-os/lib/libutee/tee_api_panic.c:67
    3630:	a9be7bfd 	stp	x29, x30, [sp, #-32]!
    3634:	910003fd 	mov	x29, sp
    3638:	a90153f3 	stp	x19, x20, [sp, #16]
    363c:	aa0003f4 	mov	x20, x0
    3640:	aa0103f3 	mov	x19, x1
check_access():
/home/fangjiang/workspace/optee-os/lib/libutee/tee_api_panic.c:43
    3644:	b4000181 	cbz	x1, 3674 <__utee_check_outstring_annotation+0x44>
/home/fangjiang/workspace/optee-os/lib/libutee/tee_api_panic.c:47
    3648:	52800082 	mov	w2, #0x4                   	// #4
    364c:	52800060 	mov	w0, #0x3                   	// #3
    3650:	97fff682 	bl	1058 <TEE_CheckMemoryAccessRights>
__utee_check_outstring_annotation():
/home/fangjiang/workspace/optee-os/lib/libutee/tee_api_panic.c:68
    3654:	97ffffd4 	bl	35a4 <check_res.constprop.0>
/home/fangjiang/workspace/optee-os/lib/libutee/tee_api_panic.c:70
    3658:	b9400262 	ldr	w2, [x19]
    365c:	aa1403e1 	mov	x1, x20
    3660:	528000c0 	mov	w0, #0x6                   	// #6
    3664:	97ffffc7 	bl	3580 <check_access>
/home/fangjiang/workspace/optee-os/lib/libutee/tee_api_panic.c:72
    3668:	a94153f3 	ldp	x19, x20, [sp, #16]
    366c:	a8c27bfd 	ldp	x29, x30, [sp], #32
/home/fangjiang/workspace/optee-os/lib/libutee/tee_api_panic.c:70
    3670:	17ffffcd 	b	35a4 <check_res.constprop.0>
check_access():
/home/fangjiang/workspace/optee-os/lib/libutee/tee_api_panic.c:44
    3674:	129ffe00 	mov	w0, #0xffff000f            	// #-65521
    3678:	17fffff7 	b	3654 <__utee_check_outstring_annotation+0x24>

000000000000367c <__utee_check_out_annotation>:
__utee_check_out_annotation():
/home/fangjiang/workspace/optee-os/lib/libutee/tee_api_panic.c:75
    367c:	a9bf7bfd 	stp	x29, x30, [sp, #-16]!
/home/fangjiang/workspace/optee-os/lib/libutee/tee_api_panic.c:76
    3680:	aa0103e2 	mov	x2, x1
    3684:	aa0003e1 	mov	x1, x0
/home/fangjiang/workspace/optee-os/lib/libutee/tee_api_panic.c:75
    3688:	910003fd 	mov	x29, sp
/home/fangjiang/workspace/optee-os/lib/libutee/tee_api_panic.c:76
    368c:	52800040 	mov	w0, #0x2                   	// #2
    3690:	97ffffbc 	bl	3580 <check_access>
/home/fangjiang/workspace/optee-os/lib/libutee/tee_api_panic.c:78
    3694:	a8c17bfd 	ldp	x29, x30, [sp], #16
/home/fangjiang/workspace/optee-os/lib/libutee/tee_api_panic.c:76
    3698:	17ffffc3 	b	35a4 <check_res.constprop.0>

000000000000369c <__utee_check_attr_in_annotation>:
__utee_check_attr_in_annotation():
/home/fangjiang/workspace/optee-os/lib/libutee/tee_api_panic.c:82
    369c:	d2800302 	mov	x2, #0x18                  	// #24
/home/fangjiang/workspace/optee-os/lib/libutee/tee_api_panic.c:81
    36a0:	a9bf7bfd 	stp	x29, x30, [sp, #-16]!
/home/fangjiang/workspace/optee-os/lib/libutee/tee_api_panic.c:82
    36a4:	9b027c22 	mul	x2, x1, x2
/home/fangjiang/workspace/optee-os/lib/libutee/tee_api_panic.c:81
    36a8:	910003fd 	mov	x29, sp
/home/fangjiang/workspace/optee-os/lib/libutee/tee_api_panic.c:82
    36ac:	aa0003e1 	mov	x1, x0
    36b0:	52800020 	mov	w0, #0x1                   	// #1
    36b4:	97ffffb3 	bl	3580 <check_access>
/home/fangjiang/workspace/optee-os/lib/libutee/tee_api_panic.c:84
    36b8:	a8c17bfd 	ldp	x29, x30, [sp], #16
/home/fangjiang/workspace/optee-os/lib/libutee/tee_api_panic.c:82
    36bc:	17ffffba 	b	35a4 <check_res.constprop.0>

00000000000036c0 <__utee_check_inout_annotation>:
__utee_check_inout_annotation():
/home/fangjiang/workspace/optee-os/lib/libutee/tee_api_panic.c:87
    36c0:	a9bf7bfd 	stp	x29, x30, [sp, #-16]!
/home/fangjiang/workspace/optee-os/lib/libutee/tee_api_panic.c:88
    36c4:	aa0103e2 	mov	x2, x1
    36c8:	aa0003e1 	mov	x1, x0
/home/fangjiang/workspace/optee-os/lib/libutee/tee_api_panic.c:87
    36cc:	910003fd 	mov	x29, sp
/home/fangjiang/workspace/optee-os/lib/libutee/tee_api_panic.c:88
    36d0:	52800060 	mov	w0, #0x3                   	// #3
    36d4:	97ffffab 	bl	3580 <check_access>
/home/fangjiang/workspace/optee-os/lib/libutee/tee_api_panic.c:90
    36d8:	a8c17bfd 	ldp	x29, x30, [sp], #16
/home/fangjiang/workspace/optee-os/lib/libutee/tee_api_panic.c:88
    36dc:	17ffffb2 	b	35a4 <check_res.constprop.0>

00000000000036e0 <invoke_system_pta>:
invoke_system_pta():
/home/fangjiang/workspace/optee-os/lib/libutee/tee_system_pta.c:16
    36e0:	a9bd7bfd 	stp	x29, x30, [sp, #-48]!
    36e4:	910003fd 	mov	x29, sp
    36e8:	a9025bf5 	stp	x21, x22, [sp, #32]
/home/fangjiang/workspace/optee-os/lib/libutee/tee_system_pta.c:20
    36ec:	d0000076 	adrp	x22, 11000 <data.17+0x2b60>
/home/fangjiang/workspace/optee-os/lib/libutee/tee_system_pta.c:16
    36f0:	aa0203f5 	mov	x21, x2
    36f4:	a90153f3 	stp	x19, x20, [sp, #16]
    36f8:	2a0003f3 	mov	w19, w0
    36fc:	2a0103f4 	mov	w20, w1
/home/fangjiang/workspace/optee-os/lib/libutee/tee_system_pta.c:20
    3700:	f94252c0 	ldr	x0, [x22, #1184]
    3704:	b4000160 	cbz	x0, 3730 <invoke_system_pta+0x50>
/home/fangjiang/workspace/optee-os/lib/libutee/tee_system_pta.c:28
    3708:	f94252c0 	ldr	x0, [x22, #1184]
    370c:	aa1503e4 	mov	x4, x21
    3710:	2a1403e3 	mov	w3, w20
    3714:	2a1303e2 	mov	w2, w19
/home/fangjiang/workspace/optee-os/lib/libutee/tee_system_pta.c:30
    3718:	a94153f3 	ldp	x19, x20, [sp, #16]
/home/fangjiang/workspace/optee-os/lib/libutee/tee_system_pta.c:28
    371c:	d2800005 	mov	x5, #0x0                   	// #0
/home/fangjiang/workspace/optee-os/lib/libutee/tee_system_pta.c:30
    3720:	a9425bf5 	ldp	x21, x22, [sp, #32]
/home/fangjiang/workspace/optee-os/lib/libutee/tee_system_pta.c:28
    3724:	12800001 	mov	w1, #0xffffffff            	// #-1
/home/fangjiang/workspace/optee-os/lib/libutee/tee_system_pta.c:30
    3728:	a8c37bfd 	ldp	x29, x30, [sp], #48
/home/fangjiang/workspace/optee-os/lib/libutee/tee_system_pta.c:28
    372c:	17fff720 	b	13ac <TEE_InvokeTACommand>
/home/fangjiang/workspace/optee-os/lib/libutee/tee_system_pta.c:21
    3730:	b0000040 	adrp	x0, c000 <__text_end+0x1cb0>
    3734:	911282c4 	add	x4, x22, #0x4a0
    3738:	9109c000 	add	x0, x0, #0x270
    373c:	d2800005 	mov	x5, #0x0                   	// #0
    3740:	d2800003 	mov	x3, #0x0                   	// #0
    3744:	52800002 	mov	w2, #0x0                   	// #0
    3748:	12800001 	mov	w1, #0xffffffff            	// #-1
    374c:	97fff6cb 	bl	1278 <TEE_OpenTASession>
/home/fangjiang/workspace/optee-os/lib/libutee/tee_system_pta.c:24
    3750:	34fffdc0 	cbz	w0, 3708 <invoke_system_pta+0x28>
/home/fangjiang/workspace/optee-os/lib/libutee/tee_system_pta.c:30
    3754:	a94153f3 	ldp	x19, x20, [sp, #16]
    3758:	a9425bf5 	ldp	x21, x22, [sp, #32]
    375c:	a8c37bfd 	ldp	x29, x30, [sp], #48
    3760:	d65f03c0 	ret

0000000000003764 <tee_map_zi>:
tee_map_zi():
/home/fangjiang/workspace/optee-os/lib/libutee/tee_system_pta.c:33
    3764:	d10183ff 	sub	sp, sp, #0x60
    3768:	f0000042 	adrp	x2, e000 <_DYNAMIC>
/home/fangjiang/workspace/optee-os/lib/libutee/tee_system_pta.c:38
    376c:	4f000400 	movi	v0.4s, #0x0
/home/fangjiang/workspace/optee-os/lib/libutee/tee_system_pta.c:33
    3770:	a9057bfd 	stp	x29, x30, [sp, #80]
    3774:	910143fd 	add	x29, sp, #0x50
    3778:	f9409842 	ldr	x2, [x2, #304]
    377c:	f9400043 	ldr	x3, [x2]
    3780:	f90027e3 	str	x3, [sp, #72]
    3784:	d2800003 	mov	x3, #0x0                   	// #0
/home/fangjiang/workspace/optee-os/lib/libutee/tee_system_pta.c:38
    3788:	910023e2 	add	x2, sp, #0x8
    378c:	ad000040 	stp	q0, q0, [x2]
/home/fangjiang/workspace/optee-os/lib/libutee/tee_system_pta.c:41
    3790:	b9000be0 	str	w0, [sp, #8]
/home/fangjiang/workspace/optee-os/lib/libutee/tee_system_pta.c:38
    3794:	ad010040 	stp	q0, q0, [x2, #32]
/home/fangjiang/workspace/optee-os/lib/libutee/tee_system_pta.c:42
    3798:	f2607c1f 	tst	x0, #0xffffffff00000000
    379c:	54000060 	b.eq	37a8 <tee_map_zi+0x44>  // b.none
/home/fangjiang/workspace/optee-os/lib/libutee/tee_system_pta.c:44
    37a0:	d2800000 	mov	x0, #0x0                   	// #0
    37a4:	1400000c 	b	37d4 <tee_map_zi+0x70>
    37a8:	340000a1 	cbz	w1, 37bc <tee_map_zi+0x58>
    37ac:	7100103f 	cmp	w1, #0x4
    37b0:	54ffff81 	b.ne	37a0 <tee_map_zi+0x3c>  // b.any
/home/fangjiang/workspace/optee-os/lib/libutee/tee_system_pta.c:48
    37b4:	52800020 	mov	w0, #0x1                   	// #1
    37b8:	b9000fe0 	str	w0, [sp, #12]
/home/fangjiang/workspace/optee-os/lib/libutee/tee_system_pta.c:54
    37bc:	52802621 	mov	w1, #0x131                 	// #305
    37c0:	52800040 	mov	w0, #0x2                   	// #2
    37c4:	97ffffc7 	bl	36e0 <invoke_system_pta>
/home/fangjiang/workspace/optee-os/lib/libutee/tee_system_pta.c:55
    37c8:	35fffec0 	cbnz	w0, 37a0 <tee_map_zi+0x3c>
reg_pair_to_64():
/home/fangjiang/workspace/optee-os/lib/libutils/ext/include/util.h:166
    37cc:	294307e0 	ldp	w0, w1, [sp, #24]
    37d0:	aa008020 	orr	x0, x1, x0, lsl #32
tee_map_zi():
/home/fangjiang/workspace/optee-os/lib/libutee/tee_system_pta.c:60
    37d4:	f0000042 	adrp	x2, e000 <_DYNAMIC>
    37d8:	f9409842 	ldr	x2, [x2, #304]
    37dc:	f94027e1 	ldr	x1, [sp, #72]
    37e0:	f9400043 	ldr	x3, [x2]
    37e4:	eb030021 	subs	x1, x1, x3
    37e8:	d2800003 	mov	x3, #0x0                   	// #0
    37ec:	54000040 	b.eq	37f4 <tee_map_zi+0x90>  // b.none
    37f0:	940015d4 	bl	8f40 <__stack_chk_fail>
    37f4:	a9457bfd 	ldp	x29, x30, [sp, #80]
    37f8:	910183ff 	add	sp, sp, #0x60
    37fc:	d65f03c0 	ret

0000000000003800 <tee_unmap>:
tee_unmap():
/home/fangjiang/workspace/optee-os/lib/libutee/tee_system_pta.c:63
    3800:	d10203ff 	sub	sp, sp, #0x80
    3804:	f0000042 	adrp	x2, e000 <_DYNAMIC>
/home/fangjiang/workspace/optee-os/lib/libutee/tee_system_pta.c:69
    3808:	4f000400 	movi	v0.4s, #0x0
/home/fangjiang/workspace/optee-os/lib/libutee/tee_system_pta.c:63
    380c:	a9057bfd 	stp	x29, x30, [sp, #80]
    3810:	910143fd 	add	x29, sp, #0x50
    3814:	f9409842 	ldr	x2, [x2, #304]
    3818:	a90653f3 	stp	x19, x20, [sp, #96]
    381c:	aa0003f3 	mov	x19, x0
    3820:	f9003bf5 	str	x21, [sp, #112]
    3824:	aa0103f5 	mov	x21, x1
    3828:	f9400040 	ldr	x0, [x2]
    382c:	f90027e0 	str	x0, [sp, #72]
    3830:	d2800000 	mov	x0, #0x0                   	// #0
/home/fangjiang/workspace/optee-os/lib/libutee/tee_system_pta.c:69
    3834:	910023e2 	add	x2, sp, #0x8
reg_pair_from_64():
/home/fangjiang/workspace/optee-os/lib/libutils/ext/include/util.h:172
    3838:	d360fe60 	lsr	x0, x19, #32
tee_unmap():
/home/fangjiang/workspace/optee-os/lib/libutee/tee_system_pta.c:69
    383c:	ad000040 	stp	q0, q0, [x2]
/home/fangjiang/workspace/optee-os/lib/libutee/tee_system_pta.c:71
    3840:	b9000be1 	str	w1, [sp, #8]
/home/fangjiang/workspace/optee-os/lib/libutee/tee_system_pta.c:74
    3844:	52800221 	mov	w1, #0x11                  	// #17
reg_pair_from_64():
/home/fangjiang/workspace/optee-os/lib/libutils/ext/include/util.h:173
    3848:	29034fe0 	stp	w0, w19, [sp, #24]
tee_unmap():
/home/fangjiang/workspace/optee-os/lib/libutee/tee_system_pta.c:74
    384c:	52800060 	mov	w0, #0x3                   	// #3
/home/fangjiang/workspace/optee-os/lib/libutee/tee_system_pta.c:69
    3850:	ad010040 	stp	q0, q0, [x2, #32]
/home/fangjiang/workspace/optee-os/lib/libutee/tee_system_pta.c:74
    3854:	97ffffa3 	bl	36e0 <invoke_system_pta>
    3858:	2a0003f4 	mov	w20, w0
/home/fangjiang/workspace/optee-os/lib/libutee/tee_system_pta.c:75
    385c:	34000180 	cbz	w0, 388c <tee_unmap+0x8c>
/home/fangjiang/workspace/optee-os/lib/libutee/tee_system_pta.c:76
    3860:	b0000040 	adrp	x0, c000 <__text_end+0x1cb0>
    3864:	9109c000 	add	x0, x0, #0x270
    3868:	b0000044 	adrp	x4, c000 <__text_end+0x1cb0>
    386c:	aa1503e6 	mov	x6, x21
    3870:	aa1303e5 	mov	x5, x19
    3874:	91252884 	add	x4, x4, #0x94a
    3878:	91004000 	add	x0, x0, #0x10
    387c:	52800023 	mov	w3, #0x1                   	// #1
    3880:	52800022 	mov	w2, #0x1                   	// #1
    3884:	52800981 	mov	w1, #0x4c                  	// #76
    3888:	940019eb 	bl	a034 <trace_printf>
/home/fangjiang/workspace/optee-os/lib/libutee/tee_system_pta.c:79
    388c:	f0000042 	adrp	x2, e000 <_DYNAMIC>
    3890:	f9409842 	ldr	x2, [x2, #304]
    3894:	f94027e0 	ldr	x0, [sp, #72]
    3898:	f9400041 	ldr	x1, [x2]
    389c:	eb010000 	subs	x0, x0, x1
    38a0:	d2800001 	mov	x1, #0x0                   	// #0
    38a4:	54000040 	b.eq	38ac <tee_unmap+0xac>  // b.none
    38a8:	940015a6 	bl	8f40 <__stack_chk_fail>
    38ac:	2a1403e0 	mov	w0, w20
    38b0:	a9457bfd 	ldp	x29, x30, [sp, #80]
    38b4:	a94653f3 	ldp	x19, x20, [sp, #96]
    38b8:	f9403bf5 	ldr	x21, [sp, #112]
    38bc:	910203ff 	add	sp, sp, #0x80
    38c0:	d65f03c0 	ret

00000000000038c4 <tee_invoke_supp_plugin>:
tee_invoke_supp_plugin():
/home/fangjiang/workspace/optee-os/lib/libutee/tee_system_pta.c:84
    38c4:	d101c3ff 	sub	sp, sp, #0x70
    38c8:	f0000046 	adrp	x6, e000 <_DYNAMIC>
/home/fangjiang/workspace/optee-os/lib/libutee/tee_system_pta.c:90
    38cc:	4f000400 	movi	v0.4s, #0x0
/home/fangjiang/workspace/optee-os/lib/libutee/tee_system_pta.c:84
    38d0:	2a0203e7 	mov	w7, w2
    38d4:	a9057bfd 	stp	x29, x30, [sp, #80]
    38d8:	910143fd 	add	x29, sp, #0x50
    38dc:	f94098c6 	ldr	x6, [x6, #304]
    38e0:	a90653f3 	stp	x19, x20, [sp, #96]
    38e4:	f94000c2 	ldr	x2, [x6]
    38e8:	f90027e2 	str	x2, [sp, #72]
    38ec:	d2800002 	mov	x2, #0x0                   	// #0
/home/fangjiang/workspace/optee-os/lib/libutee/tee_system_pta.c:90
    38f0:	910023e2 	add	x2, sp, #0x8
    38f4:	ad000040 	stp	q0, q0, [x2]
    38f8:	ad010040 	stp	q0, q0, [x2, #32]
/home/fangjiang/workspace/optee-os/lib/libutee/tee_system_pta.c:92
    38fc:	b4000500 	cbz	x0, 399c <tee_invoke_supp_plugin+0xd8>
/home/fangjiang/workspace/optee-os/lib/libutee/tee_system_pta.c:92 (discriminator 1)
    3900:	f100009f 	cmp	x4, #0x0
    3904:	fa401860 	ccmp	x3, #0x0, #0x0, ne  // ne = any
    3908:	540004a0 	b.eq	399c <tee_invoke_supp_plugin+0xd8>  // b.none
/home/fangjiang/workspace/optee-os/lib/libutee/tee_system_pta.c:92 (discriminator 2)
    390c:	f100009f 	cmp	x4, #0x0
    3910:	fa400864 	ccmp	x3, #0x0, #0x4, eq  // eq = none
    3914:	54000441 	b.ne	399c <tee_invoke_supp_plugin+0xd8>  // b.any
/home/fangjiang/workspace/optee-os/lib/libutee/tee_system_pta.c:95
    3918:	f90007e0 	str	x0, [sp, #8]
/home/fangjiang/workspace/optee-os/lib/libutee/tee_system_pta.c:96
    391c:	52800200 	mov	w0, #0x10                  	// #16
    3920:	aa0503f4 	mov	x20, x5
    3924:	b90013e0 	str	w0, [sp, #16]
/home/fangjiang/workspace/optee-os/lib/libutee/tee_system_pta.c:102
    3928:	528001a0 	mov	w0, #0xd                   	// #13
/home/fangjiang/workspace/optee-os/lib/libutee/tee_system_pta.c:98
    392c:	29031fe1 	stp	w1, w7, [sp, #24]
/home/fangjiang/workspace/optee-os/lib/libutee/tee_system_pta.c:102
    3930:	5284e2a1 	mov	w1, #0x2715                	// #10005
/home/fangjiang/workspace/optee-os/lib/libutee/tee_system_pta.c:99
    3934:	f90017e3 	str	x3, [sp, #40]
/home/fangjiang/workspace/optee-os/lib/libutee/tee_system_pta.c:100
    3938:	b90033e4 	str	w4, [sp, #48]
/home/fangjiang/workspace/optee-os/lib/libutee/tee_system_pta.c:102
    393c:	97ffff69 	bl	36e0 <invoke_system_pta>
    3940:	2a0003f3 	mov	w19, w0
/home/fangjiang/workspace/optee-os/lib/libutee/tee_system_pta.c:104
    3944:	34000160 	cbz	w0, 3970 <tee_invoke_supp_plugin+0xac>
/home/fangjiang/workspace/optee-os/lib/libutee/tee_system_pta.c:105
    3948:	2a0003e5 	mov	w5, w0
    394c:	b0000040 	adrp	x0, c000 <__text_end+0x1cb0>
    3950:	9109c000 	add	x0, x0, #0x270
    3954:	b0000044 	adrp	x4, c000 <__text_end+0x1cb0>
    3958:	91006800 	add	x0, x0, #0x1a
    395c:	9125d084 	add	x4, x4, #0x974
    3960:	52800023 	mov	w3, #0x1                   	// #1
    3964:	52800022 	mov	w2, #0x1                   	// #1
    3968:	52800d21 	mov	w1, #0x69                  	// #105
    396c:	940019b2 	bl	a034 <trace_printf>
/home/fangjiang/workspace/optee-os/lib/libutee/tee_system_pta.c:107
    3970:	b4000074 	cbz	x20, 397c <tee_invoke_supp_plugin+0xb8>
/home/fangjiang/workspace/optee-os/lib/libutee/tee_system_pta.c:108
    3974:	b9403be0 	ldr	w0, [sp, #56]
    3978:	f9000280 	str	x0, [x20]
/home/fangjiang/workspace/optee-os/lib/libutee/tee_system_pta.c:111
    397c:	f0000046 	adrp	x6, e000 <_DYNAMIC>
    3980:	f94098c6 	ldr	x6, [x6, #304]
    3984:	f94027e0 	ldr	x0, [sp, #72]
    3988:	f94000c1 	ldr	x1, [x6]
    398c:	eb010000 	subs	x0, x0, x1
    3990:	d2800001 	mov	x1, #0x0                   	// #0
    3994:	54000080 	b.eq	39a4 <tee_invoke_supp_plugin+0xe0>  // b.none
    3998:	9400156a 	bl	8f40 <__stack_chk_fail>
/home/fangjiang/workspace/optee-os/lib/libutee/tee_system_pta.c:93
    399c:	129fff33 	mov	w19, #0xffff0006            	// #-65530
    39a0:	17fffff7 	b	397c <tee_invoke_supp_plugin+0xb8>
/home/fangjiang/workspace/optee-os/lib/libutee/tee_system_pta.c:111
    39a4:	2a1303e0 	mov	w0, w19
    39a8:	a9457bfd 	ldp	x29, x30, [sp, #80]
    39ac:	a94653f3 	ldp	x19, x20, [sp, #96]
    39b0:	9101c3ff 	add	sp, sp, #0x70
    39b4:	d65f03c0 	ret

00000000000039b8 <__utee_tcb_init>:
__utee_tcb_init():
/home/fangjiang/workspace/optee-os/lib/libutee/arch/arm/tcb.c:87
    39b8:	a9b87bfd 	stp	x29, x30, [sp, #-128]!
/home/fangjiang/workspace/optee-os/lib/libutee/arch/arm/tcb.c:96
    39bc:	f0000041 	adrp	x1, e000 <_DYNAMIC>
    39c0:	d2800003 	mov	x3, #0x0                   	// #0
/home/fangjiang/workspace/optee-os/lib/libutee/arch/arm/tcb.c:87
    39c4:	910003fd 	mov	x29, sp
/home/fangjiang/workspace/optee-os/lib/libutee/arch/arm/tcb.c:96
    39c8:	f940c420 	ldr	x0, [x1, #392]
/home/fangjiang/workspace/optee-os/lib/libutee/arch/arm/tcb.c:87
    39cc:	a90363f7 	stp	x23, x24, [sp, #48]
    39d0:	aa0103f7 	mov	x23, x1
/home/fangjiang/workspace/optee-os/lib/libutee/arch/arm/tcb.c:99
    39d4:	d2800706 	mov	x6, #0x38                  	// #56
/home/fangjiang/workspace/optee-os/lib/libutee/arch/arm/tcb.c:87
    39d8:	a90153f3 	stp	x19, x20, [sp, #16]
/home/fangjiang/workspace/optee-os/lib/libutee/arch/arm/tcb.c:96
    39dc:	79400805 	ldrh	w5, [x0, #4]
    39e0:	f9400400 	ldr	x0, [x0, #8]
/home/fangjiang/workspace/optee-os/lib/libutee/arch/arm/tcb.c:87
    39e4:	a9025bf5 	stp	x21, x22, [sp, #32]
    39e8:	91004000 	add	x0, x0, #0x10
    39ec:	a9046bf9 	stp	x25, x26, [sp, #64]
/home/fangjiang/workspace/optee-os/lib/libutee/arch/arm/tcb.c:90
    39f0:	d2800019 	mov	x25, #0x0                   	// #0
/home/fangjiang/workspace/optee-os/lib/libutee/arch/arm/tcb.c:87
    39f4:	a90573fb 	stp	x27, x28, [sp, #80]
/home/fangjiang/workspace/optee-os/lib/libutee/arch/arm/tcb.c:96 (discriminator 1)
    39f8:	eb0300bf 	cmp	x5, x3
    39fc:	540001e8 	b.hi	3a38 <__utee_tcb_init+0x80>  // b.pmore
/home/fangjiang/workspace/optee-os/lib/libutee/arch/arm/tcb.c:108
    3a00:	d0000076 	adrp	x22, 11000 <data.17+0x2b60>
    3a04:	9112a2d5 	add	x21, x22, #0x4a8
    3a08:	f94256d8 	ldr	x24, [x22, #1192]
    3a0c:	eb19031f 	cmp	x24, x25
    3a10:	54000369 	b.ls	3a7c <__utee_tcb_init+0xc4>  // b.plast
/home/fangjiang/workspace/optee-os/lib/libutee/arch/arm/tcb.c:108 (discriminator 1)
    3a14:	b0000043 	adrp	x3, c000 <__text_end+0x1cb0>
    3a18:	b0000041 	adrp	x1, c000 <__text_end+0x1cb0>
    3a1c:	9128d463 	add	x3, x3, #0xa35
    3a20:	91267c21 	add	x1, x1, #0x99f
    3a24:	b0000040 	adrp	x0, c000 <__text_end+0x1cb0>
    3a28:	9126e800 	add	x0, x0, #0x9ba
    3a2c:	52800d82 	mov	w2, #0x6c                  	// #108
    3a30:	940000b5 	bl	3d04 <_assert_log>
    3a34:	940000c5 	bl	3d48 <_assert_break>
/home/fangjiang/workspace/optee-os/lib/libutee/arch/arm/tcb.c:98
    3a38:	79401007 	ldrh	w7, [x0, #8]
    3a3c:	d2800001 	mov	x1, #0x0                   	// #0
/home/fangjiang/workspace/optee-os/lib/libutee/arch/arm/tcb.c:98 (discriminator 1)
    3a40:	eb0100ff 	cmp	x7, x1
    3a44:	54000129 	b.ls	3a68 <__utee_tcb_init+0xb0>  // b.plast
/home/fangjiang/workspace/optee-os/lib/libutee/arch/arm/tcb.c:99
    3a48:	9b067c22 	mul	x2, x1, x6
    3a4c:	f9400004 	ldr	x4, [x0]
    3a50:	8b020088 	add	x8, x4, x2
/home/fangjiang/workspace/optee-os/lib/libutee/arch/arm/tcb.c:100
    3a54:	b8626882 	ldr	w2, [x4, x2]
    3a58:	71001c5f 	cmp	w2, #0x7
    3a5c:	540000c1 	b.ne	3a74 <__utee_tcb_init+0xbc>  // b.any
/home/fangjiang/workspace/optee-os/lib/libutee/arch/arm/tcb.c:101
    3a60:	f9401501 	ldr	x1, [x8, #40]
    3a64:	8b010339 	add	x25, x25, x1
/home/fangjiang/workspace/optee-os/lib/libutee/arch/arm/tcb.c:96 (discriminator 2)
    3a68:	91000463 	add	x3, x3, #0x1
    3a6c:	91010000 	add	x0, x0, #0x40
    3a70:	17ffffe2 	b	39f8 <__utee_tcb_init+0x40>
/home/fangjiang/workspace/optee-os/lib/libutee/arch/arm/tcb.c:98 (discriminator 2)
    3a74:	91000421 	add	x1, x1, #0x1
    3a78:	17fffff2 	b	3a40 <__utee_tcb_init+0x88>
/home/fangjiang/workspace/optee-os/lib/libutee/arch/arm/tcb.c:110 (discriminator 2)
    3a7c:	54000b00 	b.eq	3bdc <__utee_tcb_init+0x224>  // b.none
/home/fangjiang/workspace/optee-os/lib/libutee/arch/arm/tcb.c:114
    3a80:	f94006a0 	ldr	x0, [x21, #8]
    3a84:	91004334 	add	x20, x25, #0x10
    3a88:	aa1403e1 	mov	x1, x20
    3a8c:	94001446 	bl	8ba4 <realloc>
    3a90:	f90006a0 	str	x0, [x21, #8]
    3a94:	aa0003f3 	mov	x19, x0
/home/fangjiang/workspace/optee-os/lib/libutee/arch/arm/tcb.c:115
    3a98:	b5000160 	cbnz	x0, 3ac4 <__utee_tcb_init+0x10c>
/home/fangjiang/workspace/optee-os/lib/libutee/arch/arm/tcb.c:116
    3a9c:	b0000044 	adrp	x4, c000 <__text_end+0x1cb0>
    3aa0:	aa1403e5 	mov	x5, x20
    3aa4:	91274884 	add	x4, x4, #0x9d2
    3aa8:	52800023 	mov	w3, #0x1                   	// #1
    3aac:	52800022 	mov	w2, #0x1                   	// #1
    3ab0:	52800e81 	mov	w1, #0x74                  	// #116
/home/fangjiang/workspace/optee-os/lib/libutee/arch/arm/tcb.c:124
    3ab4:	b0000040 	adrp	x0, c000 <__text_end+0x1cb0>
    3ab8:	9128d400 	add	x0, x0, #0xa35
    3abc:	9400195e 	bl	a034 <trace_printf>
/home/fangjiang/workspace/optee-os/lib/libutee/arch/arm/tcb.c:125
    3ac0:	97fff462 	bl	c48 <abort>
/home/fangjiang/workspace/optee-os/lib/libutee/arch/arm/tcb.c:121
    3ac4:	f940c6e0 	ldr	x0, [x23, #392]
    3ac8:	79400814 	ldrh	w20, [x0, #4]
/home/fangjiang/workspace/optee-os/lib/libutee/arch/arm/tcb.c:122
    3acc:	f9400260 	ldr	x0, [x19]
/home/fangjiang/workspace/optee-os/lib/libutee/arch/arm/tcb.c:121
    3ad0:	91000a94 	add	x20, x20, #0x2
    3ad4:	d37df294 	lsl	x20, x20, #3
/home/fangjiang/workspace/optee-os/lib/libutee/arch/arm/tcb.c:122
    3ad8:	aa1403e1 	mov	x1, x20
    3adc:	94001432 	bl	8ba4 <realloc>
    3ae0:	f9000260 	str	x0, [x19]
/home/fangjiang/workspace/optee-os/lib/libutee/arch/arm/tcb.c:123
    3ae4:	b5000640 	cbnz	x0, 3bac <__utee_tcb_init+0x1f4>
/home/fangjiang/workspace/optee-os/lib/libutee/arch/arm/tcb.c:124
    3ae8:	b0000044 	adrp	x4, c000 <__text_end+0x1cb0>
    3aec:	aa1403e5 	mov	x5, x20
    3af0:	9127d084 	add	x4, x4, #0x9f4
    3af4:	52800023 	mov	w3, #0x1                   	// #1
    3af8:	52800022 	mov	w2, #0x1                   	// #1
    3afc:	52800f81 	mov	w1, #0x7c                  	// #124
    3b00:	17ffffed 	b	3ab4 <__utee_tcb_init+0xfc>
/home/fangjiang/workspace/optee-os/lib/libutee/arch/arm/tcb.c:131
    3b04:	f940043c 	ldr	x28, [x1, #8]
    3b08:	91000414 	add	x20, x0, #0x1
/home/fangjiang/workspace/optee-os/lib/libutee/arch/arm/tcb.c:132
    3b0c:	d2800003 	mov	x3, #0x0                   	// #0
/home/fangjiang/workspace/optee-os/lib/libutee/arch/arm/tcb.c:140
    3b10:	d37df285 	lsl	x5, x20, #3
/home/fangjiang/workspace/optee-os/lib/libutee/arch/arm/tcb.c:131
    3b14:	8b001b9c 	add	x28, x28, x0, lsl #6
/home/fangjiang/workspace/optee-os/lib/libutee/arch/arm/tcb.c:132 (discriminator 1)
    3b18:	79403380 	ldrh	w0, [x28, #24]
    3b1c:	eb03001f 	cmp	x0, x3
    3b20:	54000068 	b.hi	3b2c <__utee_tcb_init+0x174>  // b.pmore
    3b24:	aa1403e0 	mov	x0, x20
    3b28:	14000025 	b	3bbc <__utee_tcb_init+0x204>
/home/fangjiang/workspace/optee-os/lib/libutee/arch/arm/tcb.c:133
    3b2c:	9b047c60 	mul	x0, x3, x4
    3b30:	f9400b81 	ldr	x1, [x28, #16]
    3b34:	8b000035 	add	x21, x1, x0
/home/fangjiang/workspace/optee-os/lib/libutee/arch/arm/tcb.c:134
    3b38:	b8606820 	ldr	w0, [x1, x0]
    3b3c:	71001c1f 	cmp	w0, #0x7
    3b40:	54000321 	b.ne	3ba4 <__utee_tcb_init+0x1ec>  // b.any
/home/fangjiang/workspace/optee-os/lib/libutee/arch/arm/tcb.c:136
    3b44:	f94016a0 	ldr	x0, [x21, #40]
    3b48:	f9003fe3 	str	x3, [sp, #120]
    3b4c:	8b000340 	add	x0, x26, x0
    3b50:	eb00031f 	cmp	x24, x0
    3b54:	54fffe82 	b.cs	3b24 <__utee_tcb_init+0x16c>  // b.hs, b.nlast
/home/fangjiang/workspace/optee-os/lib/libutee/arch/arm/tcb.c:140
    3b58:	f9400261 	ldr	x1, [x19]
    3b5c:	8b1a0360 	add	x0, x27, x26
/home/fangjiang/workspace/optee-os/lib/libutee/arch/arm/tcb.c:143
    3b60:	f9400386 	ldr	x6, [x28]
    3b64:	a90693e5 	stp	x5, x4, [sp, #104]
/home/fangjiang/workspace/optee-os/lib/libutee/arch/arm/tcb.c:142
    3b68:	f94012a2 	ldr	x2, [x21, #32]
/home/fangjiang/workspace/optee-os/lib/libutee/arch/arm/tcb.c:140
    3b6c:	f8256820 	str	x0, [x1, x5]
/home/fangjiang/workspace/optee-os/lib/libutee/arch/arm/tcb.c:143
    3b70:	f9400aa1 	ldr	x1, [x21, #16]
/home/fangjiang/workspace/optee-os/lib/libutee/arch/arm/tcb.c:142
    3b74:	8b0100c1 	add	x1, x6, x1
    3b78:	97fff12a 	bl	20 <memcpy>
/home/fangjiang/workspace/optee-os/lib/libutee/arch/arm/tcb.c:146
    3b7c:	a9420aa1 	ldp	x1, x2, [x21, #32]
    3b80:	8b1a0020 	add	x0, x1, x26
    3b84:	cb010042 	sub	x2, x2, x1
    3b88:	8b000360 	add	x0, x27, x0
    3b8c:	52800001 	mov	w1, #0x0                   	// #0
    3b90:	94001504 	bl	8fa0 <memset>
/home/fangjiang/workspace/optee-os/lib/libutee/arch/arm/tcb.c:148
    3b94:	f94016a0 	ldr	x0, [x21, #40]
    3b98:	a94693e5 	ldp	x5, x4, [sp, #104]
    3b9c:	8b00035a 	add	x26, x26, x0
    3ba0:	f9403fe3 	ldr	x3, [sp, #120]
/home/fangjiang/workspace/optee-os/lib/libutee/arch/arm/tcb.c:132 (discriminator 2)
    3ba4:	91000463 	add	x3, x3, #0x1
    3ba8:	17ffffdc 	b	3b18 <__utee_tcb_init+0x160>
/home/fangjiang/workspace/optee-os/lib/libutee/arch/arm/tcb.c:140
    3bac:	9100427b 	add	x27, x19, #0x10
    3bb0:	d2800000 	mov	x0, #0x0                   	// #0
/home/fangjiang/workspace/optee-os/lib/libutee/arch/arm/tcb.c:129
    3bb4:	d280001a 	mov	x26, #0x0                   	// #0
/home/fangjiang/workspace/optee-os/lib/libutee/arch/arm/tcb.c:133
    3bb8:	d2800704 	mov	x4, #0x38                  	// #56
/home/fangjiang/workspace/optee-os/lib/libutee/arch/arm/tcb.c:130 (discriminator 1)
    3bbc:	f940c6e1 	ldr	x1, [x23, #392]
    3bc0:	79400822 	ldrh	w2, [x1, #4]
    3bc4:	eb02001f 	cmp	x0, x2
    3bc8:	54fff9e3 	b.cc	3b04 <__utee_tcb_init+0x14c>  // b.lo, b.ul, b.last
/home/fangjiang/workspace/optee-os/lib/libutee/arch/arm/tcb.c:151
    3bcc:	f9400261 	ldr	x1, [x19]
/home/fangjiang/workspace/optee-os/lib/libutee/arch/arm/tcb.c:153
    3bd0:	f90256d9 	str	x25, [x22, #1192]
/home/fangjiang/workspace/optee-os/lib/libutee/arch/arm/tcb.c:151
    3bd4:	f9000020 	str	x0, [x1]
write_tpidr_el0():
/home/fangjiang/workspace/optee-os/lib/libutee/include/arm64_user_sysreg.h:37
    3bd8:	d51bd053 	msr	tpidr_el0, x19
__utee_tcb_init():
/home/fangjiang/workspace/optee-os/lib/libutee/arch/arm/tcb.c:161
    3bdc:	a94153f3 	ldp	x19, x20, [sp, #16]
    3be0:	a9425bf5 	ldp	x21, x22, [sp, #32]
    3be4:	a94363f7 	ldp	x23, x24, [sp, #48]
    3be8:	a9446bf9 	ldp	x25, x26, [sp, #64]
    3bec:	a94573fb 	ldp	x27, x28, [sp, #80]
    3bf0:	a8c87bfd 	ldp	x29, x30, [sp], #128
    3bf4:	d65f03c0 	ret

0000000000003bf8 <__tls_get_addr>:
__tls_get_addr():
/home/fangjiang/workspace/optee-os/lib/libutee/arch/arm/tcb.c:172
    3bf8:	d0000061 	adrp	x1, 11000 <data.17+0x2b60>
    3bfc:	a9400002 	ldp	x2, x0, [x0]
    3c00:	f9425821 	ldr	x1, [x1, #1200]
    3c04:	f9400021 	ldr	x1, [x1]
    3c08:	f8627821 	ldr	x1, [x1, x2, lsl #3]
/home/fangjiang/workspace/optee-os/lib/libutee/arch/arm/tcb.c:173
    3c0c:	8b000020 	add	x0, x1, x0
    3c10:	d65f03c0 	ret

0000000000003c14 <dl_iterate_phdr>:
dl_iterate_phdr():
/home/fangjiang/workspace/optee-os/lib/libutee/arch/arm/tcb.c:177
    3c14:	a9bb7bfd 	stp	x29, x30, [sp, #-80]!
    3c18:	910003fd 	mov	x29, sp
    3c1c:	a90153f3 	stp	x19, x20, [sp, #16]
    3c20:	a9025bf5 	stp	x21, x22, [sp, #32]
    3c24:	a90363f7 	stp	x23, x24, [sp, #48]
    3c28:	aa0003f7 	mov	x23, x0
    3c2c:	aa0103f8 	mov	x24, x1
/home/fangjiang/workspace/optee-os/lib/libutee/arch/arm/tcb.c:190
    3c30:	d2800020 	mov	x0, #0x1                   	// #1
    3c34:	d2800801 	mov	x1, #0x40                  	// #64
/home/fangjiang/workspace/optee-os/lib/libutee/arch/arm/tcb.c:177
    3c38:	f90023f9 	str	x25, [sp, #64]
/home/fangjiang/workspace/optee-os/lib/libutee/arch/arm/tcb.c:190
    3c3c:	940013d3 	bl	8b88 <calloc>
/home/fangjiang/workspace/optee-os/lib/libutee/arch/arm/tcb.c:191
    3c40:	b5000520 	cbnz	x0, 3ce4 <dl_iterate_phdr+0xd0>
/home/fangjiang/workspace/optee-os/lib/libutee/arch/arm/tcb.c:192
    3c44:	b0000040 	adrp	x0, c000 <__text_end+0x1cb0>
    3c48:	9128d400 	add	x0, x0, #0xa35
    3c4c:	91004000 	add	x0, x0, #0x10
    3c50:	b0000044 	adrp	x4, c000 <__text_end+0x1cb0>
    3c54:	91285884 	add	x4, x4, #0xa16
    3c58:	52800023 	mov	w3, #0x1                   	// #1
    3c5c:	52800022 	mov	w2, #0x1                   	// #1
    3c60:	52801801 	mov	w1, #0xc0                  	// #192
    3c64:	940018f4 	bl	a034 <trace_printf>
/home/fangjiang/workspace/optee-os/lib/libutee/arch/arm/tcb.c:193
    3c68:	97fff3f8 	bl	c48 <abort>
/home/fangjiang/workspace/optee-os/lib/libutee/arch/arm/tcb.c:197
    3c6c:	f94006c1 	ldr	x1, [x22, #8]
    3c70:	aa1303e0 	mov	x0, x19
    3c74:	d2800802 	mov	x2, #0x40                  	// #64
    3c78:	8b151821 	add	x1, x1, x21, lsl #6
    3c7c:	97fff0e9 	bl	20 <memcpy>
/home/fangjiang/workspace/optee-os/lib/libutee/arch/arm/tcb.c:199
    3c80:	f9401a60 	ldr	x0, [x19, #48]
/home/fangjiang/workspace/optee-os/lib/libutee/arch/arm/tcb.c:198
    3c84:	f9001e7f 	str	xzr, [x19, #56]
/home/fangjiang/workspace/optee-os/lib/libutee/arch/arm/tcb.c:200
    3c88:	b40000a0 	cbz	x0, 3c9c <dl_iterate_phdr+0x88>
/home/fangjiang/workspace/optee-os/lib/libutee/arch/arm/tcb.c:201
    3c8c:	f9400721 	ldr	x1, [x25, #8]
    3c90:	f9400021 	ldr	x1, [x1]
    3c94:	f8607820 	ldr	x0, [x1, x0, lsl #3]
    3c98:	f9001e60 	str	x0, [x19, #56]
/home/fangjiang/workspace/optee-os/lib/libutee/arch/arm/tcb.c:202 (discriminator 2)
    3c9c:	aa1803e2 	mov	x2, x24
    3ca0:	aa1303e0 	mov	x0, x19
    3ca4:	d2800801 	mov	x1, #0x40                  	// #64
/home/fangjiang/workspace/optee-os/lib/libutee/arch/arm/tcb.c:196 (discriminator 2)
    3ca8:	910006b5 	add	x21, x21, #0x1
/home/fangjiang/workspace/optee-os/lib/libutee/arch/arm/tcb.c:202 (discriminator 2)
    3cac:	d63f02e0 	blr	x23
    3cb0:	2a0003f4 	mov	w20, w0
/home/fangjiang/workspace/optee-os/lib/libutee/arch/arm/tcb.c:196 (discriminator 1)
    3cb4:	79400ac0 	ldrh	w0, [x22, #4]
    3cb8:	eb15001f 	cmp	x0, x21
    3cbc:	54fffd88 	b.hi	3c6c <dl_iterate_phdr+0x58>  // b.pmore
/home/fangjiang/workspace/optee-os/lib/libutee/arch/arm/tcb.c:205
    3cc0:	aa1303e0 	mov	x0, x19
    3cc4:	940013c5 	bl	8bd8 <free>
/home/fangjiang/workspace/optee-os/lib/libutee/arch/arm/tcb.c:207
    3cc8:	2a1403e0 	mov	w0, w20
    3ccc:	a94153f3 	ldp	x19, x20, [sp, #16]
    3cd0:	a9425bf5 	ldp	x21, x22, [sp, #32]
    3cd4:	a94363f7 	ldp	x23, x24, [sp, #48]
    3cd8:	f94023f9 	ldr	x25, [sp, #64]
    3cdc:	a8c57bfd 	ldp	x29, x30, [sp], #80
    3ce0:	d65f03c0 	ret
/home/fangjiang/workspace/optee-os/lib/libutee/arch/arm/tcb.c:196
    3ce4:	f0000056 	adrp	x22, e000 <_DYNAMIC>
/home/fangjiang/workspace/optee-os/lib/libutee/arch/arm/tcb.c:201
    3ce8:	d0000079 	adrp	x25, 11000 <data.17+0x2b60>
    3cec:	aa0003f3 	mov	x19, x0
    3cf0:	9112a339 	add	x25, x25, #0x4a8
/home/fangjiang/workspace/optee-os/lib/libutee/arch/arm/tcb.c:196
    3cf4:	f940c6d6 	ldr	x22, [x22, #392]
/home/fangjiang/workspace/optee-os/lib/libutee/arch/arm/tcb.c:181
    3cf8:	52800014 	mov	w20, #0x0                   	// #0
/home/fangjiang/workspace/optee-os/lib/libutee/arch/arm/tcb.c:196
    3cfc:	d2800015 	mov	x21, #0x0                   	// #0
    3d00:	17ffffed 	b	3cb4 <dl_iterate_phdr+0xa0>

0000000000003d04 <_assert_log>:
_assert_log():
/home/fangjiang/workspace/optee-os/lib/libutee/assert.c:17
    3d04:	d10083ff 	sub	sp, sp, #0x20
/home/fangjiang/workspace/optee-os/lib/libutee/assert.c:18
    3d08:	2a0203e7 	mov	w7, w2
    3d0c:	aa0103e6 	mov	x6, x1
    3d10:	aa0003e5 	mov	x5, x0
    3d14:	52800022 	mov	w2, #0x1                   	// #1
    3d18:	52800001 	mov	w1, #0x0                   	// #0
/home/fangjiang/workspace/optee-os/lib/libutee/assert.c:17
    3d1c:	a9017bfd 	stp	x29, x30, [sp, #16]
    3d20:	910043fd 	add	x29, sp, #0x10
/home/fangjiang/workspace/optee-os/lib/libutee/assert.c:18
    3d24:	d2800000 	mov	x0, #0x0                   	// #0
    3d28:	b0000044 	adrp	x4, c000 <__text_end+0x1cb0>
    3d2c:	f90003e3 	str	x3, [sp]
    3d30:	91295484 	add	x4, x4, #0xa55
    3d34:	52800023 	mov	w3, #0x1                   	// #1
    3d38:	940018bf 	bl	a034 <trace_printf>
/home/fangjiang/workspace/optee-os/lib/libutee/assert.c:20
    3d3c:	a9417bfd 	ldp	x29, x30, [sp, #16]
    3d40:	910083ff 	add	sp, sp, #0x20
    3d44:	d65f03c0 	ret

0000000000003d48 <_assert_break>:
_assert_break():
/home/fangjiang/workspace/optee-os/lib/libutee/assert.c:23
    3d48:	a9bf7bfd 	stp	x29, x30, [sp, #-16]!
/home/fangjiang/workspace/optee-os/lib/libutee/assert.c:24
    3d4c:	d2bfffe0 	mov	x0, #0xffff0000            	// #4294901760
/home/fangjiang/workspace/optee-os/lib/libutee/assert.c:23
    3d50:	910003fd 	mov	x29, sp
/home/fangjiang/workspace/optee-os/lib/libutee/assert.c:24
    3d54:	97fff14c 	bl	284 <_utee_panic>
/home/fangjiang/workspace/optee-os/lib/libutee/assert.c:26 (discriminator 1)
    3d58:	14000000 	b	3d58 <_assert_break+0x10>

0000000000003d5c <mpi_safe_cond_assign>:
mpi_safe_cond_assign():
/home/fangjiang/workspace/optee-os/lib/libmbedtls/mbedtls/library/bignum.c:358
    3d5c:	12001c63 	and	w3, w3, #0xff
/home/fangjiang/workspace/optee-os/lib/libmbedtls/mbedtls/library/bignum.c:375
    3d60:	d2800004 	mov	x4, #0x0                   	// #0
/home/fangjiang/workspace/optee-os/lib/libmbedtls/mbedtls/library/bignum.c:369
    3d64:	4b0303e7 	neg	w7, w3
/home/fangjiang/workspace/optee-os/lib/libmbedtls/mbedtls/library/bignum.c:376
    3d68:	51000463 	sub	w3, w3, #0x1
/home/fangjiang/workspace/optee-os/lib/libmbedtls/mbedtls/library/bignum.c:375 (discriminator 1)
    3d6c:	eb00009f 	cmp	x4, x0
    3d70:	54000041 	b.ne	3d78 <mpi_safe_cond_assign+0x1c>  // b.any
/home/fangjiang/workspace/optee-os/lib/libmbedtls/mbedtls/library/bignum.c:377
    3d74:	d65f03c0 	ret
/home/fangjiang/workspace/optee-os/lib/libmbedtls/mbedtls/library/bignum.c:376 (discriminator 3)
    3d78:	b8647825 	ldr	w5, [x1, x4, lsl #2]
    3d7c:	b8647846 	ldr	w6, [x2, x4, lsl #2]
    3d80:	0a050065 	and	w5, w3, w5
    3d84:	0a0600e6 	and	w6, w7, w6
    3d88:	2a0600a5 	orr	w5, w5, w6
    3d8c:	b8247825 	str	w5, [x1, x4, lsl #2]
/home/fangjiang/workspace/optee-os/lib/libmbedtls/mbedtls/library/bignum.c:375 (discriminator 3)
    3d90:	91000484 	add	x4, x4, #0x1
    3d94:	17fffff6 	b	3d6c <mpi_safe_cond_assign+0x10>

0000000000003d98 <mpi_get_digit>:
mpi_get_digit():
/home/fangjiang/workspace/optee-os/lib/libmbedtls/mbedtls/library/bignum.c:604
    3d98:	12001c42 	and	w2, w2, #0xff
/home/fangjiang/workspace/optee-os/lib/libmbedtls/mbedtls/library/bignum.c:607
    3d9c:	5100c043 	sub	w3, w2, #0x30
    3da0:	12001c64 	and	w4, w3, #0xff
    3da4:	7100249f 	cmp	w4, #0x9
    3da8:	540000e8 	b.hi	3dc4 <mpi_get_digit+0x2c>  // b.pmore
/home/fangjiang/workspace/optee-os/lib/libmbedtls/mbedtls/library/bignum.c:607 (discriminator 1)
    3dac:	b9000003 	str	w3, [x0]
/home/fangjiang/workspace/optee-os/lib/libmbedtls/mbedtls/library/bignum.c:611
    3db0:	b9400000 	ldr	w0, [x0]
/home/fangjiang/workspace/optee-os/lib/libmbedtls/mbedtls/library/bignum.c:612
    3db4:	6b01001f 	cmp	w0, w1
/home/fangjiang/workspace/optee-os/lib/libmbedtls/mbedtls/library/bignum.c:615
    3db8:	128000a0 	mov	w0, #0xfffffffa            	// #-6
    3dbc:	1a9f2000 	csel	w0, w0, wzr, cs  // cs = hs, nlast
    3dc0:	d65f03c0 	ret
/home/fangjiang/workspace/optee-os/lib/libmbedtls/mbedtls/library/bignum.c:608
    3dc4:	51010443 	sub	w3, w2, #0x41
    3dc8:	12001c63 	and	w3, w3, #0xff
    3dcc:	7100147f 	cmp	w3, #0x5
    3dd0:	54000088 	b.hi	3de0 <mpi_get_digit+0x48>  // b.pmore
/home/fangjiang/workspace/optee-os/lib/libmbedtls/mbedtls/library/bignum.c:608 (discriminator 1)
    3dd4:	5100dc42 	sub	w2, w2, #0x37
/home/fangjiang/workspace/optee-os/lib/libmbedtls/mbedtls/library/bignum.c:609
    3dd8:	b9000002 	str	w2, [x0]
    3ddc:	17fffff5 	b	3db0 <mpi_get_digit+0x18>
    3de0:	51018443 	sub	w3, w2, #0x61
    3de4:	51015c42 	sub	w2, w2, #0x57
    3de8:	12001c63 	and	w3, w3, #0xff
    3dec:	7100187f 	cmp	w3, #0x6
    3df0:	52801fe3 	mov	w3, #0xff                  	// #255
    3df4:	1a833042 	csel	w2, w2, w3, cc  // cc = lo, ul, last
    3df8:	17fffff8 	b	3dd8 <mpi_get_digit+0x40>

0000000000003dfc <mpi_mul_hlp>:
mpi_mul_hlp():
/home/fangjiang/workspace/optee-os/lib/libmbedtls/mbedtls/library/bignum.c:1714
    3dfc:	aa0203e5 	mov	x5, x2
    3e00:	aa0103e6 	mov	x6, x1
    3e04:	aa0003e8 	mov	x8, x0
/home/fangjiang/workspace/optee-os/lib/libmbedtls/mbedtls/library/bignum.c:1697
    3e08:	52800004 	mov	w4, #0x0                   	// #0
/home/fangjiang/workspace/optee-os/lib/libmbedtls/mbedtls/library/bignum.c:1714 (discriminator 1)
    3e0c:	f1003d1f 	cmp	x8, #0xf
    3e10:	54000b48 	b.hi	3f78 <mpi_mul_hlp+0x17c>  // b.pmore
    3e14:	d344fc05 	lsr	x5, x0, #4
    3e18:	928001e6 	mov	x6, #0xfffffffffffffff0    	// #-16
    3e1c:	d37ae4a8 	lsl	x8, x5, #6
    3e20:	9b0600a0 	madd	x0, x5, x6, x0
    3e24:	8b051826 	add	x6, x1, x5, lsl #6
    3e28:	8b051845 	add	x5, x2, x5, lsl #6
/home/fangjiang/workspace/optee-os/lib/libmbedtls/mbedtls/library/bignum.c:1729
    3e2c:	f1001c1f 	cmp	x0, #0x7
    3e30:	54000989 	b.ls	3f60 <mpi_mul_hlp+0x164>  // b.plast
/home/fangjiang/workspace/optee-os/lib/libmbedtls/mbedtls/library/bignum.c:1732
    3e34:	b8686827 	ldr	w7, [x1, x8]
/home/fangjiang/workspace/optee-os/lib/libmbedtls/mbedtls/library/bignum.c:1729
    3e38:	d1002000 	sub	x0, x0, #0x8
/home/fangjiang/workspace/optee-os/lib/libmbedtls/mbedtls/library/bignum.c:1736
    3e3c:	910080c6 	add	x6, x6, #0x20
    3e40:	910080a5 	add	x5, x5, #0x20
/home/fangjiang/workspace/optee-os/lib/libmbedtls/mbedtls/library/bignum.c:1732
    3e44:	9ba77c67 	umull	x7, w3, w7
    3e48:	2b070084 	adds	w4, w4, w7
    3e4c:	d360fce1 	lsr	x1, x7, #32
    3e50:	b8686847 	ldr	w7, [x2, x8]
    3e54:	1a813421 	cinc	w1, w1, cs  // cs = hs, nlast
    3e58:	2b070084 	adds	w4, w4, w7
    3e5c:	b8286844 	str	w4, [x2, x8]
    3e60:	1a813421 	cinc	w1, w1, cs  // cs = hs, nlast
    3e64:	b85e40c4 	ldur	w4, [x6, #-28]
    3e68:	9ba47c64 	umull	x4, w3, w4
    3e6c:	2b040021 	adds	w1, w1, w4
    3e70:	d360fc82 	lsr	x2, x4, #32
    3e74:	b85e40a4 	ldur	w4, [x5, #-28]
    3e78:	1a823442 	cinc	w2, w2, cs  // cs = hs, nlast
    3e7c:	2b040021 	adds	w1, w1, w4
    3e80:	b81e40a1 	stur	w1, [x5, #-28]
    3e84:	1a823442 	cinc	w2, w2, cs  // cs = hs, nlast
/home/fangjiang/workspace/optee-os/lib/libmbedtls/mbedtls/library/bignum.c:1733
    3e88:	b85e80c4 	ldur	w4, [x6, #-24]
    3e8c:	9ba47c64 	umull	x4, w3, w4
    3e90:	2b040042 	adds	w2, w2, w4
    3e94:	d360fc81 	lsr	x1, x4, #32
    3e98:	b85e80a4 	ldur	w4, [x5, #-24]
    3e9c:	1a813421 	cinc	w1, w1, cs  // cs = hs, nlast
    3ea0:	2b040042 	adds	w2, w2, w4
    3ea4:	b81e80a2 	stur	w2, [x5, #-24]
    3ea8:	1a813421 	cinc	w1, w1, cs  // cs = hs, nlast
    3eac:	b85ec0c4 	ldur	w4, [x6, #-20]
    3eb0:	9ba47c64 	umull	x4, w3, w4
    3eb4:	2b040021 	adds	w1, w1, w4
    3eb8:	d360fc82 	lsr	x2, x4, #32
    3ebc:	b85ec0a4 	ldur	w4, [x5, #-20]
    3ec0:	1a823442 	cinc	w2, w2, cs  // cs = hs, nlast
    3ec4:	2b040021 	adds	w1, w1, w4
    3ec8:	b81ec0a1 	stur	w1, [x5, #-20]
    3ecc:	1a823442 	cinc	w2, w2, cs  // cs = hs, nlast
/home/fangjiang/workspace/optee-os/lib/libmbedtls/mbedtls/library/bignum.c:1735
    3ed0:	b85f00c4 	ldur	w4, [x6, #-16]
    3ed4:	9ba47c64 	umull	x4, w3, w4
    3ed8:	2b040042 	adds	w2, w2, w4
    3edc:	d360fc81 	lsr	x1, x4, #32
    3ee0:	b85f00a4 	ldur	w4, [x5, #-16]
    3ee4:	1a813421 	cinc	w1, w1, cs  // cs = hs, nlast
    3ee8:	2b040042 	adds	w2, w2, w4
    3eec:	b81f00a2 	stur	w2, [x5, #-16]
    3ef0:	1a813421 	cinc	w1, w1, cs  // cs = hs, nlast
    3ef4:	b85f40c4 	ldur	w4, [x6, #-12]
    3ef8:	9ba47c64 	umull	x4, w3, w4
    3efc:	2b040021 	adds	w1, w1, w4
    3f00:	d360fc82 	lsr	x2, x4, #32
    3f04:	b85f40a4 	ldur	w4, [x5, #-12]
    3f08:	1a823442 	cinc	w2, w2, cs  // cs = hs, nlast
    3f0c:	2b040021 	adds	w1, w1, w4
    3f10:	b81f40a1 	stur	w1, [x5, #-12]
    3f14:	1a823442 	cinc	w2, w2, cs  // cs = hs, nlast
/home/fangjiang/workspace/optee-os/lib/libmbedtls/mbedtls/library/bignum.c:1736
    3f18:	b85f80c4 	ldur	w4, [x6, #-8]
    3f1c:	9ba47c64 	umull	x4, w3, w4
    3f20:	2b040042 	adds	w2, w2, w4
    3f24:	d360fc81 	lsr	x1, x4, #32
    3f28:	b85f80a4 	ldur	w4, [x5, #-8]
    3f2c:	1a813421 	cinc	w1, w1, cs  // cs = hs, nlast
    3f30:	2b040042 	adds	w2, w2, w4
    3f34:	b81f80a2 	stur	w2, [x5, #-8]
    3f38:	1a813421 	cinc	w1, w1, cs  // cs = hs, nlast
    3f3c:	b85fc0c2 	ldur	w2, [x6, #-4]
    3f40:	9ba27c62 	umull	x2, w3, w2
    3f44:	2b020021 	adds	w1, w1, w2
    3f48:	d360fc44 	lsr	x4, x2, #32
    3f4c:	b85fc0a2 	ldur	w2, [x5, #-4]
    3f50:	1a843484 	cinc	w4, w4, cs  // cs = hs, nlast
    3f54:	2b020021 	adds	w1, w1, w2
    3f58:	b81fc0a1 	stur	w1, [x5, #-4]
    3f5c:	1a843484 	cinc	w4, w4, cs  // cs = hs, nlast
/home/fangjiang/workspace/optee-os/lib/libmbedtls/mbedtls/library/bignum.c:1736 (discriminator 1)
    3f60:	d2800001 	mov	x1, #0x0                   	// #0
/home/fangjiang/workspace/optee-os/lib/libmbedtls/mbedtls/library/bignum.c:1740 (discriminator 1)
    3f64:	eb00003f 	cmp	x1, x0
    3f68:	54001301 	b.ne	41c8 <mpi_mul_hlp+0x3cc>  // b.any
    3f6c:	8b0108a1 	add	x1, x5, x1, lsl #2
/home/fangjiang/workspace/optee-os/lib/libmbedtls/mbedtls/library/bignum.c:1750
    3f70:	35001424 	cbnz	w4, 41f4 <mpi_mul_hlp+0x3f8>
/home/fangjiang/workspace/optee-os/lib/libmbedtls/mbedtls/library/bignum.c:1754
    3f74:	d65f03c0 	ret
/home/fangjiang/workspace/optee-os/lib/libmbedtls/mbedtls/library/bignum.c:1717 (discriminator 2)
    3f78:	b94000c9 	ldr	w9, [x6]
    3f7c:	910100c6 	add	x6, x6, #0x40
    3f80:	910100a5 	add	x5, x5, #0x40
/home/fangjiang/workspace/optee-os/lib/libmbedtls/mbedtls/library/bignum.c:1714 (discriminator 2)
    3f84:	d1004108 	sub	x8, x8, #0x10
/home/fangjiang/workspace/optee-os/lib/libmbedtls/mbedtls/library/bignum.c:1717 (discriminator 2)
    3f88:	9ba97c69 	umull	x9, w3, w9
    3f8c:	2b090084 	adds	w4, w4, w9
    3f90:	d360fd27 	lsr	x7, x9, #32
    3f94:	b85c00a9 	ldur	w9, [x5, #-64]
    3f98:	1a8734e7 	cinc	w7, w7, cs  // cs = hs, nlast
    3f9c:	2b040129 	adds	w9, w9, w4
    3fa0:	b81c00a9 	stur	w9, [x5, #-64]
    3fa4:	1a8734e7 	cinc	w7, w7, cs  // cs = hs, nlast
    3fa8:	b85c40c9 	ldur	w9, [x6, #-60]
    3fac:	9ba97c69 	umull	x9, w3, w9
    3fb0:	2b0900e7 	adds	w7, w7, w9
    3fb4:	d360fd24 	lsr	x4, x9, #32
    3fb8:	b85c40a9 	ldur	w9, [x5, #-60]
    3fbc:	1a843484 	cinc	w4, w4, cs  // cs = hs, nlast
    3fc0:	2b070129 	adds	w9, w9, w7
    3fc4:	b81c40a9 	stur	w9, [x5, #-60]
    3fc8:	1a843484 	cinc	w4, w4, cs  // cs = hs, nlast
/home/fangjiang/workspace/optee-os/lib/libmbedtls/mbedtls/library/bignum.c:1718 (discriminator 2)
    3fcc:	b85c80c9 	ldur	w9, [x6, #-56]
    3fd0:	9ba97c69 	umull	x9, w3, w9
    3fd4:	2b090084 	adds	w4, w4, w9
    3fd8:	d360fd27 	lsr	x7, x9, #32
    3fdc:	b85c80a9 	ldur	w9, [x5, #-56]
    3fe0:	1a8734e7 	cinc	w7, w7, cs  // cs = hs, nlast
    3fe4:	2b040129 	adds	w9, w9, w4
    3fe8:	b81c80a9 	stur	w9, [x5, #-56]
    3fec:	1a8734e7 	cinc	w7, w7, cs  // cs = hs, nlast
    3ff0:	b85cc0c9 	ldur	w9, [x6, #-52]
    3ff4:	9ba97c69 	umull	x9, w3, w9
    3ff8:	2b0900e7 	adds	w7, w7, w9
    3ffc:	d360fd24 	lsr	x4, x9, #32
    4000:	b85cc0a9 	ldur	w9, [x5, #-52]
    4004:	1a843484 	cinc	w4, w4, cs  // cs = hs, nlast
    4008:	2b070129 	adds	w9, w9, w7
    400c:	b81cc0a9 	stur	w9, [x5, #-52]
    4010:	1a843484 	cinc	w4, w4, cs  // cs = hs, nlast
/home/fangjiang/workspace/optee-os/lib/libmbedtls/mbedtls/library/bignum.c:1719 (discriminator 2)
    4014:	b85d00c9 	ldur	w9, [x6, #-48]
    4018:	9ba97c69 	umull	x9, w3, w9
    401c:	2b090084 	adds	w4, w4, w9
    4020:	d360fd27 	lsr	x7, x9, #32
    4024:	b85d00a9 	ldur	w9, [x5, #-48]
    4028:	1a8734e7 	cinc	w7, w7, cs  // cs = hs, nlast
    402c:	2b040129 	adds	w9, w9, w4
    4030:	b81d00a9 	stur	w9, [x5, #-48]
    4034:	1a8734e7 	cinc	w7, w7, cs  // cs = hs, nlast
    4038:	b85d40c9 	ldur	w9, [x6, #-44]
    403c:	9ba97c69 	umull	x9, w3, w9
    4040:	2b0900e7 	adds	w7, w7, w9
    4044:	d360fd24 	lsr	x4, x9, #32
    4048:	b85d40a9 	ldur	w9, [x5, #-44]
    404c:	1a843484 	cinc	w4, w4, cs  // cs = hs, nlast
    4050:	2b070129 	adds	w9, w9, w7
    4054:	b81d40a9 	stur	w9, [x5, #-44]
    4058:	1a843484 	cinc	w4, w4, cs  // cs = hs, nlast
/home/fangjiang/workspace/optee-os/lib/libmbedtls/mbedtls/library/bignum.c:1720 (discriminator 2)
    405c:	b85d80c9 	ldur	w9, [x6, #-40]
    4060:	9ba97c69 	umull	x9, w3, w9
    4064:	2b090084 	adds	w4, w4, w9
    4068:	d360fd27 	lsr	x7, x9, #32
    406c:	b85d80a9 	ldur	w9, [x5, #-40]
    4070:	1a8734e7 	cinc	w7, w7, cs  // cs = hs, nlast
    4074:	2b040129 	adds	w9, w9, w4
    4078:	b81d80a9 	stur	w9, [x5, #-40]
    407c:	1a8734e7 	cinc	w7, w7, cs  // cs = hs, nlast
    4080:	b85dc0c9 	ldur	w9, [x6, #-36]
    4084:	9ba97c69 	umull	x9, w3, w9
    4088:	2b0900e7 	adds	w7, w7, w9
    408c:	d360fd24 	lsr	x4, x9, #32
    4090:	b85dc0a9 	ldur	w9, [x5, #-36]
    4094:	1a843484 	cinc	w4, w4, cs  // cs = hs, nlast
    4098:	2b070129 	adds	w9, w9, w7
    409c:	b81dc0a9 	stur	w9, [x5, #-36]
    40a0:	1a843484 	cinc	w4, w4, cs  // cs = hs, nlast
/home/fangjiang/workspace/optee-os/lib/libmbedtls/mbedtls/library/bignum.c:1722 (discriminator 2)
    40a4:	b85e00c9 	ldur	w9, [x6, #-32]
    40a8:	9ba97c69 	umull	x9, w3, w9
    40ac:	2b090084 	adds	w4, w4, w9
    40b0:	d360fd27 	lsr	x7, x9, #32
    40b4:	b85e00a9 	ldur	w9, [x5, #-32]
    40b8:	1a8734e7 	cinc	w7, w7, cs  // cs = hs, nlast
    40bc:	2b040129 	adds	w9, w9, w4
    40c0:	b81e00a9 	stur	w9, [x5, #-32]
    40c4:	1a8734e7 	cinc	w7, w7, cs  // cs = hs, nlast
    40c8:	b85e40c9 	ldur	w9, [x6, #-28]
    40cc:	9ba97c69 	umull	x9, w3, w9
    40d0:	2b0900e7 	adds	w7, w7, w9
    40d4:	d360fd24 	lsr	x4, x9, #32
    40d8:	b85e40a9 	ldur	w9, [x5, #-28]
    40dc:	1a843484 	cinc	w4, w4, cs  // cs = hs, nlast
    40e0:	2b070129 	adds	w9, w9, w7
    40e4:	b81e40a9 	stur	w9, [x5, #-28]
    40e8:	1a843484 	cinc	w4, w4, cs  // cs = hs, nlast
/home/fangjiang/workspace/optee-os/lib/libmbedtls/mbedtls/library/bignum.c:1723 (discriminator 2)
    40ec:	b85e80c9 	ldur	w9, [x6, #-24]
    40f0:	9ba97c69 	umull	x9, w3, w9
    40f4:	2b090084 	adds	w4, w4, w9
    40f8:	d360fd27 	lsr	x7, x9, #32
    40fc:	b85e80a9 	ldur	w9, [x5, #-24]
    4100:	1a8734e7 	cinc	w7, w7, cs  // cs = hs, nlast
    4104:	2b040129 	adds	w9, w9, w4
    4108:	b81e80a9 	stur	w9, [x5, #-24]
    410c:	b85ec0c9 	ldur	w9, [x6, #-20]
    4110:	1a8734e7 	cinc	w7, w7, cs  // cs = hs, nlast
    4114:	9ba97c69 	umull	x9, w3, w9
    4118:	2b0900e7 	adds	w7, w7, w9
    411c:	d360fd24 	lsr	x4, x9, #32
    4120:	b85ec0a9 	ldur	w9, [x5, #-20]
    4124:	1a843484 	cinc	w4, w4, cs  // cs = hs, nlast
    4128:	2b070129 	adds	w9, w9, w7
    412c:	b81ec0a9 	stur	w9, [x5, #-20]
    4130:	1a843484 	cinc	w4, w4, cs  // cs = hs, nlast
/home/fangjiang/workspace/optee-os/lib/libmbedtls/mbedtls/library/bignum.c:1724 (discriminator 2)
    4134:	b85f00c9 	ldur	w9, [x6, #-16]
    4138:	9ba97c69 	umull	x9, w3, w9
    413c:	2b090084 	adds	w4, w4, w9
    4140:	d360fd27 	lsr	x7, x9, #32
    4144:	b85f00a9 	ldur	w9, [x5, #-16]
    4148:	1a8734e7 	cinc	w7, w7, cs  // cs = hs, nlast
    414c:	2b040129 	adds	w9, w9, w4
    4150:	b81f00a9 	stur	w9, [x5, #-16]
    4154:	1a8734e7 	cinc	w7, w7, cs  // cs = hs, nlast
    4158:	b85f40c9 	ldur	w9, [x6, #-12]
    415c:	9ba97c69 	umull	x9, w3, w9
    4160:	2b0900e7 	adds	w7, w7, w9
    4164:	d360fd24 	lsr	x4, x9, #32
    4168:	b85f40a9 	ldur	w9, [x5, #-12]
    416c:	1a843484 	cinc	w4, w4, cs  // cs = hs, nlast
    4170:	2b070129 	adds	w9, w9, w7
    4174:	b81f40a9 	stur	w9, [x5, #-12]
    4178:	1a843484 	cinc	w4, w4, cs  // cs = hs, nlast
/home/fangjiang/workspace/optee-os/lib/libmbedtls/mbedtls/library/bignum.c:1725 (discriminator 2)
    417c:	b85f80c9 	ldur	w9, [x6, #-8]
    4180:	9ba97c69 	umull	x9, w3, w9
    4184:	2b090084 	adds	w4, w4, w9
    4188:	d360fd27 	lsr	x7, x9, #32
    418c:	b85f80a9 	ldur	w9, [x5, #-8]
    4190:	1a8734e7 	cinc	w7, w7, cs  // cs = hs, nlast
    4194:	2b040129 	adds	w9, w9, w4
    4198:	b81f80a9 	stur	w9, [x5, #-8]
    419c:	1a8734e7 	cinc	w7, w7, cs  // cs = hs, nlast
    41a0:	b85fc0c9 	ldur	w9, [x6, #-4]
    41a4:	9ba97c69 	umull	x9, w3, w9
    41a8:	2b0900e7 	adds	w7, w7, w9
    41ac:	d360fd24 	lsr	x4, x9, #32
    41b0:	b85fc0a9 	ldur	w9, [x5, #-4]
    41b4:	1a843484 	cinc	w4, w4, cs  // cs = hs, nlast
    41b8:	2b070129 	adds	w9, w9, w7
    41bc:	b81fc0a9 	stur	w9, [x5, #-4]
    41c0:	1a843484 	cinc	w4, w4, cs  // cs = hs, nlast
/home/fangjiang/workspace/optee-os/lib/libmbedtls/mbedtls/library/bignum.c:1714 (discriminator 2)
    41c4:	17ffff12 	b	3e0c <mpi_mul_hlp+0x10>
/home/fangjiang/workspace/optee-os/lib/libmbedtls/mbedtls/library/bignum.c:1743 (discriminator 2)
    41c8:	b86178c2 	ldr	w2, [x6, x1, lsl #2]
    41cc:	9ba27c62 	umull	x2, w3, w2
    41d0:	2b020084 	adds	w4, w4, w2
    41d4:	d360fc47 	lsr	x7, x2, #32
    41d8:	b86178a2 	ldr	w2, [x5, x1, lsl #2]
    41dc:	1a8734e7 	cinc	w7, w7, cs  // cs = hs, nlast
    41e0:	2b040042 	adds	w2, w2, w4
    41e4:	b82178a2 	str	w2, [x5, x1, lsl #2]
    41e8:	1a8734e4 	cinc	w4, w7, cs  // cs = hs, nlast
/home/fangjiang/workspace/optee-os/lib/libmbedtls/mbedtls/library/bignum.c:1740 (discriminator 2)
    41ec:	91000421 	add	x1, x1, #0x1
    41f0:	17ffff5d 	b	3f64 <mpi_mul_hlp+0x168>
/home/fangjiang/workspace/optee-os/lib/libmbedtls/mbedtls/library/bignum.c:1752
    41f4:	b9400020 	ldr	w0, [x1]
    41f8:	2b040000 	adds	w0, w0, w4
    41fc:	b8004420 	str	w0, [x1], #4
    4200:	1a9f37e4 	cset	w4, cs  // cs = hs, nlast
    4204:	17ffff5b 	b	3f70 <mpi_mul_hlp+0x174>

0000000000004208 <mpi_montmul>:
mpi_montmul():
/home/fangjiang/workspace/optee-os/lib/libmbedtls/mbedtls/library/bignum.c:2220
    4208:	a9bb7bfd 	stp	x29, x30, [sp, #-80]!
    420c:	910003fd 	mov	x29, sp
    4210:	a9025bf5 	stp	x21, x22, [sp, #32]
    4214:	aa0003f6 	mov	x22, x0
    4218:	a90363f7 	stp	x23, x24, [sp, #48]
    421c:	aa0203f7 	mov	x23, x2
    4220:	2a0303f8 	mov	w24, w3
/home/fangjiang/workspace/optee-os/lib/libmbedtls/mbedtls/library/bignum.c:2224
    4224:	a9408082 	ldp	x2, x0, [x4, #8]
/home/fangjiang/workspace/optee-os/lib/libmbedtls/mbedtls/library/bignum.c:2220
    4228:	f90023f9 	str	x25, [sp, #64]
    422c:	aa0103f9 	mov	x25, x1
    4230:	a90153f3 	stp	x19, x20, [sp, #16]
    4234:	aa0403f3 	mov	x19, x4
/home/fangjiang/workspace/optee-os/lib/libmbedtls/mbedtls/library/bignum.c:2224
    4238:	52800001 	mov	w1, #0x0                   	// #0
    423c:	d37ef442 	lsl	x2, x2, #2
    4240:	94001358 	bl	8fa0 <memset>
/home/fangjiang/workspace/optee-os/lib/libmbedtls/mbedtls/library/bignum.c:2227
    4244:	f94006f5 	ldr	x21, [x23, #8]
/home/fangjiang/workspace/optee-os/lib/libmbedtls/mbedtls/library/bignum.c:2230
    4248:	d280000c 	mov	x12, #0x0                   	// #0
/home/fangjiang/workspace/optee-os/lib/libmbedtls/mbedtls/library/bignum.c:2228
    424c:	f9400720 	ldr	x0, [x25, #8]
/home/fangjiang/workspace/optee-os/lib/libmbedtls/mbedtls/library/bignum.c:2241
    4250:	910006b4 	add	x20, x21, #0x1
/home/fangjiang/workspace/optee-os/lib/libmbedtls/mbedtls/library/bignum.c:2226
    4254:	f9400a73 	ldr	x19, [x19, #16]
/home/fangjiang/workspace/optee-os/lib/libmbedtls/mbedtls/library/bignum.c:2228
    4258:	eb15001f 	cmp	x0, x21
/home/fangjiang/workspace/optee-os/lib/libmbedtls/mbedtls/library/bignum.c:2241
    425c:	d37ef694 	lsl	x20, x20, #2
/home/fangjiang/workspace/optee-os/lib/libmbedtls/mbedtls/library/bignum.c:2228
    4260:	9a95900d 	csel	x13, x0, x21, ls  // ls = plast
/home/fangjiang/workspace/optee-os/lib/libmbedtls/mbedtls/library/bignum.c:2226
    4264:	aa1303ea 	mov	x10, x19
/home/fangjiang/workspace/optee-os/lib/libmbedtls/mbedtls/library/bignum.c:2235 (discriminator 1)
    4268:	f9400ac0 	ldr	x0, [x22, #16]
/home/fangjiang/workspace/optee-os/lib/libmbedtls/mbedtls/library/bignum.c:2230 (discriminator 1)
    426c:	eb15019f 	cmp	x12, x21
    4270:	54000341 	b.ne	42d8 <mpi_montmul+0xd0>  // b.any
    4274:	d1001294 	sub	x20, x20, #0x4
    4278:	8b140273 	add	x19, x19, x20
/home/fangjiang/workspace/optee-os/lib/libmbedtls/mbedtls/library/bignum.c:2250
    427c:	aa1403e2 	mov	x2, x20
    4280:	aa1303e1 	mov	x1, x19
    4284:	97ffef67 	bl	20 <memcpy>
/home/fangjiang/workspace/optee-os/lib/libmbedtls/mbedtls/library/bignum.c:2255
    4288:	f9400ae4 	ldr	x4, [x23, #16]
mpi_sub_hlp():
/home/fangjiang/workspace/optee-os/lib/libmbedtls/mbedtls/library/bignum.c:1496
    428c:	52800002 	mov	w2, #0x0                   	// #0
mpi_montmul():
/home/fangjiang/workspace/optee-os/lib/libmbedtls/mbedtls/library/bignum.c:2254
    4290:	b8746a60 	ldr	w0, [x19, x20]
    4294:	11000400 	add	w0, w0, #0x1
    4298:	b8346a60 	str	w0, [x19, x20]
mpi_sub_hlp():
/home/fangjiang/workspace/optee-os/lib/libmbedtls/mbedtls/library/bignum.c:1498
    429c:	d2800000 	mov	x0, #0x0                   	// #0
    42a0:	eb0002bf 	cmp	x21, x0
    42a4:	54000401 	b.ne	4324 <mpi_montmul+0x11c>  // b.any
mpi_montmul():
/home/fangjiang/workspace/optee-os/lib/libmbedtls/mbedtls/library/bignum.c:2255
    42a8:	b8746a63 	ldr	w3, [x19, x20]
/home/fangjiang/workspace/optee-os/lib/libmbedtls/mbedtls/library/bignum.c:2262
    42ac:	aa1503e0 	mov	x0, x21
    42b0:	f9400ac1 	ldr	x1, [x22, #16]
/home/fangjiang/workspace/optee-os/lib/libmbedtls/mbedtls/library/bignum.c:2255
    42b4:	4b020063 	sub	w3, w3, w2
    42b8:	b8346a63 	str	w3, [x19, x20]
/home/fangjiang/workspace/optee-os/lib/libmbedtls/mbedtls/library/bignum.c:2262
    42bc:	aa1303e2 	mov	x2, x19
/home/fangjiang/workspace/optee-os/lib/libmbedtls/mbedtls/library/bignum.c:2263
    42c0:	a94153f3 	ldp	x19, x20, [sp, #16]
    42c4:	a9425bf5 	ldp	x21, x22, [sp, #32]
    42c8:	a94363f7 	ldp	x23, x24, [sp, #48]
    42cc:	f94023f9 	ldr	x25, [sp, #64]
    42d0:	a8c57bfd 	ldp	x29, x30, [sp], #80
/home/fangjiang/workspace/optee-os/lib/libmbedtls/mbedtls/library/bignum.c:2262
    42d4:	17fffea2 	b	3d5c <mpi_safe_cond_assign>
/home/fangjiang/workspace/optee-os/lib/libmbedtls/mbedtls/library/bignum.c:2236 (discriminator 3)
    42d8:	f9400b21 	ldr	x1, [x25, #16]
/home/fangjiang/workspace/optee-os/lib/libmbedtls/mbedtls/library/bignum.c:2238 (discriminator 3)
    42dc:	aa0a03e2 	mov	x2, x10
/home/fangjiang/workspace/optee-os/lib/libmbedtls/mbedtls/library/bignum.c:2235 (discriminator 3)
    42e0:	b86c780e 	ldr	w14, [x0, x12, lsl #2]
/home/fangjiang/workspace/optee-os/lib/libmbedtls/mbedtls/library/bignum.c:2230 (discriminator 3)
    42e4:	9100058c 	add	x12, x12, #0x1
/home/fangjiang/workspace/optee-os/lib/libmbedtls/mbedtls/library/bignum.c:2236 (discriminator 3)
    42e8:	b9400140 	ldr	w0, [x10]
    42ec:	b940002b 	ldr	w11, [x1]
/home/fangjiang/workspace/optee-os/lib/libmbedtls/mbedtls/library/bignum.c:2238 (discriminator 3)
    42f0:	2a0e03e3 	mov	w3, w14
/home/fangjiang/workspace/optee-os/lib/libmbedtls/mbedtls/library/bignum.c:2236 (discriminator 3)
    42f4:	1b0b01cb 	madd	w11, w14, w11, w0
/home/fangjiang/workspace/optee-os/lib/libmbedtls/mbedtls/library/bignum.c:2238 (discriminator 3)
    42f8:	aa0d03e0 	mov	x0, x13
    42fc:	97fffec0 	bl	3dfc <mpi_mul_hlp>
/home/fangjiang/workspace/optee-os/lib/libmbedtls/mbedtls/library/bignum.c:2239 (discriminator 3)
    4300:	f9400ae1 	ldr	x1, [x23, #16]
    4304:	aa0a03e2 	mov	x2, x10
/home/fangjiang/workspace/optee-os/lib/libmbedtls/mbedtls/library/bignum.c:2236 (discriminator 3)
    4308:	1b187d6b 	mul	w11, w11, w24
/home/fangjiang/workspace/optee-os/lib/libmbedtls/mbedtls/library/bignum.c:2239 (discriminator 3)
    430c:	aa1503e0 	mov	x0, x21
    4310:	2a0b03e3 	mov	w3, w11
    4314:	97fffeba 	bl	3dfc <mpi_mul_hlp>
/home/fangjiang/workspace/optee-os/lib/libmbedtls/mbedtls/library/bignum.c:2241 (discriminator 3)
    4318:	b800454e 	str	w14, [x10], #4
    431c:	b834695f 	str	wzr, [x10, x20]
/home/fangjiang/workspace/optee-os/lib/libmbedtls/mbedtls/library/bignum.c:2230 (discriminator 3)
    4320:	17ffffd2 	b	4268 <mpi_montmul+0x60>
mpi_sub_hlp():
/home/fangjiang/workspace/optee-os/lib/libmbedtls/mbedtls/library/bignum.c:1500
    4324:	b8607a61 	ldr	w1, [x19, x0, lsl #2]
/home/fangjiang/workspace/optee-os/lib/libmbedtls/mbedtls/library/bignum.c:1501
    4328:	b8607883 	ldr	w3, [x4, x0, lsl #2]
/home/fangjiang/workspace/optee-os/lib/libmbedtls/mbedtls/library/bignum.c:1500
    432c:	6b02003f 	cmp	w1, w2
    4330:	4b020021 	sub	w1, w1, w2
    4334:	1a9f27e5 	cset	w5, cc  // cc = lo, ul, last
/home/fangjiang/workspace/optee-os/lib/libmbedtls/mbedtls/library/bignum.c:1501
    4338:	6b03003f 	cmp	w1, w3
    433c:	1a8524a2 	cinc	w2, w5, cc  // cc = lo, ul, last
    4340:	4b030021 	sub	w1, w1, w3
    4344:	b8207a61 	str	w1, [x19, x0, lsl #2]
/home/fangjiang/workspace/optee-os/lib/libmbedtls/mbedtls/library/bignum.c:1498
    4348:	91000400 	add	x0, x0, #0x1
    434c:	17ffffd5 	b	42a0 <mpi_montmul+0x98>

0000000000004350 <mpi_montred>:
mpi_montred():
/home/fangjiang/workspace/optee-os/lib/libmbedtls/mbedtls/library/bignum.c:2278
    4350:	d10143ff 	sub	sp, sp, #0x50
    4354:	a9037bfd 	stp	x29, x30, [sp, #48]
    4358:	9100c3fd 	add	x29, sp, #0x30
    435c:	f90023f3 	str	x19, [sp, #64]
    4360:	d0000053 	adrp	x19, e000 <_DYNAMIC>
    4364:	f9409a64 	ldr	x4, [x19, #304]
    4368:	f9400085 	ldr	x5, [x4]
    436c:	f90017e5 	str	x5, [sp, #40]
    4370:	d2800005 	mov	x5, #0x0                   	// #0
/home/fangjiang/workspace/optee-os/lib/libmbedtls/mbedtls/library/bignum.c:2282
    4374:	d2800024 	mov	x4, #0x1                   	// #1
/home/fangjiang/workspace/optee-os/lib/libmbedtls/mbedtls/library/bignum.c:2279
    4378:	52800025 	mov	w5, #0x1                   	// #1
/home/fangjiang/workspace/optee-os/lib/libmbedtls/mbedtls/library/bignum.c:2282
    437c:	f9000fe4 	str	x4, [sp, #24]
/home/fangjiang/workspace/optee-os/lib/libmbedtls/mbedtls/library/bignum.c:2283
    4380:	910033e4 	add	x4, sp, #0xc
/home/fangjiang/workspace/optee-os/lib/libmbedtls/mbedtls/library/bignum.c:2279
    4384:	b9000fe5 	str	w5, [sp, #12]
/home/fangjiang/workspace/optee-os/lib/libmbedtls/mbedtls/library/bignum.c:2282
    4388:	790023e5 	strh	w5, [sp, #16]
/home/fangjiang/workspace/optee-os/lib/libmbedtls/mbedtls/library/bignum.c:2283
    438c:	f90013e4 	str	x4, [sp, #32]
/home/fangjiang/workspace/optee-os/lib/libmbedtls/mbedtls/library/bignum.c:2285
    4390:	aa0303e4 	mov	x4, x3
    4394:	2a0203e3 	mov	w3, w2
    4398:	aa0103e2 	mov	x2, x1
    439c:	910043e1 	add	x1, sp, #0x10
    43a0:	97ffff9a 	bl	4208 <mpi_montmul>
/home/fangjiang/workspace/optee-os/lib/libmbedtls/mbedtls/library/bignum.c:2286
    43a4:	f9409a73 	ldr	x19, [x19, #304]
    43a8:	f94017e0 	ldr	x0, [sp, #40]
    43ac:	f9400261 	ldr	x1, [x19]
    43b0:	eb010000 	subs	x0, x0, x1
    43b4:	d2800001 	mov	x1, #0x0                   	// #0
    43b8:	54000040 	b.eq	43c0 <mpi_montred+0x70>  // b.none
    43bc:	940012e1 	bl	8f40 <__stack_chk_fail>
    43c0:	a9437bfd 	ldp	x29, x30, [sp, #48]
    43c4:	f94023f3 	ldr	x19, [sp, #64]
    43c8:	910143ff 	add	sp, sp, #0x50
    43cc:	d65f03c0 	ret

00000000000043d0 <mpi_montg_init.isra.0>:
mpi_montg_init():
/home/fangjiang/workspace/optee-os/lib/libmbedtls/mbedtls/library/bignum.c:2179
    43d0:	b9400023 	ldr	w3, [x1]
/home/fangjiang/workspace/optee-os/lib/libmbedtls/mbedtls/library/bignum.c:2183
    43d4:	52800062 	mov	w2, #0x3                   	// #3
/home/fangjiang/workspace/optee-os/lib/libmbedtls/mbedtls/library/bignum.c:2186
    43d8:	52800045 	mov	w5, #0x2                   	// #2
/home/fangjiang/workspace/optee-os/lib/libmbedtls/mbedtls/library/bignum.c:2183
    43dc:	11000861 	add	w1, w3, #0x2
    43e0:	531f7821 	lsl	w1, w1, #1
    43e4:	121d0021 	and	w1, w1, #0x8
    43e8:	0b030021 	add	w1, w1, w3
/home/fangjiang/workspace/optee-os/lib/libmbedtls/mbedtls/library/bignum.c:2186
    43ec:	1b019464 	msub	w4, w3, w1, w5
/home/fangjiang/workspace/optee-os/lib/libmbedtls/mbedtls/library/bignum.c:2185
    43f0:	71000442 	subs	w2, w2, #0x1
/home/fangjiang/workspace/optee-os/lib/libmbedtls/mbedtls/library/bignum.c:2186
    43f4:	1b047c21 	mul	w1, w1, w4
/home/fangjiang/workspace/optee-os/lib/libmbedtls/mbedtls/library/bignum.c:2185
    43f8:	54ffffa1 	b.ne	43ec <mpi_montg_init.isra.0+0x1c>  // b.any
/home/fangjiang/workspace/optee-os/lib/libmbedtls/mbedtls/library/bignum.c:2188
    43fc:	4b0103e1 	neg	w1, w1
    4400:	b9000001 	str	w1, [x0]
/home/fangjiang/workspace/optee-os/lib/libmbedtls/mbedtls/library/bignum.c:2189
    4404:	d65f03c0 	ret

0000000000004408 <mpi_bigendian_to_host.part.0>:
mpi_bigendian_to_host():
/home/fangjiang/workspace/optee-os/lib/libmbedtls/mbedtls/library/bignum.c:958
    4408:	d10083ff 	sub	sp, sp, #0x20
    440c:	d0000042 	adrp	x2, e000 <_DYNAMIC>
/home/fangjiang/workspace/optee-os/lib/libmbedtls/mbedtls/library/bignum.c:974
    4410:	8b010801 	add	x1, x0, x1, lsl #2
mpi_uint_bigendian_to_host_c():
/home/fangjiang/workspace/optee-os/lib/libmbedtls/mbedtls/library/bignum.c:909
    4414:	910013e5 	add	x5, sp, #0x4
mpi_bigendian_to_host():
/home/fangjiang/workspace/optee-os/lib/libmbedtls/mbedtls/library/bignum.c:974
    4418:	d1001021 	sub	x1, x1, #0x4
/home/fangjiang/workspace/optee-os/lib/libmbedtls/mbedtls/library/bignum.c:958
    441c:	a9017bfd 	stp	x29, x30, [sp, #16]
    4420:	910043fd 	add	x29, sp, #0x10
    4424:	f9409842 	ldr	x2, [x2, #304]
    4428:	f9400043 	ldr	x3, [x2]
    442c:	f90007e3 	str	x3, [sp, #8]
    4430:	d2800003 	mov	x3, #0x0                   	// #0
/home/fangjiang/workspace/optee-os/lib/libmbedtls/mbedtls/library/bignum.c:975
    4434:	eb01001f 	cmp	x0, x1
    4438:	54000129 	b.ls	445c <mpi_bigendian_to_host.part.0+0x54>  // b.plast
/home/fangjiang/workspace/optee-os/lib/libmbedtls/mbedtls/library/bignum.c:985
    443c:	d0000042 	adrp	x2, e000 <_DYNAMIC>
    4440:	f9409842 	ldr	x2, [x2, #304]
    4444:	f94007e0 	ldr	x0, [sp, #8]
    4448:	f9400041 	ldr	x1, [x2]
    444c:	eb010000 	subs	x0, x0, x1
    4450:	d2800001 	mov	x1, #0x0                   	// #0
    4454:	540002e0 	b.eq	44b0 <mpi_bigendian_to_host.part.0+0xa8>  // b.none
    4458:	940012ba 	bl	8f40 <__stack_chk_fail>
mpi_uint_bigendian_to_host():
/home/fangjiang/workspace/optee-os/lib/libmbedtls/mbedtls/library/bignum.c:955
    445c:	b9400002 	ldr	w2, [x0]
mpi_uint_bigendian_to_host_c():
/home/fangjiang/workspace/optee-os/lib/libmbedtls/mbedtls/library/bignum.c:904
    4460:	52800003 	mov	w3, #0x0                   	// #0
    4464:	b90007e2 	str	w2, [sp, #4]
mpi_bigendian_to_host():
/home/fangjiang/workspace/optee-os/lib/libmbedtls/mbedtls/library/bignum.c:981
    4468:	d2800002 	mov	x2, #0x0                   	// #0
mpi_uint_bigendian_to_host_c():
/home/fangjiang/workspace/optee-os/lib/libmbedtls/mbedtls/library/bignum.c:909
    446c:	38656844 	ldrb	w4, [x2, x5]
/home/fangjiang/workspace/optee-os/lib/libmbedtls/mbedtls/library/bignum.c:906
    4470:	91000442 	add	x2, x2, #0x1
/home/fangjiang/workspace/optee-os/lib/libmbedtls/mbedtls/library/bignum.c:909
    4474:	2a032083 	orr	w3, w4, w3, lsl #8
/home/fangjiang/workspace/optee-os/lib/libmbedtls/mbedtls/library/bignum.c:906
    4478:	f100105f 	cmp	x2, #0x4
    447c:	54ffff81 	b.ne	446c <mpi_bigendian_to_host.part.0+0x64>  // b.any
mpi_uint_bigendian_to_host():
/home/fangjiang/workspace/optee-os/lib/libmbedtls/mbedtls/library/bignum.c:955
    4480:	b9400022 	ldr	w2, [x1]
mpi_uint_bigendian_to_host_c():
/home/fangjiang/workspace/optee-os/lib/libmbedtls/mbedtls/library/bignum.c:904
    4484:	52800004 	mov	w4, #0x0                   	// #0
    4488:	b90007e2 	str	w2, [sp, #4]
mpi_bigendian_to_host():
/home/fangjiang/workspace/optee-os/lib/libmbedtls/mbedtls/library/bignum.c:982
    448c:	d2800002 	mov	x2, #0x0                   	// #0
mpi_uint_bigendian_to_host_c():
/home/fangjiang/workspace/optee-os/lib/libmbedtls/mbedtls/library/bignum.c:909
    4490:	386268a6 	ldrb	w6, [x5, x2]
/home/fangjiang/workspace/optee-os/lib/libmbedtls/mbedtls/library/bignum.c:906
    4494:	91000442 	add	x2, x2, #0x1
/home/fangjiang/workspace/optee-os/lib/libmbedtls/mbedtls/library/bignum.c:909
    4498:	2a0420c4 	orr	w4, w6, w4, lsl #8
/home/fangjiang/workspace/optee-os/lib/libmbedtls/mbedtls/library/bignum.c:906
    449c:	f100105f 	cmp	x2, #0x4
    44a0:	54ffff81 	b.ne	4490 <mpi_bigendian_to_host.part.0+0x88>  // b.any
mpi_bigendian_to_host():
/home/fangjiang/workspace/optee-os/lib/libmbedtls/mbedtls/library/bignum.c:982
    44a4:	b8004404 	str	w4, [x0], #4
/home/fangjiang/workspace/optee-os/lib/libmbedtls/mbedtls/library/bignum.c:983
    44a8:	b81fc423 	str	w3, [x1], #-4
/home/fangjiang/workspace/optee-os/lib/libmbedtls/mbedtls/library/bignum.c:976
    44ac:	17ffffe2 	b	4434 <mpi_bigendian_to_host.part.0+0x2c>
/home/fangjiang/workspace/optee-os/lib/libmbedtls/mbedtls/library/bignum.c:985
    44b0:	a9417bfd 	ldp	x29, x30, [sp, #16]
    44b4:	910083ff 	add	sp, sp, #0x20
    44b8:	d65f03c0 	ret

00000000000044bc <mpi_fill_random_internal>:
mpi_fill_random_internal():
/home/fangjiang/workspace/optee-os/lib/libmbedtls/mbedtls/library/bignum.c:2733
    44bc:	a9bb7bfd 	stp	x29, x30, [sp, #-80]!
/home/fangjiang/workspace/optee-os/lib/libmbedtls/mbedtls/library/bignum.c:2735
    44c0:	f240043f 	tst	x1, #0x3
/home/fangjiang/workspace/optee-os/lib/libmbedtls/mbedtls/library/bignum.c:2733
    44c4:	910003fd 	mov	x29, sp
    44c8:	a90153f3 	stp	x19, x20, [sp, #16]
/home/fangjiang/workspace/optee-os/lib/libmbedtls/mbedtls/library/bignum.c:2735
    44cc:	d342fc34 	lsr	x20, x1, #2
/home/fangjiang/workspace/optee-os/lib/libmbedtls/mbedtls/library/bignum.c:2733
    44d0:	aa0003f3 	mov	x19, x0
/home/fangjiang/workspace/optee-os/lib/libmbedtls/mbedtls/library/bignum.c:2735
    44d4:	9a940694 	cinc	x20, x20, ne  // ne = any
/home/fangjiang/workspace/optee-os/lib/libmbedtls/mbedtls/library/bignum.c:2733
    44d8:	a9025bf5 	stp	x21, x22, [sp, #32]
/home/fangjiang/workspace/optee-os/lib/libmbedtls/mbedtls/library/bignum.c:2738
    44dc:	f9400400 	ldr	x0, [x0, #8]
/home/fangjiang/workspace/optee-os/lib/libmbedtls/mbedtls/library/bignum.c:2733
    44e0:	a90363f7 	stp	x23, x24, [sp, #48]
    44e4:	f90023f9 	str	x25, [sp, #64]
/home/fangjiang/workspace/optee-os/lib/libmbedtls/mbedtls/library/bignum.c:2736
    44e8:	d37ef699 	lsl	x25, x20, #2
    44ec:	cb010338 	sub	x24, x25, x1
/home/fangjiang/workspace/optee-os/lib/libmbedtls/mbedtls/library/bignum.c:2738
    44f0:	eb14001f 	cmp	x0, x20
    44f4:	54000403 	b.cc	4574 <mpi_fill_random_internal+0xb8>  // b.lo, b.ul, b.last
/home/fangjiang/workspace/optee-os/lib/libmbedtls/mbedtls/library/bignum.c:2741
    44f8:	f9400a60 	ldr	x0, [x19, #16]
    44fc:	aa0303f7 	mov	x23, x3
    4500:	aa0103f5 	mov	x21, x1
    4504:	aa0203f6 	mov	x22, x2
    4508:	52800001 	mov	w1, #0x0                   	// #0
    450c:	aa1803e2 	mov	x2, x24
    4510:	940012a4 	bl	8fa0 <memset>
/home/fangjiang/workspace/optee-os/lib/libmbedtls/mbedtls/library/bignum.c:2742
    4514:	a9408262 	ldp	x2, x0, [x19, #8]
    4518:	52800001 	mov	w1, #0x0                   	// #0
    451c:	cb140042 	sub	x2, x2, x20
    4520:	8b190000 	add	x0, x0, x25
    4524:	d37ef442 	lsl	x2, x2, #2
    4528:	9400129e 	bl	8fa0 <memset>
/home/fangjiang/workspace/optee-os/lib/libmbedtls/mbedtls/library/bignum.c:2743
    452c:	f9400a61 	ldr	x1, [x19, #16]
    4530:	aa1503e2 	mov	x2, x21
    4534:	aa1703e0 	mov	x0, x23
    4538:	8b180021 	add	x1, x1, x24
    453c:	d63f02c0 	blr	x22
    4540:	2a0003f5 	mov	w21, w0
    4544:	350000a0 	cbnz	w0, 4558 <mpi_fill_random_internal+0x9c>
mpi_bigendian_to_host():
/home/fangjiang/workspace/optee-os/lib/libmbedtls/mbedtls/library/bignum.c:962 (discriminator 2)
    4548:	b4000094 	cbz	x20, 4558 <mpi_fill_random_internal+0x9c>
    454c:	f9400a60 	ldr	x0, [x19, #16]
    4550:	aa1403e1 	mov	x1, x20
    4554:	97ffffad 	bl	4408 <mpi_bigendian_to_host.part.0>
mpi_fill_random_internal():
/home/fangjiang/workspace/optee-os/lib/libmbedtls/mbedtls/library/bignum.c:2748
    4558:	2a1503e0 	mov	w0, w21
    455c:	a94153f3 	ldp	x19, x20, [sp, #16]
    4560:	a9425bf5 	ldp	x21, x22, [sp, #32]
    4564:	a94363f7 	ldp	x23, x24, [sp, #48]
    4568:	f94023f9 	ldr	x25, [sp, #64]
    456c:	a8c57bfd 	ldp	x29, x30, [sp], #80
    4570:	d65f03c0 	ret
/home/fangjiang/workspace/optee-os/lib/libmbedtls/mbedtls/library/bignum.c:2739
    4574:	12800075 	mov	w21, #0xfffffffc            	// #-4
    4578:	17fffff8 	b	4558 <mpi_fill_random_internal+0x9c>

000000000000457c <mbedtls_mpi_init>:
mpi_init():
/home/fangjiang/workspace/optee-os/lib/libmbedtls/mbedtls/library/bignum.c:93
    457c:	52800021 	mov	w1, #0x1                   	// #1
    4580:	b9000001 	str	w1, [x0]
/home/fangjiang/workspace/optee-os/lib/libmbedtls/mbedtls/library/bignum.c:96
    4584:	a900fc1f 	stp	xzr, xzr, [x0, #8]
mbedtls_mpi_init():
/home/fangjiang/workspace/optee-os/lib/libmbedtls/mbedtls/library/bignum.c:102
    4588:	d65f03c0 	ret

000000000000458c <mbedtls_mpi_init_mempool>:
mbedtls_mpi_init_mempool():
/home/fangjiang/workspace/optee-os/lib/libmbedtls/mbedtls/library/bignum.c:106
    458c:	d0000041 	adrp	x1, e000 <_DYNAMIC>
mpi_init():
/home/fangjiang/workspace/optee-os/lib/libmbedtls/mbedtls/library/bignum.c:93
    4590:	52800022 	mov	w2, #0x1                   	// #1
/home/fangjiang/workspace/optee-os/lib/libmbedtls/mbedtls/library/bignum.c:96
    4594:	a900fc1f 	stp	xzr, xzr, [x0, #8]
mbedtls_mpi_init_mempool():
/home/fangjiang/workspace/optee-os/lib/libmbedtls/mbedtls/library/bignum.c:106
    4598:	f940cc21 	ldr	x1, [x1, #408]
    459c:	f9400021 	ldr	x1, [x1]
mpi_init():
/home/fangjiang/workspace/optee-os/lib/libmbedtls/mbedtls/library/bignum.c:93
    45a0:	79000002 	strh	w2, [x0]
mbedtls_mpi_init_mempool():
/home/fangjiang/workspace/optee-os/lib/libmbedtls/mbedtls/library/bignum.c:106
    45a4:	f100003f 	cmp	x1, #0x0
    45a8:	1a9f07e1 	cset	w1, ne  // ne = any
mpi_init():
/home/fangjiang/workspace/optee-os/lib/libmbedtls/mbedtls/library/bignum.c:94
    45ac:	79000401 	strh	w1, [x0, #2]
mbedtls_mpi_init_mempool():
/home/fangjiang/workspace/optee-os/lib/libmbedtls/mbedtls/library/bignum.c:107
    45b0:	d65f03c0 	ret

00000000000045b4 <mbedtls_mpi_free>:
mbedtls_mpi_free():
/home/fangjiang/workspace/optee-os/lib/libmbedtls/mbedtls/library/bignum.c:114
    45b4:	b4000340 	cbz	x0, 461c <mbedtls_mpi_free+0x68>
/home/fangjiang/workspace/optee-os/lib/libmbedtls/mbedtls/library/bignum.c:113
    45b8:	a9be7bfd 	stp	x29, x30, [sp, #-32]!
    45bc:	910003fd 	mov	x29, sp
    45c0:	f9000bf3 	str	x19, [sp, #16]
    45c4:	aa0003f3 	mov	x19, x0
/home/fangjiang/workspace/optee-os/lib/libmbedtls/mbedtls/library/bignum.c:117
    45c8:	f9400800 	ldr	x0, [x0, #16]
    45cc:	b4000160 	cbz	x0, 45f8 <mbedtls_mpi_free+0x44>
mbedtls_mpi_zeroize():
/home/fangjiang/workspace/optee-os/lib/libmbedtls/mbedtls/library/bignum.c:83
    45d0:	f9400661 	ldr	x1, [x19, #8]
    45d4:	d37ef421 	lsl	x1, x1, #2
    45d8:	94000f14 	bl	8228 <mbedtls_platform_zeroize>
mbedtls_mpi_free():
/home/fangjiang/workspace/optee-os/lib/libmbedtls/mbedtls/library/bignum.c:120
    45dc:	79c00660 	ldrsh	w0, [x19, #2]
    45e0:	34000180 	cbz	w0, 4610 <mbedtls_mpi_free+0x5c>
/home/fangjiang/workspace/optee-os/lib/libmbedtls/mbedtls/library/bignum.c:121
    45e4:	d0000040 	adrp	x0, e000 <_DYNAMIC>
    45e8:	f9400a61 	ldr	x1, [x19, #16]
    45ec:	f940cc00 	ldr	x0, [x0, #408]
    45f0:	f9400000 	ldr	x0, [x0]
    45f4:	9400172b 	bl	a2a0 <mempool_free>
/home/fangjiang/workspace/optee-os/lib/libmbedtls/mbedtls/library/bignum.c:126
    45f8:	52800020 	mov	w0, #0x1                   	// #1
    45fc:	79000260 	strh	w0, [x19]
/home/fangjiang/workspace/optee-os/lib/libmbedtls/mbedtls/library/bignum.c:128
    4600:	a900fe7f 	stp	xzr, xzr, [x19, #8]
/home/fangjiang/workspace/optee-os/lib/libmbedtls/mbedtls/library/bignum.c:129
    4604:	f9400bf3 	ldr	x19, [sp, #16]
    4608:	a8c27bfd 	ldp	x29, x30, [sp], #32
    460c:	d65f03c0 	ret
/home/fangjiang/workspace/optee-os/lib/libmbedtls/mbedtls/library/bignum.c:123
    4610:	f9400a60 	ldr	x0, [x19, #16]
    4614:	94001171 	bl	8bd8 <free>
    4618:	17fffff8 	b	45f8 <mbedtls_mpi_free+0x44>
    461c:	d65f03c0 	ret

0000000000004620 <mbedtls_mpi_grow>:
mbedtls_mpi_grow():
/home/fangjiang/workspace/optee-os/lib/libmbedtls/mbedtls/library/bignum.c:135
    4620:	a9bd7bfd 	stp	x29, x30, [sp, #-48]!
    4624:	910003fd 	mov	x29, sp
    4628:	a90153f3 	stp	x19, x20, [sp, #16]
    462c:	aa0003f3 	mov	x19, x0
/home/fangjiang/workspace/optee-os/lib/libmbedtls/mbedtls/library/bignum.c:139
    4630:	d284e200 	mov	x0, #0x2710                	// #10000
/home/fangjiang/workspace/optee-os/lib/libmbedtls/mbedtls/library/bignum.c:135
    4634:	a9025bf5 	stp	x21, x22, [sp, #32]
/home/fangjiang/workspace/optee-os/lib/libmbedtls/mbedtls/library/bignum.c:139
    4638:	eb00003f 	cmp	x1, x0
    463c:	540000c9 	b.ls	4654 <mbedtls_mpi_grow+0x34>  // b.plast
/home/fangjiang/workspace/optee-os/lib/libmbedtls/mbedtls/library/bignum.c:140
    4640:	128001e0 	mov	w0, #0xfffffff0            	// #-16
/home/fangjiang/workspace/optee-os/lib/libmbedtls/mbedtls/library/bignum.c:173
    4644:	a94153f3 	ldp	x19, x20, [sp, #16]
    4648:	a9425bf5 	ldp	x21, x22, [sp, #32]
    464c:	a8c37bfd 	ldp	x29, x30, [sp], #48
    4650:	d65f03c0 	ret
/home/fangjiang/workspace/optee-os/lib/libmbedtls/mbedtls/library/bignum.c:142
    4654:	f9400660 	ldr	x0, [x19, #8]
    4658:	aa0103f5 	mov	x21, x1
    465c:	eb01001f 	cmp	x0, x1
    4660:	540003e2 	b.cs	46dc <mbedtls_mpi_grow+0xbc>  // b.hs, b.nlast
/home/fangjiang/workspace/optee-os/lib/libmbedtls/mbedtls/library/bignum.c:144
    4664:	79c00660 	ldrsh	w0, [x19, #2]
    4668:	340003e0 	cbz	w0, 46e4 <mbedtls_mpi_grow+0xc4>
/home/fangjiang/workspace/optee-os/lib/libmbedtls/mbedtls/library/bignum.c:146
    466c:	d0000040 	adrp	x0, e000 <_DYNAMIC>
    4670:	d37ef436 	lsl	x22, x1, #2
    4674:	aa1603e1 	mov	x1, x22
    4678:	f940cc00 	ldr	x0, [x0, #408]
    467c:	f9400000 	ldr	x0, [x0]
    4680:	940016db 	bl	a1ec <mempool_alloc>
    4684:	aa0003f4 	mov	x20, x0
/home/fangjiang/workspace/optee-os/lib/libmbedtls/mbedtls/library/bignum.c:147
    4688:	b4fffdc0 	cbz	x0, 4640 <mbedtls_mpi_grow+0x20>
/home/fangjiang/workspace/optee-os/lib/libmbedtls/mbedtls/library/bignum.c:149
    468c:	aa1603e2 	mov	x2, x22
    4690:	52800001 	mov	w1, #0x0                   	// #0
    4694:	94001243 	bl	8fa0 <memset>
/home/fangjiang/workspace/optee-os/lib/libmbedtls/mbedtls/library/bignum.c:158
    4698:	f9400a61 	ldr	x1, [x19, #16]
    469c:	b40001e1 	cbz	x1, 46d8 <mbedtls_mpi_grow+0xb8>
/home/fangjiang/workspace/optee-os/lib/libmbedtls/mbedtls/library/bignum.c:160
    46a0:	f9400662 	ldr	x2, [x19, #8]
    46a4:	aa1403e0 	mov	x0, x20
    46a8:	d37ef442 	lsl	x2, x2, #2
    46ac:	97ffee5d 	bl	20 <memcpy>
mbedtls_mpi_zeroize():
/home/fangjiang/workspace/optee-os/lib/libmbedtls/mbedtls/library/bignum.c:83
    46b0:	a9408261 	ldp	x1, x0, [x19, #8]
    46b4:	d37ef421 	lsl	x1, x1, #2
    46b8:	94000edc 	bl	8228 <mbedtls_platform_zeroize>
mbedtls_mpi_grow():
/home/fangjiang/workspace/optee-os/lib/libmbedtls/mbedtls/library/bignum.c:162
    46bc:	79c00660 	ldrsh	w0, [x19, #2]
    46c0:	340001e0 	cbz	w0, 46fc <mbedtls_mpi_grow+0xdc>
/home/fangjiang/workspace/optee-os/lib/libmbedtls/mbedtls/library/bignum.c:163
    46c4:	d0000040 	adrp	x0, e000 <_DYNAMIC>
    46c8:	f9400a61 	ldr	x1, [x19, #16]
    46cc:	f940cc00 	ldr	x0, [x0, #408]
    46d0:	f9400000 	ldr	x0, [x0]
    46d4:	940016f3 	bl	a2a0 <mempool_free>
/home/fangjiang/workspace/optee-os/lib/libmbedtls/mbedtls/library/bignum.c:169
    46d8:	a900d275 	stp	x21, x20, [x19, #8]
/home/fangjiang/workspace/optee-os/lib/libmbedtls/mbedtls/library/bignum.c:172
    46dc:	52800000 	mov	w0, #0x0                   	// #0
    46e0:	17ffffd9 	b	4644 <mbedtls_mpi_grow+0x24>
/home/fangjiang/workspace/optee-os/lib/libmbedtls/mbedtls/library/bignum.c:153
    46e4:	aa1503e0 	mov	x0, x21
    46e8:	d2800081 	mov	x1, #0x4                   	// #4
    46ec:	94001127 	bl	8b88 <calloc>
    46f0:	aa0003f4 	mov	x20, x0
/home/fangjiang/workspace/optee-os/lib/libmbedtls/mbedtls/library/bignum.c:154
    46f4:	b5fffd20 	cbnz	x0, 4698 <mbedtls_mpi_grow+0x78>
    46f8:	17ffffd2 	b	4640 <mbedtls_mpi_grow+0x20>
/home/fangjiang/workspace/optee-os/lib/libmbedtls/mbedtls/library/bignum.c:165
    46fc:	f9400a60 	ldr	x0, [x19, #16]
    4700:	94001136 	bl	8bd8 <free>
    4704:	17fffff5 	b	46d8 <mbedtls_mpi_grow+0xb8>

0000000000004708 <mbedtls_mpi_resize_clear>:
mbedtls_mpi_resize_clear():
/home/fangjiang/workspace/optee-os/lib/libmbedtls/mbedtls/library/bignum.c:233
    4708:	a9be7bfd 	stp	x29, x30, [sp, #-32]!
    470c:	910003fd 	mov	x29, sp
    4710:	a90153f3 	stp	x19, x20, [sp, #16]
/home/fangjiang/workspace/optee-os/lib/libmbedtls/mbedtls/library/bignum.c:234
    4714:	b50000c1 	cbnz	x1, 472c <mbedtls_mpi_resize_clear+0x24>
/home/fangjiang/workspace/optee-os/lib/libmbedtls/mbedtls/library/bignum.c:236
    4718:	97ffffa7 	bl	45b4 <mbedtls_mpi_free>
/home/fangjiang/workspace/optee-os/lib/libmbedtls/mbedtls/library/bignum.c:250
    471c:	52800000 	mov	w0, #0x0                   	// #0
    4720:	a94153f3 	ldp	x19, x20, [sp, #16]
    4724:	a8c27bfd 	ldp	x29, x30, [sp], #32
    4728:	d65f03c0 	ret
/home/fangjiang/workspace/optee-os/lib/libmbedtls/mbedtls/library/bignum.c:239
    472c:	f9400402 	ldr	x2, [x0, #8]
    4730:	aa0003f3 	mov	x19, x0
    4734:	aa0103f4 	mov	x20, x1
    4738:	eb01005f 	cmp	x2, x1
    473c:	54000101 	b.ne	475c <mbedtls_mpi_resize_clear+0x54>  // b.any
/home/fangjiang/workspace/optee-os/lib/libmbedtls/mbedtls/library/bignum.c:241
    4740:	f9400800 	ldr	x0, [x0, #16]
    4744:	d37ef442 	lsl	x2, x2, #2
    4748:	52800001 	mov	w1, #0x0                   	// #0
    474c:	94001215 	bl	8fa0 <memset>
/home/fangjiang/workspace/optee-os/lib/libmbedtls/mbedtls/library/bignum.c:242
    4750:	52800020 	mov	w0, #0x1                   	// #1
    4754:	79000260 	strh	w0, [x19]
/home/fangjiang/workspace/optee-os/lib/libmbedtls/mbedtls/library/bignum.c:243
    4758:	17fffff1 	b	471c <mbedtls_mpi_resize_clear+0x14>
/home/fangjiang/workspace/optee-os/lib/libmbedtls/mbedtls/library/bignum.c:247
    475c:	97ffff96 	bl	45b4 <mbedtls_mpi_free>
/home/fangjiang/workspace/optee-os/lib/libmbedtls/mbedtls/library/bignum.c:248
    4760:	aa1403e1 	mov	x1, x20
    4764:	aa1303e0 	mov	x0, x19
/home/fangjiang/workspace/optee-os/lib/libmbedtls/mbedtls/library/bignum.c:250
    4768:	a94153f3 	ldp	x19, x20, [sp, #16]
    476c:	a8c27bfd 	ldp	x29, x30, [sp], #32
/home/fangjiang/workspace/optee-os/lib/libmbedtls/mbedtls/library/bignum.c:248
    4770:	17ffffac 	b	4620 <mbedtls_mpi_grow>

0000000000004774 <mbedtls_mpi_shrink>:
mbedtls_mpi_shrink():
/home/fangjiang/workspace/optee-os/lib/libmbedtls/mbedtls/library/bignum.c:185
    4774:	d284e202 	mov	x2, #0x2710                	// #10000
    4778:	eb02003f 	cmp	x1, x2
    477c:	54000069 	b.ls	4788 <mbedtls_mpi_shrink+0x14>  // b.plast
/home/fangjiang/workspace/optee-os/lib/libmbedtls/mbedtls/library/bignum.c:186
    4780:	128001e0 	mov	w0, #0xfffffff0            	// #-16
/home/fangjiang/workspace/optee-os/lib/libmbedtls/mbedtls/library/bignum.c:229
    4784:	d65f03c0 	ret
/home/fangjiang/workspace/optee-os/lib/libmbedtls/mbedtls/library/bignum.c:180
    4788:	a9bd7bfd 	stp	x29, x30, [sp, #-48]!
    478c:	aa0103e3 	mov	x3, x1
    4790:	910003fd 	mov	x29, sp
/home/fangjiang/workspace/optee-os/lib/libmbedtls/mbedtls/library/bignum.c:189
    4794:	f9400402 	ldr	x2, [x0, #8]
/home/fangjiang/workspace/optee-os/lib/libmbedtls/mbedtls/library/bignum.c:180
    4798:	a90153f3 	stp	x19, x20, [sp, #16]
    479c:	aa0003f3 	mov	x19, x0
    47a0:	a9025bf5 	stp	x21, x22, [sp, #32]
/home/fangjiang/workspace/optee-os/lib/libmbedtls/mbedtls/library/bignum.c:189
    47a4:	eb01005f 	cmp	x2, x1
    47a8:	54000108 	b.hi	47c8 <mbedtls_mpi_shrink+0x54>  // b.pmore
/home/fangjiang/workspace/optee-os/lib/libmbedtls/mbedtls/library/bignum.c:229
    47ac:	a94153f3 	ldp	x19, x20, [sp, #16]
    47b0:	a9425bf5 	ldp	x21, x22, [sp, #32]
    47b4:	a8c37bfd 	ldp	x29, x30, [sp], #48
/home/fangjiang/workspace/optee-os/lib/libmbedtls/mbedtls/library/bignum.c:190
    47b8:	17ffff9a 	b	4620 <mbedtls_mpi_grow>
/home/fangjiang/workspace/optee-os/lib/libmbedtls/mbedtls/library/bignum.c:194
    47bc:	f9400a60 	ldr	x0, [x19, #16]
    47c0:	b8627800 	ldr	w0, [x0, x2, lsl #2]
    47c4:	35000060 	cbnz	w0, 47d0 <mbedtls_mpi_shrink+0x5c>
/home/fangjiang/workspace/optee-os/lib/libmbedtls/mbedtls/library/bignum.c:193 (discriminator 2)
    47c8:	d1000442 	sub	x2, x2, #0x1
    47cc:	b5ffff82 	cbnz	x2, 47bc <mbedtls_mpi_shrink+0x48>
/home/fangjiang/workspace/optee-os/lib/libmbedtls/mbedtls/library/bignum.c:201
    47d0:	79c00660 	ldrsh	w0, [x19, #2]
/home/fangjiang/workspace/optee-os/lib/libmbedtls/mbedtls/library/bignum.c:196
    47d4:	91000442 	add	x2, x2, #0x1
    47d8:	eb03005f 	cmp	x2, x3
    47dc:	9a832054 	csel	x20, x2, x3, cs  // cs = hs, nlast
/home/fangjiang/workspace/optee-os/lib/libmbedtls/mbedtls/library/bignum.c:201
    47e0:	340003c0 	cbz	w0, 4858 <mbedtls_mpi_shrink+0xe4>
/home/fangjiang/workspace/optee-os/lib/libmbedtls/mbedtls/library/bignum.c:203
    47e4:	d0000040 	adrp	x0, e000 <_DYNAMIC>
    47e8:	d37ef696 	lsl	x22, x20, #2
    47ec:	aa1603e1 	mov	x1, x22
    47f0:	f940cc00 	ldr	x0, [x0, #408]
    47f4:	f9400000 	ldr	x0, [x0]
    47f8:	9400167d 	bl	a1ec <mempool_alloc>
    47fc:	aa0003f5 	mov	x21, x0
/home/fangjiang/workspace/optee-os/lib/libmbedtls/mbedtls/library/bignum.c:204
    4800:	b4000360 	cbz	x0, 486c <mbedtls_mpi_shrink+0xf8>
/home/fangjiang/workspace/optee-os/lib/libmbedtls/mbedtls/library/bignum.c:206
    4804:	aa1603e2 	mov	x2, x22
    4808:	52800001 	mov	w1, #0x0                   	// #0
    480c:	940011e5 	bl	8fa0 <memset>
/home/fangjiang/workspace/optee-os/lib/libmbedtls/mbedtls/library/bignum.c:215
    4810:	f9400a61 	ldr	x1, [x19, #16]
    4814:	b40001c1 	cbz	x1, 484c <mbedtls_mpi_shrink+0xd8>
/home/fangjiang/workspace/optee-os/lib/libmbedtls/mbedtls/library/bignum.c:217
    4818:	d37ef682 	lsl	x2, x20, #2
    481c:	aa1503e0 	mov	x0, x21
    4820:	97ffee00 	bl	20 <memcpy>
mbedtls_mpi_zeroize():
/home/fangjiang/workspace/optee-os/lib/libmbedtls/mbedtls/library/bignum.c:83
    4824:	a9408261 	ldp	x1, x0, [x19, #8]
    4828:	d37ef421 	lsl	x1, x1, #2
    482c:	94000e7f 	bl	8228 <mbedtls_platform_zeroize>
mbedtls_mpi_shrink():
/home/fangjiang/workspace/optee-os/lib/libmbedtls/mbedtls/library/bignum.c:219
    4830:	79c00660 	ldrsh	w0, [x19, #2]
    4834:	34000260 	cbz	w0, 4880 <mbedtls_mpi_shrink+0x10c>
/home/fangjiang/workspace/optee-os/lib/libmbedtls/mbedtls/library/bignum.c:220
    4838:	d0000040 	adrp	x0, e000 <_DYNAMIC>
    483c:	f9400a61 	ldr	x1, [x19, #16]
    4840:	f940cc00 	ldr	x0, [x0, #408]
    4844:	f9400000 	ldr	x0, [x0]
    4848:	94001696 	bl	a2a0 <mempool_free>
/home/fangjiang/workspace/optee-os/lib/libmbedtls/mbedtls/library/bignum.c:228
    484c:	52800000 	mov	w0, #0x0                   	// #0
/home/fangjiang/workspace/optee-os/lib/libmbedtls/mbedtls/library/bignum.c:226
    4850:	a900d674 	stp	x20, x21, [x19, #8]
/home/fangjiang/workspace/optee-os/lib/libmbedtls/mbedtls/library/bignum.c:228
    4854:	14000007 	b	4870 <mbedtls_mpi_shrink+0xfc>
/home/fangjiang/workspace/optee-os/lib/libmbedtls/mbedtls/library/bignum.c:210
    4858:	aa1403e0 	mov	x0, x20
    485c:	d2800081 	mov	x1, #0x4                   	// #4
    4860:	940010ca 	bl	8b88 <calloc>
    4864:	aa0003f5 	mov	x21, x0
/home/fangjiang/workspace/optee-os/lib/libmbedtls/mbedtls/library/bignum.c:211
    4868:	b5fffd40 	cbnz	x0, 4810 <mbedtls_mpi_shrink+0x9c>
/home/fangjiang/workspace/optee-os/lib/libmbedtls/mbedtls/library/bignum.c:186
    486c:	128001e0 	mov	w0, #0xfffffff0            	// #-16
/home/fangjiang/workspace/optee-os/lib/libmbedtls/mbedtls/library/bignum.c:229
    4870:	a94153f3 	ldp	x19, x20, [sp, #16]
    4874:	a9425bf5 	ldp	x21, x22, [sp, #32]
    4878:	a8c37bfd 	ldp	x29, x30, [sp], #48
    487c:	d65f03c0 	ret
/home/fangjiang/workspace/optee-os/lib/libmbedtls/mbedtls/library/bignum.c:222
    4880:	f9400a60 	ldr	x0, [x19, #16]
    4884:	940010d5 	bl	8bd8 <free>
    4888:	17fffff1 	b	484c <mbedtls_mpi_shrink+0xd8>

000000000000488c <mbedtls_mpi_copy>:
mbedtls_mpi_copy():
/home/fangjiang/workspace/optee-os/lib/libmbedtls/mbedtls/library/bignum.c:268
    488c:	eb01001f 	cmp	x0, x1
    4890:	54000600 	b.eq	4950 <mbedtls_mpi_copy+0xc4>  // b.none
/home/fangjiang/workspace/optee-os/lib/libmbedtls/mbedtls/library/bignum.c:262
    4894:	a9bd7bfd 	stp	x29, x30, [sp, #-48]!
    4898:	910003fd 	mov	x29, sp
    489c:	a90153f3 	stp	x19, x20, [sp, #16]
    48a0:	aa0003f4 	mov	x20, x0
/home/fangjiang/workspace/optee-os/lib/libmbedtls/mbedtls/library/bignum.c:271
    48a4:	f9400433 	ldr	x19, [x1, #8]
/home/fangjiang/workspace/optee-os/lib/libmbedtls/mbedtls/library/bignum.c:273
    48a8:	f9400402 	ldr	x2, [x0, #8]
/home/fangjiang/workspace/optee-os/lib/libmbedtls/mbedtls/library/bignum.c:262
    48ac:	f90013f5 	str	x21, [sp, #32]
    48b0:	aa0103f5 	mov	x21, x1
/home/fangjiang/workspace/optee-os/lib/libmbedtls/mbedtls/library/bignum.c:271
    48b4:	b50001b3 	cbnz	x19, 48e8 <mbedtls_mpi_copy+0x5c>
/home/fangjiang/workspace/optee-os/lib/libmbedtls/mbedtls/library/bignum.c:273
    48b8:	b40000e2 	cbz	x2, 48d4 <mbedtls_mpi_copy+0x48>
/home/fangjiang/workspace/optee-os/lib/libmbedtls/mbedtls/library/bignum.c:275
    48bc:	52800020 	mov	w0, #0x1                   	// #1
    48c0:	79000280 	strh	w0, [x20]
/home/fangjiang/workspace/optee-os/lib/libmbedtls/mbedtls/library/bignum.c:276
    48c4:	f9400a80 	ldr	x0, [x20, #16]
    48c8:	d37ef442 	lsl	x2, x2, #2
    48cc:	52800001 	mov	w1, #0x0                   	// #0
    48d0:	940011b4 	bl	8fa0 <memset>
/home/fangjiang/workspace/optee-os/lib/libmbedtls/mbedtls/library/bignum.c:269
    48d4:	52800000 	mov	w0, #0x0                   	// #0
    48d8:	1400000f 	b	4914 <mbedtls_mpi_copy+0x88>
/home/fangjiang/workspace/optee-os/lib/libmbedtls/mbedtls/library/bignum.c:282
    48dc:	f9400aa0 	ldr	x0, [x21, #16]
    48e0:	b8737800 	ldr	w0, [x0, x19, lsl #2]
    48e4:	35000060 	cbnz	w0, 48f0 <mbedtls_mpi_copy+0x64>
/home/fangjiang/workspace/optee-os/lib/libmbedtls/mbedtls/library/bignum.c:281 (discriminator 2)
    48e8:	d1000673 	sub	x19, x19, #0x1
    48ec:	b5ffff93 	cbnz	x19, 48dc <mbedtls_mpi_copy+0x50>
/home/fangjiang/workspace/optee-os/lib/libmbedtls/mbedtls/library/bignum.c:286
    48f0:	79c002a0 	ldrsh	w0, [x21]
/home/fangjiang/workspace/optee-os/lib/libmbedtls/mbedtls/library/bignum.c:284
    48f4:	91000673 	add	x19, x19, #0x1
/home/fangjiang/workspace/optee-os/lib/libmbedtls/mbedtls/library/bignum.c:286
    48f8:	79000280 	strh	w0, [x20]
/home/fangjiang/workspace/optee-os/lib/libmbedtls/mbedtls/library/bignum.c:288
    48fc:	eb02027f 	cmp	x19, x2
    4900:	54000129 	b.ls	4924 <mbedtls_mpi_copy+0x98>  // b.plast
/home/fangjiang/workspace/optee-os/lib/libmbedtls/mbedtls/library/bignum.c:290
    4904:	aa1303e1 	mov	x1, x19
    4908:	aa1403e0 	mov	x0, x20
    490c:	97ffff45 	bl	4620 <mbedtls_mpi_grow>
    4910:	34000160 	cbz	w0, 493c <mbedtls_mpi_copy+0xb0>
/home/fangjiang/workspace/optee-os/lib/libmbedtls/mbedtls/library/bignum.c:302
    4914:	a94153f3 	ldp	x19, x20, [sp, #16]
    4918:	f94013f5 	ldr	x21, [sp, #32]
    491c:	a8c37bfd 	ldp	x29, x30, [sp], #48
    4920:	d65f03c0 	ret
/home/fangjiang/workspace/optee-os/lib/libmbedtls/mbedtls/library/bignum.c:294
    4924:	f9400a80 	ldr	x0, [x20, #16]
    4928:	cb130042 	sub	x2, x2, x19
    492c:	52800001 	mov	w1, #0x0                   	// #0
    4930:	d37ef442 	lsl	x2, x2, #2
    4934:	8b130800 	add	x0, x0, x19, lsl #2
    4938:	9400119a 	bl	8fa0 <memset>
/home/fangjiang/workspace/optee-os/lib/libmbedtls/mbedtls/library/bignum.c:297
    493c:	f9400a80 	ldr	x0, [x20, #16]
    4940:	d37ef662 	lsl	x2, x19, #2
    4944:	f9400aa1 	ldr	x1, [x21, #16]
    4948:	97ffedb6 	bl	20 <memcpy>
    494c:	17ffffe2 	b	48d4 <mbedtls_mpi_copy+0x48>
/home/fangjiang/workspace/optee-os/lib/libmbedtls/mbedtls/library/bignum.c:269
    4950:	52800000 	mov	w0, #0x0                   	// #0
/home/fangjiang/workspace/optee-os/lib/libmbedtls/mbedtls/library/bignum.c:302
    4954:	d65f03c0 	ret

0000000000004958 <mbedtls_mpi_swap>:
mbedtls_mpi_swap():
/home/fangjiang/workspace/optee-os/lib/libmbedtls/mbedtls/library/bignum.c:308
    4958:	d10143ff 	sub	sp, sp, #0x50
/home/fangjiang/workspace/optee-os/lib/libmbedtls/mbedtls/library/bignum.c:313
    495c:	d2800302 	mov	x2, #0x18                  	// #24
/home/fangjiang/workspace/optee-os/lib/libmbedtls/mbedtls/library/bignum.c:308
    4960:	a9027bfd 	stp	x29, x30, [sp, #32]
    4964:	910083fd 	add	x29, sp, #0x20
    4968:	a90353f3 	stp	x19, x20, [sp, #48]
    496c:	d0000053 	adrp	x19, e000 <_DYNAMIC>
    4970:	aa0103f4 	mov	x20, x1
    4974:	a9045bf5 	stp	x21, x22, [sp, #64]
    4978:	aa0003f6 	mov	x22, x0
/home/fangjiang/workspace/optee-os/lib/libmbedtls/mbedtls/library/bignum.c:313
    497c:	910003f5 	mov	x21, sp
/home/fangjiang/workspace/optee-os/lib/libmbedtls/mbedtls/library/bignum.c:308
    4980:	f9409a60 	ldr	x0, [x19, #304]
    4984:	f9400001 	ldr	x1, [x0]
    4988:	f9000fe1 	str	x1, [sp, #24]
    498c:	d2800001 	mov	x1, #0x0                   	// #0
/home/fangjiang/workspace/optee-os/lib/libmbedtls/mbedtls/library/bignum.c:313
    4990:	aa1503e0 	mov	x0, x21
    4994:	aa1603e1 	mov	x1, x22
    4998:	97ffeda2 	bl	20 <memcpy>
/home/fangjiang/workspace/optee-os/lib/libmbedtls/mbedtls/library/bignum.c:314
    499c:	aa1403e1 	mov	x1, x20
    49a0:	d2800302 	mov	x2, #0x18                  	// #24
    49a4:	aa1603e0 	mov	x0, x22
    49a8:	97ffed9e 	bl	20 <memcpy>
/home/fangjiang/workspace/optee-os/lib/libmbedtls/mbedtls/library/bignum.c:315
    49ac:	aa1503e1 	mov	x1, x21
    49b0:	aa1403e0 	mov	x0, x20
    49b4:	d2800302 	mov	x2, #0x18                  	// #24
    49b8:	97ffed9a 	bl	20 <memcpy>
/home/fangjiang/workspace/optee-os/lib/libmbedtls/mbedtls/library/bignum.c:316
    49bc:	f9409a73 	ldr	x19, [x19, #304]
    49c0:	f9400fe0 	ldr	x0, [sp, #24]
    49c4:	f9400261 	ldr	x1, [x19]
    49c8:	eb010000 	subs	x0, x0, x1
    49cc:	d2800001 	mov	x1, #0x0                   	// #0
    49d0:	54000040 	b.eq	49d8 <mbedtls_mpi_swap+0x80>  // b.none
    49d4:	9400115b 	bl	8f40 <__stack_chk_fail>
    49d8:	a9427bfd 	ldp	x29, x30, [sp, #32]
    49dc:	a94353f3 	ldp	x19, x20, [sp, #48]
    49e0:	a9445bf5 	ldp	x21, x22, [sp, #64]
    49e4:	910143ff 	add	sp, sp, #0x50
    49e8:	d65f03c0 	ret

00000000000049ec <mbedtls_mpi_safe_cond_assign>:
mbedtls_mpi_safe_cond_assign():
/home/fangjiang/workspace/optee-os/lib/libmbedtls/mbedtls/library/bignum.c:385
    49ec:	a9bd7bfd 	stp	x29, x30, [sp, #-48]!
    49f0:	910003fd 	mov	x29, sp
    49f4:	f90013f5 	str	x21, [sp, #32]
    49f8:	aa0103f5 	mov	x21, x1
/home/fangjiang/workspace/optee-os/lib/libmbedtls/mbedtls/library/bignum.c:408
    49fc:	f9400421 	ldr	x1, [x1, #8]
/home/fangjiang/workspace/optee-os/lib/libmbedtls/mbedtls/library/bignum.c:385
    4a00:	a90153f3 	stp	x19, x20, [sp, #16]
    4a04:	aa0003f4 	mov	x20, x0
    4a08:	12001c53 	and	w19, w2, #0xff
/home/fangjiang/workspace/optee-os/lib/libmbedtls/mbedtls/library/bignum.c:408
    4a0c:	97ffff05 	bl	4620 <mbedtls_mpi_grow>
    4a10:	2a0003e9 	mov	w9, w0
    4a14:	350002a0 	cbnz	w0, 4a68 <mbedtls_mpi_safe_cond_assign+0x7c>
/home/fangjiang/workspace/optee-os/lib/libmbedtls/mbedtls/library/bignum.c:400 (discriminator 2)
    4a18:	4b1303e0 	neg	w0, w19
/home/fangjiang/workspace/optee-os/lib/libmbedtls/mbedtls/library/bignum.c:410 (discriminator 2)
    4a1c:	79c002a2 	ldrsh	w2, [x21]
/home/fangjiang/workspace/optee-os/lib/libmbedtls/mbedtls/library/bignum.c:400 (discriminator 2)
    4a20:	2a000268 	orr	w8, w19, w0
/home/fangjiang/workspace/optee-os/lib/libmbedtls/mbedtls/library/bignum.c:410 (discriminator 2)
    4a24:	79c00280 	ldrsh	w0, [x20]
mpi_safe_cond_select_sign():
/home/fangjiang/workspace/optee-os/lib/libmbedtls/mbedtls/library/bignum.c:336 (discriminator 2)
    4a28:	11000442 	add	w2, w2, #0x1
mbedtls_mpi_safe_cond_assign():
/home/fangjiang/workspace/optee-os/lib/libmbedtls/mbedtls/library/bignum.c:400 (discriminator 2)
    4a2c:	d3471d08 	ubfx	x8, x8, #7, #1
mpi_safe_cond_select_sign():
/home/fangjiang/workspace/optee-os/lib/libmbedtls/mbedtls/library/bignum.c:335 (discriminator 2)
    4a30:	11000400 	add	w0, w0, #0x1
/home/fangjiang/workspace/optee-os/lib/libmbedtls/mbedtls/library/bignum.c:345 (discriminator 2)
    4a34:	4a000042 	eor	w2, w2, w0
mbedtls_mpi_safe_cond_assign():
/home/fangjiang/workspace/optee-os/lib/libmbedtls/mbedtls/library/bignum.c:412 (discriminator 2)
    4a38:	2a0803e3 	mov	w3, w8
mpi_safe_cond_select_sign():
/home/fangjiang/workspace/optee-os/lib/libmbedtls/mbedtls/library/bignum.c:345 (discriminator 2)
    4a3c:	0a080442 	and	w2, w2, w8, lsl #1
mbedtls_mpi_safe_cond_assign():
/home/fangjiang/workspace/optee-os/lib/libmbedtls/mbedtls/library/bignum.c:415 (discriminator 2)
    4a40:	51000508 	sub	w8, w8, #0x1
mpi_safe_cond_select_sign():
/home/fangjiang/workspace/optee-os/lib/libmbedtls/mbedtls/library/bignum.c:345 (discriminator 2)
    4a44:	4a000042 	eor	w2, w2, w0
    4a48:	51000442 	sub	w2, w2, #0x1
mbedtls_mpi_safe_cond_assign():
/home/fangjiang/workspace/optee-os/lib/libmbedtls/mbedtls/library/bignum.c:410 (discriminator 2)
    4a4c:	79000282 	strh	w2, [x20]
/home/fangjiang/workspace/optee-os/lib/libmbedtls/mbedtls/library/bignum.c:412 (discriminator 2)
    4a50:	a9408aa0 	ldp	x0, x2, [x21, #8]
    4a54:	f9400a81 	ldr	x1, [x20, #16]
    4a58:	97fffcc1 	bl	3d5c <mpi_safe_cond_assign>
/home/fangjiang/workspace/optee-os/lib/libmbedtls/mbedtls/library/bignum.c:414 (discriminator 2)
    4a5c:	f9400683 	ldr	x3, [x20, #8]
/home/fangjiang/workspace/optee-os/lib/libmbedtls/mbedtls/library/bignum.c:414 (discriminator 1)
    4a60:	eb00007f 	cmp	x3, x0
    4a64:	540000c8 	b.hi	4a7c <mbedtls_mpi_safe_cond_assign+0x90>  // b.pmore
/home/fangjiang/workspace/optee-os/lib/libmbedtls/mbedtls/library/bignum.c:419
    4a68:	2a0903e0 	mov	w0, w9
    4a6c:	a94153f3 	ldp	x19, x20, [sp, #16]
    4a70:	f94013f5 	ldr	x21, [sp, #32]
    4a74:	a8c37bfd 	ldp	x29, x30, [sp], #48
    4a78:	d65f03c0 	ret
/home/fangjiang/workspace/optee-os/lib/libmbedtls/mbedtls/library/bignum.c:415 (discriminator 3)
    4a7c:	b8607822 	ldr	w2, [x1, x0, lsl #2]
    4a80:	0a080042 	and	w2, w2, w8
    4a84:	b8207822 	str	w2, [x1, x0, lsl #2]
/home/fangjiang/workspace/optee-os/lib/libmbedtls/mbedtls/library/bignum.c:414 (discriminator 3)
    4a88:	91000400 	add	x0, x0, #0x1
    4a8c:	17fffff5 	b	4a60 <mbedtls_mpi_safe_cond_assign+0x74>

0000000000004a90 <mbedtls_mpi_safe_cond_swap>:
mbedtls_mpi_safe_cond_swap():
/home/fangjiang/workspace/optee-os/lib/libmbedtls/mbedtls/library/bignum.c:436
    4a90:	eb01001f 	cmp	x0, x1
    4a94:	54000061 	b.ne	4aa0 <mbedtls_mpi_safe_cond_swap+0x10>  // b.any
/home/fangjiang/workspace/optee-os/lib/libmbedtls/mbedtls/library/bignum.c:437
    4a98:	52800000 	mov	w0, #0x0                   	// #0
/home/fangjiang/workspace/optee-os/lib/libmbedtls/mbedtls/library/bignum.c:472
    4a9c:	d65f03c0 	ret
/home/fangjiang/workspace/optee-os/lib/libmbedtls/mbedtls/library/bignum.c:428
    4aa0:	a9bd7bfd 	stp	x29, x30, [sp, #-48]!
    4aa4:	910003fd 	mov	x29, sp
    4aa8:	a90153f3 	stp	x19, x20, [sp, #16]
    4aac:	aa0103f3 	mov	x19, x1
    4ab0:	aa0003f4 	mov	x20, x0
/home/fangjiang/workspace/optee-os/lib/libmbedtls/mbedtls/library/bignum.c:455
    4ab4:	f9400421 	ldr	x1, [x1, #8]
/home/fangjiang/workspace/optee-os/lib/libmbedtls/mbedtls/library/bignum.c:428
    4ab8:	f90013f5 	str	x21, [sp, #32]
    4abc:	12001c55 	and	w21, w2, #0xff
/home/fangjiang/workspace/optee-os/lib/libmbedtls/mbedtls/library/bignum.c:455
    4ac0:	97fffed8 	bl	4620 <mbedtls_mpi_grow>
    4ac4:	350003e0 	cbnz	w0, 4b40 <mbedtls_mpi_safe_cond_swap+0xb0>
/home/fangjiang/workspace/optee-os/lib/libmbedtls/mbedtls/library/bignum.c:456 (discriminator 2)
    4ac8:	f9400681 	ldr	x1, [x20, #8]
    4acc:	aa1303e0 	mov	x0, x19
    4ad0:	97fffed4 	bl	4620 <mbedtls_mpi_grow>
    4ad4:	35000360 	cbnz	w0, 4b40 <mbedtls_mpi_safe_cond_swap+0xb0>
/home/fangjiang/workspace/optee-os/lib/libmbedtls/mbedtls/library/bignum.c:447 (discriminator 2)
    4ad8:	4b1503e0 	neg	w0, w21
/home/fangjiang/workspace/optee-os/lib/libmbedtls/mbedtls/library/bignum.c:458 (discriminator 2)
    4adc:	79c00282 	ldrsh	w2, [x20]
/home/fangjiang/workspace/optee-os/lib/libmbedtls/mbedtls/library/bignum.c:459 (discriminator 2)
    4ae0:	79c00263 	ldrsh	w3, [x19]
/home/fangjiang/workspace/optee-os/lib/libmbedtls/mbedtls/library/bignum.c:447 (discriminator 2)
    4ae4:	2a0002b5 	orr	w21, w21, w0
mpi_safe_cond_select_sign():
/home/fangjiang/workspace/optee-os/lib/libmbedtls/mbedtls/library/bignum.c:335 (discriminator 2)
    4ae8:	11000442 	add	w2, w2, #0x1
mbedtls_mpi_safe_cond_swap():
/home/fangjiang/workspace/optee-os/lib/libmbedtls/mbedtls/library/bignum.c:449 (discriminator 2)
    4aec:	d3471ea0 	ubfx	x0, x21, #7, #1
mpi_safe_cond_select_sign():
/home/fangjiang/workspace/optee-os/lib/libmbedtls/mbedtls/library/bignum.c:336 (discriminator 2)
    4af0:	11000463 	add	w3, w3, #0x1
/home/fangjiang/workspace/optee-os/lib/libmbedtls/mbedtls/library/bignum.c:345 (discriminator 2)
    4af4:	4a020063 	eor	w3, w3, w2
mbedtls_mpi_safe_cond_swap():
/home/fangjiang/workspace/optee-os/lib/libmbedtls/mbedtls/library/bignum.c:449 (discriminator 2)
    4af8:	93471eb5 	sbfx	x21, x21, #7, #1
mpi_safe_cond_select_sign():
/home/fangjiang/workspace/optee-os/lib/libmbedtls/mbedtls/library/bignum.c:345 (discriminator 2)
    4afc:	0a000463 	and	w3, w3, w0, lsl #1
    4b00:	4a020063 	eor	w3, w3, w2
    4b04:	51000463 	sub	w3, w3, #0x1
mbedtls_mpi_safe_cond_swap():
/home/fangjiang/workspace/optee-os/lib/libmbedtls/mbedtls/library/bignum.c:459 (discriminator 2)
    4b08:	79000283 	strh	w3, [x20]
/home/fangjiang/workspace/optee-os/lib/libmbedtls/mbedtls/library/bignum.c:463 (discriminator 2)
    4b0c:	f9400687 	ldr	x7, [x20, #8]
    4b10:	d2800003 	mov	x3, #0x0                   	// #0
/home/fangjiang/workspace/optee-os/lib/libmbedtls/mbedtls/library/bignum.c:460 (discriminator 2)
    4b14:	79c00261 	ldrsh	w1, [x19]
mpi_safe_cond_select_sign():
/home/fangjiang/workspace/optee-os/lib/libmbedtls/mbedtls/library/bignum.c:335 (discriminator 2)
    4b18:	11000421 	add	w1, w1, #0x1
/home/fangjiang/workspace/optee-os/lib/libmbedtls/mbedtls/library/bignum.c:345 (discriminator 2)
    4b1c:	4a020022 	eor	w2, w1, w2
    4b20:	0a000442 	and	w2, w2, w0, lsl #1
mbedtls_mpi_safe_cond_swap():
/home/fangjiang/workspace/optee-os/lib/libmbedtls/mbedtls/library/bignum.c:466 (discriminator 2)
    4b24:	51000400 	sub	w0, w0, #0x1
mpi_safe_cond_select_sign():
/home/fangjiang/workspace/optee-os/lib/libmbedtls/mbedtls/library/bignum.c:345 (discriminator 2)
    4b28:	4a010042 	eor	w2, w2, w1
    4b2c:	51000442 	sub	w2, w2, #0x1
mbedtls_mpi_safe_cond_swap():
/home/fangjiang/workspace/optee-os/lib/libmbedtls/mbedtls/library/bignum.c:460 (discriminator 2)
    4b30:	79000262 	strh	w2, [x19]
/home/fangjiang/workspace/optee-os/lib/libmbedtls/mbedtls/library/bignum.c:463 (discriminator 1)
    4b34:	eb0300ff 	cmp	x7, x3
    4b38:	540000c1 	b.ne	4b50 <mbedtls_mpi_safe_cond_swap+0xc0>  // b.any
/home/fangjiang/workspace/optee-os/lib/libmbedtls/mbedtls/library/bignum.c:437
    4b3c:	52800000 	mov	w0, #0x0                   	// #0
/home/fangjiang/workspace/optee-os/lib/libmbedtls/mbedtls/library/bignum.c:472
    4b40:	a94153f3 	ldp	x19, x20, [sp, #16]
    4b44:	f94013f5 	ldr	x21, [sp, #32]
    4b48:	a8c37bfd 	ldp	x29, x30, [sp], #48
    4b4c:	d65f03c0 	ret
/home/fangjiang/workspace/optee-os/lib/libmbedtls/mbedtls/library/bignum.c:466 (discriminator 3)
    4b50:	f9400a65 	ldr	x5, [x19, #16]
    4b54:	d37ef461 	lsl	x1, x3, #2
/home/fangjiang/workspace/optee-os/lib/libmbedtls/mbedtls/library/bignum.c:465 (discriminator 3)
    4b58:	f9400a86 	ldr	x6, [x20, #16]
/home/fangjiang/workspace/optee-os/lib/libmbedtls/mbedtls/library/bignum.c:463 (discriminator 3)
    4b5c:	91000463 	add	x3, x3, #0x1
/home/fangjiang/workspace/optee-os/lib/libmbedtls/mbedtls/library/bignum.c:466 (discriminator 3)
    4b60:	b86168a2 	ldr	w2, [x5, x1]
/home/fangjiang/workspace/optee-os/lib/libmbedtls/mbedtls/library/bignum.c:465 (discriminator 3)
    4b64:	b86168c4 	ldr	w4, [x6, x1]
/home/fangjiang/workspace/optee-os/lib/libmbedtls/mbedtls/library/bignum.c:466 (discriminator 3)
    4b68:	0a0202a2 	and	w2, w21, w2
    4b6c:	0a040008 	and	w8, w0, w4
/home/fangjiang/workspace/optee-os/lib/libmbedtls/mbedtls/library/bignum.c:467 (discriminator 3)
    4b70:	0a0402a4 	and	w4, w21, w4
/home/fangjiang/workspace/optee-os/lib/libmbedtls/mbedtls/library/bignum.c:466 (discriminator 3)
    4b74:	2a080042 	orr	w2, w2, w8
    4b78:	b82168c2 	str	w2, [x6, x1]
/home/fangjiang/workspace/optee-os/lib/libmbedtls/mbedtls/library/bignum.c:467 (discriminator 3)
    4b7c:	b86168a2 	ldr	w2, [x5, x1]
    4b80:	0a020002 	and	w2, w0, w2
    4b84:	2a040042 	orr	w2, w2, w4
    4b88:	b82168a2 	str	w2, [x5, x1]
/home/fangjiang/workspace/optee-os/lib/libmbedtls/mbedtls/library/bignum.c:463 (discriminator 3)
    4b8c:	17ffffea 	b	4b34 <mbedtls_mpi_safe_cond_swap+0xa4>

0000000000004b90 <mbedtls_mpi_lset>:
mbedtls_mpi_lset():
/home/fangjiang/workspace/optee-os/lib/libmbedtls/mbedtls/library/bignum.c:478
    4b90:	a9bd7bfd 	stp	x29, x30, [sp, #-48]!
    4b94:	910003fd 	mov	x29, sp
    4b98:	a90153f3 	stp	x19, x20, [sp, #16]
    4b9c:	aa0003f4 	mov	x20, x0
    4ba0:	2a0103f3 	mov	w19, w1
/home/fangjiang/workspace/optee-os/lib/libmbedtls/mbedtls/library/bignum.c:482
    4ba4:	d2800021 	mov	x1, #0x1                   	// #1
/home/fangjiang/workspace/optee-os/lib/libmbedtls/mbedtls/library/bignum.c:478
    4ba8:	f90013f5 	str	x21, [sp, #32]
/home/fangjiang/workspace/optee-os/lib/libmbedtls/mbedtls/library/bignum.c:482
    4bac:	97fffe9d 	bl	4620 <mbedtls_mpi_grow>
    4bb0:	2a0003f5 	mov	w21, w0
    4bb4:	35000180 	cbnz	w0, 4be4 <mbedtls_mpi_lset+0x54>
/home/fangjiang/workspace/optee-os/lib/libmbedtls/mbedtls/library/bignum.c:483
    4bb8:	a9408282 	ldp	x2, x0, [x20, #8]
    4bbc:	52800001 	mov	w1, #0x0                   	// #0
    4bc0:	d37ef442 	lsl	x2, x2, #2
    4bc4:	940010f7 	bl	8fa0 <memset>
/home/fangjiang/workspace/optee-os/lib/libmbedtls/mbedtls/library/bignum.c:485
    4bc8:	f9400a80 	ldr	x0, [x20, #16]
    4bcc:	7100027f 	cmp	w19, #0x0
    4bd0:	5a93a673 	cneg	w19, w19, lt  // lt = tstop
    4bd4:	b9000013 	str	w19, [x0]
/home/fangjiang/workspace/optee-os/lib/libmbedtls/mbedtls/library/bignum.c:486
    4bd8:	52800020 	mov	w0, #0x1                   	// #1
    4bdc:	5a80a400 	cneg	w0, w0, lt  // lt = tstop
    4be0:	79000280 	strh	w0, [x20]
/home/fangjiang/workspace/optee-os/lib/libmbedtls/mbedtls/library/bignum.c:491
    4be4:	2a1503e0 	mov	w0, w21
    4be8:	a94153f3 	ldp	x19, x20, [sp, #16]
    4bec:	f94013f5 	ldr	x21, [sp, #32]
    4bf0:	a8c37bfd 	ldp	x29, x30, [sp], #48
    4bf4:	d65f03c0 	ret

0000000000004bf8 <mbedtls_mpi_get_bit>:
mbedtls_mpi_get_bit():
/home/fangjiang/workspace/optee-os/lib/libmbedtls/mbedtls/library/bignum.c:500
    4bf8:	f9400402 	ldr	x2, [x0, #8]
    4bfc:	eb02143f 	cmp	x1, x2, lsl #5
    4c00:	540000e2 	b.cs	4c1c <mbedtls_mpi_get_bit+0x24>  // b.hs, b.nlast
/home/fangjiang/workspace/optee-os/lib/libmbedtls/mbedtls/library/bignum.c:503
    4c04:	f9400800 	ldr	x0, [x0, #16]
    4c08:	d345fc22 	lsr	x2, x1, #5
    4c0c:	b8627800 	ldr	w0, [x0, x2, lsl #2]
    4c10:	1ac12400 	lsr	w0, w0, w1
    4c14:	12000000 	and	w0, w0, #0x1
/home/fangjiang/workspace/optee-os/lib/libmbedtls/mbedtls/library/bignum.c:504
    4c18:	d65f03c0 	ret
/home/fangjiang/workspace/optee-os/lib/libmbedtls/mbedtls/library/bignum.c:501
    4c1c:	52800000 	mov	w0, #0x0                   	// #0
    4c20:	17fffffe 	b	4c18 <mbedtls_mpi_get_bit+0x20>

0000000000004c24 <mbedtls_mpi_set_bit>:
mbedtls_mpi_set_bit():
/home/fangjiang/workspace/optee-os/lib/libmbedtls/mbedtls/library/bignum.c:514
    4c24:	a9bd7bfd 	stp	x29, x30, [sp, #-48]!
    4c28:	910003fd 	mov	x29, sp
    4c2c:	a90153f3 	stp	x19, x20, [sp, #16]
    4c30:	a9025bf5 	stp	x21, x22, [sp, #32]
    4c34:	12001c55 	and	w21, w2, #0xff
/home/fangjiang/workspace/optee-os/lib/libmbedtls/mbedtls/library/bignum.c:520
    4c38:	710006bf 	cmp	w21, #0x1
    4c3c:	54000368 	b.hi	4ca8 <mbedtls_mpi_set_bit+0x84>  // b.pmore
    4c40:	aa0103f3 	mov	x19, x1
    4c44:	d345fc34 	lsr	x20, x1, #5
/home/fangjiang/workspace/optee-os/lib/libmbedtls/mbedtls/library/bignum.c:523
    4c48:	f9400401 	ldr	x1, [x0, #8]
    4c4c:	aa0003f6 	mov	x22, x0
    4c50:	eb01167f 	cmp	x19, x1, lsl #5
    4c54:	540001a2 	b.cs	4c88 <mbedtls_mpi_set_bit+0x64>  // b.hs, b.nlast
/home/fangjiang/workspace/optee-os/lib/libmbedtls/mbedtls/library/bignum.c:531
    4c58:	f9400ac1 	ldr	x1, [x22, #16]
    4c5c:	d37ef694 	lsl	x20, x20, #2
/home/fangjiang/workspace/optee-os/lib/libmbedtls/mbedtls/library/bignum.c:517
    4c60:	92401273 	and	x19, x19, #0x1f
/home/fangjiang/workspace/optee-os/lib/libmbedtls/mbedtls/library/bignum.c:531
    4c64:	52800020 	mov	w0, #0x1                   	// #1
    4c68:	b8746822 	ldr	w2, [x1, x20]
    4c6c:	1ad32000 	lsl	w0, w0, w19
/home/fangjiang/workspace/optee-os/lib/libmbedtls/mbedtls/library/bignum.c:532
    4c70:	1ad322b5 	lsl	w21, w21, w19
/home/fangjiang/workspace/optee-os/lib/libmbedtls/mbedtls/library/bignum.c:531
    4c74:	0a200040 	bic	w0, w2, w0
/home/fangjiang/workspace/optee-os/lib/libmbedtls/mbedtls/library/bignum.c:532
    4c78:	2a150000 	orr	w0, w0, w21
    4c7c:	b8346820 	str	w0, [x1, x20]
/home/fangjiang/workspace/optee-os/lib/libmbedtls/mbedtls/library/bignum.c:526
    4c80:	52800000 	mov	w0, #0x0                   	// #0
    4c84:	14000005 	b	4c98 <mbedtls_mpi_set_bit+0x74>
/home/fangjiang/workspace/optee-os/lib/libmbedtls/mbedtls/library/bignum.c:525
    4c88:	34ffffd5 	cbz	w21, 4c80 <mbedtls_mpi_set_bit+0x5c>
/home/fangjiang/workspace/optee-os/lib/libmbedtls/mbedtls/library/bignum.c:528
    4c8c:	91000681 	add	x1, x20, #0x1
    4c90:	97fffe64 	bl	4620 <mbedtls_mpi_grow>
    4c94:	34fffe20 	cbz	w0, 4c58 <mbedtls_mpi_set_bit+0x34>
/home/fangjiang/workspace/optee-os/lib/libmbedtls/mbedtls/library/bignum.c:537
    4c98:	a94153f3 	ldp	x19, x20, [sp, #16]
    4c9c:	a9425bf5 	ldp	x21, x22, [sp, #32]
    4ca0:	a8c37bfd 	ldp	x29, x30, [sp], #48
    4ca4:	d65f03c0 	ret
/home/fangjiang/workspace/optee-os/lib/libmbedtls/mbedtls/library/bignum.c:521
    4ca8:	12800060 	mov	w0, #0xfffffffc            	// #-4
    4cac:	17fffffb 	b	4c98 <mbedtls_mpi_set_bit+0x74>

0000000000004cb0 <mbedtls_mpi_lsb>:
mbedtls_mpi_lsb():
/home/fangjiang/workspace/optee-os/lib/libmbedtls/mbedtls/library/bignum.c:547
    4cb0:	f9400405 	ldr	x5, [x0, #8]
/home/fangjiang/workspace/optee-os/lib/libmbedtls/mbedtls/library/bignum.c:543
    4cb4:	aa0003e3 	mov	x3, x0
/home/fangjiang/workspace/optee-os/lib/libmbedtls/mbedtls/library/bignum.c:544
    4cb8:	d2800004 	mov	x4, #0x0                   	// #0
/home/fangjiang/workspace/optee-os/lib/libmbedtls/mbedtls/library/bignum.c:547
    4cbc:	d2800002 	mov	x2, #0x0                   	// #0
/home/fangjiang/workspace/optee-os/lib/libmbedtls/mbedtls/library/bignum.c:547 (discriminator 1)
    4cc0:	eb0200bf 	cmp	x5, x2
    4cc4:	54000061 	b.ne	4cd0 <mbedtls_mpi_lsb+0x20>  // b.any
/home/fangjiang/workspace/optee-os/lib/libmbedtls/mbedtls/library/bignum.c:552
    4cc8:	d2800000 	mov	x0, #0x0                   	// #0
/home/fangjiang/workspace/optee-os/lib/libmbedtls/mbedtls/library/bignum.c:553
    4ccc:	d65f03c0 	ret
/home/fangjiang/workspace/optee-os/lib/libmbedtls/mbedtls/library/bignum.c:549
    4cd0:	f9400860 	ldr	x0, [x3, #16]
/home/fangjiang/workspace/optee-os/lib/libmbedtls/mbedtls/library/bignum.c:548
    4cd4:	d2800001 	mov	x1, #0x0                   	// #0
/home/fangjiang/workspace/optee-os/lib/libmbedtls/mbedtls/library/bignum.c:549
    4cd8:	b8627806 	ldr	w6, [x0, x2, lsl #2]
    4cdc:	8b010080 	add	x0, x4, x1
    4ce0:	1ac124c7 	lsr	w7, w6, w1
    4ce4:	3707ff47 	tbnz	w7, #0, 4ccc <mbedtls_mpi_lsb+0x1c>
/home/fangjiang/workspace/optee-os/lib/libmbedtls/mbedtls/library/bignum.c:548 (discriminator 2)
    4ce8:	91000421 	add	x1, x1, #0x1
    4cec:	8b010080 	add	x0, x4, x1
    4cf0:	f100803f 	cmp	x1, #0x20
    4cf4:	54ffff41 	b.ne	4cdc <mbedtls_mpi_lsb+0x2c>  // b.any
/home/fangjiang/workspace/optee-os/lib/libmbedtls/mbedtls/library/bignum.c:547 (discriminator 2)
    4cf8:	91000442 	add	x2, x2, #0x1
/home/fangjiang/workspace/optee-os/lib/libmbedtls/mbedtls/library/bignum.c:548 (discriminator 2)
    4cfc:	aa0003e4 	mov	x4, x0
    4d00:	17fffff0 	b	4cc0 <mbedtls_mpi_lsb+0x10>

0000000000004d04 <mbedtls_mpi_bitlen>:
mbedtls_mpi_bitlen():
/home/fangjiang/workspace/optee-os/lib/libmbedtls/mbedtls/library/bignum.c:577
    4d04:	aa0003e2 	mov	x2, x0
/home/fangjiang/workspace/optee-os/lib/libmbedtls/mbedtls/library/bignum.c:580
    4d08:	f9400400 	ldr	x0, [x0, #8]
    4d0c:	b4000200 	cbz	x0, 4d4c <mbedtls_mpi_bitlen+0x48>
/home/fangjiang/workspace/optee-os/lib/libmbedtls/mbedtls/library/bignum.c:583
    4d10:	d1000401 	sub	x1, x0, #0x1
/home/fangjiang/workspace/optee-os/lib/libmbedtls/mbedtls/library/bignum.c:584
    4d14:	f9400840 	ldr	x0, [x2, #16]
/home/fangjiang/workspace/optee-os/lib/libmbedtls/mbedtls/library/bignum.c:583 (discriminator 1)
    4d18:	b50001c1 	cbnz	x1, 4d50 <mbedtls_mpi_bitlen+0x4c>
/home/fangjiang/workspace/optee-os/lib/libmbedtls/mbedtls/library/bignum.c:587
    4d1c:	b8617803 	ldr	w3, [x0, x1, lsl #2]
mbedtls_clz():
/home/fangjiang/workspace/optee-os/lib/libmbedtls/mbedtls/library/bignum.c:561
    4d20:	52b00002 	mov	w2, #0x80000000            	// #-2147483648
/home/fangjiang/workspace/optee-os/lib/libmbedtls/mbedtls/library/bignum.c:563
    4d24:	d2800000 	mov	x0, #0x0                   	// #0
/home/fangjiang/workspace/optee-os/lib/libmbedtls/mbedtls/library/bignum.c:565
    4d28:	6a02007f 	tst	w3, w2
    4d2c:	540000a1 	b.ne	4d40 <mbedtls_mpi_bitlen+0x3c>  // b.any
/home/fangjiang/workspace/optee-os/lib/libmbedtls/mbedtls/library/bignum.c:563
    4d30:	91000400 	add	x0, x0, #0x1
/home/fangjiang/workspace/optee-os/lib/libmbedtls/mbedtls/library/bignum.c:567
    4d34:	53017c42 	lsr	w2, w2, #1
/home/fangjiang/workspace/optee-os/lib/libmbedtls/mbedtls/library/bignum.c:563
    4d38:	f100801f 	cmp	x0, #0x20
    4d3c:	54ffff61 	b.ne	4d28 <mbedtls_mpi_bitlen+0x24>  // b.any
mbedtls_mpi_bitlen():
/home/fangjiang/workspace/optee-os/lib/libmbedtls/mbedtls/library/bignum.c:589
    4d40:	91000421 	add	x1, x1, #0x1
    4d44:	d37be821 	lsl	x1, x1, #5
    4d48:	cb000020 	sub	x0, x1, x0
/home/fangjiang/workspace/optee-os/lib/libmbedtls/mbedtls/library/bignum.c:590
    4d4c:	d65f03c0 	ret
/home/fangjiang/workspace/optee-os/lib/libmbedtls/mbedtls/library/bignum.c:584
    4d50:	b8617802 	ldr	w2, [x0, x1, lsl #2]
    4d54:	35fffe42 	cbnz	w2, 4d1c <mbedtls_mpi_bitlen+0x18>
/home/fangjiang/workspace/optee-os/lib/libmbedtls/mbedtls/library/bignum.c:583 (discriminator 2)
    4d58:	d1000421 	sub	x1, x1, #0x1
    4d5c:	17ffffef 	b	4d18 <mbedtls_mpi_bitlen+0x14>

0000000000004d60 <mbedtls_mpi_size>:
mbedtls_mpi_size():
/home/fangjiang/workspace/optee-os/lib/libmbedtls/mbedtls/library/bignum.c:596
    4d60:	a9bf7bfd 	stp	x29, x30, [sp, #-16]!
    4d64:	910003fd 	mov	x29, sp
/home/fangjiang/workspace/optee-os/lib/libmbedtls/mbedtls/library/bignum.c:597
    4d68:	97ffffe7 	bl	4d04 <mbedtls_mpi_bitlen>
    4d6c:	91001c00 	add	x0, x0, #0x7
/home/fangjiang/workspace/optee-os/lib/libmbedtls/mbedtls/library/bignum.c:598
    4d70:	a8c17bfd 	ldp	x29, x30, [sp], #16
    4d74:	d343fc00 	lsr	x0, x0, #3
    4d78:	d65f03c0 	ret

0000000000004d7c <mbedtls_mpi_read_binary_le>:
mbedtls_mpi_read_binary_le():
/home/fangjiang/workspace/optee-os/lib/libmbedtls/mbedtls/library/bignum.c:992
    4d7c:	a9bd7bfd 	stp	x29, x30, [sp, #-48]!
/home/fangjiang/workspace/optee-os/lib/libmbedtls/mbedtls/library/bignum.c:995
    4d80:	f240045f 	tst	x2, #0x3
/home/fangjiang/workspace/optee-os/lib/libmbedtls/mbedtls/library/bignum.c:992
    4d84:	910003fd 	mov	x29, sp
    4d88:	f90013f5 	str	x21, [sp, #32]
    4d8c:	aa0103f5 	mov	x21, x1
/home/fangjiang/workspace/optee-os/lib/libmbedtls/mbedtls/library/bignum.c:995
    4d90:	d342fc41 	lsr	x1, x2, #2
/home/fangjiang/workspace/optee-os/lib/libmbedtls/mbedtls/library/bignum.c:992
    4d94:	a90153f3 	stp	x19, x20, [sp, #16]
/home/fangjiang/workspace/optee-os/lib/libmbedtls/mbedtls/library/bignum.c:998
    4d98:	9a810421 	cinc	x1, x1, ne  // ne = any
/home/fangjiang/workspace/optee-os/lib/libmbedtls/mbedtls/library/bignum.c:992
    4d9c:	aa0003f4 	mov	x20, x0
    4da0:	aa0203f3 	mov	x19, x2
/home/fangjiang/workspace/optee-os/lib/libmbedtls/mbedtls/library/bignum.c:998
    4da4:	97fffe59 	bl	4708 <mbedtls_mpi_resize_clear>
    4da8:	34000220 	cbz	w0, 4dec <mbedtls_mpi_read_binary_le+0x70>
/home/fangjiang/workspace/optee-os/lib/libmbedtls/mbedtls/library/bignum.c:1011
    4dac:	a94153f3 	ldp	x19, x20, [sp, #16]
    4db0:	f94013f5 	ldr	x21, [sp, #32]
    4db4:	a8c37bfd 	ldp	x29, x30, [sp], #48
    4db8:	d65f03c0 	ret
/home/fangjiang/workspace/optee-os/lib/libmbedtls/mbedtls/library/bignum.c:1001 (discriminator 3)
    4dbc:	f9400a85 	ldr	x5, [x20, #16]
    4dc0:	927ef464 	and	x4, x3, #0xfffffffffffffffc
    4dc4:	38636aa2 	ldrb	w2, [x21, x3]
    4dc8:	531d0461 	ubfiz	w1, w3, #3, #2
/home/fangjiang/workspace/optee-os/lib/libmbedtls/mbedtls/library/bignum.c:1000 (discriminator 3)
    4dcc:	91000463 	add	x3, x3, #0x1
/home/fangjiang/workspace/optee-os/lib/libmbedtls/mbedtls/library/bignum.c:1001 (discriminator 3)
    4dd0:	1ac12042 	lsl	w2, w2, w1
    4dd4:	b86468a1 	ldr	w1, [x5, x4]
    4dd8:	2a020021 	orr	w1, w1, w2
    4ddc:	b82468a1 	str	w1, [x5, x4]
/home/fangjiang/workspace/optee-os/lib/libmbedtls/mbedtls/library/bignum.c:1000 (discriminator 1)
    4de0:	eb13007f 	cmp	x3, x19
    4de4:	54fffec1 	b.ne	4dbc <mbedtls_mpi_read_binary_le+0x40>  // b.any
/home/fangjiang/workspace/optee-os/lib/libmbedtls/mbedtls/library/bignum.c:1003
    4de8:	17fffff1 	b	4dac <mbedtls_mpi_read_binary_le+0x30>
/home/fangjiang/workspace/optee-os/lib/libmbedtls/mbedtls/library/bignum.c:1000
    4dec:	d2800003 	mov	x3, #0x0                   	// #0
    4df0:	17fffffc 	b	4de0 <mbedtls_mpi_read_binary_le+0x64>

0000000000004df4 <mbedtls_mpi_read_binary>:
mbedtls_mpi_read_binary():
/home/fangjiang/workspace/optee-os/lib/libmbedtls/mbedtls/library/bignum.c:1017
    4df4:	a9bc7bfd 	stp	x29, x30, [sp, #-64]!
/home/fangjiang/workspace/optee-os/lib/libmbedtls/mbedtls/library/bignum.c:1019
    4df8:	f240045f 	tst	x2, #0x3
/home/fangjiang/workspace/optee-os/lib/libmbedtls/mbedtls/library/bignum.c:1017
    4dfc:	910003fd 	mov	x29, sp
    4e00:	a90153f3 	stp	x19, x20, [sp, #16]
/home/fangjiang/workspace/optee-os/lib/libmbedtls/mbedtls/library/bignum.c:1019
    4e04:	d342fc54 	lsr	x20, x2, #2
    4e08:	9a940694 	cinc	x20, x20, ne  // ne = any
/home/fangjiang/workspace/optee-os/lib/libmbedtls/mbedtls/library/bignum.c:1017
    4e0c:	aa0203f3 	mov	x19, x2
    4e10:	a9025bf5 	stp	x21, x22, [sp, #32]
    4e14:	aa0003f6 	mov	x22, x0
    4e18:	f9001bf7 	str	x23, [sp, #48]
    4e1c:	aa0103f7 	mov	x23, x1
/home/fangjiang/workspace/optee-os/lib/libmbedtls/mbedtls/library/bignum.c:1027
    4e20:	aa1403e1 	mov	x1, x20
    4e24:	97fffe39 	bl	4708 <mbedtls_mpi_resize_clear>
    4e28:	2a0003f5 	mov	w21, w0
    4e2c:	350001a0 	cbnz	w0, 4e60 <mbedtls_mpi_read_binary+0x6c>
/home/fangjiang/workspace/optee-os/lib/libmbedtls/mbedtls/library/bignum.c:1031 (discriminator 2)
    4e30:	b4000193 	cbz	x19, 4e60 <mbedtls_mpi_read_binary+0x6c>
/home/fangjiang/workspace/optee-os/lib/libmbedtls/mbedtls/library/bignum.c:1034
    4e34:	f9400ac3 	ldr	x3, [x22, #16]
/home/fangjiang/workspace/optee-os/lib/libmbedtls/mbedtls/library/bignum.c:1020
    4e38:	d37ef680 	lsl	x0, x20, #2
    4e3c:	cb130000 	sub	x0, x0, x19
/home/fangjiang/workspace/optee-os/lib/libmbedtls/mbedtls/library/bignum.c:1034
    4e40:	aa1303e2 	mov	x2, x19
    4e44:	aa1703e1 	mov	x1, x23
    4e48:	8b000060 	add	x0, x3, x0
    4e4c:	97ffec75 	bl	20 <memcpy>
/home/fangjiang/workspace/optee-os/lib/libmbedtls/mbedtls/library/bignum.c:1036
    4e50:	f9400ac0 	ldr	x0, [x22, #16]
mpi_bigendian_to_host():
/home/fangjiang/workspace/optee-os/lib/libmbedtls/mbedtls/library/bignum.c:962
    4e54:	b4000074 	cbz	x20, 4e60 <mbedtls_mpi_read_binary+0x6c>
    4e58:	aa1403e1 	mov	x1, x20
    4e5c:	97fffd6b 	bl	4408 <mpi_bigendian_to_host.part.0>
mbedtls_mpi_read_binary():
/home/fangjiang/workspace/optee-os/lib/libmbedtls/mbedtls/library/bignum.c:1047
    4e60:	2a1503e0 	mov	w0, w21
    4e64:	a94153f3 	ldp	x19, x20, [sp, #16]
    4e68:	a9425bf5 	ldp	x21, x22, [sp, #32]
    4e6c:	f9401bf7 	ldr	x23, [sp, #48]
    4e70:	a8c47bfd 	ldp	x29, x30, [sp], #64
    4e74:	d65f03c0 	ret

0000000000004e78 <mbedtls_mpi_write_binary_le>:
mbedtls_mpi_write_binary_le():
/home/fangjiang/workspace/optee-os/lib/libmbedtls/mbedtls/library/bignum.c:1055
    4e78:	f9400403 	ldr	x3, [x0, #8]
/home/fangjiang/workspace/optee-os/lib/libmbedtls/mbedtls/library/bignum.c:1054
    4e7c:	aa0103e5 	mov	x5, x1
/home/fangjiang/workspace/optee-os/lib/libmbedtls/mbedtls/library/bignum.c:1055
    4e80:	d37ef463 	lsl	x3, x3, #2
/home/fangjiang/workspace/optee-os/lib/libmbedtls/mbedtls/library/bignum.c:1059
    4e84:	eb02007f 	cmp	x3, x2
    4e88:	54000383 	b.cc	4ef8 <mbedtls_mpi_write_binary_le+0x80>  // b.lo, b.ul, b.last
    4e8c:	aa0203e4 	mov	x4, x2
/home/fangjiang/workspace/optee-os/lib/libmbedtls/mbedtls/library/bignum.c:1069 (discriminator 1)
    4e90:	eb03009f 	cmp	x4, x3
    4e94:	54000201 	b.ne	4ed4 <mbedtls_mpi_write_binary_le+0x5c>  // b.any
    4e98:	aa0203e6 	mov	x6, x2
/home/fangjiang/workspace/optee-os/lib/libmbedtls/mbedtls/library/bignum.c:1076
    4e9c:	d2800004 	mov	x4, #0x0                   	// #0
/home/fangjiang/workspace/optee-os/lib/libmbedtls/mbedtls/library/bignum.c:1076 (discriminator 1)
    4ea0:	eb0400df 	cmp	x6, x4
    4ea4:	540002e1 	b.ne	4f00 <mbedtls_mpi_write_binary_le+0x88>  // b.any
/home/fangjiang/workspace/optee-os/lib/libmbedtls/mbedtls/library/bignum.c:1079
    4ea8:	eb02007f 	cmp	x3, x2
    4eac:	540003e2 	b.cs	4f28 <mbedtls_mpi_write_binary_le+0xb0>  // b.hs, b.nlast
/home/fangjiang/workspace/optee-os/lib/libmbedtls/mbedtls/library/bignum.c:1054
    4eb0:	a9bf7bfd 	stp	x29, x30, [sp, #-16]!
/home/fangjiang/workspace/optee-os/lib/libmbedtls/mbedtls/library/bignum.c:1082
    4eb4:	cb030042 	sub	x2, x2, x3
    4eb8:	8b0300a0 	add	x0, x5, x3
/home/fangjiang/workspace/optee-os/lib/libmbedtls/mbedtls/library/bignum.c:1054
    4ebc:	910003fd 	mov	x29, sp
/home/fangjiang/workspace/optee-os/lib/libmbedtls/mbedtls/library/bignum.c:1082
    4ec0:	52800001 	mov	w1, #0x0                   	// #0
    4ec4:	94001037 	bl	8fa0 <memset>
/home/fangjiang/workspace/optee-os/lib/libmbedtls/mbedtls/library/bignum.c:1085
    4ec8:	52800000 	mov	w0, #0x0                   	// #0
/home/fangjiang/workspace/optee-os/lib/libmbedtls/mbedtls/library/bignum.c:1086
    4ecc:	a8c17bfd 	ldp	x29, x30, [sp], #16
    4ed0:	d65f03c0 	ret
/home/fangjiang/workspace/optee-os/lib/libmbedtls/mbedtls/library/bignum.c:1071
    4ed4:	f9400807 	ldr	x7, [x0, #16]
    4ed8:	927ef481 	and	x1, x4, #0xfffffffffffffffc
    4edc:	531d0486 	ubfiz	w6, w4, #3, #2
    4ee0:	b86168e1 	ldr	w1, [x7, x1]
    4ee4:	1ac62421 	lsr	w1, w1, w6
    4ee8:	72001c3f 	tst	w1, #0xff
    4eec:	540001a1 	b.ne	4f20 <mbedtls_mpi_write_binary_le+0xa8>  // b.any
/home/fangjiang/workspace/optee-os/lib/libmbedtls/mbedtls/library/bignum.c:1069 (discriminator 2)
    4ef0:	91000484 	add	x4, x4, #0x1
    4ef4:	17ffffe7 	b	4e90 <mbedtls_mpi_write_binary_le+0x18>
    4ef8:	aa0303e6 	mov	x6, x3
    4efc:	17ffffe8 	b	4e9c <mbedtls_mpi_write_binary_le+0x24>
/home/fangjiang/workspace/optee-os/lib/libmbedtls/mbedtls/library/bignum.c:1077 (discriminator 3)
    4f00:	f9400808 	ldr	x8, [x0, #16]
    4f04:	927ef481 	and	x1, x4, #0xfffffffffffffffc
    4f08:	531d0487 	ubfiz	w7, w4, #3, #2
    4f0c:	b8616901 	ldr	w1, [x8, x1]
    4f10:	1ac72421 	lsr	w1, w1, w7
    4f14:	382468a1 	strb	w1, [x5, x4]
/home/fangjiang/workspace/optee-os/lib/libmbedtls/mbedtls/library/bignum.c:1076 (discriminator 3)
    4f18:	91000484 	add	x4, x4, #0x1
    4f1c:	17ffffe1 	b	4ea0 <mbedtls_mpi_write_binary_le+0x28>
/home/fangjiang/workspace/optee-os/lib/libmbedtls/mbedtls/library/bignum.c:1072
    4f20:	128000e0 	mov	w0, #0xfffffff8            	// #-8
    4f24:	d65f03c0 	ret
/home/fangjiang/workspace/optee-os/lib/libmbedtls/mbedtls/library/bignum.c:1085
    4f28:	52800000 	mov	w0, #0x0                   	// #0
/home/fangjiang/workspace/optee-os/lib/libmbedtls/mbedtls/library/bignum.c:1086
    4f2c:	d65f03c0 	ret

0000000000004f30 <mbedtls_mpi_write_binary>:
mbedtls_mpi_write_binary():
/home/fangjiang/workspace/optee-os/lib/libmbedtls/mbedtls/library/bignum.c:1093
    4f30:	a9bd7bfd 	stp	x29, x30, [sp, #-48]!
    4f34:	910003fd 	mov	x29, sp
    4f38:	a90153f3 	stp	x19, x20, [sp, #16]
    4f3c:	aa0003f4 	mov	x20, x0
    4f40:	aa0103e0 	mov	x0, x1
/home/fangjiang/workspace/optee-os/lib/libmbedtls/mbedtls/library/bignum.c:1102
    4f44:	f9400693 	ldr	x19, [x20, #8]
/home/fangjiang/workspace/optee-os/lib/libmbedtls/mbedtls/library/bignum.c:1093
    4f48:	f90013f5 	str	x21, [sp, #32]
/home/fangjiang/workspace/optee-os/lib/libmbedtls/mbedtls/library/bignum.c:1102
    4f4c:	d37ef673 	lsl	x19, x19, #2
/home/fangjiang/workspace/optee-os/lib/libmbedtls/mbedtls/library/bignum.c:1104
    4f50:	eb02027f 	cmp	x19, x2
    4f54:	54000382 	b.cs	4fc4 <mbedtls_mpi_write_binary+0x94>  // b.hs, b.nlast
/home/fangjiang/workspace/optee-os/lib/libmbedtls/mbedtls/library/bignum.c:1112
    4f58:	cb130042 	sub	x2, x2, x19
    4f5c:	8b020035 	add	x21, x1, x2
/home/fangjiang/workspace/optee-os/lib/libmbedtls/mbedtls/library/bignum.c:1113
    4f60:	52800001 	mov	w1, #0x0                   	// #0
    4f64:	9400100f 	bl	8fa0 <memset>
/home/fangjiang/workspace/optee-os/lib/libmbedtls/mbedtls/library/bignum.c:1112
    4f68:	aa1503e0 	mov	x0, x21
    4f6c:	aa1303e2 	mov	x2, x19
/home/fangjiang/workspace/optee-os/lib/libmbedtls/mbedtls/library/bignum.c:1128
    4f70:	8b020001 	add	x1, x0, x2
    4f74:	d2800003 	mov	x3, #0x0                   	// #0
/home/fangjiang/workspace/optee-os/lib/libmbedtls/mbedtls/library/bignum.c:1128 (discriminator 1)
    4f78:	d1000421 	sub	x1, x1, #0x1
    4f7c:	eb03005f 	cmp	x2, x3
    4f80:	54000261 	b.ne	4fcc <mbedtls_mpi_write_binary+0x9c>  // b.any
/home/fangjiang/workspace/optee-os/lib/libmbedtls/mbedtls/library/bignum.c:1131
    4f84:	52800000 	mov	w0, #0x0                   	// #0
/home/fangjiang/workspace/optee-os/lib/libmbedtls/mbedtls/library/bignum.c:1132
    4f88:	a94153f3 	ldp	x19, x20, [sp, #16]
    4f8c:	f94013f5 	ldr	x21, [sp, #32]
    4f90:	a8c37bfd 	ldp	x29, x30, [sp], #48
    4f94:	d65f03c0 	ret
/home/fangjiang/workspace/optee-os/lib/libmbedtls/mbedtls/library/bignum.c:1123
    4f98:	f9400a85 	ldr	x5, [x20, #16]
    4f9c:	927ef423 	and	x3, x1, #0xfffffffffffffffc
    4fa0:	531d0424 	ubfiz	w4, w1, #3, #2
    4fa4:	b86368a3 	ldr	w3, [x5, x3]
    4fa8:	1ac42463 	lsr	w3, w3, w4
    4fac:	72001c7f 	tst	w3, #0xff
    4fb0:	540001e1 	b.ne	4fec <mbedtls_mpi_write_binary+0xbc>  // b.any
/home/fangjiang/workspace/optee-os/lib/libmbedtls/mbedtls/library/bignum.c:1121 (discriminator 2)
    4fb4:	91000421 	add	x1, x1, #0x1
/home/fangjiang/workspace/optee-os/lib/libmbedtls/mbedtls/library/bignum.c:1121 (discriminator 1)
    4fb8:	eb13003f 	cmp	x1, x19
    4fbc:	54fffee1 	b.ne	4f98 <mbedtls_mpi_write_binary+0x68>  // b.any
    4fc0:	17ffffec 	b	4f70 <mbedtls_mpi_write_binary+0x40>
    4fc4:	aa0203e1 	mov	x1, x2
    4fc8:	17fffffc 	b	4fb8 <mbedtls_mpi_write_binary+0x88>
/home/fangjiang/workspace/optee-os/lib/libmbedtls/mbedtls/library/bignum.c:1129 (discriminator 3)
    4fcc:	f9400a85 	ldr	x5, [x20, #16]
    4fd0:	927ef460 	and	x0, x3, #0xfffffffffffffffc
    4fd4:	531d0464 	ubfiz	w4, w3, #3, #2
/home/fangjiang/workspace/optee-os/lib/libmbedtls/mbedtls/library/bignum.c:1128 (discriminator 3)
    4fd8:	91000463 	add	x3, x3, #0x1
/home/fangjiang/workspace/optee-os/lib/libmbedtls/mbedtls/library/bignum.c:1129 (discriminator 3)
    4fdc:	b86068a0 	ldr	w0, [x5, x0]
    4fe0:	1ac42400 	lsr	w0, w0, w4
    4fe4:	39000020 	strb	w0, [x1]
/home/fangjiang/workspace/optee-os/lib/libmbedtls/mbedtls/library/bignum.c:1128 (discriminator 3)
    4fe8:	17ffffe4 	b	4f78 <mbedtls_mpi_write_binary+0x48>
/home/fangjiang/workspace/optee-os/lib/libmbedtls/mbedtls/library/bignum.c:1124
    4fec:	128000e0 	mov	w0, #0xfffffff8            	// #-8
    4ff0:	17ffffe6 	b	4f88 <mbedtls_mpi_write_binary+0x58>

0000000000004ff4 <mbedtls_mpi_shift_l>:
mbedtls_mpi_shift_l():
/home/fangjiang/workspace/optee-os/lib/libmbedtls/mbedtls/library/bignum.c:1138
    4ff4:	a9bd7bfd 	stp	x29, x30, [sp, #-48]!
    4ff8:	910003fd 	mov	x29, sp
    4ffc:	a90153f3 	stp	x19, x20, [sp, #16]
    5000:	aa0003f3 	mov	x19, x0
/home/fangjiang/workspace/optee-os/lib/libmbedtls/mbedtls/library/bignum.c:1144
    5004:	d345fc34 	lsr	x20, x1, #5
/home/fangjiang/workspace/optee-os/lib/libmbedtls/mbedtls/library/bignum.c:1138
    5008:	a9025bf5 	stp	x21, x22, [sp, #32]
    500c:	aa0103f5 	mov	x21, x1
/home/fangjiang/workspace/optee-os/lib/libmbedtls/mbedtls/library/bignum.c:1145
    5010:	92401036 	and	x22, x1, #0x1f
/home/fangjiang/workspace/optee-os/lib/libmbedtls/mbedtls/library/bignum.c:1147
    5014:	97ffff3c 	bl	4d04 <mbedtls_mpi_bitlen>
    5018:	8b150000 	add	x0, x0, x21
/home/fangjiang/workspace/optee-os/lib/libmbedtls/mbedtls/library/bignum.c:1149
    501c:	f9400661 	ldr	x1, [x19, #8]
    5020:	eb01141f 	cmp	x0, x1, lsl #5
    5024:	540000c8 	b.hi	503c <mbedtls_mpi_shift_l+0x48>  // b.pmore
/home/fangjiang/workspace/optee-os/lib/libmbedtls/mbedtls/library/bignum.c:1157
    5028:	f1007ebf 	cmp	x21, #0x1f
    502c:	540001c8 	b.hi	5064 <mbedtls_mpi_shift_l+0x70>  // b.pmore
/home/fangjiang/workspace/optee-os/lib/libmbedtls/mbedtls/library/bignum.c:1169
    5030:	b50004d6 	cbnz	x22, 50c8 <mbedtls_mpi_shift_l+0xd4>
/home/fangjiang/workspace/optee-os/lib/libmbedtls/mbedtls/library/bignum.c:1152
    5034:	52800000 	mov	w0, #0x0                   	// #0
    5038:	14000007 	b	5054 <mbedtls_mpi_shift_l+0x60>
/home/fangjiang/workspace/optee-os/lib/libmbedtls/mbedtls/library/bignum.c:1150
    503c:	f240101f 	tst	x0, #0x1f
    5040:	d345fc00 	lsr	x0, x0, #5
    5044:	9a800401 	cinc	x1, x0, ne  // ne = any
    5048:	aa1303e0 	mov	x0, x19
    504c:	97fffd75 	bl	4620 <mbedtls_mpi_grow>
    5050:	34fffec0 	cbz	w0, 5028 <mbedtls_mpi_shift_l+0x34>
/home/fangjiang/workspace/optee-os/lib/libmbedtls/mbedtls/library/bignum.c:1183
    5054:	a94153f3 	ldp	x19, x20, [sp, #16]
    5058:	a9425bf5 	ldp	x21, x22, [sp, #32]
    505c:	a8c37bfd 	ldp	x29, x30, [sp], #48
    5060:	d65f03c0 	ret
/home/fangjiang/workspace/optee-os/lib/libmbedtls/mbedtls/library/bignum.c:1159
    5064:	f9400661 	ldr	x1, [x19, #8]
    5068:	92800063 	mov	x3, #0xfffffffffffffffc    	// #-4
    506c:	9b037e83 	mul	x3, x20, x3
    5070:	aa0103e2 	mov	x2, x1
    5074:	d37ef420 	lsl	x0, x1, #2
    5078:	d1001000 	sub	x0, x0, #0x4
/home/fangjiang/workspace/optee-os/lib/libmbedtls/mbedtls/library/bignum.c:1159 (discriminator 1)
    507c:	eb14005f 	cmp	x2, x20
    5080:	54000168 	b.hi	50ac <mbedtls_mpi_shift_l+0xb8>  // b.pmore
    5084:	eb010280 	subs	x0, x20, x1
    5088:	9a9f9000 	csel	x0, x0, xzr, ls  // ls = plast
    508c:	8b000021 	add	x1, x1, x0
    5090:	d37ef421 	lsl	x1, x1, #2
/home/fangjiang/workspace/optee-os/lib/libmbedtls/mbedtls/library/bignum.c:1162 (discriminator 2)
    5094:	d1001021 	sub	x1, x1, #0x4
    5098:	b100103f 	cmn	x1, #0x4
    509c:	54fffca0 	b.eq	5030 <mbedtls_mpi_shift_l+0x3c>  // b.none
/home/fangjiang/workspace/optee-os/lib/libmbedtls/mbedtls/library/bignum.c:1163 (discriminator 2)
    50a0:	f9400a60 	ldr	x0, [x19, #16]
    50a4:	b821681f 	str	wzr, [x0, x1]
    50a8:	17fffffb 	b	5094 <mbedtls_mpi_shift_l+0xa0>
/home/fangjiang/workspace/optee-os/lib/libmbedtls/mbedtls/library/bignum.c:1160 (discriminator 3)
    50ac:	f9400a64 	ldr	x4, [x19, #16]
/home/fangjiang/workspace/optee-os/lib/libmbedtls/mbedtls/library/bignum.c:1159 (discriminator 3)
    50b0:	d1000442 	sub	x2, x2, #0x1
/home/fangjiang/workspace/optee-os/lib/libmbedtls/mbedtls/library/bignum.c:1160 (discriminator 3)
    50b4:	8b030085 	add	x5, x4, x3
    50b8:	b86068a5 	ldr	w5, [x5, x0]
    50bc:	b8206885 	str	w5, [x4, x0]
/home/fangjiang/workspace/optee-os/lib/libmbedtls/mbedtls/library/bignum.c:1159 (discriminator 3)
    50c0:	d1001000 	sub	x0, x0, #0x4
    50c4:	17ffffee 	b	507c <mbedtls_mpi_shift_l+0x88>
/home/fangjiang/workspace/optee-os/lib/libmbedtls/mbedtls/library/bignum.c:1171
    50c8:	f9400666 	ldr	x6, [x19, #8]
/home/fangjiang/workspace/optee-os/lib/libmbedtls/mbedtls/library/bignum.c:1173
    50cc:	52800400 	mov	w0, #0x20                  	// #32
    50d0:	4b160000 	sub	w0, w0, w22
/home/fangjiang/workspace/optee-os/lib/libmbedtls/mbedtls/library/bignum.c:1141
    50d4:	52800002 	mov	w2, #0x0                   	// #0
/home/fangjiang/workspace/optee-os/lib/libmbedtls/mbedtls/library/bignum.c:1171 (discriminator 1)
    50d8:	eb1400df 	cmp	x6, x20
    50dc:	54fffac9 	b.ls	5034 <mbedtls_mpi_shift_l+0x40>  // b.plast
/home/fangjiang/workspace/optee-os/lib/libmbedtls/mbedtls/library/bignum.c:1173 (discriminator 3)
    50e0:	f9400a65 	ldr	x5, [x19, #16]
    50e4:	d37ef684 	lsl	x4, x20, #2
/home/fangjiang/workspace/optee-os/lib/libmbedtls/mbedtls/library/bignum.c:1171 (discriminator 3)
    50e8:	91000694 	add	x20, x20, #0x1
/home/fangjiang/workspace/optee-os/lib/libmbedtls/mbedtls/library/bignum.c:1173 (discriminator 3)
    50ec:	b86468a3 	ldr	w3, [x5, x4]
/home/fangjiang/workspace/optee-os/lib/libmbedtls/mbedtls/library/bignum.c:1174 (discriminator 3)
    50f0:	1ad62061 	lsl	w1, w3, w22
/home/fangjiang/workspace/optee-os/lib/libmbedtls/mbedtls/library/bignum.c:1175 (discriminator 3)
    50f4:	2a020021 	orr	w1, w1, w2
/home/fangjiang/workspace/optee-os/lib/libmbedtls/mbedtls/library/bignum.c:1176 (discriminator 3)
    50f8:	1ac02462 	lsr	w2, w3, w0
/home/fangjiang/workspace/optee-os/lib/libmbedtls/mbedtls/library/bignum.c:1175 (discriminator 3)
    50fc:	b82468a1 	str	w1, [x5, x4]
/home/fangjiang/workspace/optee-os/lib/libmbedtls/mbedtls/library/bignum.c:1171 (discriminator 3)
    5100:	17fffff6 	b	50d8 <mbedtls_mpi_shift_l+0xe4>

0000000000005104 <mbedtls_mpi_shift_r>:
mbedtls_mpi_shift_r():
/home/fangjiang/workspace/optee-os/lib/libmbedtls/mbedtls/library/bignum.c:1197
    5104:	f9400402 	ldr	x2, [x0, #8]
/home/fangjiang/workspace/optee-os/lib/libmbedtls/mbedtls/library/bignum.c:1194
    5108:	d345fc26 	lsr	x6, x1, #5
/home/fangjiang/workspace/optee-os/lib/libmbedtls/mbedtls/library/bignum.c:1195
    510c:	92401024 	and	x4, x1, #0x1f
/home/fangjiang/workspace/optee-os/lib/libmbedtls/mbedtls/library/bignum.c:1197
    5110:	eb06005f 	cmp	x2, x6
    5114:	54000063 	b.cc	5120 <mbedtls_mpi_shift_r+0x1c>  // b.lo, b.ul, b.last
/home/fangjiang/workspace/optee-os/lib/libmbedtls/mbedtls/library/bignum.c:1197 (discriminator 1)
    5118:	54000081 	b.ne	5128 <mbedtls_mpi_shift_r+0x24>  // b.any
/home/fangjiang/workspace/optee-os/lib/libmbedtls/mbedtls/library/bignum.c:1197 (discriminator 2)
    511c:	b40004a4 	cbz	x4, 51b0 <mbedtls_mpi_shift_r+0xac>
/home/fangjiang/workspace/optee-os/lib/libmbedtls/mbedtls/library/bignum.c:1198
    5120:	52800001 	mov	w1, #0x0                   	// #0
    5124:	17fffe9b 	b	4b90 <mbedtls_mpi_lset>
/home/fangjiang/workspace/optee-os/lib/libmbedtls/mbedtls/library/bignum.c:1203
    5128:	f1007c3f 	cmp	x1, #0x1f
    512c:	54000468 	b.hi	51b8 <mbedtls_mpi_shift_r+0xb4>  // b.pmore
/home/fangjiang/workspace/optee-os/lib/libmbedtls/mbedtls/library/bignum.c:1215
    5130:	b5000384 	cbnz	x4, 51a0 <mbedtls_mpi_shift_r+0x9c>
/home/fangjiang/workspace/optee-os/lib/libmbedtls/mbedtls/library/bignum.c:1227
    5134:	52800000 	mov	w0, #0x0                   	// #0
    5138:	d65f03c0 	ret
/home/fangjiang/workspace/optee-os/lib/libmbedtls/mbedtls/library/bignum.c:1206 (discriminator 3)
    513c:	f9400801 	ldr	x1, [x0, #16]
    5140:	b8656827 	ldr	w7, [x1, x5]
    5144:	910010a5 	add	x5, x5, #0x4
    5148:	b8237827 	str	w7, [x1, x3, lsl #2]
/home/fangjiang/workspace/optee-os/lib/libmbedtls/mbedtls/library/bignum.c:1205 (discriminator 3)
    514c:	91000463 	add	x3, x3, #0x1
/home/fangjiang/workspace/optee-os/lib/libmbedtls/mbedtls/library/bignum.c:1205 (discriminator 1)
    5150:	cb060041 	sub	x1, x2, x6
    5154:	eb03003f 	cmp	x1, x3
    5158:	54ffff28 	b.hi	513c <mbedtls_mpi_shift_r+0x38>  // b.pmore
/home/fangjiang/workspace/optee-os/lib/libmbedtls/mbedtls/library/bignum.c:1208 (discriminator 1)
    515c:	eb01005f 	cmp	x2, x1
    5160:	54fffe89 	b.ls	5130 <mbedtls_mpi_shift_r+0x2c>  // b.plast
/home/fangjiang/workspace/optee-os/lib/libmbedtls/mbedtls/library/bignum.c:1209 (discriminator 2)
    5164:	f9400803 	ldr	x3, [x0, #16]
    5168:	b821787f 	str	wzr, [x3, x1, lsl #2]
/home/fangjiang/workspace/optee-os/lib/libmbedtls/mbedtls/library/bignum.c:1208 (discriminator 2)
    516c:	91000421 	add	x1, x1, #0x1
    5170:	17fffffb 	b	515c <mbedtls_mpi_shift_r+0x58>
/home/fangjiang/workspace/optee-os/lib/libmbedtls/mbedtls/library/bignum.c:1219 (discriminator 3)
    5174:	f9400808 	ldr	x8, [x0, #16]
    5178:	d37ef441 	lsl	x1, x2, #2
    517c:	b8616907 	ldr	w7, [x8, x1]
/home/fangjiang/workspace/optee-os/lib/libmbedtls/mbedtls/library/bignum.c:1220 (discriminator 3)
    5180:	1ac424e5 	lsr	w5, w7, w4
/home/fangjiang/workspace/optee-os/lib/libmbedtls/mbedtls/library/bignum.c:1221 (discriminator 3)
    5184:	2a0600a5 	orr	w5, w5, w6
/home/fangjiang/workspace/optee-os/lib/libmbedtls/mbedtls/library/bignum.c:1222 (discriminator 3)
    5188:	1ac320e6 	lsl	w6, w7, w3
/home/fangjiang/workspace/optee-os/lib/libmbedtls/mbedtls/library/bignum.c:1221 (discriminator 3)
    518c:	b8216905 	str	w5, [x8, x1]
/home/fangjiang/workspace/optee-os/lib/libmbedtls/mbedtls/library/bignum.c:1217 (discriminator 1)
    5190:	d1000442 	sub	x2, x2, #0x1
    5194:	b100045f 	cmn	x2, #0x1
    5198:	54fffee1 	b.ne	5174 <mbedtls_mpi_shift_r+0x70>  // b.any
    519c:	17ffffe6 	b	5134 <mbedtls_mpi_shift_r+0x30>
/home/fangjiang/workspace/optee-os/lib/libmbedtls/mbedtls/library/bignum.c:1219
    51a0:	52800403 	mov	w3, #0x20                  	// #32
/home/fangjiang/workspace/optee-os/lib/libmbedtls/mbedtls/library/bignum.c:1191
    51a4:	52800006 	mov	w6, #0x0                   	// #0
/home/fangjiang/workspace/optee-os/lib/libmbedtls/mbedtls/library/bignum.c:1219
    51a8:	4b040063 	sub	w3, w3, w4
    51ac:	17fffff9 	b	5190 <mbedtls_mpi_shift_r+0x8c>
/home/fangjiang/workspace/optee-os/lib/libmbedtls/mbedtls/library/bignum.c:1203
    51b0:	f1007c3f 	cmp	x1, #0x1f
    51b4:	54fffc09 	b.ls	5134 <mbedtls_mpi_shift_r+0x30>  // b.plast
    51b8:	d37ef4c5 	lsl	x5, x6, #2
/home/fangjiang/workspace/optee-os/lib/libmbedtls/mbedtls/library/bignum.c:1189 (discriminator 1)
    51bc:	d2800003 	mov	x3, #0x0                   	// #0
    51c0:	17ffffe4 	b	5150 <mbedtls_mpi_shift_r+0x4c>

00000000000051c4 <mbedtls_mpi_cmp_abs>:
mbedtls_mpi_cmp_abs():
/home/fangjiang/workspace/optee-os/lib/libmbedtls/mbedtls/library/bignum.c:1238
    51c4:	f9400402 	ldr	x2, [x0, #8]
/home/fangjiang/workspace/optee-os/lib/libmbedtls/mbedtls/library/bignum.c:1238 (discriminator 1)
    51c8:	b50000c2 	cbnz	x2, 51e0 <mbedtls_mpi_cmp_abs+0x1c>
/home/fangjiang/workspace/optee-os/lib/libmbedtls/mbedtls/library/bignum.c:1242
    51cc:	f9400423 	ldr	x3, [x1, #8]
/home/fangjiang/workspace/optee-os/lib/libmbedtls/mbedtls/library/bignum.c:1242 (discriminator 1)
    51d0:	b5000143 	cbnz	x3, 51f8 <mbedtls_mpi_cmp_abs+0x34>
/home/fangjiang/workspace/optee-os/lib/libmbedtls/mbedtls/library/bignum.c:1246
    51d4:	f100005f 	cmp	x2, #0x0
    51d8:	1a9f07e0 	cset	w0, ne  // ne = any
/home/fangjiang/workspace/optee-os/lib/libmbedtls/mbedtls/library/bignum.c:1259
    51dc:	d65f03c0 	ret
/home/fangjiang/workspace/optee-os/lib/libmbedtls/mbedtls/library/bignum.c:1239
    51e0:	f9400803 	ldr	x3, [x0, #16]
    51e4:	8b020863 	add	x3, x3, x2, lsl #2
    51e8:	b85fc063 	ldur	w3, [x3, #-4]
    51ec:	35ffff03 	cbnz	w3, 51cc <mbedtls_mpi_cmp_abs+0x8>
/home/fangjiang/workspace/optee-os/lib/libmbedtls/mbedtls/library/bignum.c:1238 (discriminator 2)
    51f0:	d1000442 	sub	x2, x2, #0x1
    51f4:	17fffff5 	b	51c8 <mbedtls_mpi_cmp_abs+0x4>
/home/fangjiang/workspace/optee-os/lib/libmbedtls/mbedtls/library/bignum.c:1243
    51f8:	f9400824 	ldr	x4, [x1, #16]
    51fc:	8b030885 	add	x5, x4, x3, lsl #2
    5200:	b85fc0a5 	ldur	w5, [x5, #-4]
    5204:	35000065 	cbnz	w5, 5210 <mbedtls_mpi_cmp_abs+0x4c>
/home/fangjiang/workspace/optee-os/lib/libmbedtls/mbedtls/library/bignum.c:1242 (discriminator 2)
    5208:	d1000463 	sub	x3, x3, #0x1
    520c:	17fffff1 	b	51d0 <mbedtls_mpi_cmp_abs+0xc>
/home/fangjiang/workspace/optee-os/lib/libmbedtls/mbedtls/library/bignum.c:1249
    5210:	eb03005f 	cmp	x2, x3
    5214:	54000228 	b.hi	5258 <mbedtls_mpi_cmp_abs+0x94>  // b.pmore
/home/fangjiang/workspace/optee-os/lib/libmbedtls/mbedtls/library/bignum.c:1250
    5218:	540001c3 	b.cc	5250 <mbedtls_mpi_cmp_abs+0x8c>  // b.lo, b.ul, b.last
    521c:	d1000442 	sub	x2, x2, #0x1
/home/fangjiang/workspace/optee-os/lib/libmbedtls/mbedtls/library/bignum.c:1252 (discriminator 1)
    5220:	b100045f 	cmn	x2, #0x1
    5224:	54000061 	b.ne	5230 <mbedtls_mpi_cmp_abs+0x6c>  // b.any
/home/fangjiang/workspace/optee-os/lib/libmbedtls/mbedtls/library/bignum.c:1247
    5228:	52800000 	mov	w0, #0x0                   	// #0
    522c:	17ffffec 	b	51dc <mbedtls_mpi_cmp_abs+0x18>
/home/fangjiang/workspace/optee-os/lib/libmbedtls/mbedtls/library/bignum.c:1254
    5230:	f9400803 	ldr	x3, [x0, #16]
    5234:	d37ef441 	lsl	x1, x2, #2
    5238:	b8616863 	ldr	w3, [x3, x1]
    523c:	b8616881 	ldr	w1, [x4, x1]
    5240:	6b01007f 	cmp	w3, w1
    5244:	540000a8 	b.hi	5258 <mbedtls_mpi_cmp_abs+0x94>  // b.pmore
/home/fangjiang/workspace/optee-os/lib/libmbedtls/mbedtls/library/bignum.c:1255
    5248:	d1000442 	sub	x2, x2, #0x1
    524c:	54fffea2 	b.cs	5220 <mbedtls_mpi_cmp_abs+0x5c>  // b.hs, b.nlast
/home/fangjiang/workspace/optee-os/lib/libmbedtls/mbedtls/library/bignum.c:1250
    5250:	12800000 	mov	w0, #0xffffffff            	// #-1
    5254:	17ffffe2 	b	51dc <mbedtls_mpi_cmp_abs+0x18>
/home/fangjiang/workspace/optee-os/lib/libmbedtls/mbedtls/library/bignum.c:1249
    5258:	52800020 	mov	w0, #0x1                   	// #1
    525c:	17ffffe0 	b	51dc <mbedtls_mpi_cmp_abs+0x18>

0000000000005260 <mbedtls_mpi_cmp_mpi>:
mbedtls_mpi_cmp_mpi():
/home/fangjiang/workspace/optee-os/lib/libmbedtls/mbedtls/library/bignum.c:1270
    5260:	f9400402 	ldr	x2, [x0, #8]
/home/fangjiang/workspace/optee-os/lib/libmbedtls/mbedtls/library/bignum.c:1265
    5264:	aa0003e3 	mov	x3, x0
/home/fangjiang/workspace/optee-os/lib/libmbedtls/mbedtls/library/bignum.c:1270 (discriminator 1)
    5268:	b50000c2 	cbnz	x2, 5280 <mbedtls_mpi_cmp_mpi+0x20>
/home/fangjiang/workspace/optee-os/lib/libmbedtls/mbedtls/library/bignum.c:1274
    526c:	f9400420 	ldr	x0, [x1, #8]
/home/fangjiang/workspace/optee-os/lib/libmbedtls/mbedtls/library/bignum.c:1274 (discriminator 1)
    5270:	b5000140 	cbnz	x0, 5298 <mbedtls_mpi_cmp_mpi+0x38>
/home/fangjiang/workspace/optee-os/lib/libmbedtls/mbedtls/library/bignum.c:1278
    5274:	b40005a2 	cbz	x2, 5328 <mbedtls_mpi_cmp_mpi+0xc8>
/home/fangjiang/workspace/optee-os/lib/libmbedtls/mbedtls/library/bignum.c:1281 (discriminator 1)
    5278:	79c00060 	ldrsh	w0, [x3]
/home/fangjiang/workspace/optee-os/lib/libmbedtls/mbedtls/library/bignum.c:1294
    527c:	d65f03c0 	ret
/home/fangjiang/workspace/optee-os/lib/libmbedtls/mbedtls/library/bignum.c:1271
    5280:	f9400860 	ldr	x0, [x3, #16]
    5284:	8b020800 	add	x0, x0, x2, lsl #2
    5288:	b85fc000 	ldur	w0, [x0, #-4]
    528c:	35ffff00 	cbnz	w0, 526c <mbedtls_mpi_cmp_mpi+0xc>
/home/fangjiang/workspace/optee-os/lib/libmbedtls/mbedtls/library/bignum.c:1270 (discriminator 2)
    5290:	d1000442 	sub	x2, x2, #0x1
    5294:	17fffff5 	b	5268 <mbedtls_mpi_cmp_mpi+0x8>
/home/fangjiang/workspace/optee-os/lib/libmbedtls/mbedtls/library/bignum.c:1275
    5298:	f9400824 	ldr	x4, [x1, #16]
    529c:	8b000885 	add	x5, x4, x0, lsl #2
    52a0:	b85fc0a5 	ldur	w5, [x5, #-4]
    52a4:	35000065 	cbnz	w5, 52b0 <mbedtls_mpi_cmp_mpi+0x50>
/home/fangjiang/workspace/optee-os/lib/libmbedtls/mbedtls/library/bignum.c:1274 (discriminator 2)
    52a8:	d1000400 	sub	x0, x0, #0x1
    52ac:	17fffff1 	b	5270 <mbedtls_mpi_cmp_mpi+0x10>
/home/fangjiang/workspace/optee-os/lib/libmbedtls/mbedtls/library/bignum.c:1281
    52b0:	eb00005f 	cmp	x2, x0
    52b4:	54fffe28 	b.hi	5278 <mbedtls_mpi_cmp_mpi+0x18>  // b.pmore
/home/fangjiang/workspace/optee-os/lib/libmbedtls/mbedtls/library/bignum.c:1282
    52b8:	79c00021 	ldrsh	w1, [x1]
    52bc:	54000062 	b.cs	52c8 <mbedtls_mpi_cmp_mpi+0x68>  // b.hs, b.nlast
/home/fangjiang/workspace/optee-os/lib/libmbedtls/mbedtls/library/bignum.c:1282 (discriminator 1)
    52c0:	4b0103e0 	neg	w0, w1
    52c4:	17ffffee 	b	527c <mbedtls_mpi_cmp_mpi+0x1c>
/home/fangjiang/workspace/optee-os/lib/libmbedtls/mbedtls/library/bignum.c:1284
    52c8:	79c00060 	ldrsh	w0, [x3]
    52cc:	7100001f 	cmp	w0, #0x0
    52d0:	5400008d 	b.le	52e0 <mbedtls_mpi_cmp_mpi+0x80>
/home/fangjiang/workspace/optee-os/lib/libmbedtls/mbedtls/library/bignum.c:1284 (discriminator 1)
    52d4:	36f80241 	tbz	w1, #31, 531c <mbedtls_mpi_cmp_mpi+0xbc>
/home/fangjiang/workspace/optee-os/lib/libmbedtls/mbedtls/library/bignum.c:1284
    52d8:	52800020 	mov	w0, #0x1                   	// #1
    52dc:	17ffffe8 	b	527c <mbedtls_mpi_cmp_mpi+0x1c>
/home/fangjiang/workspace/optee-os/lib/libmbedtls/mbedtls/library/bignum.c:1285
    52e0:	7100003f 	cmp	w1, #0x0
    52e4:	540001cd 	b.le	531c <mbedtls_mpi_cmp_mpi+0xbc>
/home/fangjiang/workspace/optee-os/lib/libmbedtls/mbedtls/library/bignum.c:1285 (discriminator 1)
    52e8:	340001a0 	cbz	w0, 531c <mbedtls_mpi_cmp_mpi+0xbc>
/home/fangjiang/workspace/optee-os/lib/libmbedtls/mbedtls/library/bignum.c:1285
    52ec:	12800000 	mov	w0, #0xffffffff            	// #-1
    52f0:	17ffffe3 	b	527c <mbedtls_mpi_cmp_mpi+0x1c>
/home/fangjiang/workspace/optee-os/lib/libmbedtls/mbedtls/library/bignum.c:1289
    52f4:	f9400865 	ldr	x5, [x3, #16]
    52f8:	d37ef441 	lsl	x1, x2, #2
    52fc:	b86168a5 	ldr	w5, [x5, x1]
    5300:	b8616881 	ldr	w1, [x4, x1]
    5304:	6b0100bf 	cmp	w5, w1
    5308:	54fffba8 	b.hi	527c <mbedtls_mpi_cmp_mpi+0x1c>  // b.pmore
/home/fangjiang/workspace/optee-os/lib/libmbedtls/mbedtls/library/bignum.c:1290
    530c:	d1000442 	sub	x2, x2, #0x1
    5310:	54000082 	b.cs	5320 <mbedtls_mpi_cmp_mpi+0xc0>  // b.hs, b.nlast
/home/fangjiang/workspace/optee-os/lib/libmbedtls/mbedtls/library/bignum.c:1290 (discriminator 1)
    5314:	4b0003e0 	neg	w0, w0
    5318:	17ffffd9 	b	527c <mbedtls_mpi_cmp_mpi+0x1c>
    531c:	d1000442 	sub	x2, x2, #0x1
/home/fangjiang/workspace/optee-os/lib/libmbedtls/mbedtls/library/bignum.c:1287 (discriminator 1)
    5320:	b100045f 	cmn	x2, #0x1
    5324:	54fffe81 	b.ne	52f4 <mbedtls_mpi_cmp_mpi+0x94>  // b.any
/home/fangjiang/workspace/optee-os/lib/libmbedtls/mbedtls/library/bignum.c:1279
    5328:	52800000 	mov	w0, #0x0                   	// #0
    532c:	17ffffd4 	b	527c <mbedtls_mpi_cmp_mpi+0x1c>

0000000000005330 <mbedtls_mpi_lt_mpi_ct>:
mbedtls_mpi_lt_mpi_ct():
/home/fangjiang/workspace/optee-os/lib/libmbedtls/mbedtls/library/bignum.c:1345
    5330:	f9400406 	ldr	x6, [x0, #8]
    5334:	f9400423 	ldr	x3, [x1, #8]
    5338:	eb0300df 	cmp	x6, x3
    533c:	54000581 	b.ne	53ec <mbedtls_mpi_lt_mpi_ct+0xbc>  // b.any
/home/fangjiang/workspace/optee-os/lib/libmbedtls/mbedtls/library/bignum.c:1352
    5340:	79400003 	ldrh	w3, [x0]
/home/fangjiang/workspace/optee-os/lib/libmbedtls/mbedtls/library/bignum.c:1379
    5344:	5280002a 	mov	w10, #0x1                   	// #1
/home/fangjiang/workspace/optee-os/lib/libmbedtls/mbedtls/library/bignum.c:1353
    5348:	79400024 	ldrh	w4, [x1]
/home/fangjiang/workspace/optee-os/lib/libmbedtls/mbedtls/library/bignum.c:1352
    534c:	d3410469 	ubfx	x9, x3, #1, #1
/home/fangjiang/workspace/optee-os/lib/libmbedtls/mbedtls/library/bignum.c:1360
    5350:	ca040063 	eor	x3, x3, x4
/home/fangjiang/workspace/optee-os/lib/libmbedtls/mbedtls/library/bignum.c:1390
    5354:	4b09014c 	sub	w12, w10, w9
/home/fangjiang/workspace/optee-os/lib/libmbedtls/mbedtls/library/bignum.c:1360
    5358:	d3410465 	ubfx	x5, x3, #1, #1
/home/fangjiang/workspace/optee-os/lib/libmbedtls/mbedtls/library/bignum.c:1361
    535c:	0a430523 	and	w3, w9, w3, lsr #1
/home/fangjiang/workspace/optee-os/lib/libmbedtls/mbedtls/library/bignum.c:1369 (discriminator 1)
    5360:	d10004c6 	sub	x6, x6, #0x1
/home/fangjiang/workspace/optee-os/lib/libmbedtls/mbedtls/library/bignum.c:1361 (discriminator 1)
    5364:	b9000043 	str	w3, [x2]
/home/fangjiang/workspace/optee-os/lib/libmbedtls/mbedtls/library/bignum.c:1369 (discriminator 1)
    5368:	b10004df 	cmn	x6, #0x1
    536c:	54000061 	b.ne	5378 <mbedtls_mpi_lt_mpi_ct+0x48>  // b.any
/home/fangjiang/workspace/optee-os/lib/libmbedtls/mbedtls/library/bignum.c:1394
    5370:	52800000 	mov	w0, #0x0                   	// #0
/home/fangjiang/workspace/optee-os/lib/libmbedtls/mbedtls/library/bignum.c:1395
    5374:	d65f03c0 	ret
/home/fangjiang/workspace/optee-os/lib/libmbedtls/mbedtls/library/bignum.c:1378 (discriminator 3)
    5378:	f940080d 	ldr	x13, [x0, #16]
    537c:	d37ef4c8 	lsl	x8, x6, #2
    5380:	f940082b 	ldr	x11, [x1, #16]
    5384:	b86869a7 	ldr	w7, [x13, x8]
    5388:	b8686964 	ldr	w4, [x11, x8]
ct_lt_mpi_uint():
/home/fangjiang/workspace/optee-os/lib/libmbedtls/mbedtls/library/bignum.c:1317 (discriminator 3)
    538c:	4b07008e 	sub	w14, w4, w7
/home/fangjiang/workspace/optee-os/lib/libmbedtls/mbedtls/library/bignum.c:1312 (discriminator 3)
    5390:	4a070084 	eor	w4, w4, w7
/home/fangjiang/workspace/optee-os/lib/libmbedtls/mbedtls/library/bignum.c:1323 (discriminator 3)
    5394:	4a0e00e7 	eor	w7, w7, w14
    5398:	0a070084 	and	w4, w4, w7
mbedtls_mpi_lt_mpi_ct():
/home/fangjiang/workspace/optee-os/lib/libmbedtls/mbedtls/library/bignum.c:1379 (discriminator 3)
    539c:	4b050147 	sub	w7, w10, w5
ct_lt_mpi_uint():
/home/fangjiang/workspace/optee-os/lib/libmbedtls/mbedtls/library/bignum.c:1323 (discriminator 3)
    53a0:	4a0e0084 	eor	w4, w4, w14
mbedtls_mpi_lt_mpi_ct():
/home/fangjiang/workspace/optee-os/lib/libmbedtls/mbedtls/library/bignum.c:1379 (discriminator 3)
    53a4:	0a447d2e 	and	w14, w9, w4, lsr #31
/home/fangjiang/workspace/optee-os/lib/libmbedtls/mbedtls/library/bignum.c:1380 (discriminator 3)
    53a8:	2a447ca5 	orr	w5, w5, w4, lsr #31
/home/fangjiang/workspace/optee-os/lib/libmbedtls/mbedtls/library/bignum.c:1379 (discriminator 3)
    53ac:	0a0e00e7 	and	w7, w7, w14
    53b0:	2a0300e3 	orr	w3, w7, w3
    53b4:	b9000043 	str	w3, [x2]
/home/fangjiang/workspace/optee-os/lib/libmbedtls/mbedtls/library/bignum.c:1389 (discriminator 3)
    53b8:	b8686967 	ldr	w7, [x11, x8]
    53bc:	b86869a4 	ldr	w4, [x13, x8]
ct_lt_mpi_uint():
/home/fangjiang/workspace/optee-os/lib/libmbedtls/mbedtls/library/bignum.c:1317 (discriminator 3)
    53c0:	4b070088 	sub	w8, w4, w7
/home/fangjiang/workspace/optee-os/lib/libmbedtls/mbedtls/library/bignum.c:1312 (discriminator 3)
    53c4:	4a070084 	eor	w4, w4, w7
/home/fangjiang/workspace/optee-os/lib/libmbedtls/mbedtls/library/bignum.c:1323 (discriminator 3)
    53c8:	4a0800e7 	eor	w7, w7, w8
    53cc:	0a070084 	and	w4, w4, w7
    53d0:	4a080084 	eor	w4, w4, w8
mbedtls_mpi_lt_mpi_ct():
/home/fangjiang/workspace/optee-os/lib/libmbedtls/mbedtls/library/bignum.c:1390 (discriminator 3)
    53d4:	4b050148 	sub	w8, w10, w5
    53d8:	0a447d87 	and	w7, w12, w4, lsr #31
/home/fangjiang/workspace/optee-os/lib/libmbedtls/mbedtls/library/bignum.c:1391 (discriminator 3)
    53dc:	2a447ca5 	orr	w5, w5, w4, lsr #31
/home/fangjiang/workspace/optee-os/lib/libmbedtls/mbedtls/library/bignum.c:1390 (discriminator 3)
    53e0:	0a0800e7 	and	w7, w7, w8
    53e4:	2a0300e3 	orr	w3, w7, w3
/home/fangjiang/workspace/optee-os/lib/libmbedtls/mbedtls/library/bignum.c:1369 (discriminator 3)
    53e8:	17ffffde 	b	5360 <mbedtls_mpi_lt_mpi_ct+0x30>
/home/fangjiang/workspace/optee-os/lib/libmbedtls/mbedtls/library/bignum.c:1346
    53ec:	12800060 	mov	w0, #0xfffffffc            	// #-4
    53f0:	17ffffe1 	b	5374 <mbedtls_mpi_lt_mpi_ct+0x44>

00000000000053f4 <mbedtls_mpi_cmp_int>:
mbedtls_mpi_cmp_int():
/home/fangjiang/workspace/optee-os/lib/libmbedtls/mbedtls/library/bignum.c:1401
    53f4:	d10143ff 	sub	sp, sp, #0x50
/home/fangjiang/workspace/optee-os/lib/libmbedtls/mbedtls/library/bignum.c:1406
    53f8:	7100003f 	cmp	w1, #0x0
    53fc:	5a81a421 	cneg	w1, w1, lt  // lt = tstop
/home/fangjiang/workspace/optee-os/lib/libmbedtls/mbedtls/library/bignum.c:1401
    5400:	a9037bfd 	stp	x29, x30, [sp, #48]
    5404:	9100c3fd 	add	x29, sp, #0x30
    5408:	f90023f3 	str	x19, [sp, #64]
    540c:	b0000053 	adrp	x19, e000 <_DYNAMIC>
    5410:	f9409a62 	ldr	x2, [x19, #304]
    5414:	f9400043 	ldr	x3, [x2]
    5418:	f90017e3 	str	x3, [sp, #40]
    541c:	d2800003 	mov	x3, #0x0                   	// #0
/home/fangjiang/workspace/optee-os/lib/libmbedtls/mbedtls/library/bignum.c:1406
    5420:	b90023e1 	str	w1, [sp, #32]
/home/fangjiang/workspace/optee-os/lib/libmbedtls/mbedtls/library/bignum.c:1407
    5424:	52800021 	mov	w1, #0x1                   	// #1
    5428:	5a81a421 	cneg	w1, w1, lt  // lt = tstop
    542c:	790013e1 	strh	w1, [sp, #8]
/home/fangjiang/workspace/optee-os/lib/libmbedtls/mbedtls/library/bignum.c:1408
    5430:	d2800021 	mov	x1, #0x1                   	// #1
    5434:	f9000be1 	str	x1, [sp, #16]
/home/fangjiang/workspace/optee-os/lib/libmbedtls/mbedtls/library/bignum.c:1409
    5438:	910083e1 	add	x1, sp, #0x20
    543c:	f9000fe1 	str	x1, [sp, #24]
/home/fangjiang/workspace/optee-os/lib/libmbedtls/mbedtls/library/bignum.c:1411
    5440:	910023e1 	add	x1, sp, #0x8
    5444:	97ffff87 	bl	5260 <mbedtls_mpi_cmp_mpi>
/home/fangjiang/workspace/optee-os/lib/libmbedtls/mbedtls/library/bignum.c:1412
    5448:	f9409a73 	ldr	x19, [x19, #304]
    544c:	f94017e1 	ldr	x1, [sp, #40]
    5450:	f9400262 	ldr	x2, [x19]
    5454:	eb020021 	subs	x1, x1, x2
    5458:	d2800002 	mov	x2, #0x0                   	// #0
    545c:	54000040 	b.eq	5464 <mbedtls_mpi_cmp_int+0x70>  // b.none
    5460:	94000eb8 	bl	8f40 <__stack_chk_fail>
    5464:	a9437bfd 	ldp	x29, x30, [sp, #48]
    5468:	f94023f3 	ldr	x19, [sp, #64]
    546c:	910143ff 	add	sp, sp, #0x50
    5470:	d65f03c0 	ret

0000000000005474 <mbedtls_mpi_add_abs>:
mbedtls_mpi_add_abs():
/home/fangjiang/workspace/optee-os/lib/libmbedtls/mbedtls/library/bignum.c:1418
    5474:	a9bc7bfd 	stp	x29, x30, [sp, #-64]!
    5478:	910003fd 	mov	x29, sp
    547c:	a90153f3 	stp	x19, x20, [sp, #16]
    5480:	aa0003f4 	mov	x20, x0
    5484:	a9025bf5 	stp	x21, x22, [sp, #32]
    5488:	aa0103f6 	mov	x22, x1
    548c:	f9001bf7 	str	x23, [sp, #48]
/home/fangjiang/workspace/optee-os/lib/libmbedtls/mbedtls/library/bignum.c:1426
    5490:	eb02001f 	cmp	x0, x2
    5494:	540000a0 	b.eq	54a8 <mbedtls_mpi_add_abs+0x34>  // b.none
    5498:	aa0203f3 	mov	x19, x2
/home/fangjiang/workspace/optee-os/lib/libmbedtls/mbedtls/library/bignum.c:1431
    549c:	eb01001f 	cmp	x0, x1
    54a0:	54000461 	b.ne	552c <mbedtls_mpi_add_abs+0xb8>  // b.any
/home/fangjiang/workspace/optee-os/lib/libmbedtls/mbedtls/library/bignum.c:1418
    54a4:	aa1303f6 	mov	x22, x19
/home/fangjiang/workspace/optee-os/lib/libmbedtls/mbedtls/library/bignum.c:1439 (discriminator 2)
    54a8:	f94006d3 	ldr	x19, [x22, #8]
/home/fangjiang/workspace/optee-os/lib/libmbedtls/mbedtls/library/bignum.c:1437 (discriminator 2)
    54ac:	52800020 	mov	w0, #0x1                   	// #1
    54b0:	79000280 	strh	w0, [x20]
/home/fangjiang/workspace/optee-os/lib/libmbedtls/mbedtls/library/bignum.c:1439 (discriminator 1)
    54b4:	b50004f3 	cbnz	x19, 5550 <mbedtls_mpi_add_abs+0xdc>
/home/fangjiang/workspace/optee-os/lib/libmbedtls/mbedtls/library/bignum.c:1443
    54b8:	aa1303e1 	mov	x1, x19
    54bc:	aa1403e0 	mov	x0, x20
    54c0:	97fffc58 	bl	4620 <mbedtls_mpi_grow>
    54c4:	2a0003f5 	mov	w21, w0
    54c8:	35000380 	cbnz	w0, 5538 <mbedtls_mpi_add_abs+0xc4>
/home/fangjiang/workspace/optee-os/lib/libmbedtls/mbedtls/library/bignum.c:1445 (discriminator 2)
    54cc:	f9400a82 	ldr	x2, [x20, #16]
/home/fangjiang/workspace/optee-os/lib/libmbedtls/mbedtls/library/bignum.c:1450 (discriminator 2)
    54d0:	d2800001 	mov	x1, #0x0                   	// #0
/home/fangjiang/workspace/optee-os/lib/libmbedtls/mbedtls/library/bignum.c:1445 (discriminator 2)
    54d4:	f9400ac4 	ldr	x4, [x22, #16]
    54d8:	52800016 	mov	w22, #0x0                   	// #0
/home/fangjiang/workspace/optee-os/lib/libmbedtls/mbedtls/library/bignum.c:1450 (discriminator 1)
    54dc:	eb01027f 	cmp	x19, x1
    54e0:	54000441 	b.ne	5568 <mbedtls_mpi_add_abs+0xf4>  // b.any
    54e4:	8b130842 	add	x2, x2, x19, lsl #2
/home/fangjiang/workspace/optee-os/lib/libmbedtls/mbedtls/library/bignum.c:1457
    54e8:	34000296 	cbz	w22, 5538 <mbedtls_mpi_add_abs+0xc4>
/home/fangjiang/workspace/optee-os/lib/libmbedtls/mbedtls/library/bignum.c:1459
    54ec:	f9400680 	ldr	x0, [x20, #8]
    54f0:	91000677 	add	x23, x19, #0x1
    54f4:	eb13001f 	cmp	x0, x19
    54f8:	540000e8 	b.hi	5514 <mbedtls_mpi_add_abs+0xa0>  // b.pmore
/home/fangjiang/workspace/optee-os/lib/libmbedtls/mbedtls/library/bignum.c:1461
    54fc:	aa1703e1 	mov	x1, x23
    5500:	aa1403e0 	mov	x0, x20
    5504:	97fffc47 	bl	4620 <mbedtls_mpi_grow>
    5508:	35000420 	cbnz	w0, 558c <mbedtls_mpi_add_abs+0x118>
/home/fangjiang/workspace/optee-os/lib/libmbedtls/mbedtls/library/bignum.c:1462 (discriminator 2)
    550c:	f9400a82 	ldr	x2, [x20, #16]
    5510:	8b130842 	add	x2, x2, x19, lsl #2
/home/fangjiang/workspace/optee-os/lib/libmbedtls/mbedtls/library/bignum.c:1465
    5514:	b9400040 	ldr	w0, [x2]
    5518:	aa1703f3 	mov	x19, x23
    551c:	2b160000 	adds	w0, w0, w22
    5520:	b8004440 	str	w0, [x2], #4
    5524:	1a9f37f6 	cset	w22, cs  // cs = hs, nlast
    5528:	17fffff0 	b	54e8 <mbedtls_mpi_add_abs+0x74>
/home/fangjiang/workspace/optee-os/lib/libmbedtls/mbedtls/library/bignum.c:1432
    552c:	97fffcd8 	bl	488c <mbedtls_mpi_copy>
    5530:	2a0003f5 	mov	w21, w0
    5534:	34fffb80 	cbz	w0, 54a4 <mbedtls_mpi_add_abs+0x30>
/home/fangjiang/workspace/optee-os/lib/libmbedtls/mbedtls/library/bignum.c:1471
    5538:	2a1503e0 	mov	w0, w21
    553c:	a94153f3 	ldp	x19, x20, [sp, #16]
    5540:	a9425bf5 	ldp	x21, x22, [sp, #32]
    5544:	f9401bf7 	ldr	x23, [sp, #48]
    5548:	a8c47bfd 	ldp	x29, x30, [sp], #64
    554c:	d65f03c0 	ret
/home/fangjiang/workspace/optee-os/lib/libmbedtls/mbedtls/library/bignum.c:1440
    5550:	f9400ac0 	ldr	x0, [x22, #16]
    5554:	8b130800 	add	x0, x0, x19, lsl #2
    5558:	b85fc000 	ldur	w0, [x0, #-4]
    555c:	35fffae0 	cbnz	w0, 54b8 <mbedtls_mpi_add_abs+0x44>
/home/fangjiang/workspace/optee-os/lib/libmbedtls/mbedtls/library/bignum.c:1439 (discriminator 2)
    5560:	d1000673 	sub	x19, x19, #0x1
    5564:	17ffffd4 	b	54b4 <mbedtls_mpi_add_abs+0x40>
/home/fangjiang/workspace/optee-os/lib/libmbedtls/mbedtls/library/bignum.c:1452 (discriminator 3)
    5568:	b8617840 	ldr	w0, [x2, x1, lsl #2]
    556c:	b8617883 	ldr	w3, [x4, x1, lsl #2]
/home/fangjiang/workspace/optee-os/lib/libmbedtls/mbedtls/library/bignum.c:1453 (discriminator 3)
    5570:	2b160000 	adds	w0, w0, w22
    5574:	1a9f37f6 	cset	w22, cs  // cs = hs, nlast
/home/fangjiang/workspace/optee-os/lib/libmbedtls/mbedtls/library/bignum.c:1454 (discriminator 3)
    5578:	2b030000 	adds	w0, w0, w3
    557c:	1a9636d6 	cinc	w22, w22, cs  // cs = hs, nlast
    5580:	b8217840 	str	w0, [x2, x1, lsl #2]
/home/fangjiang/workspace/optee-os/lib/libmbedtls/mbedtls/library/bignum.c:1450 (discriminator 3)
    5584:	91000421 	add	x1, x1, #0x1
    5588:	17ffffd5 	b	54dc <mbedtls_mpi_add_abs+0x68>
    558c:	2a0003f5 	mov	w21, w0
/home/fangjiang/workspace/optee-os/lib/libmbedtls/mbedtls/library/bignum.c:1470
    5590:	17ffffea 	b	5538 <mbedtls_mpi_add_abs+0xc4>

0000000000005594 <mbedtls_mpi_sub_abs>:
mbedtls_mpi_sub_abs():
/home/fangjiang/workspace/optee-os/lib/libmbedtls/mbedtls/library/bignum.c:1511
    5594:	a9bc7bfd 	stp	x29, x30, [sp, #-64]!
    5598:	910003fd 	mov	x29, sp
    559c:	a90153f3 	stp	x19, x20, [sp, #16]
    55a0:	aa0003f4 	mov	x20, x0
    55a4:	a9025bf5 	stp	x21, x22, [sp, #32]
    55a8:	aa0103f5 	mov	x21, x1
/home/fangjiang/workspace/optee-os/lib/libmbedtls/mbedtls/library/bignum.c:1519
    55ac:	f9400453 	ldr	x19, [x2, #8]
/home/fangjiang/workspace/optee-os/lib/libmbedtls/mbedtls/library/bignum.c:1511
    55b0:	f9001bf7 	str	x23, [sp, #48]
    55b4:	aa0203f7 	mov	x23, x2
/home/fangjiang/workspace/optee-os/lib/libmbedtls/mbedtls/library/bignum.c:1519 (discriminator 1)
    55b8:	b5000173 	cbnz	x19, 55e4 <mbedtls_mpi_sub_abs+0x50>
/home/fangjiang/workspace/optee-os/lib/libmbedtls/mbedtls/library/bignum.c:1522
    55bc:	f94006a1 	ldr	x1, [x21, #8]
    55c0:	eb13003f 	cmp	x1, x19
    55c4:	540001c2 	b.cs	55fc <mbedtls_mpi_sub_abs+0x68>  // b.hs, b.nlast
/home/fangjiang/workspace/optee-os/lib/libmbedtls/mbedtls/library/bignum.c:1525
    55c8:	12800136 	mov	w22, #0xfffffff6            	// #-10
/home/fangjiang/workspace/optee-os/lib/libmbedtls/mbedtls/library/bignum.c:1560
    55cc:	2a1603e0 	mov	w0, w22
    55d0:	a94153f3 	ldp	x19, x20, [sp, #16]
    55d4:	a9425bf5 	ldp	x21, x22, [sp, #32]
    55d8:	f9401bf7 	ldr	x23, [sp, #48]
    55dc:	a8c47bfd 	ldp	x29, x30, [sp], #64
    55e0:	d65f03c0 	ret
/home/fangjiang/workspace/optee-os/lib/libmbedtls/mbedtls/library/bignum.c:1520
    55e4:	f9400ae0 	ldr	x0, [x23, #16]
    55e8:	8b130800 	add	x0, x0, x19, lsl #2
    55ec:	b85fc000 	ldur	w0, [x0, #-4]
    55f0:	35fffe60 	cbnz	w0, 55bc <mbedtls_mpi_sub_abs+0x28>
/home/fangjiang/workspace/optee-os/lib/libmbedtls/mbedtls/library/bignum.c:1519 (discriminator 2)
    55f4:	d1000673 	sub	x19, x19, #0x1
    55f8:	17fffff0 	b	55b8 <mbedtls_mpi_sub_abs+0x24>
/home/fangjiang/workspace/optee-os/lib/libmbedtls/mbedtls/library/bignum.c:1529
    55fc:	aa1403e0 	mov	x0, x20
    5600:	97fffc08 	bl	4620 <mbedtls_mpi_grow>
    5604:	2a0003f6 	mov	w22, w0
    5608:	35fffe20 	cbnz	w0, 55cc <mbedtls_mpi_sub_abs+0x38>
/home/fangjiang/workspace/optee-os/lib/libmbedtls/mbedtls/library/bignum.c:1534 (discriminator 2)
    560c:	f94006a2 	ldr	x2, [x21, #8]
    5610:	eb13005f 	cmp	x2, x19
    5614:	54000109 	b.ls	5634 <mbedtls_mpi_sub_abs+0xa0>  // b.plast
/home/fangjiang/workspace/optee-os/lib/libmbedtls/mbedtls/library/bignum.c:1535
    5618:	f9400a80 	ldr	x0, [x20, #16]
    561c:	cb130042 	sub	x2, x2, x19
    5620:	f9400aa1 	ldr	x1, [x21, #16]
    5624:	d37ef442 	lsl	x2, x2, #2
    5628:	8b130800 	add	x0, x0, x19, lsl #2
    562c:	8b130821 	add	x1, x1, x19, lsl #2
    5630:	97ffea7c 	bl	20 <memcpy>
/home/fangjiang/workspace/optee-os/lib/libmbedtls/mbedtls/library/bignum.c:1536
    5634:	f9400682 	ldr	x2, [x20, #8]
    5638:	f94006a0 	ldr	x0, [x21, #8]
    563c:	eb00005f 	cmp	x2, x0
    5640:	540000e9 	b.ls	565c <mbedtls_mpi_sub_abs+0xc8>  // b.plast
/home/fangjiang/workspace/optee-os/lib/libmbedtls/mbedtls/library/bignum.c:1537
    5644:	f9400a83 	ldr	x3, [x20, #16]
    5648:	cb000042 	sub	x2, x2, x0
    564c:	52800001 	mov	w1, #0x0                   	// #0
    5650:	d37ef442 	lsl	x2, x2, #2
    5654:	8b000860 	add	x0, x3, x0, lsl #2
    5658:	94000e52 	bl	8fa0 <memset>
/home/fangjiang/workspace/optee-os/lib/libmbedtls/mbedtls/library/bignum.c:1539
    565c:	f9400a80 	ldr	x0, [x20, #16]
mpi_sub_hlp():
/home/fangjiang/workspace/optee-os/lib/libmbedtls/mbedtls/library/bignum.c:1496
    5660:	52800003 	mov	w3, #0x0                   	// #0
mbedtls_mpi_sub_abs():
/home/fangjiang/workspace/optee-os/lib/libmbedtls/mbedtls/library/bignum.c:1539
    5664:	f9400aa5 	ldr	x5, [x21, #16]
mpi_sub_hlp():
/home/fangjiang/workspace/optee-os/lib/libmbedtls/mbedtls/library/bignum.c:1498
    5668:	d2800002 	mov	x2, #0x0                   	// #0
mbedtls_mpi_sub_abs():
/home/fangjiang/workspace/optee-os/lib/libmbedtls/mbedtls/library/bignum.c:1539
    566c:	f9400ae6 	ldr	x6, [x23, #16]
mpi_sub_hlp():
/home/fangjiang/workspace/optee-os/lib/libmbedtls/mbedtls/library/bignum.c:1498
    5670:	eb02027f 	cmp	x19, x2
    5674:	540001e1 	b.ne	56b0 <mbedtls_mpi_sub_abs+0x11c>  // b.any
mbedtls_mpi_sub_abs():
/home/fangjiang/workspace/optee-os/lib/libmbedtls/mbedtls/library/bignum.c:1540
    5678:	34000163 	cbz	w3, 56a4 <mbedtls_mpi_sub_abs+0x110>
/home/fangjiang/workspace/optee-os/lib/libmbedtls/mbedtls/library/bignum.c:1543
    567c:	f9400682 	ldr	x2, [x20, #8]
/home/fangjiang/workspace/optee-os/lib/libmbedtls/mbedtls/library/bignum.c:1544
    5680:	12800003 	mov	w3, #0xffffffff            	// #-1
/home/fangjiang/workspace/optee-os/lib/libmbedtls/mbedtls/library/bignum.c:1543 (discriminator 1)
    5684:	eb13005f 	cmp	x2, x19
    5688:	54000309 	b.ls	56e8 <mbedtls_mpi_sub_abs+0x154>  // b.plast
/home/fangjiang/workspace/optee-os/lib/libmbedtls/mbedtls/library/bignum.c:1543 (discriminator 2)
    568c:	b8737801 	ldr	w1, [x0, x19, lsl #2]
    5690:	34000261 	cbz	w1, 56dc <mbedtls_mpi_sub_abs+0x148>
/home/fangjiang/workspace/optee-os/lib/libmbedtls/mbedtls/library/bignum.c:1552
    5694:	d37ef673 	lsl	x19, x19, #2
    5698:	b8736801 	ldr	w1, [x0, x19]
    569c:	51000421 	sub	w1, w1, #0x1
    56a0:	b8336801 	str	w1, [x0, x19]
/home/fangjiang/workspace/optee-os/lib/libmbedtls/mbedtls/library/bignum.c:1556
    56a4:	52800020 	mov	w0, #0x1                   	// #1
    56a8:	79000280 	strh	w0, [x20]
/home/fangjiang/workspace/optee-os/lib/libmbedtls/mbedtls/library/bignum.c:1559
    56ac:	17ffffc8 	b	55cc <mbedtls_mpi_sub_abs+0x38>
mpi_sub_hlp():
/home/fangjiang/workspace/optee-os/lib/libmbedtls/mbedtls/library/bignum.c:1500
    56b0:	b86278a1 	ldr	w1, [x5, x2, lsl #2]
/home/fangjiang/workspace/optee-os/lib/libmbedtls/mbedtls/library/bignum.c:1501
    56b4:	b86278c4 	ldr	w4, [x6, x2, lsl #2]
/home/fangjiang/workspace/optee-os/lib/libmbedtls/mbedtls/library/bignum.c:1500
    56b8:	6b03003f 	cmp	w1, w3
    56bc:	4b030021 	sub	w1, w1, w3
    56c0:	1a9f27e7 	cset	w7, cc  // cc = lo, ul, last
/home/fangjiang/workspace/optee-os/lib/libmbedtls/mbedtls/library/bignum.c:1501
    56c4:	6b04003f 	cmp	w1, w4
    56c8:	1a8724e3 	cinc	w3, w7, cc  // cc = lo, ul, last
    56cc:	4b040021 	sub	w1, w1, w4
    56d0:	b8227801 	str	w1, [x0, x2, lsl #2]
/home/fangjiang/workspace/optee-os/lib/libmbedtls/mbedtls/library/bignum.c:1498
    56d4:	91000442 	add	x2, x2, #0x1
    56d8:	17ffffe6 	b	5670 <mbedtls_mpi_sub_abs+0xdc>
mbedtls_mpi_sub_abs():
/home/fangjiang/workspace/optee-os/lib/libmbedtls/mbedtls/library/bignum.c:1544 (discriminator 3)
    56dc:	b8337803 	str	w3, [x0, x19, lsl #2]
/home/fangjiang/workspace/optee-os/lib/libmbedtls/mbedtls/library/bignum.c:1543 (discriminator 3)
    56e0:	91000673 	add	x19, x19, #0x1
    56e4:	17ffffe8 	b	5684 <mbedtls_mpi_sub_abs+0xf0>
/home/fangjiang/workspace/optee-os/lib/libmbedtls/mbedtls/library/bignum.c:1547
    56e8:	54fffd61 	b.ne	5694 <mbedtls_mpi_sub_abs+0x100>  // b.any
    56ec:	17ffffb7 	b	55c8 <mbedtls_mpi_sub_abs+0x34>

00000000000056f0 <mbedtls_mpi_add_mpi>:
mbedtls_mpi_add_mpi():
/home/fangjiang/workspace/optee-os/lib/libmbedtls/mbedtls/library/bignum.c:1566
    56f0:	a9bd7bfd 	stp	x29, x30, [sp, #-48]!
    56f4:	910003fd 	mov	x29, sp
/home/fangjiang/workspace/optee-os/lib/libmbedtls/mbedtls/library/bignum.c:1573
    56f8:	79c00043 	ldrsh	w3, [x2]
/home/fangjiang/workspace/optee-os/lib/libmbedtls/mbedtls/library/bignum.c:1566
    56fc:	a90153f3 	stp	x19, x20, [sp, #16]
    5700:	aa0003f3 	mov	x19, x0
/home/fangjiang/workspace/optee-os/lib/libmbedtls/mbedtls/library/bignum.c:1572
    5704:	79c00034 	ldrsh	w20, [x1]
/home/fangjiang/workspace/optee-os/lib/libmbedtls/mbedtls/library/bignum.c:1566
    5708:	a9025bf5 	stp	x21, x22, [sp, #32]
/home/fangjiang/workspace/optee-os/lib/libmbedtls/mbedtls/library/bignum.c:1573
    570c:	1b147c63 	mul	w3, w3, w20
    5710:	36f80303 	tbz	w3, #31, 5770 <mbedtls_mpi_add_mpi+0x80>
    5714:	aa0103f6 	mov	x22, x1
    5718:	aa0203f5 	mov	x21, x2
/home/fangjiang/workspace/optee-os/lib/libmbedtls/mbedtls/library/bignum.c:1575
    571c:	aa0203e1 	mov	x1, x2
    5720:	aa1603e0 	mov	x0, x22
    5724:	97fffea8 	bl	51c4 <mbedtls_mpi_cmp_abs>
    5728:	37f80140 	tbnz	w0, #31, 5750 <mbedtls_mpi_add_mpi+0x60>
/home/fangjiang/workspace/optee-os/lib/libmbedtls/mbedtls/library/bignum.c:1577
    572c:	aa1503e2 	mov	x2, x21
    5730:	aa1603e1 	mov	x1, x22
    5734:	aa1303e0 	mov	x0, x19
    5738:	97ffff97 	bl	5594 <mbedtls_mpi_sub_abs>
/home/fangjiang/workspace/optee-os/lib/libmbedtls/mbedtls/library/bignum.c:1588
    573c:	34000160 	cbz	w0, 5768 <mbedtls_mpi_add_mpi+0x78>
/home/fangjiang/workspace/optee-os/lib/libmbedtls/mbedtls/library/bignum.c:1595
    5740:	a94153f3 	ldp	x19, x20, [sp, #16]
    5744:	a9425bf5 	ldp	x21, x22, [sp, #32]
    5748:	a8c37bfd 	ldp	x29, x30, [sp], #48
    574c:	d65f03c0 	ret
/home/fangjiang/workspace/optee-os/lib/libmbedtls/mbedtls/library/bignum.c:1582
    5750:	aa1603e2 	mov	x2, x22
    5754:	aa1503e1 	mov	x1, x21
    5758:	aa1303e0 	mov	x0, x19
    575c:	97ffff8e 	bl	5594 <mbedtls_mpi_sub_abs>
    5760:	35ffff00 	cbnz	w0, 5740 <mbedtls_mpi_add_mpi+0x50>
/home/fangjiang/workspace/optee-os/lib/libmbedtls/mbedtls/library/bignum.c:1583 (discriminator 2)
    5764:	4b1403f4 	neg	w20, w20
/home/fangjiang/workspace/optee-os/lib/libmbedtls/mbedtls/library/bignum.c:1589 (discriminator 2)
    5768:	79000274 	strh	w20, [x19]
/home/fangjiang/workspace/optee-os/lib/libmbedtls/mbedtls/library/bignum.c:1594 (discriminator 2)
    576c:	17fffff5 	b	5740 <mbedtls_mpi_add_mpi+0x50>
/home/fangjiang/workspace/optee-os/lib/libmbedtls/mbedtls/library/bignum.c:1588
    5770:	97ffff41 	bl	5474 <mbedtls_mpi_add_abs>
    5774:	17fffff2 	b	573c <mbedtls_mpi_add_mpi+0x4c>

0000000000005778 <mbedtls_mpi_sub_mpi>:
mbedtls_mpi_sub_mpi():
/home/fangjiang/workspace/optee-os/lib/libmbedtls/mbedtls/library/bignum.c:1601
    5778:	a9bd7bfd 	stp	x29, x30, [sp, #-48]!
    577c:	910003fd 	mov	x29, sp
/home/fangjiang/workspace/optee-os/lib/libmbedtls/mbedtls/library/bignum.c:1608
    5780:	79c00043 	ldrsh	w3, [x2]
/home/fangjiang/workspace/optee-os/lib/libmbedtls/mbedtls/library/bignum.c:1601
    5784:	a90153f3 	stp	x19, x20, [sp, #16]
    5788:	aa0003f3 	mov	x19, x0
/home/fangjiang/workspace/optee-os/lib/libmbedtls/mbedtls/library/bignum.c:1607
    578c:	79c00034 	ldrsh	w20, [x1]
/home/fangjiang/workspace/optee-os/lib/libmbedtls/mbedtls/library/bignum.c:1601
    5790:	a9025bf5 	stp	x21, x22, [sp, #32]
/home/fangjiang/workspace/optee-os/lib/libmbedtls/mbedtls/library/bignum.c:1608
    5794:	1b147c63 	mul	w3, w3, w20
    5798:	7100007f 	cmp	w3, #0x0
    579c:	5400030d 	b.le	57fc <mbedtls_mpi_sub_mpi+0x84>
    57a0:	aa0103f6 	mov	x22, x1
    57a4:	aa0203f5 	mov	x21, x2
/home/fangjiang/workspace/optee-os/lib/libmbedtls/mbedtls/library/bignum.c:1610
    57a8:	aa0203e1 	mov	x1, x2
    57ac:	aa1603e0 	mov	x0, x22
    57b0:	97fffe85 	bl	51c4 <mbedtls_mpi_cmp_abs>
    57b4:	37f80140 	tbnz	w0, #31, 57dc <mbedtls_mpi_sub_mpi+0x64>
/home/fangjiang/workspace/optee-os/lib/libmbedtls/mbedtls/library/bignum.c:1612
    57b8:	aa1503e2 	mov	x2, x21
    57bc:	aa1603e1 	mov	x1, x22
    57c0:	aa1303e0 	mov	x0, x19
    57c4:	97ffff74 	bl	5594 <mbedtls_mpi_sub_abs>
/home/fangjiang/workspace/optee-os/lib/libmbedtls/mbedtls/library/bignum.c:1623
    57c8:	34000160 	cbz	w0, 57f4 <mbedtls_mpi_sub_mpi+0x7c>
/home/fangjiang/workspace/optee-os/lib/libmbedtls/mbedtls/library/bignum.c:1630
    57cc:	a94153f3 	ldp	x19, x20, [sp, #16]
    57d0:	a9425bf5 	ldp	x21, x22, [sp, #32]
    57d4:	a8c37bfd 	ldp	x29, x30, [sp], #48
    57d8:	d65f03c0 	ret
/home/fangjiang/workspace/optee-os/lib/libmbedtls/mbedtls/library/bignum.c:1617
    57dc:	aa1603e2 	mov	x2, x22
    57e0:	aa1503e1 	mov	x1, x21
    57e4:	aa1303e0 	mov	x0, x19
    57e8:	97ffff6b 	bl	5594 <mbedtls_mpi_sub_abs>
    57ec:	35ffff00 	cbnz	w0, 57cc <mbedtls_mpi_sub_mpi+0x54>
/home/fangjiang/workspace/optee-os/lib/libmbedtls/mbedtls/library/bignum.c:1618 (discriminator 2)
    57f0:	4b1403f4 	neg	w20, w20
/home/fangjiang/workspace/optee-os/lib/libmbedtls/mbedtls/library/bignum.c:1624 (discriminator 2)
    57f4:	79000274 	strh	w20, [x19]
/home/fangjiang/workspace/optee-os/lib/libmbedtls/mbedtls/library/bignum.c:1629 (discriminator 2)
    57f8:	17fffff5 	b	57cc <mbedtls_mpi_sub_mpi+0x54>
/home/fangjiang/workspace/optee-os/lib/libmbedtls/mbedtls/library/bignum.c:1623
    57fc:	97ffff1e 	bl	5474 <mbedtls_mpi_add_abs>
    5800:	17fffff2 	b	57c8 <mbedtls_mpi_sub_mpi+0x50>

0000000000005804 <mbedtls_mpi_add_int>:
mbedtls_mpi_add_int():
/home/fangjiang/workspace/optee-os/lib/libmbedtls/mbedtls/library/bignum.c:1636
    5804:	d10143ff 	sub	sp, sp, #0x50
/home/fangjiang/workspace/optee-os/lib/libmbedtls/mbedtls/library/bignum.c:1642
    5808:	7100005f 	cmp	w2, #0x0
    580c:	5a82a442 	cneg	w2, w2, lt  // lt = tstop
/home/fangjiang/workspace/optee-os/lib/libmbedtls/mbedtls/library/bignum.c:1636
    5810:	a9037bfd 	stp	x29, x30, [sp, #48]
    5814:	9100c3fd 	add	x29, sp, #0x30
    5818:	f90023f3 	str	x19, [sp, #64]
    581c:	b0000053 	adrp	x19, e000 <_DYNAMIC>
    5820:	f9409a63 	ldr	x3, [x19, #304]
    5824:	f9400064 	ldr	x4, [x3]
    5828:	f90017e4 	str	x4, [sp, #40]
    582c:	d2800004 	mov	x4, #0x0                   	// #0
/home/fangjiang/workspace/optee-os/lib/libmbedtls/mbedtls/library/bignum.c:1642
    5830:	b90023e2 	str	w2, [sp, #32]
/home/fangjiang/workspace/optee-os/lib/libmbedtls/mbedtls/library/bignum.c:1643
    5834:	52800022 	mov	w2, #0x1                   	// #1
    5838:	5a82a442 	cneg	w2, w2, lt  // lt = tstop
    583c:	790013e2 	strh	w2, [sp, #8]
/home/fangjiang/workspace/optee-os/lib/libmbedtls/mbedtls/library/bignum.c:1644
    5840:	d2800022 	mov	x2, #0x1                   	// #1
    5844:	f9000be2 	str	x2, [sp, #16]
/home/fangjiang/workspace/optee-os/lib/libmbedtls/mbedtls/library/bignum.c:1645
    5848:	910083e2 	add	x2, sp, #0x20
    584c:	f9000fe2 	str	x2, [sp, #24]
/home/fangjiang/workspace/optee-os/lib/libmbedtls/mbedtls/library/bignum.c:1647
    5850:	910023e2 	add	x2, sp, #0x8
    5854:	97ffffa7 	bl	56f0 <mbedtls_mpi_add_mpi>
/home/fangjiang/workspace/optee-os/lib/libmbedtls/mbedtls/library/bignum.c:1648
    5858:	f9409a73 	ldr	x19, [x19, #304]
    585c:	f94017e1 	ldr	x1, [sp, #40]
    5860:	f9400262 	ldr	x2, [x19]
    5864:	eb020021 	subs	x1, x1, x2
    5868:	d2800002 	mov	x2, #0x0                   	// #0
    586c:	54000040 	b.eq	5874 <mbedtls_mpi_add_int+0x70>  // b.none
    5870:	94000db4 	bl	8f40 <__stack_chk_fail>
    5874:	a9437bfd 	ldp	x29, x30, [sp, #48]
    5878:	f94023f3 	ldr	x19, [sp, #64]
    587c:	910143ff 	add	sp, sp, #0x50
    5880:	d65f03c0 	ret

0000000000005884 <mbedtls_mpi_sub_int>:
mbedtls_mpi_sub_int():
/home/fangjiang/workspace/optee-os/lib/libmbedtls/mbedtls/library/bignum.c:1654
    5884:	d10143ff 	sub	sp, sp, #0x50
/home/fangjiang/workspace/optee-os/lib/libmbedtls/mbedtls/library/bignum.c:1660
    5888:	7100005f 	cmp	w2, #0x0
    588c:	5a82a442 	cneg	w2, w2, lt  // lt = tstop
/home/fangjiang/workspace/optee-os/lib/libmbedtls/mbedtls/library/bignum.c:1654
    5890:	a9037bfd 	stp	x29, x30, [sp, #48]
    5894:	9100c3fd 	add	x29, sp, #0x30
    5898:	f90023f3 	str	x19, [sp, #64]
    589c:	b0000053 	adrp	x19, e000 <_DYNAMIC>
    58a0:	f9409a63 	ldr	x3, [x19, #304]
    58a4:	f9400064 	ldr	x4, [x3]
    58a8:	f90017e4 	str	x4, [sp, #40]
    58ac:	d2800004 	mov	x4, #0x0                   	// #0
/home/fangjiang/workspace/optee-os/lib/libmbedtls/mbedtls/library/bignum.c:1660
    58b0:	b90023e2 	str	w2, [sp, #32]
/home/fangjiang/workspace/optee-os/lib/libmbedtls/mbedtls/library/bignum.c:1661
    58b4:	52800022 	mov	w2, #0x1                   	// #1
    58b8:	5a82a442 	cneg	w2, w2, lt  // lt = tstop
    58bc:	790013e2 	strh	w2, [sp, #8]
/home/fangjiang/workspace/optee-os/lib/libmbedtls/mbedtls/library/bignum.c:1662
    58c0:	d2800022 	mov	x2, #0x1                   	// #1
    58c4:	f9000be2 	str	x2, [sp, #16]
/home/fangjiang/workspace/optee-os/lib/libmbedtls/mbedtls/library/bignum.c:1663
    58c8:	910083e2 	add	x2, sp, #0x20
    58cc:	f9000fe2 	str	x2, [sp, #24]
/home/fangjiang/workspace/optee-os/lib/libmbedtls/mbedtls/library/bignum.c:1665
    58d0:	910023e2 	add	x2, sp, #0x8
    58d4:	97ffffa9 	bl	5778 <mbedtls_mpi_sub_mpi>
/home/fangjiang/workspace/optee-os/lib/libmbedtls/mbedtls/library/bignum.c:1666
    58d8:	f9409a73 	ldr	x19, [x19, #304]
    58dc:	f94017e1 	ldr	x1, [sp, #40]
    58e0:	f9400262 	ldr	x2, [x19]
    58e4:	eb020021 	subs	x1, x1, x2
    58e8:	d2800002 	mov	x2, #0x0                   	// #0
    58ec:	54000040 	b.eq	58f4 <mbedtls_mpi_sub_int+0x70>  // b.none
    58f0:	94000d94 	bl	8f40 <__stack_chk_fail>
    58f4:	a9437bfd 	ldp	x29, x30, [sp, #48]
    58f8:	f94023f3 	ldr	x19, [sp, #64]
    58fc:	910143ff 	add	sp, sp, #0x50
    5900:	d65f03c0 	ret

0000000000005904 <mbedtls_mpi_mul_mpi>:
mbedtls_mpi_mul_mpi():
/home/fangjiang/workspace/optee-os/lib/libmbedtls/mbedtls/library/bignum.c:1760
    5904:	d10283ff 	sub	sp, sp, #0xa0
    5908:	a9047bfd 	stp	x29, x30, [sp, #64]
    590c:	910103fd 	add	x29, sp, #0x40
    5910:	a9086bf9 	stp	x25, x26, [sp, #128]
    5914:	aa0003fa 	mov	x26, x0
    5918:	b0000040 	adrp	x0, e000 <_DYNAMIC>
    591c:	a90553f3 	stp	x19, x20, [sp, #80]
    5920:	f9409800 	ldr	x0, [x0, #304]
    5924:	a9065bf5 	stp	x21, x22, [sp, #96]
/home/fangjiang/workspace/optee-os/lib/libmbedtls/mbedtls/library/bignum.c:1769
    5928:	910023f6 	add	x22, sp, #0x8
/home/fangjiang/workspace/optee-os/lib/libmbedtls/mbedtls/library/bignum.c:1760
    592c:	a90763f7 	stp	x23, x24, [sp, #112]
    5930:	aa0103f8 	mov	x24, x1
    5934:	aa0203f5 	mov	x21, x2
    5938:	f9004bfb 	str	x27, [sp, #144]
/home/fangjiang/workspace/optee-os/lib/libmbedtls/mbedtls/library/bignum.c:1769
    593c:	910083f7 	add	x23, sp, #0x20
/home/fangjiang/workspace/optee-os/lib/libmbedtls/mbedtls/library/bignum.c:1760
    5940:	f9400001 	ldr	x1, [x0]
    5944:	f9001fe1 	str	x1, [sp, #56]
    5948:	d2800001 	mov	x1, #0x0                   	// #0
/home/fangjiang/workspace/optee-os/lib/libmbedtls/mbedtls/library/bignum.c:1769
    594c:	aa1603e0 	mov	x0, x22
    5950:	97fffb0f 	bl	458c <mbedtls_mpi_init_mempool>
    5954:	aa1703e0 	mov	x0, x23
    5958:	97fffb0d 	bl	458c <mbedtls_mpi_init_mempool>
/home/fangjiang/workspace/optee-os/lib/libmbedtls/mbedtls/library/bignum.c:1771
    595c:	eb18035f 	cmp	x26, x24
    5960:	540000e1 	b.ne	597c <mbedtls_mpi_mul_mpi+0x78>  // b.any
/home/fangjiang/workspace/optee-os/lib/libmbedtls/mbedtls/library/bignum.c:1771 (discriminator 1)
    5964:	aa1a03e1 	mov	x1, x26
    5968:	aa1603e0 	mov	x0, x22
    596c:	97fffbc8 	bl	488c <mbedtls_mpi_copy>
    5970:	2a0003f3 	mov	w19, w0
    5974:	35000400 	cbnz	w0, 59f4 <mbedtls_mpi_mul_mpi+0xf0>
/home/fangjiang/workspace/optee-os/lib/libmbedtls/mbedtls/library/bignum.c:1771
    5978:	aa1603f8 	mov	x24, x22
/home/fangjiang/workspace/optee-os/lib/libmbedtls/mbedtls/library/bignum.c:1772
    597c:	eb15035f 	cmp	x26, x21
    5980:	540000e1 	b.ne	599c <mbedtls_mpi_mul_mpi+0x98>  // b.any
/home/fangjiang/workspace/optee-os/lib/libmbedtls/mbedtls/library/bignum.c:1772 (discriminator 1)
    5984:	aa1a03e1 	mov	x1, x26
    5988:	aa1703e0 	mov	x0, x23
    598c:	97fffbc0 	bl	488c <mbedtls_mpi_copy>
    5990:	2a0003f3 	mov	w19, w0
    5994:	35000300 	cbnz	w0, 59f4 <mbedtls_mpi_mul_mpi+0xf0>
/home/fangjiang/workspace/optee-os/lib/libmbedtls/mbedtls/library/bignum.c:1772
    5998:	aa1703f5 	mov	x21, x23
/home/fangjiang/workspace/optee-os/lib/libmbedtls/mbedtls/library/bignum.c:1774
    599c:	f940071b 	ldr	x27, [x24, #8]
/home/fangjiang/workspace/optee-os/lib/libmbedtls/mbedtls/library/bignum.c:1774 (discriminator 1)
    59a0:	b500043b 	cbnz	x27, 5a24 <mbedtls_mpi_mul_mpi+0x120>
/home/fangjiang/workspace/optee-os/lib/libmbedtls/mbedtls/library/bignum.c:1778
    59a4:	52800039 	mov	w25, #0x1                   	// #1
/home/fangjiang/workspace/optee-os/lib/libmbedtls/mbedtls/library/bignum.c:1780
    59a8:	f94006b4 	ldr	x20, [x21, #8]
/home/fangjiang/workspace/optee-os/lib/libmbedtls/mbedtls/library/bignum.c:1780 (discriminator 1)
    59ac:	b50004d4 	cbnz	x20, 5a44 <mbedtls_mpi_mul_mpi+0x140>
/home/fangjiang/workspace/optee-os/lib/libmbedtls/mbedtls/library/bignum.c:1784
    59b0:	52800039 	mov	w25, #0x1                   	// #1
/home/fangjiang/workspace/optee-os/lib/libmbedtls/mbedtls/library/bignum.c:1786
    59b4:	8b140361 	add	x1, x27, x20
    59b8:	aa1a03e0 	mov	x0, x26
    59bc:	97fffb19 	bl	4620 <mbedtls_mpi_grow>
    59c0:	2a0003f3 	mov	w19, w0
    59c4:	35000180 	cbnz	w0, 59f4 <mbedtls_mpi_mul_mpi+0xf0>
/home/fangjiang/workspace/optee-os/lib/libmbedtls/mbedtls/library/bignum.c:1787 (discriminator 2)
    59c8:	aa1a03e0 	mov	x0, x26
    59cc:	52800001 	mov	w1, #0x0                   	// #0
    59d0:	97fffc70 	bl	4b90 <mbedtls_mpi_lset>
    59d4:	2a0003f3 	mov	w19, w0
    59d8:	350000e0 	cbnz	w0, 59f4 <mbedtls_mpi_mul_mpi+0xf0>
/home/fangjiang/workspace/optee-os/lib/libmbedtls/mbedtls/library/bignum.c:1789 (discriminator 2)
    59dc:	d1000694 	sub	x20, x20, #0x1
    59e0:	b100069f 	cmn	x20, #0x1
    59e4:	540003c1 	b.ne	5a5c <mbedtls_mpi_mul_mpi+0x158>  // b.any
/home/fangjiang/workspace/optee-os/lib/libmbedtls/mbedtls/library/bignum.c:1796
    59e8:	340004b9 	cbz	w25, 5a7c <mbedtls_mpi_mul_mpi+0x178>
/home/fangjiang/workspace/optee-os/lib/libmbedtls/mbedtls/library/bignum.c:1797
    59ec:	52800020 	mov	w0, #0x1                   	// #1
    59f0:	79000340 	strh	w0, [x26]
/home/fangjiang/workspace/optee-os/lib/libmbedtls/mbedtls/library/bignum.c:1803
    59f4:	aa1703e0 	mov	x0, x23
    59f8:	97fffaef 	bl	45b4 <mbedtls_mpi_free>
    59fc:	aa1603e0 	mov	x0, x22
    5a00:	97fffaed 	bl	45b4 <mbedtls_mpi_free>
/home/fangjiang/workspace/optee-os/lib/libmbedtls/mbedtls/library/bignum.c:1806
    5a04:	b0000040 	adrp	x0, e000 <_DYNAMIC>
    5a08:	f9409800 	ldr	x0, [x0, #304]
    5a0c:	f9401fe2 	ldr	x2, [sp, #56]
    5a10:	f9400001 	ldr	x1, [x0]
    5a14:	eb010042 	subs	x2, x2, x1
    5a18:	d2800001 	mov	x1, #0x0                   	// #0
    5a1c:	540003c0 	b.eq	5a94 <mbedtls_mpi_mul_mpi+0x190>  // b.none
    5a20:	94000d48 	bl	8f40 <__stack_chk_fail>
/home/fangjiang/workspace/optee-os/lib/libmbedtls/mbedtls/library/bignum.c:1775
    5a24:	f9400b00 	ldr	x0, [x24, #16]
    5a28:	8b1b0800 	add	x0, x0, x27, lsl #2
    5a2c:	b85fc000 	ldur	w0, [x0, #-4]
    5a30:	35000060 	cbnz	w0, 5a3c <mbedtls_mpi_mul_mpi+0x138>
/home/fangjiang/workspace/optee-os/lib/libmbedtls/mbedtls/library/bignum.c:1774 (discriminator 2)
    5a34:	d100077b 	sub	x27, x27, #0x1
    5a38:	17ffffda 	b	59a0 <mbedtls_mpi_mul_mpi+0x9c>
/home/fangjiang/workspace/optee-os/lib/libmbedtls/mbedtls/library/bignum.c:1764
    5a3c:	52800019 	mov	w25, #0x0                   	// #0
    5a40:	17ffffda 	b	59a8 <mbedtls_mpi_mul_mpi+0xa4>
/home/fangjiang/workspace/optee-os/lib/libmbedtls/mbedtls/library/bignum.c:1781
    5a44:	f9400aa0 	ldr	x0, [x21, #16]
    5a48:	8b140800 	add	x0, x0, x20, lsl #2
    5a4c:	b85fc000 	ldur	w0, [x0, #-4]
    5a50:	35fffb20 	cbnz	w0, 59b4 <mbedtls_mpi_mul_mpi+0xb0>
/home/fangjiang/workspace/optee-os/lib/libmbedtls/mbedtls/library/bignum.c:1780 (discriminator 2)
    5a54:	d1000694 	sub	x20, x20, #0x1
    5a58:	17ffffd5 	b	59ac <mbedtls_mpi_mul_mpi+0xa8>
/home/fangjiang/workspace/optee-os/lib/libmbedtls/mbedtls/library/bignum.c:1790 (discriminator 2)
    5a5c:	f9400aa0 	ldr	x0, [x21, #16]
    5a60:	f9400b42 	ldr	x2, [x26, #16]
    5a64:	b8747803 	ldr	w3, [x0, x20, lsl #2]
    5a68:	aa1b03e0 	mov	x0, x27
    5a6c:	f9400b01 	ldr	x1, [x24, #16]
    5a70:	8b140842 	add	x2, x2, x20, lsl #2
    5a74:	97fff8e2 	bl	3dfc <mpi_mul_hlp>
    5a78:	17ffffd9 	b	59dc <mbedtls_mpi_mul_mpi+0xd8>
/home/fangjiang/workspace/optee-os/lib/libmbedtls/mbedtls/library/bignum.c:1799
    5a7c:	79400300 	ldrh	w0, [x24]
/home/fangjiang/workspace/optee-os/lib/libmbedtls/mbedtls/library/bignum.c:1787
    5a80:	52800013 	mov	w19, #0x0                   	// #0
/home/fangjiang/workspace/optee-os/lib/libmbedtls/mbedtls/library/bignum.c:1799
    5a84:	794002a1 	ldrh	w1, [x21]
    5a88:	1b017c00 	mul	w0, w0, w1
    5a8c:	79000340 	strh	w0, [x26]
    5a90:	17ffffd9 	b	59f4 <mbedtls_mpi_mul_mpi+0xf0>
/home/fangjiang/workspace/optee-os/lib/libmbedtls/mbedtls/library/bignum.c:1806
    5a94:	2a1303e0 	mov	w0, w19
    5a98:	a9447bfd 	ldp	x29, x30, [sp, #64]
    5a9c:	a94553f3 	ldp	x19, x20, [sp, #80]
    5aa0:	a9465bf5 	ldp	x21, x22, [sp, #96]
    5aa4:	a94763f7 	ldp	x23, x24, [sp, #112]
    5aa8:	a9486bf9 	ldp	x25, x26, [sp, #128]
    5aac:	f9404bfb 	ldr	x27, [sp, #144]
    5ab0:	910283ff 	add	sp, sp, #0xa0
    5ab4:	d65f03c0 	ret

0000000000005ab8 <mbedtls_mpi_mul_int>:
mbedtls_mpi_mul_int():
/home/fangjiang/workspace/optee-os/lib/libmbedtls/mbedtls/library/bignum.c:1812
    5ab8:	a9bd7bfd 	stp	x29, x30, [sp, #-48]!
    5abc:	910003fd 	mov	x29, sp
    5ac0:	a90153f3 	stp	x19, x20, [sp, #16]
    5ac4:	aa0103f4 	mov	x20, x1
/home/fangjiang/workspace/optee-os/lib/libmbedtls/mbedtls/library/bignum.c:1817
    5ac8:	f9400433 	ldr	x19, [x1, #8]
/home/fangjiang/workspace/optee-os/lib/libmbedtls/mbedtls/library/bignum.c:1812
    5acc:	a9025bf5 	stp	x21, x22, [sp, #32]
    5ad0:	aa0003f5 	mov	x21, x0
    5ad4:	2a0203f6 	mov	w22, w2
/home/fangjiang/workspace/optee-os/lib/libmbedtls/mbedtls/library/bignum.c:1818
    5ad8:	b40000d3 	cbz	x19, 5af0 <mbedtls_mpi_mul_int+0x38>
/home/fangjiang/workspace/optee-os/lib/libmbedtls/mbedtls/library/bignum.c:1818 (discriminator 1)
    5adc:	f9400a80 	ldr	x0, [x20, #16]
    5ae0:	8b130800 	add	x0, x0, x19, lsl #2
    5ae4:	b85fc000 	ldur	w0, [x0, #-4]
    5ae8:	34000100 	cbz	w0, 5b08 <mbedtls_mpi_mul_int+0x50>
/home/fangjiang/workspace/optee-os/lib/libmbedtls/mbedtls/library/bignum.c:1823
    5aec:	35000136 	cbnz	w22, 5b10 <mbedtls_mpi_mul_int+0x58>
/home/fangjiang/workspace/optee-os/lib/libmbedtls/mbedtls/library/bignum.c:1825
    5af0:	aa1503e0 	mov	x0, x21
    5af4:	52800001 	mov	w1, #0x0                   	// #0
/home/fangjiang/workspace/optee-os/lib/libmbedtls/mbedtls/library/bignum.c:1844
    5af8:	a94153f3 	ldp	x19, x20, [sp, #16]
    5afc:	a9425bf5 	ldp	x21, x22, [sp, #32]
    5b00:	a8c37bfd 	ldp	x29, x30, [sp], #48
/home/fangjiang/workspace/optee-os/lib/libmbedtls/mbedtls/library/bignum.c:1825
    5b04:	17fffc23 	b	4b90 <mbedtls_mpi_lset>
/home/fangjiang/workspace/optee-os/lib/libmbedtls/mbedtls/library/bignum.c:1819
    5b08:	d1000673 	sub	x19, x19, #0x1
    5b0c:	17fffff3 	b	5ad8 <mbedtls_mpi_mul_int+0x20>
/home/fangjiang/workspace/optee-os/lib/libmbedtls/mbedtls/library/bignum.c:1838
    5b10:	91000661 	add	x1, x19, #0x1
    5b14:	aa1503e0 	mov	x0, x21
    5b18:	97fffac2 	bl	4620 <mbedtls_mpi_grow>
    5b1c:	2a0003ea 	mov	w10, w0
    5b20:	35000160 	cbnz	w0, 5b4c <mbedtls_mpi_mul_int+0x94>
/home/fangjiang/workspace/optee-os/lib/libmbedtls/mbedtls/library/bignum.c:1839 (discriminator 2)
    5b24:	aa1403e1 	mov	x1, x20
    5b28:	aa1503e0 	mov	x0, x21
    5b2c:	97fffb58 	bl	488c <mbedtls_mpi_copy>
    5b30:	2a0003ea 	mov	w10, w0
    5b34:	350000c0 	cbnz	w0, 5b4c <mbedtls_mpi_mul_int+0x94>
/home/fangjiang/workspace/optee-os/lib/libmbedtls/mbedtls/library/bignum.c:1840 (discriminator 2)
    5b38:	f9400a81 	ldr	x1, [x20, #16]
    5b3c:	510006c3 	sub	w3, w22, #0x1
    5b40:	f9400aa2 	ldr	x2, [x21, #16]
    5b44:	aa1303e0 	mov	x0, x19
    5b48:	97fff8ad 	bl	3dfc <mpi_mul_hlp>
/home/fangjiang/workspace/optee-os/lib/libmbedtls/mbedtls/library/bignum.c:1844
    5b4c:	2a0a03e0 	mov	w0, w10
    5b50:	a94153f3 	ldp	x19, x20, [sp, #16]
    5b54:	a9425bf5 	ldp	x21, x22, [sp, #32]
    5b58:	a8c37bfd 	ldp	x29, x30, [sp], #48
    5b5c:	d65f03c0 	ret

0000000000005b60 <mbedtls_mpi_read_string>:
mbedtls_mpi_read_string():
/home/fangjiang/workspace/optee-os/lib/libmbedtls/mbedtls/library/bignum.c:621
    5b60:	d10243ff 	sub	sp, sp, #0x90
    5b64:	a9037bfd 	stp	x29, x30, [sp, #48]
    5b68:	9100c3fd 	add	x29, sp, #0x30
    5b6c:	a90453f3 	stp	x19, x20, [sp, #64]
    5b70:	aa0003f4 	mov	x20, x0
    5b74:	b0000040 	adrp	x0, e000 <_DYNAMIC>
    5b78:	a9055bf5 	stp	x21, x22, [sp, #80]
    5b7c:	f9409800 	ldr	x0, [x0, #304]
    5b80:	a90663f7 	stp	x23, x24, [sp, #96]
    5b84:	2a0103f7 	mov	w23, w1
    5b88:	a9076bf9 	stp	x25, x26, [sp, #112]
    5b8c:	f90043fb 	str	x27, [sp, #128]
    5b90:	f9400001 	ldr	x1, [x0]
    5b94:	f90017e1 	str	x1, [sp, #40]
    5b98:	d2800001 	mov	x1, #0x0                   	// #0
/home/fangjiang/workspace/optee-os/lib/libmbedtls/mbedtls/library/bignum.c:630
    5b9c:	51000ae0 	sub	w0, w23, #0x2
    5ba0:	7100381f 	cmp	w0, #0xe
    5ba4:	54000149 	b.ls	5bcc <mbedtls_mpi_read_string+0x6c>  // b.plast
/home/fangjiang/workspace/optee-os/lib/libmbedtls/mbedtls/library/bignum.c:631
    5ba8:	12800073 	mov	w19, #0xfffffffc            	// #-4
/home/fangjiang/workspace/optee-os/lib/libmbedtls/mbedtls/library/bignum.c:685
    5bac:	b0000040 	adrp	x0, e000 <_DYNAMIC>
    5bb0:	f9409800 	ldr	x0, [x0, #304]
    5bb4:	f94017e2 	ldr	x2, [sp, #40]
    5bb8:	f9400001 	ldr	x1, [x0]
    5bbc:	eb010042 	subs	x2, x2, x1
    5bc0:	d2800001 	mov	x1, #0x0                   	// #0
    5bc4:	54000c60 	b.eq	5d50 <mbedtls_mpi_read_string+0x1f0>  // b.none
    5bc8:	94000cde 	bl	8f40 <__stack_chk_fail>
    5bcc:	aa0203f6 	mov	x22, x2
/home/fangjiang/workspace/optee-os/lib/libmbedtls/mbedtls/library/bignum.c:633
    5bd0:	910043f8 	add	x24, sp, #0x10
    5bd4:	aa1803e0 	mov	x0, x24
    5bd8:	97fffa6d 	bl	458c <mbedtls_mpi_init_mempool>
/home/fangjiang/workspace/optee-os/lib/libmbedtls/mbedtls/library/bignum.c:635
    5bdc:	394002c0 	ldrb	w0, [x22]
    5be0:	350000a0 	cbnz	w0, 5bf4 <mbedtls_mpi_read_string+0x94>
/home/fangjiang/workspace/optee-os/lib/libmbedtls/mbedtls/library/bignum.c:637
    5be4:	aa1403e0 	mov	x0, x20
/home/fangjiang/workspace/optee-os/lib/libmbedtls/mbedtls/library/bignum.c:638
    5be8:	52800013 	mov	w19, #0x0                   	// #0
/home/fangjiang/workspace/optee-os/lib/libmbedtls/mbedtls/library/bignum.c:637
    5bec:	97fffa72 	bl	45b4 <mbedtls_mpi_free>
/home/fangjiang/workspace/optee-os/lib/libmbedtls/mbedtls/library/bignum.c:638
    5bf0:	17ffffef 	b	5bac <mbedtls_mpi_read_string+0x4c>
/home/fangjiang/workspace/optee-os/lib/libmbedtls/mbedtls/library/bignum.c:641
    5bf4:	7100b41f 	cmp	w0, #0x2d
    5bf8:	540004a1 	b.ne	5c8c <mbedtls_mpi_read_string+0x12c>  // b.any
/home/fangjiang/workspace/optee-os/lib/libmbedtls/mbedtls/library/bignum.c:643
    5bfc:	910006d6 	add	x22, x22, #0x1
/home/fangjiang/workspace/optee-os/lib/libmbedtls/mbedtls/library/bignum.c:644
    5c00:	1280001a 	mov	w26, #0xffffffff            	// #-1
/home/fangjiang/workspace/optee-os/lib/libmbedtls/mbedtls/library/bignum.c:647
    5c04:	aa1603e0 	mov	x0, x22
    5c08:	94000ced 	bl	8fbc <strlen>
    5c0c:	aa0003f5 	mov	x21, x0
/home/fangjiang/workspace/optee-os/lib/libmbedtls/mbedtls/library/bignum.c:649
    5c10:	710042ff 	cmp	w23, #0x10
    5c14:	54000641 	b.ne	5cdc <mbedtls_mpi_read_string+0x17c>  // b.any
/home/fangjiang/workspace/optee-os/lib/libmbedtls/mbedtls/library/bignum.c:651
    5c18:	92f80000 	mov	x0, #0x3fffffffffffffff    	// #4611686018427387903
    5c1c:	eb0002bf 	cmp	x21, x0
    5c20:	54fffc48 	b.hi	5ba8 <mbedtls_mpi_read_string+0x48>  // b.pmore
/home/fangjiang/workspace/optee-os/lib/libmbedtls/mbedtls/library/bignum.c:654
    5c24:	d37e0aa0 	ubfiz	x0, x21, #2, #3
    5c28:	d343f6a1 	ubfx	x1, x21, #3, #59
    5c2c:	f100001f 	cmp	x0, #0x0
/home/fangjiang/workspace/optee-os/lib/libmbedtls/mbedtls/library/bignum.c:656
    5c30:	aa1403e0 	mov	x0, x20
    5c34:	9a810421 	cinc	x1, x1, ne  // ne = any
    5c38:	97fffa7a 	bl	4620 <mbedtls_mpi_grow>
    5c3c:	2a0003f3 	mov	w19, w0
    5c40:	35000200 	cbnz	w0, 5c80 <mbedtls_mpi_read_string+0x120>
/home/fangjiang/workspace/optee-os/lib/libmbedtls/mbedtls/library/bignum.c:657 (discriminator 2)
    5c44:	aa1403e0 	mov	x0, x20
    5c48:	52800001 	mov	w1, #0x0                   	// #0
    5c4c:	97fffbd1 	bl	4b90 <mbedtls_mpi_lset>
    5c50:	2a0003f3 	mov	w19, w0
    5c54:	35000160 	cbnz	w0, 5c80 <mbedtls_mpi_read_string+0x120>
/home/fangjiang/workspace/optee-os/lib/libmbedtls/mbedtls/library/bignum.c:661
    5c58:	910033e6 	add	x6, sp, #0xc
/home/fangjiang/workspace/optee-os/lib/libmbedtls/mbedtls/library/bignum.c:659
    5c5c:	d2800005 	mov	x5, #0x0                   	// #0
/home/fangjiang/workspace/optee-os/lib/libmbedtls/mbedtls/library/bignum.c:659 (discriminator 2)
    5c60:	b50001b5 	cbnz	x21, 5c94 <mbedtls_mpi_read_string+0x134>
/home/fangjiang/workspace/optee-os/lib/libmbedtls/mbedtls/library/bignum.c:677
    5c64:	3100075f 	cmn	w26, #0x1
    5c68:	540000a1 	b.ne	5c7c <mbedtls_mpi_read_string+0x11c>  // b.any
/home/fangjiang/workspace/optee-os/lib/libmbedtls/mbedtls/library/bignum.c:677 (discriminator 1)
    5c6c:	aa1403e0 	mov	x0, x20
    5c70:	97fffc25 	bl	4d04 <mbedtls_mpi_bitlen>
    5c74:	b4000040 	cbz	x0, 5c7c <mbedtls_mpi_read_string+0x11c>
/home/fangjiang/workspace/optee-os/lib/libmbedtls/mbedtls/library/bignum.c:678
    5c78:	7900029a 	strh	w26, [x20]
    5c7c:	52800013 	mov	w19, #0x0                   	// #0
/home/fangjiang/workspace/optee-os/lib/libmbedtls/mbedtls/library/bignum.c:682
    5c80:	aa1803e0 	mov	x0, x24
    5c84:	97fffa4c 	bl	45b4 <mbedtls_mpi_free>
/home/fangjiang/workspace/optee-os/lib/libmbedtls/mbedtls/library/bignum.c:684
    5c88:	17ffffc9 	b	5bac <mbedtls_mpi_read_string+0x4c>
/home/fangjiang/workspace/optee-os/lib/libmbedtls/mbedtls/library/bignum.c:624
    5c8c:	5280003a 	mov	w26, #0x1                   	// #1
    5c90:	17ffffdd 	b	5c04 <mbedtls_mpi_read_string+0xa4>
/home/fangjiang/workspace/optee-os/lib/libmbedtls/mbedtls/library/bignum.c:661
    5c94:	d10006b5 	sub	x21, x21, #0x1
    5c98:	aa0603e0 	mov	x0, x6
    5c9c:	52800201 	mov	w1, #0x10                  	// #16
    5ca0:	38756ac2 	ldrb	w2, [x22, x21]
    5ca4:	97fff83d 	bl	3d98 <mpi_get_digit>
    5ca8:	2a0003f3 	mov	w19, w0
    5cac:	35fffea0 	cbnz	w0, 5c80 <mbedtls_mpi_read_string+0x120>
/home/fangjiang/workspace/optee-os/lib/libmbedtls/mbedtls/library/bignum.c:662 (discriminator 2)
    5cb0:	d343fca0 	lsr	x0, x5, #3
    5cb4:	b9400fe2 	ldr	w2, [sp, #12]
    5cb8:	f9400a83 	ldr	x3, [x20, #16]
    5cbc:	d37ef400 	lsl	x0, x0, #2
    5cc0:	531e08a1 	ubfiz	w1, w5, #2, #3
/home/fangjiang/workspace/optee-os/lib/libmbedtls/mbedtls/library/bignum.c:659 (discriminator 2)
    5cc4:	910004a5 	add	x5, x5, #0x1
/home/fangjiang/workspace/optee-os/lib/libmbedtls/mbedtls/library/bignum.c:662 (discriminator 2)
    5cc8:	1ac12042 	lsl	w2, w2, w1
    5ccc:	b8606861 	ldr	w1, [x3, x0]
    5cd0:	2a020021 	orr	w1, w1, w2
    5cd4:	b8206861 	str	w1, [x3, x0]
/home/fangjiang/workspace/optee-os/lib/libmbedtls/mbedtls/library/bignum.c:659 (discriminator 2)
    5cd8:	17ffffe2 	b	5c60 <mbedtls_mpi_read_string+0x100>
/home/fangjiang/workspace/optee-os/lib/libmbedtls/mbedtls/library/bignum.c:667
    5cdc:	aa1403e0 	mov	x0, x20
    5ce0:	52800001 	mov	w1, #0x0                   	// #0
    5ce4:	97fffbab 	bl	4b90 <mbedtls_mpi_lset>
    5ce8:	2a0003f3 	mov	w19, w0
    5cec:	35fffca0 	cbnz	w0, 5c80 <mbedtls_mpi_read_string+0x120>
/home/fangjiang/workspace/optee-os/lib/libmbedtls/mbedtls/library/bignum.c:671
    5cf0:	910033fb 	add	x27, sp, #0xc
/home/fangjiang/workspace/optee-os/lib/libmbedtls/mbedtls/library/bignum.c:669
    5cf4:	d2800019 	mov	x25, #0x0                   	// #0
/home/fangjiang/workspace/optee-os/lib/libmbedtls/mbedtls/library/bignum.c:669 (discriminator 2)
    5cf8:	eb15033f 	cmp	x25, x21
    5cfc:	54fffb40 	b.eq	5c64 <mbedtls_mpi_read_string+0x104>  // b.none
/home/fangjiang/workspace/optee-os/lib/libmbedtls/mbedtls/library/bignum.c:671
    5d00:	38796ac2 	ldrb	w2, [x22, x25]
    5d04:	2a1703e1 	mov	w1, w23
    5d08:	aa1b03e0 	mov	x0, x27
    5d0c:	97fff823 	bl	3d98 <mpi_get_digit>
    5d10:	2a0003f3 	mov	w19, w0
    5d14:	35fffb60 	cbnz	w0, 5c80 <mbedtls_mpi_read_string+0x120>
/home/fangjiang/workspace/optee-os/lib/libmbedtls/mbedtls/library/bignum.c:672 (discriminator 2)
    5d18:	2a1703e2 	mov	w2, w23
    5d1c:	aa1403e1 	mov	x1, x20
    5d20:	aa1803e0 	mov	x0, x24
    5d24:	97ffff65 	bl	5ab8 <mbedtls_mpi_mul_int>
    5d28:	2a0003f3 	mov	w19, w0
    5d2c:	35fffaa0 	cbnz	w0, 5c80 <mbedtls_mpi_read_string+0x120>
/home/fangjiang/workspace/optee-os/lib/libmbedtls/mbedtls/library/bignum.c:673 (discriminator 2)
    5d30:	b9400fe2 	ldr	w2, [sp, #12]
    5d34:	aa1803e1 	mov	x1, x24
    5d38:	aa1403e0 	mov	x0, x20
    5d3c:	97fffeb2 	bl	5804 <mbedtls_mpi_add_int>
    5d40:	2a0003f3 	mov	w19, w0
    5d44:	35fff9e0 	cbnz	w0, 5c80 <mbedtls_mpi_read_string+0x120>
/home/fangjiang/workspace/optee-os/lib/libmbedtls/mbedtls/library/bignum.c:669 (discriminator 2)
    5d48:	91000739 	add	x25, x25, #0x1
    5d4c:	17ffffeb 	b	5cf8 <mbedtls_mpi_read_string+0x198>
/home/fangjiang/workspace/optee-os/lib/libmbedtls/mbedtls/library/bignum.c:685
    5d50:	2a1303e0 	mov	w0, w19
    5d54:	a9437bfd 	ldp	x29, x30, [sp, #48]
    5d58:	a94453f3 	ldp	x19, x20, [sp, #64]
    5d5c:	a9455bf5 	ldp	x21, x22, [sp, #80]
    5d60:	a94663f7 	ldp	x23, x24, [sp, #96]
    5d64:	a9476bf9 	ldp	x25, x26, [sp, #112]
    5d68:	f94043fb 	ldr	x27, [sp, #128]
    5d6c:	910243ff 	add	sp, sp, #0x90
    5d70:	d65f03c0 	ret

0000000000005d74 <mbedtls_mpi_div_mpi>:
mbedtls_mpi_div_mpi():
/home/fangjiang/workspace/optee-os/lib/libmbedtls/mbedtls/library/bignum.c:1947
    5d74:	d104c3ff 	sub	sp, sp, #0x130
    5d78:	a90d7bfd 	stp	x29, x30, [sp, #208]
    5d7c:	910343fd 	add	x29, sp, #0xd0
    5d80:	a9116bf9 	stp	x25, x26, [sp, #272]
    5d84:	aa0003f9 	mov	x25, x0
    5d88:	b0000040 	adrp	x0, e000 <_DYNAMIC>
    5d8c:	f9000be3 	str	x3, [sp, #16]
    5d90:	f9409800 	ldr	x0, [x0, #304]
    5d94:	a90e53f3 	stp	x19, x20, [sp, #224]
    5d98:	a90f5bf5 	stp	x21, x22, [sp, #240]
    5d9c:	a91063f7 	stp	x23, x24, [sp, #256]
    5da0:	aa0103f8 	mov	x24, x1
    5da4:	aa0203f7 	mov	x23, x2
    5da8:	a91273fb 	stp	x27, x28, [sp, #288]
    5dac:	f9400001 	ldr	x1, [x0]
    5db0:	f90067e1 	str	x1, [sp, #200]
    5db4:	d2800001 	mov	x1, #0x0                   	// #0
/home/fangjiang/workspace/optee-os/lib/libmbedtls/mbedtls/library/bignum.c:1955
    5db8:	aa0303e0 	mov	x0, x3
    5dbc:	97fffd8e 	bl	53f4 <mbedtls_mpi_cmp_int>
    5dc0:	34002580 	cbz	w0, 6270 <mbedtls_mpi_div_mpi+0x4fc>
/home/fangjiang/workspace/optee-os/lib/libmbedtls/mbedtls/library/bignum.c:1958
    5dc4:	910103f3 	add	x19, sp, #0x40
    5dc8:	910163f6 	add	x22, sp, #0x58
    5dcc:	aa1303e0 	mov	x0, x19
    5dd0:	97fff9ef 	bl	458c <mbedtls_mpi_init_mempool>
    5dd4:	aa1603e0 	mov	x0, x22
/home/fangjiang/workspace/optee-os/lib/libmbedtls/mbedtls/library/bignum.c:1959
    5dd8:	9101c3fc 	add	x28, sp, #0x70
/home/fangjiang/workspace/optee-os/lib/libmbedtls/mbedtls/library/bignum.c:1958
    5ddc:	97fff9ec 	bl	458c <mbedtls_mpi_init_mempool>
/home/fangjiang/workspace/optee-os/lib/libmbedtls/mbedtls/library/bignum.c:1959
    5de0:	910223f5 	add	x21, sp, #0x88
    5de4:	aa1c03e0 	mov	x0, x28
    5de8:	97fff9e9 	bl	458c <mbedtls_mpi_init_mempool>
    5dec:	aa1503e0 	mov	x0, x21
    5df0:	97fff9e7 	bl	458c <mbedtls_mpi_init_mempool>
/home/fangjiang/workspace/optee-os/lib/libmbedtls/mbedtls/library/bignum.c:1971
    5df4:	f9400be1 	ldr	x1, [sp, #16]
/home/fangjiang/workspace/optee-os/lib/libmbedtls/mbedtls/library/bignum.c:1968
    5df8:	d2800060 	mov	x0, #0x3                   	// #3
    5dfc:	f90057e0 	str	x0, [sp, #168]
/home/fangjiang/workspace/optee-os/lib/libmbedtls/mbedtls/library/bignum.c:1969
    5e00:	9102e3e0 	add	x0, sp, #0xb8
/home/fangjiang/workspace/optee-os/lib/libmbedtls/mbedtls/library/bignum.c:1967
    5e04:	52800034 	mov	w20, #0x1                   	// #1
/home/fangjiang/workspace/optee-os/lib/libmbedtls/mbedtls/library/bignum.c:1969
    5e08:	f90017e0 	str	x0, [sp, #40]
/home/fangjiang/workspace/optee-os/lib/libmbedtls/mbedtls/library/bignum.c:1967
    5e0c:	790143f4 	strh	w20, [sp, #160]
/home/fangjiang/workspace/optee-os/lib/libmbedtls/mbedtls/library/bignum.c:1969
    5e10:	f9005be0 	str	x0, [sp, #176]
/home/fangjiang/workspace/optee-os/lib/libmbedtls/mbedtls/library/bignum.c:1971
    5e14:	aa1703e0 	mov	x0, x23
    5e18:	97fffceb 	bl	51c4 <mbedtls_mpi_cmp_abs>
    5e1c:	36f80460 	tbz	w0, #31, 5ea8 <mbedtls_mpi_div_mpi+0x134>
/home/fangjiang/workspace/optee-os/lib/libmbedtls/mbedtls/library/bignum.c:1973
    5e20:	b5000179 	cbnz	x25, 5e4c <mbedtls_mpi_div_mpi+0xd8>
/home/fangjiang/workspace/optee-os/lib/libmbedtls/mbedtls/library/bignum.c:1974
    5e24:	b5000378 	cbnz	x24, 5e90 <mbedtls_mpi_div_mpi+0x11c>
/home/fangjiang/workspace/optee-os/lib/libmbedtls/mbedtls/library/bignum.c:1975
    5e28:	5280001b 	mov	w27, #0x0                   	// #0
/home/fangjiang/workspace/optee-os/lib/libmbedtls/mbedtls/library/bignum.c:2068
    5e2c:	b0000040 	adrp	x0, e000 <_DYNAMIC>
    5e30:	f9409800 	ldr	x0, [x0, #304]
    5e34:	f94067e2 	ldr	x2, [sp, #200]
    5e38:	f9400001 	ldr	x1, [x0]
    5e3c:	eb010042 	subs	x2, x2, x1
    5e40:	d2800001 	mov	x1, #0x0                   	// #0
    5e44:	540021a0 	b.eq	6278 <mbedtls_mpi_div_mpi+0x504>  // b.none
    5e48:	94000c3e 	bl	8f40 <__stack_chk_fail>
/home/fangjiang/workspace/optee-os/lib/libmbedtls/mbedtls/library/bignum.c:1973 (discriminator 1)
    5e4c:	aa1903e0 	mov	x0, x25
    5e50:	52800001 	mov	w1, #0x0                   	// #0
    5e54:	97fffb4f 	bl	4b90 <mbedtls_mpi_lset>
    5e58:	2a0003fb 	mov	w27, w0
    5e5c:	34fffe40 	cbz	w0, 5e24 <mbedtls_mpi_div_mpi+0xb0>
/home/fangjiang/workspace/optee-os/lib/libmbedtls/mbedtls/library/bignum.c:2063
    5e60:	aa1303e0 	mov	x0, x19
    5e64:	97fff9d4 	bl	45b4 <mbedtls_mpi_free>
    5e68:	aa1603e0 	mov	x0, x22
    5e6c:	97fff9d2 	bl	45b4 <mbedtls_mpi_free>
    5e70:	aa1c03e0 	mov	x0, x28
    5e74:	97fff9d0 	bl	45b4 <mbedtls_mpi_free>
/home/fangjiang/workspace/optee-os/lib/libmbedtls/mbedtls/library/bignum.c:2064
    5e78:	aa1503e0 	mov	x0, x21
    5e7c:	97fff9ce 	bl	45b4 <mbedtls_mpi_free>
/home/fangjiang/workspace/optee-os/lib/libmbedtls/mbedtls/library/bignum.c:2065
    5e80:	f94017e0 	ldr	x0, [sp, #40]
    5e84:	d2800181 	mov	x1, #0xc                   	// #12
    5e88:	940008e8 	bl	8228 <mbedtls_platform_zeroize>
/home/fangjiang/workspace/optee-os/lib/libmbedtls/mbedtls/library/bignum.c:2067
    5e8c:	17ffffe8 	b	5e2c <mbedtls_mpi_div_mpi+0xb8>
/home/fangjiang/workspace/optee-os/lib/libmbedtls/mbedtls/library/bignum.c:1974 (discriminator 1)
    5e90:	aa1703e1 	mov	x1, x23
    5e94:	aa1803e0 	mov	x0, x24
    5e98:	97fffa7d 	bl	488c <mbedtls_mpi_copy>
    5e9c:	2a0003fb 	mov	w27, w0
    5ea0:	35fffe00 	cbnz	w0, 5e60 <mbedtls_mpi_div_mpi+0xec>
    5ea4:	17ffffe1 	b	5e28 <mbedtls_mpi_div_mpi+0xb4>
/home/fangjiang/workspace/optee-os/lib/libmbedtls/mbedtls/library/bignum.c:1978
    5ea8:	aa1703e1 	mov	x1, x23
    5eac:	aa1303e0 	mov	x0, x19
    5eb0:	97fffa77 	bl	488c <mbedtls_mpi_copy>
    5eb4:	2a0003fb 	mov	w27, w0
    5eb8:	35fffd40 	cbnz	w0, 5e60 <mbedtls_mpi_div_mpi+0xec>
/home/fangjiang/workspace/optee-os/lib/libmbedtls/mbedtls/library/bignum.c:1979 (discriminator 2)
    5ebc:	f9400be1 	ldr	x1, [sp, #16]
    5ec0:	aa1603e0 	mov	x0, x22
    5ec4:	97fffa72 	bl	488c <mbedtls_mpi_copy>
    5ec8:	2a0003fb 	mov	w27, w0
    5ecc:	35fffca0 	cbnz	w0, 5e60 <mbedtls_mpi_div_mpi+0xec>
/home/fangjiang/workspace/optee-os/lib/libmbedtls/mbedtls/library/bignum.c:1982 (discriminator 2)
    5ed0:	f94006e1 	ldr	x1, [x23, #8]
    5ed4:	aa1c03e0 	mov	x0, x28
/home/fangjiang/workspace/optee-os/lib/libmbedtls/mbedtls/library/bignum.c:1980 (discriminator 2)
    5ed8:	790083f4 	strh	w20, [sp, #64]
/home/fangjiang/workspace/optee-os/lib/libmbedtls/mbedtls/library/bignum.c:1982 (discriminator 2)
    5edc:	91000821 	add	x1, x1, #0x2
/home/fangjiang/workspace/optee-os/lib/libmbedtls/mbedtls/library/bignum.c:1980 (discriminator 2)
    5ee0:	7900b3f4 	strh	w20, [sp, #88]
/home/fangjiang/workspace/optee-os/lib/libmbedtls/mbedtls/library/bignum.c:1982 (discriminator 2)
    5ee4:	97fff9cf 	bl	4620 <mbedtls_mpi_grow>
    5ee8:	2a0003fb 	mov	w27, w0
    5eec:	35fffba0 	cbnz	w0, 5e60 <mbedtls_mpi_div_mpi+0xec>
/home/fangjiang/workspace/optee-os/lib/libmbedtls/mbedtls/library/bignum.c:1983 (discriminator 2)
    5ef0:	aa1c03e0 	mov	x0, x28
    5ef4:	52800001 	mov	w1, #0x0                   	// #0
    5ef8:	97fffb26 	bl	4b90 <mbedtls_mpi_lset>
    5efc:	2a0003fb 	mov	w27, w0
    5f00:	35fffb00 	cbnz	w0, 5e60 <mbedtls_mpi_div_mpi+0xec>
/home/fangjiang/workspace/optee-os/lib/libmbedtls/mbedtls/library/bignum.c:1984 (discriminator 2)
    5f04:	f94006e1 	ldr	x1, [x23, #8]
    5f08:	aa1503e0 	mov	x0, x21
    5f0c:	91000821 	add	x1, x1, #0x2
    5f10:	97fff9c4 	bl	4620 <mbedtls_mpi_grow>
    5f14:	2a0003fb 	mov	w27, w0
    5f18:	35fffa40 	cbnz	w0, 5e60 <mbedtls_mpi_div_mpi+0xec>
/home/fangjiang/workspace/optee-os/lib/libmbedtls/mbedtls/library/bignum.c:1986 (discriminator 2)
    5f1c:	aa1603e0 	mov	x0, x22
    5f20:	97fffb79 	bl	4d04 <mbedtls_mpi_bitlen>
    5f24:	92401000 	and	x0, x0, #0x1f
/home/fangjiang/workspace/optee-os/lib/libmbedtls/mbedtls/library/bignum.c:1987 (discriminator 2)
    5f28:	f1007c1f 	cmp	x0, #0x1f
    5f2c:	54000a20 	b.eq	6070 <mbedtls_mpi_div_mpi+0x2fc>  // b.none
/home/fangjiang/workspace/optee-os/lib/libmbedtls/mbedtls/library/bignum.c:1989
    5f30:	d28003fa 	mov	x26, #0x1f                  	// #31
    5f34:	cb00035a 	sub	x26, x26, x0
/home/fangjiang/workspace/optee-os/lib/libmbedtls/mbedtls/library/bignum.c:1990
    5f38:	aa1a03e1 	mov	x1, x26
    5f3c:	aa1303e0 	mov	x0, x19
    5f40:	97fffc2d 	bl	4ff4 <mbedtls_mpi_shift_l>
    5f44:	2a0003fb 	mov	w27, w0
    5f48:	35fff8c0 	cbnz	w0, 5e60 <mbedtls_mpi_div_mpi+0xec>
/home/fangjiang/workspace/optee-os/lib/libmbedtls/mbedtls/library/bignum.c:1991 (discriminator 2)
    5f4c:	aa1a03e1 	mov	x1, x26
    5f50:	aa1603e0 	mov	x0, x22
    5f54:	97fffc28 	bl	4ff4 <mbedtls_mpi_shift_l>
    5f58:	2a0003fb 	mov	w27, w0
    5f5c:	35fff820 	cbnz	w0, 5e60 <mbedtls_mpi_div_mpi+0xec>
/home/fangjiang/workspace/optee-os/lib/libmbedtls/mbedtls/library/bignum.c:1995
    5f60:	f94027e0 	ldr	x0, [sp, #72]
    5f64:	f90007e0 	str	x0, [sp, #8]
/home/fangjiang/workspace/optee-os/lib/libmbedtls/mbedtls/library/bignum.c:1996
    5f68:	f94033e0 	ldr	x0, [sp, #96]
    5f6c:	f9000fe0 	str	x0, [sp, #24]
/home/fangjiang/workspace/optee-os/lib/libmbedtls/mbedtls/library/bignum.c:1997
    5f70:	f94007e0 	ldr	x0, [sp, #8]
    5f74:	f9400fe1 	ldr	x1, [sp, #24]
    5f78:	cb010014 	sub	x20, x0, x1
    5f7c:	d37bea80 	lsl	x0, x20, #5
    5f80:	f90013e0 	str	x0, [sp, #32]
    5f84:	aa0003e1 	mov	x1, x0
    5f88:	aa1603e0 	mov	x0, x22
    5f8c:	97fffc1a 	bl	4ff4 <mbedtls_mpi_shift_l>
    5f90:	2a0003fb 	mov	w27, w0
    5f94:	35fff660 	cbnz	w0, 5e60 <mbedtls_mpi_div_mpi+0xec>
/home/fangjiang/workspace/optee-os/lib/libmbedtls/mbedtls/library/bignum.c:2001
    5f98:	d37ef694 	lsl	x20, x20, #2
/home/fangjiang/workspace/optee-os/lib/libmbedtls/mbedtls/library/bignum.c:1999 (discriminator 2)
    5f9c:	aa1603e1 	mov	x1, x22
    5fa0:	aa1303e0 	mov	x0, x19
    5fa4:	97fffcaf 	bl	5260 <mbedtls_mpi_cmp_mpi>
    5fa8:	36f80680 	tbz	w0, #31, 6078 <mbedtls_mpi_div_mpi+0x304>
/home/fangjiang/workspace/optee-os/lib/libmbedtls/mbedtls/library/bignum.c:2004
    5fac:	f94013e1 	ldr	x1, [sp, #32]
    5fb0:	aa1603e0 	mov	x0, x22
    5fb4:	97fffc54 	bl	5104 <mbedtls_mpi_shift_r>
    5fb8:	2a0003fb 	mov	w27, w0
    5fbc:	35fff520 	cbnz	w0, 5e60 <mbedtls_mpi_div_mpi+0xec>
/home/fangjiang/workspace/optee-os/lib/libmbedtls/mbedtls/library/bignum.c:1995
    5fc0:	f94007e0 	ldr	x0, [sp, #8]
    5fc4:	d1001294 	sub	x20, x20, #0x4
    5fc8:	d1000400 	sub	x0, x0, #0x1
    5fcc:	f90007e0 	str	x0, [sp, #8]
/home/fangjiang/workspace/optee-os/lib/libmbedtls/mbedtls/library/bignum.c:1996
    5fd0:	f9400fe0 	ldr	x0, [sp, #24]
    5fd4:	d1000400 	sub	x0, x0, #0x1
    5fd8:	f90013e0 	str	x0, [sp, #32]
/home/fangjiang/workspace/optee-os/lib/libmbedtls/mbedtls/library/bignum.c:2008
    5fdc:	d37ef400 	lsl	x0, x0, #2
    5fe0:	f9000fe0 	str	x0, [sp, #24]
/home/fangjiang/workspace/optee-os/lib/libmbedtls/mbedtls/library/bignum.c:2030
    5fe4:	910283e0 	add	x0, sp, #0xa0
    5fe8:	f9001be0 	str	x0, [sp, #48]
/home/fangjiang/workspace/optee-os/lib/libmbedtls/mbedtls/library/bignum.c:2006 (discriminator 1)
    5fec:	f94007e0 	ldr	x0, [sp, #8]
    5ff0:	f94013e1 	ldr	x1, [sp, #32]
    5ff4:	eb01001f 	cmp	x0, x1
    5ff8:	54000568 	b.hi	60a4 <mbedtls_mpi_div_mpi+0x330>  // b.pmore
/home/fangjiang/workspace/optee-os/lib/libmbedtls/mbedtls/library/bignum.c:2045
    5ffc:	b4000159 	cbz	x25, 6024 <mbedtls_mpi_div_mpi+0x2b0>
/home/fangjiang/workspace/optee-os/lib/libmbedtls/mbedtls/library/bignum.c:2047
    6000:	aa1c03e1 	mov	x1, x28
    6004:	aa1903e0 	mov	x0, x25
    6008:	97fffa21 	bl	488c <mbedtls_mpi_copy>
    600c:	350012e0 	cbnz	w0, 6268 <mbedtls_mpi_div_mpi+0x4f4>
/home/fangjiang/workspace/optee-os/lib/libmbedtls/mbedtls/library/bignum.c:2048 (discriminator 2)
    6010:	f9400be1 	ldr	x1, [sp, #16]
    6014:	794002e0 	ldrh	w0, [x23]
    6018:	79400021 	ldrh	w1, [x1]
    601c:	1b017c00 	mul	w0, w0, w1
    6020:	79000320 	strh	w0, [x25]
/home/fangjiang/workspace/optee-os/lib/libmbedtls/mbedtls/library/bignum.c:2051
    6024:	b4fff1f8 	cbz	x24, 5e60 <mbedtls_mpi_div_mpi+0xec>
/home/fangjiang/workspace/optee-os/lib/libmbedtls/mbedtls/library/bignum.c:2053
    6028:	aa1a03e1 	mov	x1, x26
    602c:	aa1303e0 	mov	x0, x19
    6030:	97fffc35 	bl	5104 <mbedtls_mpi_shift_r>
    6034:	350011a0 	cbnz	w0, 6268 <mbedtls_mpi_div_mpi+0x4f4>
/home/fangjiang/workspace/optee-os/lib/libmbedtls/mbedtls/library/bignum.c:2054 (discriminator 2)
    6038:	794002e0 	ldrh	w0, [x23]
/home/fangjiang/workspace/optee-os/lib/libmbedtls/mbedtls/library/bignum.c:2055 (discriminator 2)
    603c:	aa1303e1 	mov	x1, x19
/home/fangjiang/workspace/optee-os/lib/libmbedtls/mbedtls/library/bignum.c:2054 (discriminator 2)
    6040:	790083e0 	strh	w0, [sp, #64]
/home/fangjiang/workspace/optee-os/lib/libmbedtls/mbedtls/library/bignum.c:2055 (discriminator 2)
    6044:	aa1803e0 	mov	x0, x24
    6048:	97fffa11 	bl	488c <mbedtls_mpi_copy>
    604c:	350010e0 	cbnz	w0, 6268 <mbedtls_mpi_div_mpi+0x4f4>
/home/fangjiang/workspace/optee-os/lib/libmbedtls/mbedtls/library/bignum.c:2057 (discriminator 2)
    6050:	aa1803e0 	mov	x0, x24
    6054:	52800001 	mov	w1, #0x0                   	// #0
    6058:	97fffce7 	bl	53f4 <mbedtls_mpi_cmp_int>
    605c:	35fff020 	cbnz	w0, 5e60 <mbedtls_mpi_div_mpi+0xec>
/home/fangjiang/workspace/optee-os/lib/libmbedtls/mbedtls/library/bignum.c:2058
    6060:	52800020 	mov	w0, #0x1                   	// #1
/home/fangjiang/workspace/optee-os/lib/libmbedtls/mbedtls/library/bignum.c:2055
    6064:	5280001b 	mov	w27, #0x0                   	// #0
/home/fangjiang/workspace/optee-os/lib/libmbedtls/mbedtls/library/bignum.c:2058
    6068:	79000300 	strh	w0, [x24]
    606c:	17ffff7d 	b	5e60 <mbedtls_mpi_div_mpi+0xec>
/home/fangjiang/workspace/optee-os/lib/libmbedtls/mbedtls/library/bignum.c:1993
    6070:	d280001a 	mov	x26, #0x0                   	// #0
    6074:	17ffffbb 	b	5f60 <mbedtls_mpi_div_mpi+0x1ec>
/home/fangjiang/workspace/optee-os/lib/libmbedtls/mbedtls/library/bignum.c:2001
    6078:	f94043e1 	ldr	x1, [sp, #128]
/home/fangjiang/workspace/optee-os/lib/libmbedtls/mbedtls/library/bignum.c:2002
    607c:	aa1603e2 	mov	x2, x22
/home/fangjiang/workspace/optee-os/lib/libmbedtls/mbedtls/library/bignum.c:2001
    6080:	b8746820 	ldr	w0, [x1, x20]
    6084:	11000400 	add	w0, w0, #0x1
    6088:	b8346820 	str	w0, [x1, x20]
/home/fangjiang/workspace/optee-os/lib/libmbedtls/mbedtls/library/bignum.c:2002
    608c:	aa1303e1 	mov	x1, x19
    6090:	aa1303e0 	mov	x0, x19
    6094:	97fffdb9 	bl	5778 <mbedtls_mpi_sub_mpi>
    6098:	2a0003fb 	mov	w27, w0
    609c:	34fff800 	cbz	w0, 5f9c <mbedtls_mpi_div_mpi+0x228>
    60a0:	17ffff70 	b	5e60 <mbedtls_mpi_div_mpi+0xec>
/home/fangjiang/workspace/optee-os/lib/libmbedtls/mbedtls/library/bignum.c:2008
    60a4:	f94007e0 	ldr	x0, [sp, #8]
    60a8:	f9400fe3 	ldr	x3, [sp, #24]
    60ac:	f94037e1 	ldr	x1, [sp, #104]
    60b0:	d37ef405 	lsl	x5, x0, #2
    60b4:	f9402be2 	ldr	x2, [sp, #80]
/home/fangjiang/workspace/optee-os/lib/libmbedtls/mbedtls/library/bignum.c:2012
    60b8:	d10010a6 	sub	x6, x5, #0x4
/home/fangjiang/workspace/optee-os/lib/libmbedtls/mbedtls/library/bignum.c:2008
    60bc:	b8636824 	ldr	w4, [x1, x3]
/home/fangjiang/workspace/optee-os/lib/libmbedtls/mbedtls/library/bignum.c:2009
    60c0:	f94043e1 	ldr	x1, [sp, #128]
/home/fangjiang/workspace/optee-os/lib/libmbedtls/mbedtls/library/bignum.c:2008
    60c4:	8b000847 	add	x7, x2, x0, lsl #2
    60c8:	b8656840 	ldr	w0, [x2, x5]
/home/fangjiang/workspace/optee-os/lib/libmbedtls/mbedtls/library/bignum.c:2009
    60cc:	8b140021 	add	x1, x1, x20
/home/fangjiang/workspace/optee-os/lib/libmbedtls/mbedtls/library/bignum.c:2008
    60d0:	6b04001f 	cmp	w0, w4
    60d4:	54000be2 	b.cs	6250 <mbedtls_mpi_div_mpi+0x4dc>  // b.hs, b.nlast
mbedtls_int_div_int():
/home/fangjiang/workspace/optee-os/lib/libmbedtls/mbedtls/library/bignum.c:1875
    60d8:	b8666848 	ldr	w8, [x2, x6]
/home/fangjiang/workspace/optee-os/lib/libmbedtls/mbedtls/library/bignum.c:1876
    60dc:	2a0403e4 	mov	w4, w4
/home/fangjiang/workspace/optee-os/lib/libmbedtls/mbedtls/library/bignum.c:1883
    60e0:	b2407fe3 	mov	x3, #0xffffffff            	// #4294967295
/home/fangjiang/workspace/optee-os/lib/libmbedtls/mbedtls/library/bignum.c:1875
    60e4:	aa008100 	orr	x0, x8, x0, lsl #32
/home/fangjiang/workspace/optee-os/lib/libmbedtls/mbedtls/library/bignum.c:1876
    60e8:	9ac40800 	udiv	x0, x0, x4
/home/fangjiang/workspace/optee-os/lib/libmbedtls/mbedtls/library/bignum.c:1883
    60ec:	eb03001f 	cmp	x0, x3
    60f0:	9a839000 	csel	x0, x0, x3, ls  // ls = plast
mbedtls_mpi_div_mpi():
/home/fangjiang/workspace/optee-os/lib/libmbedtls/mbedtls/library/bignum.c:2009
    60f4:	b9000020 	str	w0, [x1]
/home/fangjiang/workspace/optee-os/lib/libmbedtls/mbedtls/library/bignum.c:2016
    60f8:	f94007e0 	ldr	x0, [sp, #8]
    60fc:	f100041f 	cmp	x0, #0x1
    6100:	54000ac0 	b.eq	6258 <mbedtls_mpi_div_mpi+0x4e4>  // b.none
/home/fangjiang/workspace/optee-os/lib/libmbedtls/mbedtls/library/bignum.c:2016 (discriminator 1)
    6104:	b85f80e4 	ldur	w4, [x7, #-8]
/home/fangjiang/workspace/optee-os/lib/libmbedtls/mbedtls/library/bignum.c:2016 (discriminator 4)
    6108:	f9405be0 	ldr	x0, [sp, #176]
    610c:	b9000004 	str	w4, [x0]
/home/fangjiang/workspace/optee-os/lib/libmbedtls/mbedtls/library/bignum.c:2017 (discriminator 4)
    6110:	b8666844 	ldr	w4, [x2, x6]
    6114:	b9000404 	str	w4, [x0, #4]
/home/fangjiang/workspace/optee-os/lib/libmbedtls/mbedtls/library/bignum.c:2018 (discriminator 4)
    6118:	b8656842 	ldr	w2, [x2, x5]
    611c:	b9000802 	str	w2, [x0, #8]
/home/fangjiang/workspace/optee-os/lib/libmbedtls/mbedtls/library/bignum.c:2020 (discriminator 4)
    6120:	b9400020 	ldr	w0, [x1]
    6124:	11000400 	add	w0, w0, #0x1
    6128:	b9000020 	str	w0, [x1]
/home/fangjiang/workspace/optee-os/lib/libmbedtls/mbedtls/library/bignum.c:2023
    612c:	f94043e1 	ldr	x1, [sp, #128]
    6130:	b8746820 	ldr	w0, [x1, x20]
    6134:	51000400 	sub	w0, w0, #0x1
    6138:	b8346820 	str	w0, [x1, x20]
/home/fangjiang/workspace/optee-os/lib/libmbedtls/mbedtls/library/bignum.c:2025
    613c:	aa1503e0 	mov	x0, x21
    6140:	52800001 	mov	w1, #0x0                   	// #0
    6144:	97fffa93 	bl	4b90 <mbedtls_mpi_lset>
    6148:	35000900 	cbnz	w0, 6268 <mbedtls_mpi_div_mpi+0x4f4>
/home/fangjiang/workspace/optee-os/lib/libmbedtls/mbedtls/library/bignum.c:2026 (discriminator 2)
    614c:	f94013e0 	ldr	x0, [sp, #32]
    6150:	f94037e1 	ldr	x1, [sp, #104]
    6154:	b4000860 	cbz	x0, 6260 <mbedtls_mpi_div_mpi+0x4ec>
/home/fangjiang/workspace/optee-os/lib/libmbedtls/mbedtls/library/bignum.c:2026 (discriminator 1)
    6158:	f9400fe0 	ldr	x0, [sp, #24]
    615c:	8b000020 	add	x0, x1, x0
    6160:	b85fc002 	ldur	w2, [x0, #-4]
/home/fangjiang/workspace/optee-os/lib/libmbedtls/mbedtls/library/bignum.c:2026 (discriminator 4)
    6164:	f9404fe0 	ldr	x0, [sp, #152]
    6168:	b9000002 	str	w2, [x0]
/home/fangjiang/workspace/optee-os/lib/libmbedtls/mbedtls/library/bignum.c:2027 (discriminator 4)
    616c:	f9400fe2 	ldr	x2, [sp, #24]
    6170:	b8626821 	ldr	w1, [x1, x2]
    6174:	b9000401 	str	w1, [x0, #4]
/home/fangjiang/workspace/optee-os/lib/libmbedtls/mbedtls/library/bignum.c:2028 (discriminator 4)
    6178:	aa1503e1 	mov	x1, x21
    617c:	f94043e0 	ldr	x0, [sp, #128]
    6180:	b8746802 	ldr	w2, [x0, x20]
    6184:	aa1503e0 	mov	x0, x21
    6188:	97fffe4c 	bl	5ab8 <mbedtls_mpi_mul_int>
    618c:	350006e0 	cbnz	w0, 6268 <mbedtls_mpi_div_mpi+0x4f4>
/home/fangjiang/workspace/optee-os/lib/libmbedtls/mbedtls/library/bignum.c:2030 (discriminator 2)
    6190:	f9401be1 	ldr	x1, [sp, #48]
    6194:	aa1503e0 	mov	x0, x21
    6198:	97fffc32 	bl	5260 <mbedtls_mpi_cmp_mpi>
    619c:	7100001f 	cmp	w0, #0x0
    61a0:	54fffc6c 	b.gt	612c <mbedtls_mpi_div_mpi+0x3b8>
/home/fangjiang/workspace/optee-os/lib/libmbedtls/mbedtls/library/bignum.c:2032
    61a4:	f94043e0 	ldr	x0, [sp, #128]
    61a8:	aa1603e1 	mov	x1, x22
    61ac:	b8746802 	ldr	w2, [x0, x20]
    61b0:	aa1503e0 	mov	x0, x21
    61b4:	97fffe41 	bl	5ab8 <mbedtls_mpi_mul_int>
    61b8:	35000580 	cbnz	w0, 6268 <mbedtls_mpi_div_mpi+0x4f4>
/home/fangjiang/workspace/optee-os/lib/libmbedtls/mbedtls/library/bignum.c:2033 (discriminator 2)
    61bc:	d37df280 	lsl	x0, x20, #3
    61c0:	f9001fe0 	str	x0, [sp, #56]
    61c4:	aa0003e1 	mov	x1, x0
    61c8:	aa1503e0 	mov	x0, x21
    61cc:	97fffb8a 	bl	4ff4 <mbedtls_mpi_shift_l>
    61d0:	350004c0 	cbnz	w0, 6268 <mbedtls_mpi_div_mpi+0x4f4>
/home/fangjiang/workspace/optee-os/lib/libmbedtls/mbedtls/library/bignum.c:2034 (discriminator 2)
    61d4:	aa1503e2 	mov	x2, x21
    61d8:	aa1303e1 	mov	x1, x19
    61dc:	aa1303e0 	mov	x0, x19
    61e0:	97fffd66 	bl	5778 <mbedtls_mpi_sub_mpi>
    61e4:	35000420 	cbnz	w0, 6268 <mbedtls_mpi_div_mpi+0x4f4>
/home/fangjiang/workspace/optee-os/lib/libmbedtls/mbedtls/library/bignum.c:2036 (discriminator 2)
    61e8:	aa1303e0 	mov	x0, x19
    61ec:	52800001 	mov	w1, #0x0                   	// #0
    61f0:	97fffc81 	bl	53f4 <mbedtls_mpi_cmp_int>
    61f4:	36f80240 	tbz	w0, #31, 623c <mbedtls_mpi_div_mpi+0x4c8>
/home/fangjiang/workspace/optee-os/lib/libmbedtls/mbedtls/library/bignum.c:2038
    61f8:	aa1603e1 	mov	x1, x22
    61fc:	aa1503e0 	mov	x0, x21
    6200:	97fff9a3 	bl	488c <mbedtls_mpi_copy>
    6204:	35000320 	cbnz	w0, 6268 <mbedtls_mpi_div_mpi+0x4f4>
/home/fangjiang/workspace/optee-os/lib/libmbedtls/mbedtls/library/bignum.c:2039 (discriminator 2)
    6208:	d37df281 	lsl	x1, x20, #3
    620c:	aa1503e0 	mov	x0, x21
    6210:	97fffb79 	bl	4ff4 <mbedtls_mpi_shift_l>
    6214:	350002a0 	cbnz	w0, 6268 <mbedtls_mpi_div_mpi+0x4f4>
/home/fangjiang/workspace/optee-os/lib/libmbedtls/mbedtls/library/bignum.c:2040 (discriminator 2)
    6218:	aa1503e2 	mov	x2, x21
    621c:	aa1303e1 	mov	x1, x19
    6220:	aa1303e0 	mov	x0, x19
    6224:	97fffd33 	bl	56f0 <mbedtls_mpi_add_mpi>
    6228:	35000200 	cbnz	w0, 6268 <mbedtls_mpi_div_mpi+0x4f4>
/home/fangjiang/workspace/optee-os/lib/libmbedtls/mbedtls/library/bignum.c:2041 (discriminator 2)
    622c:	f94043e1 	ldr	x1, [sp, #128]
    6230:	b8746820 	ldr	w0, [x1, x20]
    6234:	51000400 	sub	w0, w0, #0x1
    6238:	b8346820 	str	w0, [x1, x20]
/home/fangjiang/workspace/optee-os/lib/libmbedtls/mbedtls/library/bignum.c:2006 (discriminator 2)
    623c:	f94007e0 	ldr	x0, [sp, #8]
    6240:	d1001294 	sub	x20, x20, #0x4
    6244:	d1000400 	sub	x0, x0, #0x1
    6248:	f90007e0 	str	x0, [sp, #8]
    624c:	17ffff68 	b	5fec <mbedtls_mpi_div_mpi+0x278>
    6250:	12800000 	mov	w0, #0xffffffff            	// #-1
    6254:	17ffffa8 	b	60f4 <mbedtls_mpi_div_mpi+0x380>
/home/fangjiang/workspace/optee-os/lib/libmbedtls/mbedtls/library/bignum.c:2016
    6258:	52800004 	mov	w4, #0x0                   	// #0
    625c:	17ffffab 	b	6108 <mbedtls_mpi_div_mpi+0x394>
/home/fangjiang/workspace/optee-os/lib/libmbedtls/mbedtls/library/bignum.c:2026
    6260:	52800002 	mov	w2, #0x0                   	// #0
    6264:	17ffffc0 	b	6164 <mbedtls_mpi_div_mpi+0x3f0>
    6268:	2a0003fb 	mov	w27, w0
    626c:	17fffefd 	b	5e60 <mbedtls_mpi_div_mpi+0xec>
/home/fangjiang/workspace/optee-os/lib/libmbedtls/mbedtls/library/bignum.c:1956
    6270:	1280017b 	mov	w27, #0xfffffff4            	// #-12
    6274:	17fffeee 	b	5e2c <mbedtls_mpi_div_mpi+0xb8>
/home/fangjiang/workspace/optee-os/lib/libmbedtls/mbedtls/library/bignum.c:2068
    6278:	2a1b03e0 	mov	w0, w27
    627c:	a94d7bfd 	ldp	x29, x30, [sp, #208]
    6280:	a94e53f3 	ldp	x19, x20, [sp, #224]
    6284:	a94f5bf5 	ldp	x21, x22, [sp, #240]
    6288:	a95063f7 	ldp	x23, x24, [sp, #256]
    628c:	a9516bf9 	ldp	x25, x26, [sp, #272]
    6290:	a95273fb 	ldp	x27, x28, [sp, #288]
    6294:	9104c3ff 	add	sp, sp, #0x130
    6298:	d65f03c0 	ret

000000000000629c <mbedtls_mpi_div_int>:
mbedtls_mpi_div_int():
/home/fangjiang/workspace/optee-os/lib/libmbedtls/mbedtls/library/bignum.c:2076
    629c:	d10143ff 	sub	sp, sp, #0x50
/home/fangjiang/workspace/optee-os/lib/libmbedtls/mbedtls/library/bignum.c:2081
    62a0:	7100007f 	cmp	w3, #0x0
    62a4:	5a83a463 	cneg	w3, w3, lt  // lt = tstop
/home/fangjiang/workspace/optee-os/lib/libmbedtls/mbedtls/library/bignum.c:2076
    62a8:	a9037bfd 	stp	x29, x30, [sp, #48]
    62ac:	9100c3fd 	add	x29, sp, #0x30
    62b0:	f90023f3 	str	x19, [sp, #64]
    62b4:	90000053 	adrp	x19, e000 <_DYNAMIC>
    62b8:	f9409a64 	ldr	x4, [x19, #304]
    62bc:	f9400085 	ldr	x5, [x4]
    62c0:	f90017e5 	str	x5, [sp, #40]
    62c4:	d2800005 	mov	x5, #0x0                   	// #0
/home/fangjiang/workspace/optee-os/lib/libmbedtls/mbedtls/library/bignum.c:2081
    62c8:	b90023e3 	str	w3, [sp, #32]
/home/fangjiang/workspace/optee-os/lib/libmbedtls/mbedtls/library/bignum.c:2082
    62cc:	52800023 	mov	w3, #0x1                   	// #1
    62d0:	5a83a463 	cneg	w3, w3, lt  // lt = tstop
    62d4:	790013e3 	strh	w3, [sp, #8]
/home/fangjiang/workspace/optee-os/lib/libmbedtls/mbedtls/library/bignum.c:2083
    62d8:	d2800023 	mov	x3, #0x1                   	// #1
    62dc:	f9000be3 	str	x3, [sp, #16]
/home/fangjiang/workspace/optee-os/lib/libmbedtls/mbedtls/library/bignum.c:2084
    62e0:	910083e3 	add	x3, sp, #0x20
    62e4:	f9000fe3 	str	x3, [sp, #24]
/home/fangjiang/workspace/optee-os/lib/libmbedtls/mbedtls/library/bignum.c:2086
    62e8:	910023e3 	add	x3, sp, #0x8
    62ec:	97fffea2 	bl	5d74 <mbedtls_mpi_div_mpi>
/home/fangjiang/workspace/optee-os/lib/libmbedtls/mbedtls/library/bignum.c:2087
    62f0:	f9409a73 	ldr	x19, [x19, #304]
    62f4:	f94017e1 	ldr	x1, [sp, #40]
    62f8:	f9400262 	ldr	x2, [x19]
    62fc:	eb020021 	subs	x1, x1, x2
    6300:	d2800002 	mov	x2, #0x0                   	// #0
    6304:	54000040 	b.eq	630c <mbedtls_mpi_div_int+0x70>  // b.none
    6308:	94000b0e 	bl	8f40 <__stack_chk_fail>
    630c:	a9437bfd 	ldp	x29, x30, [sp, #48]
    6310:	f94023f3 	ldr	x19, [sp, #64]
    6314:	910143ff 	add	sp, sp, #0x50
    6318:	d65f03c0 	ret

000000000000631c <mbedtls_mpi_mod_mpi>:
mbedtls_mpi_mod_mpi():
/home/fangjiang/workspace/optee-os/lib/libmbedtls/mbedtls/library/bignum.c:2093
    631c:	a9bd7bfd 	stp	x29, x30, [sp, #-48]!
    6320:	910003fd 	mov	x29, sp
    6324:	a90153f3 	stp	x19, x20, [sp, #16]
    6328:	aa0003f3 	mov	x19, x0
    632c:	aa0103f4 	mov	x20, x1
/home/fangjiang/workspace/optee-os/lib/libmbedtls/mbedtls/library/bignum.c:2099
    6330:	aa0203e0 	mov	x0, x2
    6334:	52800001 	mov	w1, #0x0                   	// #0
/home/fangjiang/workspace/optee-os/lib/libmbedtls/mbedtls/library/bignum.c:2093
    6338:	f90013f5 	str	x21, [sp, #32]
    633c:	aa0203f5 	mov	x21, x2
/home/fangjiang/workspace/optee-os/lib/libmbedtls/mbedtls/library/bignum.c:2099
    6340:	97fffc2d 	bl	53f4 <mbedtls_mpi_cmp_int>
    6344:	37f80420 	tbnz	w0, #31, 63c8 <mbedtls_mpi_mod_mpi+0xac>
/home/fangjiang/workspace/optee-os/lib/libmbedtls/mbedtls/library/bignum.c:2102
    6348:	aa1403e2 	mov	x2, x20
    634c:	aa1503e3 	mov	x3, x21
    6350:	aa1303e1 	mov	x1, x19
    6354:	d2800000 	mov	x0, #0x0                   	// #0
    6358:	97fffe87 	bl	5d74 <mbedtls_mpi_div_mpi>
    635c:	2a0003f4 	mov	w20, w0
    6360:	34000160 	cbz	w0, 638c <mbedtls_mpi_mod_mpi+0x70>
/home/fangjiang/workspace/optee-os/lib/libmbedtls/mbedtls/library/bignum.c:2113
    6364:	2a1403e0 	mov	w0, w20
    6368:	a94153f3 	ldp	x19, x20, [sp, #16]
    636c:	f94013f5 	ldr	x21, [sp, #32]
    6370:	a8c37bfd 	ldp	x29, x30, [sp], #48
    6374:	d65f03c0 	ret
/home/fangjiang/workspace/optee-os/lib/libmbedtls/mbedtls/library/bignum.c:2105
    6378:	aa1503e2 	mov	x2, x21
    637c:	aa1303e1 	mov	x1, x19
    6380:	aa1303e0 	mov	x0, x19
    6384:	97fffcdb 	bl	56f0 <mbedtls_mpi_add_mpi>
    6388:	350001c0 	cbnz	w0, 63c0 <mbedtls_mpi_mod_mpi+0xa4>
/home/fangjiang/workspace/optee-os/lib/libmbedtls/mbedtls/library/bignum.c:2104
    638c:	aa1303e0 	mov	x0, x19
    6390:	52800001 	mov	w1, #0x0                   	// #0
    6394:	97fffc18 	bl	53f4 <mbedtls_mpi_cmp_int>
    6398:	37ffff00 	tbnz	w0, #31, 6378 <mbedtls_mpi_mod_mpi+0x5c>
/home/fangjiang/workspace/optee-os/lib/libmbedtls/mbedtls/library/bignum.c:2107
    639c:	aa1503e1 	mov	x1, x21
    63a0:	aa1303e0 	mov	x0, x19
    63a4:	97fffbaf 	bl	5260 <mbedtls_mpi_cmp_mpi>
    63a8:	37fffde0 	tbnz	w0, #31, 6364 <mbedtls_mpi_mod_mpi+0x48>
/home/fangjiang/workspace/optee-os/lib/libmbedtls/mbedtls/library/bignum.c:2108
    63ac:	aa1503e2 	mov	x2, x21
    63b0:	aa1303e1 	mov	x1, x19
    63b4:	aa1303e0 	mov	x0, x19
    63b8:	97fffcf0 	bl	5778 <mbedtls_mpi_sub_mpi>
    63bc:	34ffff00 	cbz	w0, 639c <mbedtls_mpi_mod_mpi+0x80>
    63c0:	2a0003f4 	mov	w20, w0
    63c4:	17ffffe8 	b	6364 <mbedtls_mpi_mod_mpi+0x48>
/home/fangjiang/workspace/optee-os/lib/libmbedtls/mbedtls/library/bignum.c:2100
    63c8:	12800134 	mov	w20, #0xfffffff6            	// #-10
    63cc:	17ffffe6 	b	6364 <mbedtls_mpi_mod_mpi+0x48>

00000000000063d0 <mbedtls_mpi_mod_int>:
mbedtls_mpi_mod_int():
/home/fangjiang/workspace/optee-os/lib/libmbedtls/mbedtls/library/bignum.c:2125
    63d0:	7100005f 	cmp	w2, #0x0
    63d4:	34000462 	cbz	w2, 6460 <mbedtls_mpi_mod_int+0x90>
/home/fangjiang/workspace/optee-os/lib/libmbedtls/mbedtls/library/bignum.c:2128
    63d8:	5400048b 	b.lt	6468 <mbedtls_mpi_mod_int+0x98>  // b.tstop
/home/fangjiang/workspace/optee-os/lib/libmbedtls/mbedtls/library/bignum.c:2134
    63dc:	7100045f 	cmp	w2, #0x1
    63e0:	54000081 	b.ne	63f0 <mbedtls_mpi_mod_int+0x20>  // b.any
/home/fangjiang/workspace/optee-os/lib/libmbedtls/mbedtls/library/bignum.c:2136
    63e4:	b900001f 	str	wzr, [x0]
/home/fangjiang/workspace/optee-os/lib/libmbedtls/mbedtls/library/bignum.c:2169
    63e8:	52800000 	mov	w0, #0x0                   	// #0
/home/fangjiang/workspace/optee-os/lib/libmbedtls/mbedtls/library/bignum.c:2172
    63ec:	d65f03c0 	ret
/home/fangjiang/workspace/optee-os/lib/libmbedtls/mbedtls/library/bignum.c:2140
    63f0:	7100085f 	cmp	w2, #0x2
    63f4:	540000c1 	b.ne	640c <mbedtls_mpi_mod_int+0x3c>  // b.any
/home/fangjiang/workspace/optee-os/lib/libmbedtls/mbedtls/library/bignum.c:2142
    63f8:	f9400821 	ldr	x1, [x1, #16]
    63fc:	b9400021 	ldr	w1, [x1]
    6400:	12000021 	and	w1, w1, #0x1
    6404:	b9000001 	str	w1, [x0]
/home/fangjiang/workspace/optee-os/lib/libmbedtls/mbedtls/library/bignum.c:2143
    6408:	17fffff8 	b	63e8 <mbedtls_mpi_mod_int+0x18>
/home/fangjiang/workspace/optee-os/lib/libmbedtls/mbedtls/library/bignum.c:2149
    640c:	f9400425 	ldr	x5, [x1, #8]
    6410:	52800003 	mov	w3, #0x0                   	// #0
    6414:	d10004a5 	sub	x5, x5, #0x1
    6418:	b10004bf 	cmn	x5, #0x1
    641c:	540000e1 	b.ne	6438 <mbedtls_mpi_mod_int+0x68>  // b.any
/home/fangjiang/workspace/optee-os/lib/libmbedtls/mbedtls/library/bignum.c:2166
    6420:	79c00021 	ldrsh	w1, [x1]
    6424:	36f80061 	tbz	w1, #31, 6430 <mbedtls_mpi_mod_int+0x60>
    6428:	34000043 	cbz	w3, 6430 <mbedtls_mpi_mod_int+0x60>
/home/fangjiang/workspace/optee-os/lib/libmbedtls/mbedtls/library/bignum.c:2167
    642c:	4b030043 	sub	w3, w2, w3
/home/fangjiang/workspace/optee-os/lib/libmbedtls/mbedtls/library/bignum.c:2169
    6430:	b9000003 	str	w3, [x0]
    6434:	17ffffed 	b	63e8 <mbedtls_mpi_mod_int+0x18>
/home/fangjiang/workspace/optee-os/lib/libmbedtls/mbedtls/library/bignum.c:2151
    6438:	f9400824 	ldr	x4, [x1, #16]
    643c:	b8657886 	ldr	w6, [x4, x5, lsl #2]
/home/fangjiang/workspace/optee-os/lib/libmbedtls/mbedtls/library/bignum.c:2152
    6440:	13864063 	extr	w3, w3, w6, #16
/home/fangjiang/workspace/optee-os/lib/libmbedtls/mbedtls/library/bignum.c:2157
    6444:	12003cc6 	and	w6, w6, #0xffff
    6448:	1ac20864 	udiv	w4, w3, w2
    644c:	1b028c84 	msub	w4, w4, w2, w3
    6450:	2a0440c4 	orr	w4, w6, w4, lsl #16
    6454:	1ac20883 	udiv	w3, w4, w2
    6458:	1b029063 	msub	w3, w3, w2, w4
/home/fangjiang/workspace/optee-os/lib/libmbedtls/mbedtls/library/bignum.c:2149
    645c:	17ffffee 	b	6414 <mbedtls_mpi_mod_int+0x44>
/home/fangjiang/workspace/optee-os/lib/libmbedtls/mbedtls/library/bignum.c:2126
    6460:	12800160 	mov	w0, #0xfffffff4            	// #-12
    6464:	17ffffe2 	b	63ec <mbedtls_mpi_mod_int+0x1c>
/home/fangjiang/workspace/optee-os/lib/libmbedtls/mbedtls/library/bignum.c:2129
    6468:	12800120 	mov	w0, #0xfffffff6            	// #-10
    646c:	17ffffe0 	b	63ec <mbedtls_mpi_mod_int+0x1c>

0000000000006470 <mbedtls_mpi_write_string>:
mbedtls_mpi_write_string():
/home/fangjiang/workspace/optee-os/lib/libmbedtls/mbedtls/library/bignum.c:731
    6470:	d10243ff 	sub	sp, sp, #0x90
    6474:	a9037bfd 	stp	x29, x30, [sp, #48]
    6478:	9100c3fd 	add	x29, sp, #0x30
    647c:	a90663f7 	stp	x23, x24, [sp, #96]
    6480:	aa0203f7 	mov	x23, x2
    6484:	90000042 	adrp	x2, e000 <_DYNAMIC>
    6488:	a90453f3 	stp	x19, x20, [sp, #64]
    648c:	f9409842 	ldr	x2, [x2, #304]
    6490:	a9055bf5 	stp	x21, x22, [sp, #80]
    6494:	2a0103f5 	mov	w21, w1
    6498:	a9076bf9 	stp	x25, x26, [sp, #112]
    649c:	a90873fb 	stp	x27, x28, [sp, #128]
    64a0:	f9400041 	ldr	x1, [x2]
    64a4:	f90017e1 	str	x1, [sp, #40]
    64a8:	d2800001 	mov	x1, #0x0                   	// #0
/home/fangjiang/workspace/optee-os/lib/libmbedtls/mbedtls/library/bignum.c:740
    64ac:	51000aa1 	sub	w1, w21, #0x2
    64b0:	7100383f 	cmp	w1, #0xe
    64b4:	54001028 	b.hi	66b8 <mbedtls_mpi_write_string+0x248>  // b.pmore
    64b8:	aa0003f4 	mov	x20, x0
    64bc:	aa0303f8 	mov	x24, x3
    64c0:	aa0403f6 	mov	x22, x4
/home/fangjiang/workspace/optee-os/lib/libmbedtls/mbedtls/library/bignum.c:743
    64c4:	97fffa10 	bl	4d04 <mbedtls_mpi_bitlen>
/home/fangjiang/workspace/optee-os/lib/libmbedtls/mbedtls/library/bignum.c:744
    64c8:	71000ebf 	cmp	w21, #0x3
    64cc:	5400004d 	b.le	64d4 <mbedtls_mpi_write_string+0x64>
/home/fangjiang/workspace/optee-os/lib/libmbedtls/mbedtls/library/bignum.c:744 (discriminator 1)
    64d0:	d341fc00 	lsr	x0, x0, #1
/home/fangjiang/workspace/optee-os/lib/libmbedtls/mbedtls/library/bignum.c:748
    64d4:	710042bf 	cmp	w21, #0x10
    64d8:	54000041 	b.ne	64e0 <mbedtls_mpi_write_string+0x70>  // b.any
/home/fangjiang/workspace/optee-os/lib/libmbedtls/mbedtls/library/bignum.c:748 (discriminator 1)
    64dc:	d341fc00 	lsr	x0, x0, #1
/home/fangjiang/workspace/optee-os/lib/libmbedtls/mbedtls/library/bignum.c:755
    64e0:	91001002 	add	x2, x0, #0x4
    64e4:	927ff842 	and	x2, x2, #0xfffffffffffffffe
/home/fangjiang/workspace/optee-os/lib/libmbedtls/mbedtls/library/bignum.c:758
    64e8:	eb18005f 	cmp	x2, x24
    64ec:	54000169 	b.ls	6518 <mbedtls_mpi_write_string+0xa8>  // b.plast
/home/fangjiang/workspace/optee-os/lib/libmbedtls/mbedtls/library/bignum.c:761
    64f0:	128000f4 	mov	w20, #0xfffffff8            	// #-8
/home/fangjiang/workspace/optee-os/lib/libmbedtls/mbedtls/library/bignum.c:760
    64f4:	f90002c2 	str	x2, [x22]
/home/fangjiang/workspace/optee-os/lib/libmbedtls/mbedtls/library/bignum.c:811
    64f8:	90000042 	adrp	x2, e000 <_DYNAMIC>
    64fc:	f9409842 	ldr	x2, [x2, #304]
    6500:	f94017e0 	ldr	x0, [sp, #40]
    6504:	f9400041 	ldr	x1, [x2]
    6508:	eb010000 	subs	x0, x0, x1
    650c:	d2800001 	mov	x1, #0x0                   	// #0
    6510:	54000dc0 	b.eq	66c8 <mbedtls_mpi_write_string+0x258>  // b.none
    6514:	94000a8b 	bl	8f40 <__stack_chk_fail>
/home/fangjiang/workspace/optee-os/lib/libmbedtls/mbedtls/library/bignum.c:765
    6518:	910043fb 	add	x27, sp, #0x10
/home/fangjiang/workspace/optee-os/lib/libmbedtls/mbedtls/library/bignum.c:769
    651c:	aa1703f3 	mov	x19, x23
/home/fangjiang/workspace/optee-os/lib/libmbedtls/mbedtls/library/bignum.c:765
    6520:	aa1b03e0 	mov	x0, x27
    6524:	97fff81a 	bl	458c <mbedtls_mpi_init_mempool>
/home/fangjiang/workspace/optee-os/lib/libmbedtls/mbedtls/library/bignum.c:767
    6528:	79c00280 	ldrsh	w0, [x20]
    652c:	3100041f 	cmn	w0, #0x1
    6530:	54000081 	b.ne	6540 <mbedtls_mpi_write_string+0xd0>  // b.any
/home/fangjiang/workspace/optee-os/lib/libmbedtls/mbedtls/library/bignum.c:770
    6534:	d1000718 	sub	x24, x24, #0x1
/home/fangjiang/workspace/optee-os/lib/libmbedtls/mbedtls/library/bignum.c:769
    6538:	528005a0 	mov	w0, #0x2d                  	// #45
    653c:	38001660 	strb	w0, [x19], #1
/home/fangjiang/workspace/optee-os/lib/libmbedtls/mbedtls/library/bignum.c:773
    6540:	710042bf 	cmp	w21, #0x10
    6544:	54000581 	b.ne	65f4 <mbedtls_mpi_write_string+0x184>  // b.any
/home/fangjiang/workspace/optee-os/lib/libmbedtls/mbedtls/library/bignum.c:778
    6548:	f9400680 	ldr	x0, [x20, #8]
/home/fangjiang/workspace/optee-os/lib/libmbedtls/mbedtls/library/bignum.c:787
    654c:	d0000023 	adrp	x3, c000 <__text_end+0x1cb0>
    6550:	9129f063 	add	x3, x3, #0xa7c
/home/fangjiang/workspace/optee-os/lib/libmbedtls/mbedtls/library/bignum.c:778
    6554:	d2800001 	mov	x1, #0x0                   	// #0
/home/fangjiang/workspace/optee-os/lib/libmbedtls/mbedtls/library/bignum.c:778 (discriminator 1)
    6558:	b5000100 	cbnz	x0, 6578 <mbedtls_mpi_write_string+0x108>
/home/fangjiang/workspace/optee-os/lib/libmbedtls/mbedtls/library/bignum.c:803 (discriminator 2)
    655c:	3800167f 	strb	wzr, [x19], #1
/home/fangjiang/workspace/optee-os/lib/libmbedtls/mbedtls/library/bignum.c:804 (discriminator 2)
    6560:	52800014 	mov	w20, #0x0                   	// #0
    6564:	cb170273 	sub	x19, x19, x23
    6568:	f90002d3 	str	x19, [x22]
/home/fangjiang/workspace/optee-os/lib/libmbedtls/mbedtls/library/bignum.c:808
    656c:	aa1b03e0 	mov	x0, x27
    6570:	97fff811 	bl	45b4 <mbedtls_mpi_free>
/home/fangjiang/workspace/optee-os/lib/libmbedtls/mbedtls/library/bignum.c:810
    6574:	17ffffe1 	b	64f8 <mbedtls_mpi_write_string+0x88>
/home/fangjiang/workspace/optee-os/lib/libmbedtls/mbedtls/library/bignum.c:782
    6578:	d37ef406 	lsl	x6, x0, #2
    657c:	91001005 	add	x5, x0, #0x4
    6580:	d10010c6 	sub	x6, x6, #0x4
    6584:	52800304 	mov	w4, #0x18                  	// #24
    6588:	f9400a82 	ldr	x2, [x20, #16]
/home/fangjiang/workspace/optee-os/lib/libmbedtls/mbedtls/library/bignum.c:784
    658c:	52000021 	eor	w1, w1, #0x1
/home/fangjiang/workspace/optee-os/lib/libmbedtls/mbedtls/library/bignum.c:782
    6590:	b8666842 	ldr	w2, [x2, x6]
    6594:	1ac42442 	lsr	w2, w2, w4
/home/fangjiang/workspace/optee-os/lib/libmbedtls/mbedtls/library/bignum.c:784
    6598:	72001c47 	ands	w7, w2, #0xff
    659c:	1a9f17e8 	cset	w8, eq  // eq = none
    65a0:	6a01011f 	tst	w8, w1
    65a4:	54000060 	b.eq	65b0 <mbedtls_mpi_write_string+0x140>  // b.none
/home/fangjiang/workspace/optee-os/lib/libmbedtls/mbedtls/library/bignum.c:784 (discriminator 1)
    65a8:	f10008bf 	cmp	x5, #0x2
    65ac:	54000201 	b.ne	65ec <mbedtls_mpi_write_string+0x17c>  // b.any
/home/fangjiang/workspace/optee-os/lib/libmbedtls/mbedtls/library/bignum.c:787
    65b0:	d3441ce1 	ubfx	x1, x7, #4, #4
/home/fangjiang/workspace/optee-os/lib/libmbedtls/mbedtls/library/bignum.c:788
    65b4:	92400c42 	and	x2, x2, #0xf
/home/fangjiang/workspace/optee-os/lib/libmbedtls/mbedtls/library/bignum.c:787
    65b8:	38616867 	ldrb	w7, [x3, x1]
    65bc:	aa1303e1 	mov	x1, x19
/home/fangjiang/workspace/optee-os/lib/libmbedtls/mbedtls/library/bignum.c:788
    65c0:	38626862 	ldrb	w2, [x3, x2]
/home/fangjiang/workspace/optee-os/lib/libmbedtls/mbedtls/library/bignum.c:787
    65c4:	38002427 	strb	w7, [x1], #2
/home/fangjiang/workspace/optee-os/lib/libmbedtls/mbedtls/library/bignum.c:788
    65c8:	39000662 	strb	w2, [x19, #1]
    65cc:	aa0103f3 	mov	x19, x1
/home/fangjiang/workspace/optee-os/lib/libmbedtls/mbedtls/library/bignum.c:789
    65d0:	d2800021 	mov	x1, #0x1                   	// #1
/home/fangjiang/workspace/optee-os/lib/libmbedtls/mbedtls/library/bignum.c:780 (discriminator 2)
    65d4:	51002084 	sub	w4, w4, #0x8
    65d8:	d10004a5 	sub	x5, x5, #0x1
    65dc:	3100209f 	cmn	w4, #0x8
    65e0:	54fffd41 	b.ne	6588 <mbedtls_mpi_write_string+0x118>  // b.any
/home/fangjiang/workspace/optee-os/lib/libmbedtls/mbedtls/library/bignum.c:778 (discriminator 2)
    65e4:	d1000400 	sub	x0, x0, #0x1
    65e8:	17ffffdc 	b	6558 <mbedtls_mpi_write_string+0xe8>
    65ec:	d2800001 	mov	x1, #0x0                   	// #0
    65f0:	17fffff9 	b	65d4 <mbedtls_mpi_write_string+0x164>
/home/fangjiang/workspace/optee-os/lib/libmbedtls/mbedtls/library/bignum.c:795
    65f4:	aa1403e1 	mov	x1, x20
    65f8:	aa1b03e0 	mov	x0, x27
    65fc:	97fff8a4 	bl	488c <mbedtls_mpi_copy>
    6600:	2a0003f4 	mov	w20, w0
    6604:	35fffb40 	cbnz	w0, 656c <mbedtls_mpi_write_string+0xfc>
/home/fangjiang/workspace/optee-os/lib/libmbedtls/mbedtls/library/bignum.c:797 (discriminator 2)
    6608:	79c023e0 	ldrsh	w0, [sp, #16]
    660c:	3100041f 	cmn	w0, #0x1
    6610:	54000061 	b.ne	661c <mbedtls_mpi_write_string+0x1ac>  // b.any
/home/fangjiang/workspace/optee-os/lib/libmbedtls/mbedtls/library/bignum.c:798
    6614:	52800020 	mov	w0, #0x1                   	// #1
    6618:	790023e0 	strh	w0, [sp, #16]
mpi_write_hlp():
/home/fangjiang/workspace/optee-os/lib/libmbedtls/mbedtls/library/bignum.c:696
    661c:	8b180279 	add	x25, x19, x24
/home/fangjiang/workspace/optee-os/lib/libmbedtls/mbedtls/library/bignum.c:705
    6620:	910033fa 	add	x26, sp, #0xc
/home/fangjiang/workspace/optee-os/lib/libmbedtls/mbedtls/library/bignum.c:696
    6624:	aa1903fc 	mov	x28, x25
/home/fangjiang/workspace/optee-os/lib/libmbedtls/mbedtls/library/bignum.c:700
    6628:	cb1c0320 	sub	x0, x25, x28
    662c:	eb00031f 	cmp	x24, x0
    6630:	54000489 	b.ls	66c0 <mbedtls_mpi_write_string+0x250>  // b.plast
/home/fangjiang/workspace/optee-os/lib/libmbedtls/mbedtls/library/bignum.c:705
    6634:	2a1503e2 	mov	w2, w21
    6638:	aa1b03e1 	mov	x1, x27
    663c:	aa1a03e0 	mov	x0, x26
    6640:	97ffff64 	bl	63d0 <mbedtls_mpi_mod_int>
    6644:	2a0003f4 	mov	w20, w0
    6648:	35fff920 	cbnz	w0, 656c <mbedtls_mpi_write_string+0xfc>
/home/fangjiang/workspace/optee-os/lib/libmbedtls/mbedtls/library/bignum.c:706
    664c:	2a1503e3 	mov	w3, w21
    6650:	aa1b03e2 	mov	x2, x27
    6654:	aa1b03e0 	mov	x0, x27
    6658:	d2800001 	mov	x1, #0x0                   	// #0
    665c:	97ffff10 	bl	629c <mbedtls_mpi_div_int>
    6660:	2a0003f4 	mov	w20, w0
    6664:	35fff840 	cbnz	w0, 656c <mbedtls_mpi_write_string+0xfc>
/home/fangjiang/workspace/optee-os/lib/libmbedtls/mbedtls/library/bignum.c:710
    6668:	b9400fe2 	ldr	w2, [sp, #12]
/home/fangjiang/workspace/optee-os/lib/libmbedtls/mbedtls/library/bignum.c:711
    666c:	12001c40 	and	w0, w2, #0xff
    6670:	7100245f 	cmp	w2, #0x9
    6674:	1100c001 	add	w1, w0, #0x30
    6678:	1100dc00 	add	w0, w0, #0x37
    667c:	12001c21 	and	w1, w1, #0xff
    6680:	12001c00 	and	w0, w0, #0xff
    6684:	1a818000 	csel	w0, w0, w1, hi  // hi = pmore
    6688:	381fff80 	strb	w0, [x28, #-1]!
/home/fangjiang/workspace/optee-os/lib/libmbedtls/mbedtls/library/bignum.c:716
    668c:	52800001 	mov	w1, #0x0                   	// #0
    6690:	aa1b03e0 	mov	x0, x27
    6694:	cb1c0334 	sub	x20, x25, x28
    6698:	97fffb57 	bl	53f4 <mbedtls_mpi_cmp_int>
    669c:	35fffc60 	cbnz	w0, 6628 <mbedtls_mpi_write_string+0x1b8>
/home/fangjiang/workspace/optee-os/lib/libmbedtls/mbedtls/library/bignum.c:718
    66a0:	aa1303e0 	mov	x0, x19
    66a4:	aa1403e2 	mov	x2, x20
    66a8:	aa1c03e1 	mov	x1, x28
/home/fangjiang/workspace/optee-os/lib/libmbedtls/mbedtls/library/bignum.c:719
    66ac:	8b140273 	add	x19, x19, x20
/home/fangjiang/workspace/optee-os/lib/libmbedtls/mbedtls/library/bignum.c:718
    66b0:	94000a25 	bl	8f44 <memmove>
/home/fangjiang/workspace/optee-os/lib/libmbedtls/mbedtls/library/bignum.c:719
    66b4:	17ffffaa 	b	655c <mbedtls_mpi_write_string+0xec>
mbedtls_mpi_write_string():
/home/fangjiang/workspace/optee-os/lib/libmbedtls/mbedtls/library/bignum.c:741
    66b8:	12800074 	mov	w20, #0xfffffffc            	// #-4
    66bc:	17ffff8f 	b	64f8 <mbedtls_mpi_write_string+0x88>
mpi_write_hlp():
/home/fangjiang/workspace/optee-os/lib/libmbedtls/mbedtls/library/bignum.c:702
    66c0:	128000f4 	mov	w20, #0xfffffff8            	// #-8
    66c4:	17ffffaa 	b	656c <mbedtls_mpi_write_string+0xfc>
mbedtls_mpi_write_string():
/home/fangjiang/workspace/optee-os/lib/libmbedtls/mbedtls/library/bignum.c:811
    66c8:	2a1403e0 	mov	w0, w20
    66cc:	a9437bfd 	ldp	x29, x30, [sp, #48]
    66d0:	a94453f3 	ldp	x19, x20, [sp, #64]
    66d4:	a9455bf5 	ldp	x21, x22, [sp, #80]
    66d8:	a94663f7 	ldp	x23, x24, [sp, #96]
    66dc:	a9476bf9 	ldp	x25, x26, [sp, #112]
    66e0:	a94873fb 	ldp	x27, x28, [sp, #128]
    66e4:	910243ff 	add	sp, sp, #0x90
    66e8:	d65f03c0 	ret

00000000000066ec <mpi_check_small_factors>:
mpi_check_small_factors():
/home/fangjiang/workspace/optee-os/lib/libmbedtls/mbedtls/library/bignum.c:2990
    66ec:	d10103ff 	sub	sp, sp, #0x40
    66f0:	90000042 	adrp	x2, e000 <_DYNAMIC>
    66f4:	a9017bfd 	stp	x29, x30, [sp, #16]
    66f8:	910043fd 	add	x29, sp, #0x10
    66fc:	f9409842 	ldr	x2, [x2, #304]
    6700:	a90253f3 	stp	x19, x20, [sp, #32]
    6704:	aa0003f4 	mov	x20, x0
    6708:	a9035bf5 	stp	x21, x22, [sp, #48]
    670c:	f9400040 	ldr	x0, [x2]
    6710:	f90007e0 	str	x0, [sp, #8]
    6714:	d2800000 	mov	x0, #0x0                   	// #0
/home/fangjiang/workspace/optee-os/lib/libmbedtls/mbedtls/library/bignum.c:2995
    6718:	f9400a80 	ldr	x0, [x20, #16]
    671c:	b9400000 	ldr	w0, [x0]
    6720:	360003a0 	tbz	w0, #0, 6794 <mpi_check_small_factors+0xa8>
    6724:	d0000033 	adrp	x19, c000 <__text_end+0x1cb0>
/home/fangjiang/workspace/optee-os/lib/libmbedtls/mbedtls/library/bignum.c:3003
    6728:	910013f6 	add	x22, sp, #0x4
    672c:	910a9273 	add	x19, x19, #0x2a4
/home/fangjiang/workspace/optee-os/lib/libmbedtls/mbedtls/library/bignum.c:2998
    6730:	b9400275 	ldr	w21, [x19]
    6734:	710002bf 	cmp	w21, #0x0
    6738:	5400014c 	b.gt	6760 <mpi_check_small_factors+0x74>
/home/fangjiang/workspace/optee-os/lib/libmbedtls/mbedtls/library/bignum.c:3009
    673c:	52800000 	mov	w0, #0x0                   	// #0
/home/fangjiang/workspace/optee-os/lib/libmbedtls/mbedtls/library/bignum.c:3011
    6740:	90000042 	adrp	x2, e000 <_DYNAMIC>
    6744:	f9409842 	ldr	x2, [x2, #304]
    6748:	f94007e1 	ldr	x1, [sp, #8]
    674c:	f9400043 	ldr	x3, [x2]
    6750:	eb030021 	subs	x1, x1, x3
    6754:	d2800003 	mov	x3, #0x0                   	// #0
    6758:	54000260 	b.eq	67a4 <mpi_check_small_factors+0xb8>  // b.none
    675c:	940009f9 	bl	8f40 <__stack_chk_fail>
/home/fangjiang/workspace/optee-os/lib/libmbedtls/mbedtls/library/bignum.c:3000
    6760:	2a1503e1 	mov	w1, w21
    6764:	aa1403e0 	mov	x0, x20
    6768:	97fffb23 	bl	53f4 <mbedtls_mpi_cmp_int>
    676c:	7100001f 	cmp	w0, #0x0
    6770:	5400016d 	b.le	679c <mpi_check_small_factors+0xb0>
/home/fangjiang/workspace/optee-os/lib/libmbedtls/mbedtls/library/bignum.c:3003
    6774:	2a1503e2 	mov	w2, w21
    6778:	aa1403e1 	mov	x1, x20
    677c:	aa1603e0 	mov	x0, x22
    6780:	97ffff14 	bl	63d0 <mbedtls_mpi_mod_int>
    6784:	35fffde0 	cbnz	w0, 6740 <mpi_check_small_factors+0x54>
/home/fangjiang/workspace/optee-os/lib/libmbedtls/mbedtls/library/bignum.c:3005
    6788:	b94007e0 	ldr	w0, [sp, #4]
    678c:	91001273 	add	x19, x19, #0x4
    6790:	35fffd00 	cbnz	w0, 6730 <mpi_check_small_factors+0x44>
/home/fangjiang/workspace/optee-os/lib/libmbedtls/mbedtls/library/bignum.c:2996
    6794:	128001a0 	mov	w0, #0xfffffff2            	// #-14
    6798:	17ffffea 	b	6740 <mpi_check_small_factors+0x54>
/home/fangjiang/workspace/optee-os/lib/libmbedtls/mbedtls/library/bignum.c:3001
    679c:	52800020 	mov	w0, #0x1                   	// #1
    67a0:	17ffffe8 	b	6740 <mpi_check_small_factors+0x54>
/home/fangjiang/workspace/optee-os/lib/libmbedtls/mbedtls/library/bignum.c:3011
    67a4:	a9417bfd 	ldp	x29, x30, [sp, #16]
    67a8:	a94253f3 	ldp	x19, x20, [sp, #32]
    67ac:	a9435bf5 	ldp	x21, x22, [sp, #48]
    67b0:	910103ff 	add	sp, sp, #0x40
    67b4:	d65f03c0 	ret

00000000000067b8 <mbedtls_mpi_montg_init>:
mbedtls_mpi_montg_init():
/home/fangjiang/workspace/optee-os/lib/libmbedtls/mbedtls/library/bignum.c:2193
    67b8:	f9400821 	ldr	x1, [x1, #16]
    67bc:	17fff705 	b	43d0 <mpi_montg_init.isra.0>

00000000000067c0 <mbedtls_mpi_montmul>:
mbedtls_mpi_montmul():
/home/fangjiang/workspace/optee-os/lib/libmbedtls/mbedtls/library/bignum.c:2268
    67c0:	17fff692 	b	4208 <mpi_montmul>

00000000000067c4 <mbedtls_mpi_montred>:
mbedtls_mpi_montred():
/home/fangjiang/workspace/optee-os/lib/libmbedtls/mbedtls/library/bignum.c:2291
    67c4:	17fff6e3 	b	4350 <mpi_montred>

00000000000067c8 <mbedtls_mpi_exp_mod>:
mbedtls_mpi_exp_mod():
/home/fangjiang/workspace/optee-os/lib/libmbedtls/mbedtls/library/bignum.c:2365
    67c8:	d10503ff 	sub	sp, sp, #0x140
    67cc:	a90e7bfd 	stp	x29, x30, [sp, #224]
    67d0:	910383fd 	add	x29, sp, #0xe0
    67d4:	a9126bf9 	stp	x25, x26, [sp, #288]
    67d8:	9000005a 	adrp	x26, e000 <_DYNAMIC>
    67dc:	aa0103f9 	mov	x25, x1
    67e0:	a9105bf5 	stp	x21, x22, [sp, #256]
    67e4:	aa0003f6 	mov	x22, x0
    67e8:	f9409b40 	ldr	x0, [x26, #304]
    67ec:	a90093e2 	stp	x2, x4, [sp, #8]
    67f0:	a90f53f3 	stp	x19, x20, [sp, #240]
    67f4:	aa0303f4 	mov	x20, x3
    67f8:	a91163f7 	stp	x23, x24, [sp, #272]
    67fc:	a91373fb 	stp	x27, x28, [sp, #304]
    6800:	f9400001 	ldr	x1, [x0]
    6804:	f9006fe1 	str	x1, [sp, #216]
    6808:	d2800001 	mov	x1, #0x0                   	// #0
/home/fangjiang/workspace/optee-os/lib/libmbedtls/mbedtls/library/bignum.c:2381
    680c:	aa0303e0 	mov	x0, x3
    6810:	97fffaf9 	bl	53f4 <mbedtls_mpi_cmp_int>
    6814:	f90023fa 	str	x26, [sp, #64]
    6818:	7100001f 	cmp	w0, #0x0
    681c:	5400014c 	b.gt	6844 <mbedtls_mpi_exp_mod+0x7c>
/home/fangjiang/workspace/optee-os/lib/libmbedtls/mbedtls/library/bignum.c:2382
    6820:	12800073 	mov	w19, #0xfffffffc            	// #-4
/home/fangjiang/workspace/optee-os/lib/libmbedtls/mbedtls/library/bignum.c:2607
    6824:	f94023e0 	ldr	x0, [sp, #64]
    6828:	f9409800 	ldr	x0, [x0, #304]
    682c:	f9406fe2 	ldr	x2, [sp, #216]
    6830:	f9400001 	ldr	x1, [x0]
    6834:	eb010042 	subs	x2, x2, x1
    6838:	d2800001 	mov	x1, #0x0                   	// #0
    683c:	54003220 	b.eq	6e80 <mbedtls_mpi_exp_mod+0x6b8>  // b.none
    6840:	940009c0 	bl	8f40 <__stack_chk_fail>
/home/fangjiang/workspace/optee-os/lib/libmbedtls/mbedtls/library/bignum.c:2381 (discriminator 1)
    6844:	f9400a80 	ldr	x0, [x20, #16]
    6848:	b9400000 	ldr	w0, [x0]
    684c:	12000001 	and	w1, w0, #0x1
    6850:	b9004fe1 	str	w1, [sp, #76]
    6854:	3607fe60 	tbz	w0, #0, 6820 <mbedtls_mpi_exp_mod+0x58>
/home/fangjiang/workspace/optee-os/lib/libmbedtls/mbedtls/library/bignum.c:2384
    6858:	f94007e0 	ldr	x0, [sp, #8]
    685c:	52800001 	mov	w1, #0x0                   	// #0
    6860:	97fffae5 	bl	53f4 <mbedtls_mpi_cmp_int>
    6864:	37fffde0 	tbnz	w0, #31, 6820 <mbedtls_mpi_exp_mod+0x58>
/home/fangjiang/workspace/optee-os/lib/libmbedtls/mbedtls/library/bignum.c:2387
    6868:	f94007e0 	ldr	x0, [sp, #8]
    686c:	97fff926 	bl	4d04 <mbedtls_mpi_bitlen>
    6870:	f140081f 	cmp	x0, #0x2, lsl #12
    6874:	54fffd68 	b.hi	6820 <mbedtls_mpi_exp_mod+0x58>  // b.pmore
/home/fangjiang/workspace/optee-os/lib/libmbedtls/mbedtls/library/bignum.c:2388 (discriminator 1)
    6878:	aa1403e0 	mov	x0, x20
    687c:	97fff922 	bl	4d04 <mbedtls_mpi_bitlen>
/home/fangjiang/workspace/optee-os/lib/libmbedtls/mbedtls/library/bignum.c:2387 (discriminator 1)
    6880:	f140081f 	cmp	x0, #0x2, lsl #12
    6884:	54fffce8 	b.hi	6820 <mbedtls_mpi_exp_mod+0x58>  // b.pmore
/home/fangjiang/workspace/optee-os/lib/libmbedtls/mbedtls/library/bignum.c:2394
    6888:	f9400a81 	ldr	x1, [x20, #16]
    688c:	9101d3e0 	add	x0, sp, #0x74
/home/fangjiang/workspace/optee-os/lib/libmbedtls/mbedtls/library/bignum.c:2395
    6890:	9101e3f8 	add	x24, sp, #0x78
    6894:	910243f7 	add	x23, sp, #0x90
/home/fangjiang/workspace/optee-os/lib/libmbedtls/mbedtls/library/bignum.c:2394
    6898:	97fff6ce 	bl	43d0 <mpi_montg_init.isra.0>
/home/fangjiang/workspace/optee-os/lib/libmbedtls/mbedtls/library/bignum.c:2395
    689c:	aa1803e0 	mov	x0, x24
    68a0:	97fff73b 	bl	458c <mbedtls_mpi_init_mempool>
    68a4:	aa1703e0 	mov	x0, x23
    68a8:	97fff735 	bl	457c <mbedtls_mpi_init>
/home/fangjiang/workspace/optee-os/lib/libmbedtls/mbedtls/library/bignum.c:2396
    68ac:	910303e0 	add	x0, sp, #0xc0
    68b0:	f90017e0 	str	x0, [sp, #40]
    68b4:	97fff736 	bl	458c <mbedtls_mpi_init_mempool>
/home/fangjiang/workspace/optee-os/lib/libmbedtls/mbedtls/library/bignum.c:2397
    68b8:	9102a3e0 	add	x0, sp, #0xa8
    68bc:	f9001be0 	str	x0, [sp, #48]
    68c0:	97fff733 	bl	458c <mbedtls_mpi_init_mempool>
/home/fangjiang/workspace/optee-os/lib/libmbedtls/mbedtls/library/bignum.c:2399
    68c4:	f94007e0 	ldr	x0, [sp, #8]
    68c8:	97fff90f 	bl	4d04 <mbedtls_mpi_bitlen>
/home/fangjiang/workspace/optee-os/lib/libmbedtls/mbedtls/library/bignum.c:2401
    68cc:	f10a7c1f 	cmp	x0, #0x29f
    68d0:	54001448 	b.hi	6b58 <mbedtls_mpi_exp_mod+0x390>  // b.pmore
/home/fangjiang/workspace/optee-os/lib/libmbedtls/mbedtls/library/bignum.c:2401 (discriminator 1)
    68d4:	f103bc1f 	cmp	x0, #0xef
    68d8:	54001448 	b.hi	6b60 <mbedtls_mpi_exp_mod+0x398>  // b.pmore
/home/fangjiang/workspace/optee-os/lib/libmbedtls/mbedtls/library/bignum.c:2401 (discriminator 3)
    68dc:	f1013c1f 	cmp	x0, #0x4f
    68e0:	54001448 	b.hi	6b68 <mbedtls_mpi_exp_mod+0x3a0>  // b.pmore
/home/fangjiang/workspace/optee-os/lib/libmbedtls/mbedtls/library/bignum.c:2401 (discriminator 5)
    68e4:	f1005c1f 	cmp	x0, #0x17
    68e8:	d2800060 	mov	x0, #0x3                   	// #3
    68ec:	9a9f8400 	csinc	x0, x0, xzr, hi  // hi = pmore
/home/fangjiang/workspace/optee-os/lib/libmbedtls/mbedtls/library/bignum.c:2409
    68f0:	f940069b 	ldr	x27, [x20, #8]
/home/fangjiang/workspace/optee-os/lib/libmbedtls/mbedtls/library/bignum.c:2401
    68f4:	f90003e0 	str	x0, [sp]
/home/fangjiang/workspace/optee-os/lib/libmbedtls/mbedtls/library/bignum.c:2415
    68f8:	aa1603e0 	mov	x0, x22
/home/fangjiang/workspace/optee-os/lib/libmbedtls/mbedtls/library/bignum.c:2409
    68fc:	9100077b 	add	x27, x27, #0x1
/home/fangjiang/workspace/optee-os/lib/libmbedtls/mbedtls/library/bignum.c:2415
    6900:	aa1b03e1 	mov	x1, x27
    6904:	97fff747 	bl	4620 <mbedtls_mpi_grow>
    6908:	2a0003f3 	mov	w19, w0
    690c:	35002b20 	cbnz	w0, 6e70 <mbedtls_mpi_exp_mod+0x6a8>
/home/fangjiang/workspace/optee-os/lib/libmbedtls/mbedtls/library/bignum.c:2417 (discriminator 2)
    6910:	d37ffb61 	lsl	x1, x27, #1
    6914:	aa1703e0 	mov	x0, x23
    6918:	97fff742 	bl	4620 <mbedtls_mpi_grow>
    691c:	2a0003f3 	mov	w19, w0
    6920:	35002a80 	cbnz	w0, 6e70 <mbedtls_mpi_exp_mod+0x6a8>
/home/fangjiang/workspace/optee-os/lib/libmbedtls/mbedtls/library/bignum.c:2422 (discriminator 2)
    6924:	79c00320 	ldrsh	w0, [x25]
    6928:	b9003fe0 	str	w0, [sp, #60]
/home/fangjiang/workspace/optee-os/lib/libmbedtls/mbedtls/library/bignum.c:2423 (discriminator 2)
    692c:	3100041f 	cmn	w0, #0x1
    6930:	54000121 	b.ne	6954 <mbedtls_mpi_exp_mod+0x18c>  // b.any
/home/fangjiang/workspace/optee-os/lib/libmbedtls/mbedtls/library/bignum.c:2425
    6934:	f94017e0 	ldr	x0, [sp, #40]
    6938:	aa1903e1 	mov	x1, x25
    693c:	97fff7d4 	bl	488c <mbedtls_mpi_copy>
    6940:	2a0003f3 	mov	w19, w0
    6944:	35002960 	cbnz	w0, 6e70 <mbedtls_mpi_exp_mod+0x6a8>
/home/fangjiang/workspace/optee-os/lib/libmbedtls/mbedtls/library/bignum.c:2427 (discriminator 2)
    6948:	f94017f9 	ldr	x25, [sp, #40]
/home/fangjiang/workspace/optee-os/lib/libmbedtls/mbedtls/library/bignum.c:2426 (discriminator 2)
    694c:	52800020 	mov	w0, #0x1                   	// #1
    6950:	790183e0 	strh	w0, [sp, #192]
/home/fangjiang/workspace/optee-os/lib/libmbedtls/mbedtls/library/bignum.c:2433
    6954:	f9400be0 	ldr	x0, [sp, #16]
    6958:	b4000060 	cbz	x0, 6964 <mbedtls_mpi_exp_mod+0x19c>
/home/fangjiang/workspace/optee-os/lib/libmbedtls/mbedtls/library/bignum.c:2433 (discriminator 1)
    695c:	f9400800 	ldr	x0, [x0, #16]
    6960:	b5001080 	cbnz	x0, 6b70 <mbedtls_mpi_exp_mod+0x3a8>
/home/fangjiang/workspace/optee-os/lib/libmbedtls/mbedtls/library/bignum.c:2435
    6964:	aa1803e0 	mov	x0, x24
    6968:	52800021 	mov	w1, #0x1                   	// #1
    696c:	97fff889 	bl	4b90 <mbedtls_mpi_lset>
    6970:	2a0003f3 	mov	w19, w0
    6974:	350027e0 	cbnz	w0, 6e70 <mbedtls_mpi_exp_mod+0x6a8>
/home/fangjiang/workspace/optee-os/lib/libmbedtls/mbedtls/library/bignum.c:2436 (discriminator 2)
    6978:	f9400681 	ldr	x1, [x20, #8]
    697c:	aa1803e0 	mov	x0, x24
    6980:	d37ae421 	lsl	x1, x1, #6
    6984:	97fff99c 	bl	4ff4 <mbedtls_mpi_shift_l>
    6988:	2a0003f3 	mov	w19, w0
    698c:	35002720 	cbnz	w0, 6e70 <mbedtls_mpi_exp_mod+0x6a8>
/home/fangjiang/workspace/optee-os/lib/libmbedtls/mbedtls/library/bignum.c:2437 (discriminator 2)
    6990:	aa1403e2 	mov	x2, x20
    6994:	aa1803e1 	mov	x1, x24
    6998:	aa1803e0 	mov	x0, x24
    699c:	97fffe60 	bl	631c <mbedtls_mpi_mod_mpi>
    69a0:	2a0003f3 	mov	w19, w0
    69a4:	35002660 	cbnz	w0, 6e70 <mbedtls_mpi_exp_mod+0x6a8>
/home/fangjiang/workspace/optee-os/lib/libmbedtls/mbedtls/library/bignum.c:2439 (discriminator 2)
    69a8:	f9400be0 	ldr	x0, [sp, #16]
    69ac:	b4000080 	cbz	x0, 69bc <mbedtls_mpi_exp_mod+0x1f4>
/home/fangjiang/workspace/optee-os/lib/libmbedtls/mbedtls/library/bignum.c:2440
    69b0:	aa1803e1 	mov	x1, x24
    69b4:	d2800302 	mov	x2, #0x18                  	// #24
/home/fangjiang/workspace/optee-os/lib/libmbedtls/mbedtls/library/bignum.c:2443
    69b8:	97ffe59a 	bl	20 <memcpy>
/home/fangjiang/workspace/optee-os/lib/libmbedtls/mbedtls/library/bignum.c:2445
    69bc:	f94023e0 	ldr	x0, [sp, #64]
    69c0:	d2818001 	mov	x1, #0xc00                 	// #3072
    69c4:	f940cc00 	ldr	x0, [x0, #408]
    69c8:	f9400000 	ldr	x0, [x0]
    69cc:	94000e08 	bl	a1ec <mempool_alloc>
    69d0:	aa0003f5 	mov	x21, x0
/home/fangjiang/workspace/optee-os/lib/libmbedtls/mbedtls/library/bignum.c:2447
    69d4:	b4002520 	cbz	x0, 6e78 <mbedtls_mpi_exp_mod+0x6b0>
    69d8:	aa1503f3 	mov	x19, x21
    69dc:	91300000 	add	x0, x0, #0xc00
    69e0:	f90013f5 	str	x21, [sp, #32]
    69e4:	f9002fe0 	str	x0, [sp, #88]
/home/fangjiang/workspace/optee-os/lib/libmbedtls/mbedtls/library/bignum.c:2452 (discriminator 3)
    69e8:	aa1303e0 	mov	x0, x19
    69ec:	97fff6e8 	bl	458c <mbedtls_mpi_init_mempool>
/home/fangjiang/workspace/optee-os/lib/libmbedtls/mbedtls/library/bignum.c:2451 (discriminator 3)
    69f0:	f9402fe0 	ldr	x0, [sp, #88]
    69f4:	91006273 	add	x19, x19, #0x18
    69f8:	eb00027f 	cmp	x19, x0
    69fc:	54ffff61 	b.ne	69e8 <mbedtls_mpi_exp_mod+0x220>  // b.any
/home/fangjiang/workspace/optee-os/lib/libmbedtls/mbedtls/library/bignum.c:2453
    6a00:	910062ba 	add	x26, x21, #0x18
    6a04:	aa1b03e1 	mov	x1, x27
    6a08:	aa1a03e0 	mov	x0, x26
    6a0c:	97fff705 	bl	4620 <mbedtls_mpi_grow>
    6a10:	2a0003f3 	mov	w19, w0
    6a14:	35001f80 	cbnz	w0, 6e04 <mbedtls_mpi_exp_mod+0x63c>
/home/fangjiang/workspace/optee-os/lib/libmbedtls/mbedtls/library/bignum.c:2458 (discriminator 2)
    6a18:	aa1403e1 	mov	x1, x20
    6a1c:	aa1903e0 	mov	x0, x25
    6a20:	97fffa10 	bl	5260 <mbedtls_mpi_cmp_mpi>
    6a24:	37f80ae0 	tbnz	w0, #31, 6b80 <mbedtls_mpi_exp_mod+0x3b8>
/home/fangjiang/workspace/optee-os/lib/libmbedtls/mbedtls/library/bignum.c:2460
    6a28:	aa1403e2 	mov	x2, x20
    6a2c:	aa1903e1 	mov	x1, x25
    6a30:	aa1a03e0 	mov	x0, x26
    6a34:	97fffe3a 	bl	631c <mbedtls_mpi_mod_mpi>
    6a38:	2a0003f3 	mov	w19, w0
    6a3c:	35001e40 	cbnz	w0, 6e04 <mbedtls_mpi_exp_mod+0x63c>
/home/fangjiang/workspace/optee-os/lib/libmbedtls/mbedtls/library/bignum.c:2464 (discriminator 2)
    6a40:	f9400681 	ldr	x1, [x20, #8]
    6a44:	aa1a03e0 	mov	x0, x26
    6a48:	91000421 	add	x1, x1, #0x1
    6a4c:	97fff6f5 	bl	4620 <mbedtls_mpi_grow>
    6a50:	2a0003f3 	mov	w19, w0
    6a54:	35001d80 	cbnz	w0, 6e04 <mbedtls_mpi_exp_mod+0x63c>
/home/fangjiang/workspace/optee-os/lib/libmbedtls/mbedtls/library/bignum.c:2471
    6a58:	b94077f9 	ldr	w25, [sp, #116]
    6a5c:	aa1703e4 	mov	x4, x23
    6a60:	aa1403e2 	mov	x2, x20
    6a64:	aa1803e1 	mov	x1, x24
    6a68:	2a1903e3 	mov	w3, w25
    6a6c:	aa1a03e0 	mov	x0, x26
    6a70:	97fff5e6 	bl	4208 <mpi_montmul>
/home/fangjiang/workspace/optee-os/lib/libmbedtls/mbedtls/library/bignum.c:2476
    6a74:	aa1803e1 	mov	x1, x24
    6a78:	aa1603e0 	mov	x0, x22
    6a7c:	97fff784 	bl	488c <mbedtls_mpi_copy>
    6a80:	2a0003f3 	mov	w19, w0
    6a84:	35001c00 	cbnz	w0, 6e04 <mbedtls_mpi_exp_mod+0x63c>
/home/fangjiang/workspace/optee-os/lib/libmbedtls/mbedtls/library/bignum.c:2477 (discriminator 2)
    6a88:	aa1603e0 	mov	x0, x22
    6a8c:	aa1703e3 	mov	x3, x23
    6a90:	2a1903e2 	mov	w2, w25
    6a94:	aa1403e1 	mov	x1, x20
    6a98:	97fff62e 	bl	4350 <mpi_montred>
/home/fangjiang/workspace/optee-os/lib/libmbedtls/mbedtls/library/bignum.c:2484 (discriminator 2)
    6a9c:	b94003e0 	ldr	w0, [sp]
    6aa0:	b9004be0 	str	w0, [sp, #72]
/home/fangjiang/workspace/optee-os/lib/libmbedtls/mbedtls/library/bignum.c:2479 (discriminator 2)
    6aa4:	f94003e0 	ldr	x0, [sp]
    6aa8:	f100041f 	cmp	x0, #0x1
    6aac:	54000721 	b.ne	6b90 <mbedtls_mpi_exp_mod+0x3c8>  // b.any
/home/fangjiang/workspace/optee-os/lib/libmbedtls/mbedtls/library/bignum.c:2504
    6ab0:	f94007e0 	ldr	x0, [sp, #8]
/home/fangjiang/workspace/optee-os/lib/libmbedtls/mbedtls/library/bignum.c:2508
    6ab4:	52800002 	mov	w2, #0x0                   	// #0
/home/fangjiang/workspace/optee-os/lib/libmbedtls/mbedtls/library/bignum.c:2560
    6ab8:	394123e1 	ldrb	w1, [sp, #72]
/home/fangjiang/workspace/optee-os/lib/libmbedtls/mbedtls/library/bignum.c:2506
    6abc:	d2800005 	mov	x5, #0x0                   	// #0
/home/fangjiang/workspace/optee-os/lib/libmbedtls/mbedtls/library/bignum.c:2507
    6ac0:	d280001b 	mov	x27, #0x0                   	// #0
/home/fangjiang/workspace/optee-os/lib/libmbedtls/mbedtls/library/bignum.c:2505
    6ac4:	f9000fff 	str	xzr, [sp, #24]
/home/fangjiang/workspace/optee-os/lib/libmbedtls/mbedtls/library/bignum.c:2504
    6ac8:	f940041c 	ldr	x28, [x0, #8]
/home/fangjiang/workspace/optee-os/lib/libmbedtls/mbedtls/library/bignum.c:2560
    6acc:	d2800020 	mov	x0, #0x1                   	// #1
    6ad0:	9ac12000 	lsl	x0, x0, x1
    6ad4:	f9002be0 	str	x0, [sp, #80]
/home/fangjiang/workspace/optee-os/lib/libmbedtls/mbedtls/library/bignum.c:2512
    6ad8:	f9400fe0 	ldr	x0, [sp, #24]
    6adc:	b50000a0 	cbnz	x0, 6af0 <mbedtls_mpi_exp_mod+0x328>
/home/fangjiang/workspace/optee-os/lib/libmbedtls/mbedtls/library/bignum.c:2514
    6ae0:	b400163c 	cbz	x28, 6da4 <mbedtls_mpi_exp_mod+0x5dc>
/home/fangjiang/workspace/optee-os/lib/libmbedtls/mbedtls/library/bignum.c:2517
    6ae4:	d100079c 	sub	x28, x28, #0x1
/home/fangjiang/workspace/optee-os/lib/libmbedtls/mbedtls/library/bignum.c:2519
    6ae8:	d2800400 	mov	x0, #0x20                  	// #32
    6aec:	f9000fe0 	str	x0, [sp, #24]
/home/fangjiang/workspace/optee-os/lib/libmbedtls/mbedtls/library/bignum.c:2522
    6af0:	f9400fe0 	ldr	x0, [sp, #24]
    6af4:	d1000400 	sub	x0, x0, #0x1
    6af8:	f9000fe0 	str	x0, [sp, #24]
/home/fangjiang/workspace/optee-os/lib/libmbedtls/mbedtls/library/bignum.c:2524
    6afc:	f94007e0 	ldr	x0, [sp, #8]
    6b00:	394063e1 	ldrb	w1, [sp, #24]
    6b04:	f9400800 	ldr	x0, [x0, #16]
    6b08:	b87c7800 	ldr	w0, [x0, x28, lsl #2]
    6b0c:	1ac12400 	lsr	w0, w0, w1
    6b10:	12000000 	and	w0, w0, #0x1
/home/fangjiang/workspace/optee-os/lib/libmbedtls/mbedtls/library/bignum.c:2529
    6b14:	2a000041 	orr	w1, w2, w0
    6b18:	34000bc1 	cbz	w1, 6c90 <mbedtls_mpi_exp_mod+0x4c8>
/home/fangjiang/workspace/optee-os/lib/libmbedtls/mbedtls/library/bignum.c:2532
    6b1c:	7100045f 	cmp	w2, #0x1
    6b20:	52000001 	eor	w1, w0, #0x1
    6b24:	1a9f17e2 	cset	w2, eq  // eq = none
    6b28:	6a01005f 	tst	w2, w1
    6b2c:	54000b60 	b.eq	6c98 <mbedtls_mpi_exp_mod+0x4d0>  // b.none
/home/fangjiang/workspace/optee-os/lib/libmbedtls/mbedtls/library/bignum.c:2537 (discriminator 1)
    6b30:	aa1603e1 	mov	x1, x22
    6b34:	aa1703e4 	mov	x4, x23
    6b38:	2a1903e3 	mov	w3, w25
    6b3c:	aa1403e2 	mov	x2, x20
    6b40:	aa1603e0 	mov	x0, x22
    6b44:	f90033e5 	str	x5, [sp, #96]
    6b48:	97fff5b0 	bl	4208 <mpi_montmul>
/home/fangjiang/workspace/optee-os/lib/libmbedtls/mbedtls/library/bignum.c:2538 (discriminator 1)
    6b4c:	b9404fe1 	ldr	w1, [sp, #76]
    6b50:	f94033e5 	ldr	x5, [sp, #96]
    6b54:	1400004f 	b	6c90 <mbedtls_mpi_exp_mod+0x4c8>
/home/fangjiang/workspace/optee-os/lib/libmbedtls/mbedtls/library/bignum.c:2401
    6b58:	d28000c0 	mov	x0, #0x6                   	// #6
    6b5c:	17ffff65 	b	68f0 <mbedtls_mpi_exp_mod+0x128>
    6b60:	d28000a0 	mov	x0, #0x5                   	// #5
    6b64:	17ffff63 	b	68f0 <mbedtls_mpi_exp_mod+0x128>
    6b68:	d2800080 	mov	x0, #0x4                   	// #4
    6b6c:	17ffff61 	b	68f0 <mbedtls_mpi_exp_mod+0x128>
/home/fangjiang/workspace/optee-os/lib/libmbedtls/mbedtls/library/bignum.c:2443
    6b70:	aa1803e0 	mov	x0, x24
    6b74:	d2800302 	mov	x2, #0x18                  	// #24
    6b78:	f9400be1 	ldr	x1, [sp, #16]
    6b7c:	17ffff8f 	b	69b8 <mbedtls_mpi_exp_mod+0x1f0>
/home/fangjiang/workspace/optee-os/lib/libmbedtls/mbedtls/library/bignum.c:2467
    6b80:	aa1903e1 	mov	x1, x25
    6b84:	aa1a03e0 	mov	x0, x26
    6b88:	97fff741 	bl	488c <mbedtls_mpi_copy>
    6b8c:	17ffffb1 	b	6a50 <mbedtls_mpi_exp_mod+0x288>
/home/fangjiang/workspace/optee-os/lib/libmbedtls/mbedtls/library/bignum.c:2484
    6b90:	b94003e0 	ldr	w0, [sp]
/home/fangjiang/workspace/optee-os/lib/libmbedtls/mbedtls/library/bignum.c:2486
    6b94:	d2800305 	mov	x5, #0x18                  	// #24
    6b98:	f9400681 	ldr	x1, [x20, #8]
/home/fangjiang/workspace/optee-os/lib/libmbedtls/mbedtls/library/bignum.c:2484
    6b9c:	5100041b 	sub	w27, w0, #0x1
/home/fangjiang/workspace/optee-os/lib/libmbedtls/mbedtls/library/bignum.c:2486
    6ba0:	9adb20a5 	lsl	x5, x5, x27
    6ba4:	8b0502a5 	add	x5, x21, x5
    6ba8:	aa0503e0 	mov	x0, x5
    6bac:	91000421 	add	x1, x1, #0x1
    6bb0:	f9000fe5 	str	x5, [sp, #24]
    6bb4:	97fff69b 	bl	4620 <mbedtls_mpi_grow>
    6bb8:	35001240 	cbnz	w0, 6e00 <mbedtls_mpi_exp_mod+0x638>
/home/fangjiang/workspace/optee-os/lib/libmbedtls/mbedtls/library/bignum.c:2487 (discriminator 2)
    6bbc:	f9400fe5 	ldr	x5, [sp, #24]
    6bc0:	aa1a03e1 	mov	x1, x26
    6bc4:	aa0503e0 	mov	x0, x5
    6bc8:	97fff731 	bl	488c <mbedtls_mpi_copy>
    6bcc:	350011a0 	cbnz	w0, 6e00 <mbedtls_mpi_exp_mod+0x638>
/home/fangjiang/workspace/optee-os/lib/libmbedtls/mbedtls/library/bignum.c:2489
    6bd0:	f94003e0 	ldr	x0, [sp]
    6bd4:	d280001c 	mov	x28, #0x0                   	// #0
    6bd8:	f9400fe5 	ldr	x5, [sp, #24]
    6bdc:	d1000406 	sub	x6, x0, #0x1
/home/fangjiang/workspace/optee-os/lib/libmbedtls/mbedtls/library/bignum.c:2490 (discriminator 3)
    6be0:	aa0503e1 	mov	x1, x5
    6be4:	aa0503e0 	mov	x0, x5
    6be8:	aa1703e4 	mov	x4, x23
    6bec:	2a1903e3 	mov	w3, w25
    6bf0:	aa1403e2 	mov	x2, x20
    6bf4:	f9000fe5 	str	x5, [sp, #24]
    6bf8:	f9002be6 	str	x6, [sp, #80]
    6bfc:	97fff583 	bl	4208 <mpi_montmul>
/home/fangjiang/workspace/optee-os/lib/libmbedtls/mbedtls/library/bignum.c:2489 (discriminator 3)
    6c00:	f9402be6 	ldr	x6, [sp, #80]
    6c04:	9100079c 	add	x28, x28, #0x1
    6c08:	f9400fe5 	ldr	x5, [sp, #24]
    6c0c:	eb1c00df 	cmp	x6, x28
    6c10:	54fffe88 	b.hi	6be0 <mbedtls_mpi_exp_mod+0x418>  // b.pmore
/home/fangjiang/workspace/optee-os/lib/libmbedtls/mbedtls/library/bignum.c:2495
    6c14:	394123e0 	ldrb	w0, [sp, #72]
/home/fangjiang/workspace/optee-os/lib/libmbedtls/mbedtls/library/bignum.c:2484
    6c18:	d280003c 	mov	x28, #0x1                   	// #1
    6c1c:	9adb239b 	lsl	x27, x28, x27
/home/fangjiang/workspace/optee-os/lib/libmbedtls/mbedtls/library/bignum.c:2495
    6c20:	8b1c037b 	add	x27, x27, x28
    6c24:	9ac02380 	lsl	x0, x28, x0
    6c28:	f9000fe0 	str	x0, [sp, #24]
/home/fangjiang/workspace/optee-os/lib/libmbedtls/mbedtls/library/bignum.c:2495 (discriminator 2)
    6c2c:	f9400fe0 	ldr	x0, [sp, #24]
    6c30:	eb1b001f 	cmp	x0, x27
    6c34:	54fff3e9 	b.ls	6ab0 <mbedtls_mpi_exp_mod+0x2e8>  // b.plast
/home/fangjiang/workspace/optee-os/lib/libmbedtls/mbedtls/library/bignum.c:2497
    6c38:	f9400681 	ldr	x1, [x20, #8]
    6c3c:	910060bc 	add	x28, x5, #0x18
    6c40:	aa1c03e0 	mov	x0, x28
    6c44:	f9002be5 	str	x5, [sp, #80]
    6c48:	91000421 	add	x1, x1, #0x1
    6c4c:	97fff675 	bl	4620 <mbedtls_mpi_grow>
    6c50:	35000d80 	cbnz	w0, 6e00 <mbedtls_mpi_exp_mod+0x638>
/home/fangjiang/workspace/optee-os/lib/libmbedtls/mbedtls/library/bignum.c:2498 (discriminator 2)
    6c54:	f9402be5 	ldr	x5, [sp, #80]
    6c58:	aa1c03e0 	mov	x0, x28
    6c5c:	aa0503e1 	mov	x1, x5
    6c60:	97fff70b 	bl	488c <mbedtls_mpi_copy>
    6c64:	35000ce0 	cbnz	w0, 6e00 <mbedtls_mpi_exp_mod+0x638>
/home/fangjiang/workspace/optee-os/lib/libmbedtls/mbedtls/library/bignum.c:2500 (discriminator 2)
    6c68:	aa1703e4 	mov	x4, x23
    6c6c:	2a1903e3 	mov	w3, w25
    6c70:	aa1403e2 	mov	x2, x20
    6c74:	aa1a03e1 	mov	x1, x26
    6c78:	aa1c03e0 	mov	x0, x28
    6c7c:	97fff563 	bl	4208 <mpi_montmul>
/home/fangjiang/workspace/optee-os/lib/libmbedtls/mbedtls/library/bignum.c:2495 (discriminator 2)
    6c80:	9100077b 	add	x27, x27, #0x1
    6c84:	aa1c03e5 	mov	x5, x28
    6c88:	17ffffe9 	b	6c2c <mbedtls_mpi_exp_mod+0x464>
/home/fangjiang/workspace/optee-os/lib/libmbedtls/mbedtls/library/bignum.c:2544
    6c8c:	52800041 	mov	w1, #0x2                   	// #2
/home/fangjiang/workspace/optee-os/lib/libmbedtls/mbedtls/library/bignum.c:2565
    6c90:	2a0103e2 	mov	w2, w1
    6c94:	17ffff91 	b	6ad8 <mbedtls_mpi_exp_mod+0x310>
/home/fangjiang/workspace/optee-os/lib/libmbedtls/mbedtls/library/bignum.c:2547
    6c98:	b9404be1 	ldr	w1, [sp, #72]
/home/fangjiang/workspace/optee-os/lib/libmbedtls/mbedtls/library/bignum.c:2546
    6c9c:	910004a5 	add	x5, x5, #0x1
/home/fangjiang/workspace/optee-os/lib/libmbedtls/mbedtls/library/bignum.c:2547
    6ca0:	4b050021 	sub	w1, w1, w5
    6ca4:	1ac12000 	lsl	w0, w0, w1
    6ca8:	aa00037b 	orr	x27, x27, x0
/home/fangjiang/workspace/optee-os/lib/libmbedtls/mbedtls/library/bignum.c:2549
    6cac:	f94003e0 	ldr	x0, [sp]
    6cb0:	eb05001f 	cmp	x0, x5
    6cb4:	54fffec1 	b.ne	6c8c <mbedtls_mpi_exp_mod+0x4c4>  // b.any
/home/fangjiang/workspace/optee-os/lib/libmbedtls/mbedtls/library/bignum.c:2554
    6cb8:	d2800006 	mov	x6, #0x0                   	// #0
/home/fangjiang/workspace/optee-os/lib/libmbedtls/mbedtls/library/bignum.c:2555 (discriminator 3)
    6cbc:	aa1703e4 	mov	x4, x23
    6cc0:	2a1903e3 	mov	w3, w25
    6cc4:	aa1403e2 	mov	x2, x20
    6cc8:	aa1603e1 	mov	x1, x22
    6ccc:	aa1603e0 	mov	x0, x22
    6cd0:	a9061be5 	stp	x5, x6, [sp, #96]
    6cd4:	97fff54d 	bl	4208 <mpi_montmul>
/home/fangjiang/workspace/optee-os/lib/libmbedtls/mbedtls/library/bignum.c:2554 (discriminator 3)
    6cd8:	a9461be5 	ldp	x5, x6, [sp, #96]
    6cdc:	910004c6 	add	x6, x6, #0x1
    6ce0:	eb0600bf 	cmp	x5, x6
    6ce4:	54fffec8 	b.hi	6cbc <mbedtls_mpi_exp_mod+0x4f4>  // b.pmore
mpi_select():
/home/fangjiang/workspace/optee-os/lib/libmbedtls/mbedtls/library/bignum.c:2349
    6ce8:	d2800003 	mov	x3, #0x0                   	// #0
mbedtls_mpi_cf_bool_eq():
/home/fangjiang/workspace/optee-os/lib/libmbedtls/mbedtls/library/bignum.c:2308
    6cec:	ca030360 	eor	x0, x27, x3
mpi_select():
/home/fangjiang/workspace/optee-os/lib/libmbedtls/mbedtls/library/bignum.c:2351
    6cf0:	f90033e3 	str	x3, [sp, #96]
mbedtls_mpi_cf_bool_eq():
/home/fangjiang/workspace/optee-os/lib/libmbedtls/mbedtls/library/bignum.c:2318
    6cf4:	cb0003e2 	neg	x2, x0
    6cf8:	aa000042 	orr	x2, x2, x0
mpi_select():
/home/fangjiang/workspace/optee-os/lib/libmbedtls/mbedtls/library/bignum.c:2351
    6cfc:	d2800300 	mov	x0, #0x18                  	// #24
    6d00:	9b005461 	madd	x1, x3, x0, x21
mbedtls_mpi_cf_bool_eq():
/home/fangjiang/workspace/optee-os/lib/libmbedtls/mbedtls/library/bignum.c:2325
    6d04:	d37ffc42 	lsr	x2, x2, #63
mpi_select():
/home/fangjiang/workspace/optee-os/lib/libmbedtls/mbedtls/library/bignum.c:2351
    6d08:	f9401be0 	ldr	x0, [sp, #48]
    6d0c:	d2400042 	eor	x2, x2, #0x1
    6d10:	97fff737 	bl	49ec <mbedtls_mpi_safe_cond_assign>
    6d14:	35000760 	cbnz	w0, 6e00 <mbedtls_mpi_exp_mod+0x638>
/home/fangjiang/workspace/optee-os/lib/libmbedtls/mbedtls/library/bignum.c:2349
    6d18:	f94033e3 	ldr	x3, [sp, #96]
    6d1c:	f9402be0 	ldr	x0, [sp, #80]
    6d20:	91000463 	add	x3, x3, #0x1
    6d24:	eb03001f 	cmp	x0, x3
    6d28:	54fffe28 	b.hi	6cec <mbedtls_mpi_exp_mod+0x524>  // b.pmore
mbedtls_mpi_exp_mod():
/home/fangjiang/workspace/optee-os/lib/libmbedtls/mbedtls/library/bignum.c:2561 (discriminator 2)
    6d2c:	f9401be1 	ldr	x1, [sp, #48]
    6d30:	aa1703e4 	mov	x4, x23
    6d34:	2a1903e3 	mov	w3, w25
    6d38:	aa1403e2 	mov	x2, x20
    6d3c:	aa1603e0 	mov	x0, x22
/home/fangjiang/workspace/optee-os/lib/libmbedtls/mbedtls/library/bignum.c:2565 (discriminator 2)
    6d40:	d280001b 	mov	x27, #0x0                   	// #0
/home/fangjiang/workspace/optee-os/lib/libmbedtls/mbedtls/library/bignum.c:2561 (discriminator 2)
    6d44:	97fff531 	bl	4208 <mpi_montmul>
/home/fangjiang/workspace/optee-os/lib/libmbedtls/mbedtls/library/bignum.c:2563 (discriminator 2)
    6d48:	b9404fe1 	ldr	w1, [sp, #76]
/home/fangjiang/workspace/optee-os/lib/libmbedtls/mbedtls/library/bignum.c:2564 (discriminator 2)
    6d4c:	d2800005 	mov	x5, #0x0                   	// #0
    6d50:	17ffffd0 	b	6c90 <mbedtls_mpi_exp_mod+0x4c8>
/home/fangjiang/workspace/optee-os/lib/libmbedtls/mbedtls/library/bignum.c:2574
    6d54:	aa1603e0 	mov	x0, x22
    6d58:	aa1703e4 	mov	x4, x23
    6d5c:	2a1903e3 	mov	w3, w25
    6d60:	aa1403e2 	mov	x2, x20
    6d64:	aa1603e1 	mov	x1, x22
    6d68:	f90003e5 	str	x5, [sp]
    6d6c:	97fff527 	bl	4208 <mpi_montmul>
/home/fangjiang/workspace/optee-os/lib/libmbedtls/mbedtls/library/bignum.c:2576
    6d70:	d37ffb7b 	lsl	x27, x27, #1
/home/fangjiang/workspace/optee-os/lib/libmbedtls/mbedtls/library/bignum.c:2578
    6d74:	f9402be0 	ldr	x0, [sp, #80]
    6d78:	f94003e5 	ldr	x5, [sp]
    6d7c:	ea1b001f 	tst	x0, x27
    6d80:	54000100 	b.eq	6da0 <mbedtls_mpi_exp_mod+0x5d8>  // b.none
/home/fangjiang/workspace/optee-os/lib/libmbedtls/mbedtls/library/bignum.c:2579
    6d84:	aa1703e4 	mov	x4, x23
    6d88:	2a1903e3 	mov	w3, w25
    6d8c:	aa1403e2 	mov	x2, x20
    6d90:	aa1a03e1 	mov	x1, x26
    6d94:	aa1603e0 	mov	x0, x22
    6d98:	97fff51c 	bl	4208 <mpi_montmul>
    6d9c:	f94003e5 	ldr	x5, [sp]
/home/fangjiang/workspace/optee-os/lib/libmbedtls/mbedtls/library/bignum.c:2572 (discriminator 2)
    6da0:	9100079c 	add	x28, x28, #0x1
/home/fangjiang/workspace/optee-os/lib/libmbedtls/mbedtls/library/bignum.c:2572 (discriminator 1)
    6da4:	eb05039f 	cmp	x28, x5
    6da8:	54fffd61 	b.ne	6d54 <mbedtls_mpi_exp_mod+0x58c>  // b.any
/home/fangjiang/workspace/optee-os/lib/libmbedtls/mbedtls/library/bignum.c:2585
    6dac:	aa1603e0 	mov	x0, x22
    6db0:	aa1703e3 	mov	x3, x23
    6db4:	2a1903e2 	mov	w2, w25
    6db8:	aa1403e1 	mov	x1, x20
    6dbc:	97fff565 	bl	4350 <mpi_montred>
/home/fangjiang/workspace/optee-os/lib/libmbedtls/mbedtls/library/bignum.c:2587
    6dc0:	b9403fe0 	ldr	w0, [sp, #60]
    6dc4:	3100041f 	cmn	w0, #0x1
    6dc8:	540001e1 	b.ne	6e04 <mbedtls_mpi_exp_mod+0x63c>  // b.any
/home/fangjiang/workspace/optee-os/lib/libmbedtls/mbedtls/library/bignum.c:2587 (discriminator 1)
    6dcc:	f94007e0 	ldr	x0, [sp, #8]
    6dd0:	f9400400 	ldr	x0, [x0, #8]
    6dd4:	b4000180 	cbz	x0, 6e04 <mbedtls_mpi_exp_mod+0x63c>
/home/fangjiang/workspace/optee-os/lib/libmbedtls/mbedtls/library/bignum.c:2587 (discriminator 2)
    6dd8:	f94007e0 	ldr	x0, [sp, #8]
    6ddc:	f9400800 	ldr	x0, [x0, #16]
    6de0:	b9400000 	ldr	w0, [x0]
    6de4:	36000100 	tbz	w0, #0, 6e04 <mbedtls_mpi_exp_mod+0x63c>
/home/fangjiang/workspace/optee-os/lib/libmbedtls/mbedtls/library/bignum.c:2589
    6de8:	79407be0 	ldrh	w0, [sp, #60]
/home/fangjiang/workspace/optee-os/lib/libmbedtls/mbedtls/library/bignum.c:2590
    6dec:	aa1603e2 	mov	x2, x22
/home/fangjiang/workspace/optee-os/lib/libmbedtls/mbedtls/library/bignum.c:2589
    6df0:	790002c0 	strh	w0, [x22]
/home/fangjiang/workspace/optee-os/lib/libmbedtls/mbedtls/library/bignum.c:2590
    6df4:	aa1403e1 	mov	x1, x20
    6df8:	aa1603e0 	mov	x0, x22
    6dfc:	97fffa3d 	bl	56f0 <mbedtls_mpi_add_mpi>
    6e00:	2a0003f3 	mov	w19, w0
/home/fangjiang/workspace/optee-os/lib/libmbedtls/mbedtls/library/bignum.c:2597 (discriminator 3)
    6e04:	f94013e0 	ldr	x0, [sp, #32]
    6e08:	97fff5eb 	bl	45b4 <mbedtls_mpi_free>
/home/fangjiang/workspace/optee-os/lib/libmbedtls/mbedtls/library/bignum.c:2596 (discriminator 3)
    6e0c:	f94013e0 	ldr	x0, [sp, #32]
    6e10:	91006000 	add	x0, x0, #0x18
    6e14:	f90013e0 	str	x0, [sp, #32]
    6e18:	f9402fe0 	ldr	x0, [sp, #88]
    6e1c:	f94013e1 	ldr	x1, [sp, #32]
    6e20:	eb01001f 	cmp	x0, x1
    6e24:	54ffff01 	b.ne	6e04 <mbedtls_mpi_exp_mod+0x63c>  // b.any
/home/fangjiang/workspace/optee-os/lib/libmbedtls/mbedtls/library/bignum.c:2598
    6e28:	f94023e0 	ldr	x0, [sp, #64]
    6e2c:	aa1503e1 	mov	x1, x21
    6e30:	f940cc00 	ldr	x0, [x0, #408]
    6e34:	f9400000 	ldr	x0, [x0]
    6e38:	94000d1a 	bl	a2a0 <mempool_free>
/home/fangjiang/workspace/optee-os/lib/libmbedtls/mbedtls/library/bignum.c:2600
    6e3c:	aa1703e0 	mov	x0, x23
    6e40:	97fff5dd 	bl	45b4 <mbedtls_mpi_free>
    6e44:	f94017e0 	ldr	x0, [sp, #40]
    6e48:	97fff5db 	bl	45b4 <mbedtls_mpi_free>
/home/fangjiang/workspace/optee-os/lib/libmbedtls/mbedtls/library/bignum.c:2601
    6e4c:	f9401be0 	ldr	x0, [sp, #48]
    6e50:	97fff5d9 	bl	45b4 <mbedtls_mpi_free>
/home/fangjiang/workspace/optee-os/lib/libmbedtls/mbedtls/library/bignum.c:2603
    6e54:	f9400be0 	ldr	x0, [sp, #16]
    6e58:	b4000060 	cbz	x0, 6e64 <mbedtls_mpi_exp_mod+0x69c>
/home/fangjiang/workspace/optee-os/lib/libmbedtls/mbedtls/library/bignum.c:2603 (discriminator 1)
    6e5c:	f9400800 	ldr	x0, [x0, #16]
    6e60:	b5ffce20 	cbnz	x0, 6824 <mbedtls_mpi_exp_mod+0x5c>
/home/fangjiang/workspace/optee-os/lib/libmbedtls/mbedtls/library/bignum.c:2604
    6e64:	aa1803e0 	mov	x0, x24
    6e68:	97fff5d3 	bl	45b4 <mbedtls_mpi_free>
    6e6c:	17fffe6e 	b	6824 <mbedtls_mpi_exp_mod+0x5c>
/home/fangjiang/workspace/optee-os/lib/libmbedtls/mbedtls/library/bignum.c:2372
    6e70:	d2800015 	mov	x21, #0x0                   	// #0
    6e74:	17ffffed 	b	6e28 <mbedtls_mpi_exp_mod+0x660>
/home/fangjiang/workspace/optee-os/lib/libmbedtls/mbedtls/library/bignum.c:2448
    6e78:	128001f3 	mov	w19, #0xfffffff0            	// #-16
    6e7c:	17ffffeb 	b	6e28 <mbedtls_mpi_exp_mod+0x660>
/home/fangjiang/workspace/optee-os/lib/libmbedtls/mbedtls/library/bignum.c:2607
    6e80:	2a1303e0 	mov	w0, w19
    6e84:	a94e7bfd 	ldp	x29, x30, [sp, #224]
    6e88:	a94f53f3 	ldp	x19, x20, [sp, #240]
    6e8c:	a9505bf5 	ldp	x21, x22, [sp, #256]
    6e90:	a95163f7 	ldp	x23, x24, [sp, #272]
    6e94:	a9526bf9 	ldp	x25, x26, [sp, #288]
    6e98:	a95373fb 	ldp	x27, x28, [sp, #304]
    6e9c:	910503ff 	add	sp, sp, #0x140
    6ea0:	d65f03c0 	ret

0000000000006ea4 <mbedtls_mpi_gcd>:
mbedtls_mpi_gcd():
/home/fangjiang/workspace/optee-os/lib/libmbedtls/mbedtls/library/bignum.c:2613
    6ea4:	d10243ff 	sub	sp, sp, #0x90
    6ea8:	a9047bfd 	stp	x29, x30, [sp, #64]
    6eac:	910103fd 	add	x29, sp, #0x40
    6eb0:	a90763f7 	stp	x23, x24, [sp, #112]
    6eb4:	aa0003f7 	mov	x23, x0
    6eb8:	90000040 	adrp	x0, e000 <_DYNAMIC>
    6ebc:	a90553f3 	stp	x19, x20, [sp, #80]
/home/fangjiang/workspace/optee-os/lib/libmbedtls/mbedtls/library/bignum.c:2622
    6ec0:	910083f4 	add	x20, sp, #0x20
/home/fangjiang/workspace/optee-os/lib/libmbedtls/mbedtls/library/bignum.c:2613
    6ec4:	f9409800 	ldr	x0, [x0, #304]
    6ec8:	a9065bf5 	stp	x21, x22, [sp, #96]
/home/fangjiang/workspace/optee-os/lib/libmbedtls/mbedtls/library/bignum.c:2622
    6ecc:	910023f5 	add	x21, sp, #0x8
/home/fangjiang/workspace/optee-os/lib/libmbedtls/mbedtls/library/bignum.c:2613
    6ed0:	f90043f9 	str	x25, [sp, #128]
    6ed4:	aa0103f9 	mov	x25, x1
    6ed8:	aa0203f6 	mov	x22, x2
    6edc:	f9400001 	ldr	x1, [x0]
    6ee0:	f9001fe1 	str	x1, [sp, #56]
    6ee4:	d2800001 	mov	x1, #0x0                   	// #0
/home/fangjiang/workspace/optee-os/lib/libmbedtls/mbedtls/library/bignum.c:2622
    6ee8:	aa1503e0 	mov	x0, x21
    6eec:	97fff5a8 	bl	458c <mbedtls_mpi_init_mempool>
    6ef0:	aa1403e0 	mov	x0, x20
    6ef4:	97fff5a6 	bl	458c <mbedtls_mpi_init_mempool>
/home/fangjiang/workspace/optee-os/lib/libmbedtls/mbedtls/library/bignum.c:2624
    6ef8:	aa1903e1 	mov	x1, x25
    6efc:	aa1503e0 	mov	x0, x21
    6f00:	97fff663 	bl	488c <mbedtls_mpi_copy>
    6f04:	2a0003f3 	mov	w19, w0
    6f08:	35000840 	cbnz	w0, 7010 <mbedtls_mpi_gcd+0x16c>
/home/fangjiang/workspace/optee-os/lib/libmbedtls/mbedtls/library/bignum.c:2625 (discriminator 2)
    6f0c:	aa1603e1 	mov	x1, x22
    6f10:	aa1403e0 	mov	x0, x20
    6f14:	97fff65e 	bl	488c <mbedtls_mpi_copy>
    6f18:	2a0003f3 	mov	w19, w0
    6f1c:	350007a0 	cbnz	w0, 7010 <mbedtls_mpi_gcd+0x16c>
/home/fangjiang/workspace/optee-os/lib/libmbedtls/mbedtls/library/bignum.c:2627 (discriminator 2)
    6f20:	aa1503e0 	mov	x0, x21
    6f24:	97fff763 	bl	4cb0 <mbedtls_mpi_lsb>
    6f28:	aa0003f8 	mov	x24, x0
/home/fangjiang/workspace/optee-os/lib/libmbedtls/mbedtls/library/bignum.c:2628 (discriminator 2)
    6f2c:	aa1403e0 	mov	x0, x20
    6f30:	97fff760 	bl	4cb0 <mbedtls_mpi_lsb>
    6f34:	aa0003f6 	mov	x22, x0
/home/fangjiang/workspace/optee-os/lib/libmbedtls/mbedtls/library/bignum.c:2634 (discriminator 2)
    6f38:	b5000140 	cbnz	x0, 6f60 <mbedtls_mpi_gcd+0xbc>
/home/fangjiang/workspace/optee-os/lib/libmbedtls/mbedtls/library/bignum.c:2634 (discriminator 1)
    6f3c:	aa1403e0 	mov	x0, x20
    6f40:	d2800001 	mov	x1, #0x0                   	// #0
    6f44:	97fff72d 	bl	4bf8 <mbedtls_mpi_get_bit>
    6f48:	350000c0 	cbnz	w0, 6f60 <mbedtls_mpi_gcd+0xbc>
/home/fangjiang/workspace/optee-os/lib/libmbedtls/mbedtls/library/bignum.c:2636
    6f4c:	aa1903e1 	mov	x1, x25
/home/fangjiang/workspace/optee-os/lib/libmbedtls/mbedtls/library/bignum.c:2714 (discriminator 2)
    6f50:	aa1703e0 	mov	x0, x23
    6f54:	97fff64e 	bl	488c <mbedtls_mpi_copy>
    6f58:	2a0003f3 	mov	w19, w0
    6f5c:	1400002d 	b	7010 <mbedtls_mpi_gcd+0x16c>
/home/fangjiang/workspace/optee-os/lib/libmbedtls/mbedtls/library/bignum.c:2643
    6f60:	52800020 	mov	w0, #0x1                   	// #1
    6f64:	790013e0 	strh	w0, [sp, #8]
    6f68:	790043e0 	strh	w0, [sp, #32]
/home/fangjiang/workspace/optee-os/lib/libmbedtls/mbedtls/library/bignum.c:2678 (discriminator 2)
    6f6c:	aa1503e0 	mov	x0, x21
    6f70:	52800001 	mov	w1, #0x0                   	// #0
    6f74:	97fff920 	bl	53f4 <mbedtls_mpi_cmp_int>
    6f78:	35000120 	cbnz	w0, 6f9c <mbedtls_mpi_gcd+0xf8>
/home/fangjiang/workspace/optee-os/lib/libmbedtls/mbedtls/library/bignum.c:2713
    6f7c:	eb16031f 	cmp	x24, x22
    6f80:	aa1403e0 	mov	x0, x20
    6f84:	9a969301 	csel	x1, x24, x22, ls  // ls = plast
    6f88:	97fff81b 	bl	4ff4 <mbedtls_mpi_shift_l>
    6f8c:	2a0003f3 	mov	w19, w0
    6f90:	35000400 	cbnz	w0, 7010 <mbedtls_mpi_gcd+0x16c>
/home/fangjiang/workspace/optee-os/lib/libmbedtls/mbedtls/library/bignum.c:2714 (discriminator 2)
    6f94:	aa1403e1 	mov	x1, x20
    6f98:	17ffffee 	b	6f50 <mbedtls_mpi_gcd+0xac>
/home/fangjiang/workspace/optee-os/lib/libmbedtls/mbedtls/library/bignum.c:2681
    6f9c:	aa1503e0 	mov	x0, x21
    6fa0:	97fff744 	bl	4cb0 <mbedtls_mpi_lsb>
    6fa4:	aa0003e1 	mov	x1, x0
    6fa8:	aa1503e0 	mov	x0, x21
    6fac:	97fff856 	bl	5104 <mbedtls_mpi_shift_r>
    6fb0:	2a0003f3 	mov	w19, w0
    6fb4:	350002e0 	cbnz	w0, 7010 <mbedtls_mpi_gcd+0x16c>
/home/fangjiang/workspace/optee-os/lib/libmbedtls/mbedtls/library/bignum.c:2682 (discriminator 2)
    6fb8:	aa1403e0 	mov	x0, x20
    6fbc:	97fff73d 	bl	4cb0 <mbedtls_mpi_lsb>
    6fc0:	aa0003e1 	mov	x1, x0
    6fc4:	aa1403e0 	mov	x0, x20
    6fc8:	97fff84f 	bl	5104 <mbedtls_mpi_shift_r>
    6fcc:	2a0003f3 	mov	w19, w0
    6fd0:	35000200 	cbnz	w0, 7010 <mbedtls_mpi_gcd+0x16c>
/home/fangjiang/workspace/optee-os/lib/libmbedtls/mbedtls/library/bignum.c:2691 (discriminator 2)
    6fd4:	aa1403e1 	mov	x1, x20
    6fd8:	aa1503e0 	mov	x0, x21
    6fdc:	97fff8a1 	bl	5260 <mbedtls_mpi_cmp_mpi>
    6fe0:	37f80300 	tbnz	w0, #31, 7040 <mbedtls_mpi_gcd+0x19c>
/home/fangjiang/workspace/optee-os/lib/libmbedtls/mbedtls/library/bignum.c:2693
    6fe4:	aa1403e2 	mov	x2, x20
    6fe8:	aa1503e1 	mov	x1, x21
    6fec:	aa1503e0 	mov	x0, x21
    6ff0:	97fff969 	bl	5594 <mbedtls_mpi_sub_abs>
    6ff4:	2a0003f3 	mov	w19, w0
    6ff8:	350000c0 	cbnz	w0, 7010 <mbedtls_mpi_gcd+0x16c>
/home/fangjiang/workspace/optee-os/lib/libmbedtls/mbedtls/library/bignum.c:2694 (discriminator 2)
    6ffc:	aa1503e0 	mov	x0, x21
    7000:	d2800021 	mov	x1, #0x1                   	// #1
/home/fangjiang/workspace/optee-os/lib/libmbedtls/mbedtls/library/bignum.c:2699 (discriminator 2)
    7004:	97fff840 	bl	5104 <mbedtls_mpi_shift_r>
    7008:	2a0003f3 	mov	w19, w0
    700c:	34fffb00 	cbz	w0, 6f6c <mbedtls_mpi_gcd+0xc8>
/home/fangjiang/workspace/optee-os/lib/libmbedtls/mbedtls/library/bignum.c:2718 (discriminator 3)
    7010:	aa1503e0 	mov	x0, x21
    7014:	97fff568 	bl	45b4 <mbedtls_mpi_free>
    7018:	aa1403e0 	mov	x0, x20
    701c:	97fff566 	bl	45b4 <mbedtls_mpi_free>
/home/fangjiang/workspace/optee-os/lib/libmbedtls/mbedtls/library/bignum.c:2721 (discriminator 3)
    7020:	f0000020 	adrp	x0, e000 <_DYNAMIC>
    7024:	f9409800 	ldr	x0, [x0, #304]
    7028:	f9401fe2 	ldr	x2, [sp, #56]
    702c:	f9400001 	ldr	x1, [x0]
    7030:	eb010042 	subs	x2, x2, x1
    7034:	d2800001 	mov	x1, #0x0                   	// #0
    7038:	54000160 	b.eq	7064 <mbedtls_mpi_gcd+0x1c0>  // b.none
/home/fangjiang/workspace/optee-os/lib/libmbedtls/mbedtls/library/bignum.c:2721
    703c:	940007c1 	bl	8f40 <__stack_chk_fail>
/home/fangjiang/workspace/optee-os/lib/libmbedtls/mbedtls/library/bignum.c:2698
    7040:	aa1503e2 	mov	x2, x21
    7044:	aa1403e1 	mov	x1, x20
    7048:	aa1403e0 	mov	x0, x20
    704c:	97fff952 	bl	5594 <mbedtls_mpi_sub_abs>
    7050:	2a0003f3 	mov	w19, w0
    7054:	35fffde0 	cbnz	w0, 7010 <mbedtls_mpi_gcd+0x16c>
/home/fangjiang/workspace/optee-os/lib/libmbedtls/mbedtls/library/bignum.c:2699 (discriminator 2)
    7058:	aa1403e0 	mov	x0, x20
    705c:	d2800021 	mov	x1, #0x1                   	// #1
    7060:	17ffffe9 	b	7004 <mbedtls_mpi_gcd+0x160>
/home/fangjiang/workspace/optee-os/lib/libmbedtls/mbedtls/library/bignum.c:2721
    7064:	2a1303e0 	mov	w0, w19
    7068:	a9447bfd 	ldp	x29, x30, [sp, #64]
    706c:	a94553f3 	ldp	x19, x20, [sp, #80]
    7070:	a9465bf5 	ldp	x21, x22, [sp, #96]
    7074:	a94763f7 	ldp	x23, x24, [sp, #112]
    7078:	f94043f9 	ldr	x25, [sp, #128]
    707c:	910243ff 	add	sp, sp, #0x90
    7080:	d65f03c0 	ret

0000000000007084 <mbedtls_mpi_fill_random>:
mbedtls_mpi_fill_random():
/home/fangjiang/workspace/optee-os/lib/libmbedtls/mbedtls/library/bignum.c:2760
    7084:	a9bd7bfd 	stp	x29, x30, [sp, #-48]!
/home/fangjiang/workspace/optee-os/lib/libmbedtls/mbedtls/library/bignum.c:2762
    7088:	f240043f 	tst	x1, #0x3
/home/fangjiang/workspace/optee-os/lib/libmbedtls/mbedtls/library/bignum.c:2760
    708c:	910003fd 	mov	x29, sp
    7090:	a90153f3 	stp	x19, x20, [sp, #16]
    7094:	aa0103f3 	mov	x19, x1
/home/fangjiang/workspace/optee-os/lib/libmbedtls/mbedtls/library/bignum.c:2762
    7098:	d342fc21 	lsr	x1, x1, #2
/home/fangjiang/workspace/optee-os/lib/libmbedtls/mbedtls/library/bignum.c:2760
    709c:	aa0003f4 	mov	x20, x0
/home/fangjiang/workspace/optee-os/lib/libmbedtls/mbedtls/library/bignum.c:2768
    70a0:	9a810421 	cinc	x1, x1, ne  // ne = any
/home/fangjiang/workspace/optee-os/lib/libmbedtls/mbedtls/library/bignum.c:2760
    70a4:	a9025bf5 	stp	x21, x22, [sp, #32]
    70a8:	aa0203f5 	mov	x21, x2
    70ac:	aa0303f6 	mov	x22, x3
/home/fangjiang/workspace/optee-os/lib/libmbedtls/mbedtls/library/bignum.c:2768
    70b0:	97fff596 	bl	4708 <mbedtls_mpi_resize_clear>
    70b4:	35000140 	cbnz	w0, 70dc <mbedtls_mpi_fill_random+0x58>
/home/fangjiang/workspace/optee-os/lib/libmbedtls/mbedtls/library/bignum.c:2769
    70b8:	b4000133 	cbz	x19, 70dc <mbedtls_mpi_fill_random+0x58>
/home/fangjiang/workspace/optee-os/lib/libmbedtls/mbedtls/library/bignum.c:2772
    70bc:	aa1603e3 	mov	x3, x22
    70c0:	aa1503e2 	mov	x2, x21
    70c4:	aa1303e1 	mov	x1, x19
    70c8:	aa1403e0 	mov	x0, x20
/home/fangjiang/workspace/optee-os/lib/libmbedtls/mbedtls/library/bignum.c:2776
    70cc:	a94153f3 	ldp	x19, x20, [sp, #16]
    70d0:	a9425bf5 	ldp	x21, x22, [sp, #32]
    70d4:	a8c37bfd 	ldp	x29, x30, [sp], #48
/home/fangjiang/workspace/optee-os/lib/libmbedtls/mbedtls/library/bignum.c:2772
    70d8:	17fff4f9 	b	44bc <mpi_fill_random_internal>
/home/fangjiang/workspace/optee-os/lib/libmbedtls/mbedtls/library/bignum.c:2776
    70dc:	a94153f3 	ldp	x19, x20, [sp, #16]
    70e0:	a9425bf5 	ldp	x21, x22, [sp, #32]
    70e4:	a8c37bfd 	ldp	x29, x30, [sp], #48
    70e8:	d65f03c0 	ret

00000000000070ec <mpi_miller_rabin>:
mpi_miller_rabin():
/home/fangjiang/workspace/optee-os/lib/libmbedtls/mbedtls/library/bignum.c:3019
    70ec:	d10403ff 	sub	sp, sp, #0x100
    70f0:	a90a7bfd 	stp	x29, x30, [sp, #160]
    70f4:	910283fd 	add	x29, sp, #0xa0
    70f8:	a90c5bf5 	stp	x21, x22, [sp, #192]
    70fc:	aa0003f6 	mov	x22, x0
    7100:	f0000020 	adrp	x0, e000 <_DYNAMIC>
    7104:	a9000be1 	stp	x1, x2, [sp]
/home/fangjiang/workspace/optee-os/lib/libmbedtls/mbedtls/library/bignum.c:3027
    7108:	910083f5 	add	x21, sp, #0x20
/home/fangjiang/workspace/optee-os/lib/libmbedtls/mbedtls/library/bignum.c:3019
    710c:	f9409800 	ldr	x0, [x0, #304]
    7110:	f9000be3 	str	x3, [sp, #16]
    7114:	a90b53f3 	stp	x19, x20, [sp, #176]
/home/fangjiang/workspace/optee-os/lib/libmbedtls/mbedtls/library/bignum.c:3028
    7118:	9101a3f4 	add	x20, sp, #0x68
/home/fangjiang/workspace/optee-os/lib/libmbedtls/mbedtls/library/bignum.c:3019
    711c:	a90d63f7 	stp	x23, x24, [sp, #208]
/home/fangjiang/workspace/optee-os/lib/libmbedtls/mbedtls/library/bignum.c:3027
    7120:	9100e3f7 	add	x23, sp, #0x38
/home/fangjiang/workspace/optee-os/lib/libmbedtls/mbedtls/library/bignum.c:3028
    7124:	910143f8 	add	x24, sp, #0x50
/home/fangjiang/workspace/optee-os/lib/libmbedtls/mbedtls/library/bignum.c:3019
    7128:	a90e6bf9 	stp	x25, x26, [sp, #224]
/home/fangjiang/workspace/optee-os/lib/libmbedtls/mbedtls/library/bignum.c:3029
    712c:	910203fa 	add	x26, sp, #0x80
/home/fangjiang/workspace/optee-os/lib/libmbedtls/mbedtls/library/bignum.c:3019
    7130:	a90f73fb 	stp	x27, x28, [sp, #240]
    7134:	f9400001 	ldr	x1, [x0]
    7138:	f9004fe1 	str	x1, [sp, #152]
    713c:	d2800001 	mov	x1, #0x0                   	// #0
/home/fangjiang/workspace/optee-os/lib/libmbedtls/mbedtls/library/bignum.c:3027
    7140:	aa1503e0 	mov	x0, x21
    7144:	97fff512 	bl	458c <mbedtls_mpi_init_mempool>
    7148:	aa1703e0 	mov	x0, x23
    714c:	97fff510 	bl	458c <mbedtls_mpi_init_mempool>
/home/fangjiang/workspace/optee-os/lib/libmbedtls/mbedtls/library/bignum.c:3028
    7150:	aa1803e0 	mov	x0, x24
    7154:	97fff50e 	bl	458c <mbedtls_mpi_init_mempool>
    7158:	aa1403e0 	mov	x0, x20
    715c:	97fff50c 	bl	458c <mbedtls_mpi_init_mempool>
/home/fangjiang/workspace/optee-os/lib/libmbedtls/mbedtls/library/bignum.c:3029
    7160:	aa1a03e0 	mov	x0, x26
    7164:	97fff50a 	bl	458c <mbedtls_mpi_init_mempool>
/home/fangjiang/workspace/optee-os/lib/libmbedtls/mbedtls/library/bignum.c:3035
    7168:	aa1603e1 	mov	x1, x22
    716c:	aa1503e0 	mov	x0, x21
    7170:	52800022 	mov	w2, #0x1                   	// #1
    7174:	97fff9c4 	bl	5884 <mbedtls_mpi_sub_int>
    7178:	2a0003f3 	mov	w19, w0
    717c:	35000600 	cbnz	w0, 723c <mpi_miller_rabin+0x150>
/home/fangjiang/workspace/optee-os/lib/libmbedtls/mbedtls/library/bignum.c:3036 (discriminator 2)
    7180:	aa1503e0 	mov	x0, x21
    7184:	97fff6cb 	bl	4cb0 <mbedtls_mpi_lsb>
/home/fangjiang/workspace/optee-os/lib/libmbedtls/mbedtls/library/bignum.c:3037 (discriminator 2)
    7188:	aa1503e1 	mov	x1, x21
/home/fangjiang/workspace/optee-os/lib/libmbedtls/mbedtls/library/bignum.c:3036 (discriminator 2)
    718c:	aa0003f9 	mov	x25, x0
/home/fangjiang/workspace/optee-os/lib/libmbedtls/mbedtls/library/bignum.c:3037 (discriminator 2)
    7190:	aa1703e0 	mov	x0, x23
    7194:	97fff5be 	bl	488c <mbedtls_mpi_copy>
    7198:	2a0003f3 	mov	w19, w0
    719c:	35000500 	cbnz	w0, 723c <mpi_miller_rabin+0x150>
/home/fangjiang/workspace/optee-os/lib/libmbedtls/mbedtls/library/bignum.c:3038 (discriminator 2)
    71a0:	aa1903e1 	mov	x1, x25
    71a4:	aa1703e0 	mov	x0, x23
    71a8:	97fff7d7 	bl	5104 <mbedtls_mpi_shift_r>
    71ac:	2a0003f3 	mov	w19, w0
    71b0:	35000460 	cbnz	w0, 723c <mpi_miller_rabin+0x150>
/home/fangjiang/workspace/optee-os/lib/libmbedtls/mbedtls/library/bignum.c:3040
    71b4:	d280001b 	mov	x27, #0x0                   	// #0
/home/fangjiang/workspace/optee-os/lib/libmbedtls/mbedtls/library/bignum.c:3040 (discriminator 1)
    71b8:	f94003e0 	ldr	x0, [sp]
    71bc:	eb00037f 	cmp	x27, x0
    71c0:	540003e0 	b.eq	723c <mpi_miller_rabin+0x150>  // b.none
    71c4:	528025dc 	mov	w28, #0x12e                 	// #302
/home/fangjiang/workspace/optee-os/lib/libmbedtls/mbedtls/library/bignum.c:3047
    71c8:	a9408fe2 	ldp	x2, x3, [sp, #8]
    71cc:	aa1403e0 	mov	x0, x20
    71d0:	f94006c1 	ldr	x1, [x22, #8]
    71d4:	d37ef421 	lsl	x1, x1, #2
    71d8:	97ffffab 	bl	7084 <mbedtls_mpi_fill_random>
    71dc:	35000c80 	cbnz	w0, 736c <mpi_miller_rabin+0x280>
/home/fangjiang/workspace/optee-os/lib/libmbedtls/mbedtls/library/bignum.c:3049 (discriminator 2)
    71e0:	aa1403e0 	mov	x0, x20
    71e4:	97fff6c8 	bl	4d04 <mbedtls_mpi_bitlen>
    71e8:	aa0003e1 	mov	x1, x0
/home/fangjiang/workspace/optee-os/lib/libmbedtls/mbedtls/library/bignum.c:3050 (discriminator 2)
    71ec:	aa1503e0 	mov	x0, x21
/home/fangjiang/workspace/optee-os/lib/libmbedtls/mbedtls/library/bignum.c:3049 (discriminator 2)
    71f0:	f9000fe1 	str	x1, [sp, #24]
/home/fangjiang/workspace/optee-os/lib/libmbedtls/mbedtls/library/bignum.c:3050 (discriminator 2)
    71f4:	97fff6c4 	bl	4d04 <mbedtls_mpi_bitlen>
/home/fangjiang/workspace/optee-os/lib/libmbedtls/mbedtls/library/bignum.c:3051 (discriminator 2)
    71f8:	f9400fe1 	ldr	x1, [sp, #24]
    71fc:	eb00003f 	cmp	x1, x0
    7200:	54000189 	b.ls	7230 <mpi_miller_rabin+0x144>  // b.plast
/home/fangjiang/workspace/optee-os/lib/libmbedtls/mbedtls/library/bignum.c:3052
    7204:	a9470fe1 	ldp	x1, x3, [sp, #112]
    7208:	d37ef422 	lsl	x2, x1, #2
    720c:	d1000421 	sub	x1, x1, #0x1
    7210:	d1001042 	sub	x2, x2, #0x4
    7214:	4b011400 	sub	w0, w0, w1, lsl #5
    7218:	12800001 	mov	w1, #0xffffffff            	// #-1
    721c:	51000400 	sub	w0, w0, #0x1
    7220:	1ac02020 	lsl	w0, w1, w0
    7224:	b8626861 	ldr	w1, [x3, x2]
    7228:	0a200020 	bic	w0, w1, w0
    722c:	b8226860 	str	w0, [x3, x2]
/home/fangjiang/workspace/optee-os/lib/libmbedtls/mbedtls/library/bignum.c:3055
    7230:	7100079c 	subs	w28, w28, #0x1
    7234:	54000281 	b.ne	7284 <mpi_miller_rabin+0x198>  // b.any
/home/fangjiang/workspace/optee-os/lib/libmbedtls/mbedtls/library/bignum.c:3056
    7238:	128001b3 	mov	w19, #0xfffffff2            	// #-14
/home/fangjiang/workspace/optee-os/lib/libmbedtls/mbedtls/library/bignum.c:3099
    723c:	aa1503e0 	mov	x0, x21
    7240:	97fff4dd 	bl	45b4 <mbedtls_mpi_free>
    7244:	aa1703e0 	mov	x0, x23
    7248:	97fff4db 	bl	45b4 <mbedtls_mpi_free>
/home/fangjiang/workspace/optee-os/lib/libmbedtls/mbedtls/library/bignum.c:3100
    724c:	aa1803e0 	mov	x0, x24
    7250:	97fff4d9 	bl	45b4 <mbedtls_mpi_free>
    7254:	aa1403e0 	mov	x0, x20
    7258:	97fff4d7 	bl	45b4 <mbedtls_mpi_free>
/home/fangjiang/workspace/optee-os/lib/libmbedtls/mbedtls/library/bignum.c:3101
    725c:	aa1a03e0 	mov	x0, x26
    7260:	97fff4d5 	bl	45b4 <mbedtls_mpi_free>
/home/fangjiang/workspace/optee-os/lib/libmbedtls/mbedtls/library/bignum.c:3104
    7264:	f0000020 	adrp	x0, e000 <_DYNAMIC>
    7268:	f9409800 	ldr	x0, [x0, #304]
    726c:	f9404fe2 	ldr	x2, [sp, #152]
    7270:	f9400001 	ldr	x1, [x0]
    7274:	eb010042 	subs	x2, x2, x1
    7278:	d2800001 	mov	x1, #0x0                   	// #0
    727c:	540007c0 	b.eq	7374 <mpi_miller_rabin+0x288>  // b.none
    7280:	94000730 	bl	8f40 <__stack_chk_fail>
/home/fangjiang/workspace/optee-os/lib/libmbedtls/mbedtls/library/bignum.c:3060
    7284:	aa1503e1 	mov	x1, x21
    7288:	aa1403e0 	mov	x0, x20
    728c:	97fff7f5 	bl	5260 <mbedtls_mpi_cmp_mpi>
    7290:	36fff9c0 	tbz	w0, #31, 71c8 <mpi_miller_rabin+0xdc>
/home/fangjiang/workspace/optee-os/lib/libmbedtls/mbedtls/library/bignum.c:3061 (discriminator 1)
    7294:	aa1403e0 	mov	x0, x20
    7298:	52800021 	mov	w1, #0x1                   	// #1
    729c:	97fff856 	bl	53f4 <mbedtls_mpi_cmp_int>
/home/fangjiang/workspace/optee-os/lib/libmbedtls/mbedtls/library/bignum.c:3060 (discriminator 1)
    72a0:	7100001f 	cmp	w0, #0x0
    72a4:	54fff92d 	b.le	71c8 <mpi_miller_rabin+0xdc>
/home/fangjiang/workspace/optee-os/lib/libmbedtls/mbedtls/library/bignum.c:3066
    72a8:	aa1a03e4 	mov	x4, x26
    72ac:	aa1603e3 	mov	x3, x22
    72b0:	aa1703e2 	mov	x2, x23
    72b4:	aa1403e1 	mov	x1, x20
    72b8:	aa1403e0 	mov	x0, x20
    72bc:	97fffd43 	bl	67c8 <mbedtls_mpi_exp_mod>
    72c0:	35000560 	cbnz	w0, 736c <mpi_miller_rabin+0x280>
/home/fangjiang/workspace/optee-os/lib/libmbedtls/mbedtls/library/bignum.c:3068 (discriminator 2)
    72c4:	aa1503e1 	mov	x1, x21
    72c8:	aa1403e0 	mov	x0, x20
    72cc:	97fff7e5 	bl	5260 <mbedtls_mpi_cmp_mpi>
    72d0:	35000060 	cbnz	w0, 72dc <mpi_miller_rabin+0x1f0>
/home/fangjiang/workspace/optee-os/lib/libmbedtls/mbedtls/library/bignum.c:3040
    72d4:	9100077b 	add	x27, x27, #0x1
    72d8:	17ffffb8 	b	71b8 <mpi_miller_rabin+0xcc>
/home/fangjiang/workspace/optee-os/lib/libmbedtls/mbedtls/library/bignum.c:3069 (discriminator 2)
    72dc:	aa1403e0 	mov	x0, x20
    72e0:	52800021 	mov	w1, #0x1                   	// #1
    72e4:	97fff844 	bl	53f4 <mbedtls_mpi_cmp_int>
/home/fangjiang/workspace/optee-os/lib/libmbedtls/mbedtls/library/bignum.c:3068 (discriminator 2)
    72e8:	34ffff60 	cbz	w0, 72d4 <mpi_miller_rabin+0x1e8>
/home/fangjiang/workspace/optee-os/lib/libmbedtls/mbedtls/library/bignum.c:3072
    72ec:	d280003c 	mov	x28, #0x1                   	// #1
/home/fangjiang/workspace/optee-os/lib/libmbedtls/mbedtls/library/bignum.c:3073
    72f0:	eb19039f 	cmp	x28, x25
    72f4:	54000262 	b.cs	7340 <mpi_miller_rabin+0x254>  // b.hs, b.nlast
/home/fangjiang/workspace/optee-os/lib/libmbedtls/mbedtls/library/bignum.c:3073 (discriminator 1)
    72f8:	aa1503e1 	mov	x1, x21
    72fc:	aa1403e0 	mov	x0, x20
    7300:	97fff7d8 	bl	5260 <mbedtls_mpi_cmp_mpi>
    7304:	340001e0 	cbz	w0, 7340 <mpi_miller_rabin+0x254>
/home/fangjiang/workspace/optee-os/lib/libmbedtls/mbedtls/library/bignum.c:3078
    7308:	aa1403e2 	mov	x2, x20
    730c:	aa1403e1 	mov	x1, x20
    7310:	aa1803e0 	mov	x0, x24
    7314:	97fff97c 	bl	5904 <mbedtls_mpi_mul_mpi>
    7318:	350002a0 	cbnz	w0, 736c <mpi_miller_rabin+0x280>
/home/fangjiang/workspace/optee-os/lib/libmbedtls/mbedtls/library/bignum.c:3079 (discriminator 2)
    731c:	aa1603e2 	mov	x2, x22
    7320:	aa1803e1 	mov	x1, x24
    7324:	aa1403e0 	mov	x0, x20
    7328:	97fffbfd 	bl	631c <mbedtls_mpi_mod_mpi>
    732c:	35000200 	cbnz	w0, 736c <mpi_miller_rabin+0x280>
/home/fangjiang/workspace/optee-os/lib/libmbedtls/mbedtls/library/bignum.c:3081 (discriminator 2)
    7330:	aa1403e0 	mov	x0, x20
    7334:	52800021 	mov	w1, #0x1                   	// #1
    7338:	97fff82f 	bl	53f4 <mbedtls_mpi_cmp_int>
    733c:	35000140 	cbnz	w0, 7364 <mpi_miller_rabin+0x278>
/home/fangjiang/workspace/optee-os/lib/libmbedtls/mbedtls/library/bignum.c:3090
    7340:	aa1503e1 	mov	x1, x21
    7344:	aa1403e0 	mov	x0, x20
    7348:	97fff7c6 	bl	5260 <mbedtls_mpi_cmp_mpi>
    734c:	35fff760 	cbnz	w0, 7238 <mpi_miller_rabin+0x14c>
/home/fangjiang/workspace/optee-os/lib/libmbedtls/mbedtls/library/bignum.c:3091 (discriminator 1)
    7350:	aa1403e0 	mov	x0, x20
    7354:	52800021 	mov	w1, #0x1                   	// #1
    7358:	97fff827 	bl	53f4 <mbedtls_mpi_cmp_int>
/home/fangjiang/workspace/optee-os/lib/libmbedtls/mbedtls/library/bignum.c:3090 (discriminator 1)
    735c:	35fffbc0 	cbnz	w0, 72d4 <mpi_miller_rabin+0x1e8>
    7360:	17ffffb6 	b	7238 <mpi_miller_rabin+0x14c>
/home/fangjiang/workspace/optee-os/lib/libmbedtls/mbedtls/library/bignum.c:3084
    7364:	9100079c 	add	x28, x28, #0x1
    7368:	17ffffe2 	b	72f0 <mpi_miller_rabin+0x204>
    736c:	2a0003f3 	mov	w19, w0
    7370:	17ffffb3 	b	723c <mpi_miller_rabin+0x150>
/home/fangjiang/workspace/optee-os/lib/libmbedtls/mbedtls/library/bignum.c:3104
    7374:	2a1303e0 	mov	w0, w19
    7378:	a94a7bfd 	ldp	x29, x30, [sp, #160]
    737c:	a94b53f3 	ldp	x19, x20, [sp, #176]
    7380:	a94c5bf5 	ldp	x21, x22, [sp, #192]
    7384:	a94d63f7 	ldp	x23, x24, [sp, #208]
    7388:	a94e6bf9 	ldp	x25, x26, [sp, #224]
    738c:	a94f73fb 	ldp	x27, x28, [sp, #240]
    7390:	910403ff 	add	sp, sp, #0x100
    7394:	d65f03c0 	ret

0000000000007398 <mbedtls_mpi_random>:
mbedtls_mpi_random():
/home/fangjiang/workspace/optee-os/lib/libmbedtls/mbedtls/library/bignum.c:2783
    7398:	d10283ff 	sub	sp, sp, #0xa0
    739c:	a9047bfd 	stp	x29, x30, [sp, #64]
    73a0:	910103fd 	add	x29, sp, #0x40
    73a4:	a90553f3 	stp	x19, x20, [sp, #80]
    73a8:	aa0003f3 	mov	x19, x0
    73ac:	f0000020 	adrp	x0, e000 <_DYNAMIC>
    73b0:	a9065bf5 	stp	x21, x22, [sp, #96]
    73b4:	aa0203f4 	mov	x20, x2
    73b8:	f9409800 	ldr	x0, [x0, #304]
    73bc:	a90763f7 	stp	x23, x24, [sp, #112]
    73c0:	aa0303f8 	mov	x24, x3
    73c4:	a9086bf9 	stp	x25, x26, [sp, #128]
    73c8:	2a0103fa 	mov	w26, w1
    73cc:	aa0403f9 	mov	x25, x4
    73d0:	a90973fb 	stp	x27, x28, [sp, #144]
    73d4:	f9400001 	ldr	x1, [x0]
    73d8:	f9001fe1 	str	x1, [sp, #56]
    73dc:	d2800001 	mov	x1, #0x0                   	// #0
/home/fangjiang/workspace/optee-os/lib/libmbedtls/mbedtls/library/bignum.c:2786
    73e0:	52800020 	mov	w0, #0x1                   	// #1
    73e4:	29037fe0 	stp	w0, wzr, [sp, #24]
/home/fangjiang/workspace/optee-os/lib/libmbedtls/mbedtls/library/bignum.c:2787
    73e8:	aa0203e0 	mov	x0, x2
    73ec:	97fff646 	bl	4d04 <mbedtls_mpi_bitlen>
/home/fangjiang/workspace/optee-os/lib/libmbedtls/mbedtls/library/bignum.c:2791
    73f0:	36f8015a 	tbz	w26, #31, 7418 <mbedtls_mpi_random+0x80>
/home/fangjiang/workspace/optee-os/lib/libmbedtls/mbedtls/library/bignum.c:2792
    73f4:	12800062 	mov	w2, #0xfffffffc            	// #-4
/home/fangjiang/workspace/optee-os/lib/libmbedtls/mbedtls/library/bignum.c:2851
    73f8:	f0000020 	adrp	x0, e000 <_DYNAMIC>
    73fc:	f9409800 	ldr	x0, [x0, #304]
    7400:	f9401fe3 	ldr	x3, [sp, #56]
    7404:	f9400001 	ldr	x1, [x0]
    7408:	eb010063 	subs	x3, x3, x1
    740c:	d2800001 	mov	x1, #0x0                   	// #0
    7410:	54000920 	b.eq	7534 <mbedtls_mpi_random+0x19c>  // b.none
    7414:	940006cb 	bl	8f40 <__stack_chk_fail>
    7418:	aa0003fb 	mov	x27, x0
    741c:	91001c15 	add	x21, x0, #0x7
/home/fangjiang/workspace/optee-os/lib/libmbedtls/mbedtls/library/bignum.c:2793
    7420:	2a1a03e1 	mov	w1, w26
    7424:	aa1403e0 	mov	x0, x20
    7428:	97fff7f3 	bl	53f4 <mbedtls_mpi_cmp_int>
    742c:	7100001f 	cmp	w0, #0x0
    7430:	54fffe2d 	b.le	73f4 <mbedtls_mpi_random+0x5c>
/home/fangjiang/workspace/optee-os/lib/libmbedtls/mbedtls/library/bignum.c:2813
    7434:	f1009ebf 	cmp	x21, #0x27
    7438:	52801f40 	mov	w0, #0xfa                  	// #250
/home/fangjiang/workspace/optee-os/lib/libmbedtls/mbedtls/library/bignum.c:2815
    743c:	910083f6 	add	x22, sp, #0x20
/home/fangjiang/workspace/optee-os/lib/libmbedtls/mbedtls/library/bignum.c:2813
    7440:	528003d7 	mov	w23, #0x1e                  	// #30
    7444:	1a8082f7 	csel	w23, w23, w0, hi  // hi = pmore
/home/fangjiang/workspace/optee-os/lib/libmbedtls/mbedtls/library/bignum.c:2815
    7448:	aa1603e0 	mov	x0, x22
    744c:	97fff44c 	bl	457c <mbedtls_mpi_init>
/home/fangjiang/workspace/optee-os/lib/libmbedtls/mbedtls/library/bignum.c:2820
    7450:	f9400681 	ldr	x1, [x20, #8]
    7454:	aa1303e0 	mov	x0, x19
    7458:	97fff4ac 	bl	4708 <mbedtls_mpi_resize_clear>
    745c:	2a0003e2 	mov	w2, w0
    7460:	350005c0 	cbnz	w0, 7518 <mbedtls_mpi_random+0x180>
/home/fangjiang/workspace/optee-os/lib/libmbedtls/mbedtls/library/bignum.c:2821 (discriminator 2)
    7464:	f9400681 	ldr	x1, [x20, #8]
    7468:	aa1603e0 	mov	x0, x22
    746c:	97fff46d 	bl	4620 <mbedtls_mpi_grow>
    7470:	2a0003e2 	mov	w2, w0
    7474:	35000520 	cbnz	w0, 7518 <mbedtls_mpi_random+0x180>
/home/fangjiang/workspace/optee-os/lib/libmbedtls/mbedtls/library/bignum.c:2822 (discriminator 2)
    7478:	2a1a03e1 	mov	w1, w26
    747c:	aa1603e0 	mov	x0, x22
    7480:	97fff5c4 	bl	4b90 <mbedtls_mpi_lset>
    7484:	2a0003e2 	mov	w2, w0
    7488:	35000480 	cbnz	w0, 7518 <mbedtls_mpi_random+0x180>
/home/fangjiang/workspace/optee-os/lib/libmbedtls/mbedtls/library/bignum.c:2788
    748c:	d343feba 	lsr	x26, x21, #3
/home/fangjiang/workspace/optee-os/lib/libmbedtls/mbedtls/library/bignum.c:2835
    7490:	927df2b5 	and	x21, x21, #0xfffffffffffffff8
    7494:	cb1b02b5 	sub	x21, x21, x27
/home/fangjiang/workspace/optee-os/lib/libmbedtls/mbedtls/library/bignum.c:2844
    7498:	910073fc 	add	x28, sp, #0x1c
/home/fangjiang/workspace/optee-os/lib/libmbedtls/mbedtls/library/bignum.c:2843
    749c:	910063fb 	add	x27, sp, #0x18
/home/fangjiang/workspace/optee-os/lib/libmbedtls/mbedtls/library/bignum.c:2834 (discriminator 2)
    74a0:	aa1803e2 	mov	x2, x24
    74a4:	aa1903e3 	mov	x3, x25
    74a8:	aa1a03e1 	mov	x1, x26
    74ac:	aa1303e0 	mov	x0, x19
    74b0:	97fff403 	bl	44bc <mpi_fill_random_internal>
    74b4:	2a0003e2 	mov	w2, w0
    74b8:	35000300 	cbnz	w0, 7518 <mbedtls_mpi_random+0x180>
/home/fangjiang/workspace/optee-os/lib/libmbedtls/mbedtls/library/bignum.c:2835 (discriminator 2)
    74bc:	aa1503e1 	mov	x1, x21
    74c0:	aa1303e0 	mov	x0, x19
    74c4:	97fff710 	bl	5104 <mbedtls_mpi_shift_r>
    74c8:	2a0003e2 	mov	w2, w0
    74cc:	35000260 	cbnz	w0, 7518 <mbedtls_mpi_random+0x180>
/home/fangjiang/workspace/optee-os/lib/libmbedtls/mbedtls/library/bignum.c:2837 (discriminator 2)
    74d0:	710006f7 	subs	w23, w23, #0x1
    74d4:	540002c0 	b.eq	752c <mbedtls_mpi_random+0x194>  // b.none
/home/fangjiang/workspace/optee-os/lib/libmbedtls/mbedtls/library/bignum.c:2843
    74d8:	aa1b03e2 	mov	x2, x27
    74dc:	aa1603e1 	mov	x1, x22
    74e0:	aa1303e0 	mov	x0, x19
    74e4:	97fff793 	bl	5330 <mbedtls_mpi_lt_mpi_ct>
    74e8:	2a0003e2 	mov	w2, w0
    74ec:	35000160 	cbnz	w0, 7518 <mbedtls_mpi_random+0x180>
/home/fangjiang/workspace/optee-os/lib/libmbedtls/mbedtls/library/bignum.c:2844 (discriminator 2)
    74f0:	aa1c03e2 	mov	x2, x28
    74f4:	aa1403e1 	mov	x1, x20
    74f8:	aa1303e0 	mov	x0, x19
    74fc:	97fff78d 	bl	5330 <mbedtls_mpi_lt_mpi_ct>
    7500:	2a0003e2 	mov	w2, w0
    7504:	350000a0 	cbnz	w0, 7518 <mbedtls_mpi_random+0x180>
/home/fangjiang/workspace/optee-os/lib/libmbedtls/mbedtls/library/bignum.c:2846 (discriminator 2)
    7508:	b9401be0 	ldr	w0, [sp, #24]
    750c:	35fffca0 	cbnz	w0, 74a0 <mbedtls_mpi_random+0x108>
/home/fangjiang/workspace/optee-os/lib/libmbedtls/mbedtls/library/bignum.c:2846 (discriminator 1)
    7510:	b9401fe0 	ldr	w0, [sp, #28]
    7514:	34fffc60 	cbz	w0, 74a0 <mbedtls_mpi_random+0x108>
/home/fangjiang/workspace/optee-os/lib/libmbedtls/mbedtls/library/bignum.c:2849
    7518:	aa1603e0 	mov	x0, x22
    751c:	b9000fe2 	str	w2, [sp, #12]
    7520:	97fff425 	bl	45b4 <mbedtls_mpi_free>
    7524:	b9400fe2 	ldr	w2, [sp, #12]
/home/fangjiang/workspace/optee-os/lib/libmbedtls/mbedtls/library/bignum.c:2850
    7528:	17ffffb4 	b	73f8 <mbedtls_mpi_random+0x60>
/home/fangjiang/workspace/optee-os/lib/libmbedtls/mbedtls/library/bignum.c:2839
    752c:	128001a2 	mov	w2, #0xfffffff2            	// #-14
    7530:	17fffffa 	b	7518 <mbedtls_mpi_random+0x180>
/home/fangjiang/workspace/optee-os/lib/libmbedtls/mbedtls/library/bignum.c:2851
    7534:	2a0203e0 	mov	w0, w2
    7538:	a9447bfd 	ldp	x29, x30, [sp, #64]
    753c:	a94553f3 	ldp	x19, x20, [sp, #80]
    7540:	a9465bf5 	ldp	x21, x22, [sp, #96]
    7544:	a94763f7 	ldp	x23, x24, [sp, #112]
    7548:	a9486bf9 	ldp	x25, x26, [sp, #128]
    754c:	a94973fb 	ldp	x27, x28, [sp, #144]
    7550:	910283ff 	add	sp, sp, #0xa0
    7554:	d65f03c0 	ret

0000000000007558 <mbedtls_mpi_inv_mod>:
mbedtls_mpi_inv_mod():
/home/fangjiang/workspace/optee-os/lib/libmbedtls/mbedtls/library/bignum.c:2857
    7558:	d10543ff 	sub	sp, sp, #0x150
    755c:	a90f7bfd 	stp	x29, x30, [sp, #240]
    7560:	9103c3fd 	add	x29, sp, #0xf0
    7564:	a90003e1 	stp	x1, x0, [sp]
    7568:	f0000020 	adrp	x0, e000 <_DYNAMIC>
    756c:	f9409800 	ldr	x0, [x0, #304]
    7570:	a91053f3 	stp	x19, x20, [sp, #256]
    7574:	aa0203f4 	mov	x20, x2
    7578:	a9115bf5 	stp	x21, x22, [sp, #272]
    757c:	a91263f7 	stp	x23, x24, [sp, #288]
    7580:	a9136bf9 	stp	x25, x26, [sp, #304]
    7584:	a91473fb 	stp	x27, x28, [sp, #320]
    7588:	f9400001 	ldr	x1, [x0]
    758c:	f90077e1 	str	x1, [sp, #232]
    7590:	d2800001 	mov	x1, #0x0                   	// #0
/home/fangjiang/workspace/optee-os/lib/libmbedtls/mbedtls/library/bignum.c:2864
    7594:	aa0203e0 	mov	x0, x2
    7598:	52800021 	mov	w1, #0x1                   	// #1
    759c:	97fff796 	bl	53f4 <mbedtls_mpi_cmp_int>
    75a0:	7100001f 	cmp	w0, #0x0
    75a4:	54001f4d 	b.le	798c <mbedtls_mpi_inv_mod+0x434>
/home/fangjiang/workspace/optee-os/lib/libmbedtls/mbedtls/library/bignum.c:2867
    75a8:	9100a3fa 	add	x26, sp, #0x28
    75ac:	910103f8 	add	x24, sp, #0x40
    75b0:	aa1a03e0 	mov	x0, x26
    75b4:	97fff3f6 	bl	458c <mbedtls_mpi_init_mempool>
    75b8:	aa1803e0 	mov	x0, x24
/home/fangjiang/workspace/optee-os/lib/libmbedtls/mbedtls/library/bignum.c:2868
    75bc:	910163f7 	add	x23, sp, #0x58
/home/fangjiang/workspace/optee-os/lib/libmbedtls/mbedtls/library/bignum.c:2867
    75c0:	97fff3f3 	bl	458c <mbedtls_mpi_init_mempool>
/home/fangjiang/workspace/optee-os/lib/libmbedtls/mbedtls/library/bignum.c:2868
    75c4:	9101c3f6 	add	x22, sp, #0x70
    75c8:	aa1703e0 	mov	x0, x23
    75cc:	97fff3f0 	bl	458c <mbedtls_mpi_init_mempool>
    75d0:	aa1603e0 	mov	x0, x22
/home/fangjiang/workspace/optee-os/lib/libmbedtls/mbedtls/library/bignum.c:2869
    75d4:	910043fc 	add	x28, sp, #0x10
/home/fangjiang/workspace/optee-os/lib/libmbedtls/mbedtls/library/bignum.c:2868
    75d8:	97fff3ed 	bl	458c <mbedtls_mpi_init_mempool>
/home/fangjiang/workspace/optee-os/lib/libmbedtls/mbedtls/library/bignum.c:2869
    75dc:	910223fb 	add	x27, sp, #0x88
    75e0:	aa1c03e0 	mov	x0, x28
    75e4:	97fff3ea 	bl	458c <mbedtls_mpi_init_mempool>
    75e8:	aa1b03e0 	mov	x0, x27
/home/fangjiang/workspace/optee-os/lib/libmbedtls/mbedtls/library/bignum.c:2870
    75ec:	910283f9 	add	x25, sp, #0xa0
/home/fangjiang/workspace/optee-os/lib/libmbedtls/mbedtls/library/bignum.c:2869
    75f0:	97fff3e7 	bl	458c <mbedtls_mpi_init_mempool>
/home/fangjiang/workspace/optee-os/lib/libmbedtls/mbedtls/library/bignum.c:2870
    75f4:	9102e3f3 	add	x19, sp, #0xb8
    75f8:	aa1903e0 	mov	x0, x25
    75fc:	97fff3e4 	bl	458c <mbedtls_mpi_init_mempool>
    7600:	aa1303e0 	mov	x0, x19
/home/fangjiang/workspace/optee-os/lib/libmbedtls/mbedtls/library/bignum.c:2871
    7604:	910343f5 	add	x21, sp, #0xd0
/home/fangjiang/workspace/optee-os/lib/libmbedtls/mbedtls/library/bignum.c:2870
    7608:	97fff3e1 	bl	458c <mbedtls_mpi_init_mempool>
/home/fangjiang/workspace/optee-os/lib/libmbedtls/mbedtls/library/bignum.c:2871
    760c:	aa1503e0 	mov	x0, x21
    7610:	97fff3df 	bl	458c <mbedtls_mpi_init_mempool>
/home/fangjiang/workspace/optee-os/lib/libmbedtls/mbedtls/library/bignum.c:2873
    7614:	f94003e1 	ldr	x1, [sp]
    7618:	aa1403e2 	mov	x2, x20
    761c:	aa1c03e0 	mov	x0, x28
    7620:	97fffe21 	bl	6ea4 <mbedtls_mpi_gcd>
    7624:	2a0003e1 	mov	w1, w0
    7628:	35000d20 	cbnz	w0, 77cc <mbedtls_mpi_inv_mod+0x274>
/home/fangjiang/workspace/optee-os/lib/libmbedtls/mbedtls/library/bignum.c:2875 (discriminator 2)
    762c:	aa1c03e0 	mov	x0, x28
    7630:	52800021 	mov	w1, #0x1                   	// #1
    7634:	97fff770 	bl	53f4 <mbedtls_mpi_cmp_int>
    7638:	35001a60 	cbnz	w0, 7984 <mbedtls_mpi_inv_mod+0x42c>
/home/fangjiang/workspace/optee-os/lib/libmbedtls/mbedtls/library/bignum.c:2881
    763c:	f94003e1 	ldr	x1, [sp]
    7640:	aa1403e2 	mov	x2, x20
    7644:	aa1a03e0 	mov	x0, x26
    7648:	97fffb35 	bl	631c <mbedtls_mpi_mod_mpi>
    764c:	2a0003e1 	mov	w1, w0
    7650:	35000be0 	cbnz	w0, 77cc <mbedtls_mpi_inv_mod+0x274>
/home/fangjiang/workspace/optee-os/lib/libmbedtls/mbedtls/library/bignum.c:2882 (discriminator 2)
    7654:	aa1a03e1 	mov	x1, x26
    7658:	aa1803e0 	mov	x0, x24
    765c:	97fff48c 	bl	488c <mbedtls_mpi_copy>
    7660:	2a0003e1 	mov	w1, w0
    7664:	35000b40 	cbnz	w0, 77cc <mbedtls_mpi_inv_mod+0x274>
/home/fangjiang/workspace/optee-os/lib/libmbedtls/mbedtls/library/bignum.c:2883 (discriminator 2)
    7668:	aa1403e1 	mov	x1, x20
    766c:	aa1b03e0 	mov	x0, x27
    7670:	97fff487 	bl	488c <mbedtls_mpi_copy>
    7674:	2a0003e1 	mov	w1, w0
    7678:	35000aa0 	cbnz	w0, 77cc <mbedtls_mpi_inv_mod+0x274>
/home/fangjiang/workspace/optee-os/lib/libmbedtls/mbedtls/library/bignum.c:2884 (discriminator 2)
    767c:	aa1403e1 	mov	x1, x20
    7680:	aa1903e0 	mov	x0, x25
    7684:	97fff482 	bl	488c <mbedtls_mpi_copy>
    7688:	2a0003e1 	mov	w1, w0
    768c:	35000a00 	cbnz	w0, 77cc <mbedtls_mpi_inv_mod+0x274>
/home/fangjiang/workspace/optee-os/lib/libmbedtls/mbedtls/library/bignum.c:2886 (discriminator 2)
    7690:	52800021 	mov	w1, #0x1                   	// #1
    7694:	aa1703e0 	mov	x0, x23
    7698:	97fff53e 	bl	4b90 <mbedtls_mpi_lset>
    769c:	2a0003e1 	mov	w1, w0
    76a0:	35000960 	cbnz	w0, 77cc <mbedtls_mpi_inv_mod+0x274>
/home/fangjiang/workspace/optee-os/lib/libmbedtls/mbedtls/library/bignum.c:2887 (discriminator 2)
    76a4:	aa1603e0 	mov	x0, x22
    76a8:	97fff53a 	bl	4b90 <mbedtls_mpi_lset>
    76ac:	2a0003e1 	mov	w1, w0
    76b0:	350008e0 	cbnz	w0, 77cc <mbedtls_mpi_inv_mod+0x274>
/home/fangjiang/workspace/optee-os/lib/libmbedtls/mbedtls/library/bignum.c:2888 (discriminator 2)
    76b4:	aa1303e0 	mov	x0, x19
    76b8:	97fff536 	bl	4b90 <mbedtls_mpi_lset>
    76bc:	2a0003e1 	mov	w1, w0
    76c0:	35000860 	cbnz	w0, 77cc <mbedtls_mpi_inv_mod+0x274>
/home/fangjiang/workspace/optee-os/lib/libmbedtls/mbedtls/library/bignum.c:2889 (discriminator 2)
    76c4:	aa1503e0 	mov	x0, x21
    76c8:	52800021 	mov	w1, #0x1                   	// #1
    76cc:	97fff531 	bl	4b90 <mbedtls_mpi_lset>
/home/fangjiang/workspace/optee-os/lib/libmbedtls/mbedtls/library/bignum.c:2904 (discriminator 2)
    76d0:	2a0003e1 	mov	w1, w0
    76d4:	350007c0 	cbnz	w0, 77cc <mbedtls_mpi_inv_mod+0x274>
/home/fangjiang/workspace/optee-os/lib/libmbedtls/mbedtls/library/bignum.c:2893 (discriminator 2)
    76d8:	f9402be0 	ldr	x0, [sp, #80]
    76dc:	b9400000 	ldr	w0, [x0]
    76e0:	36000560 	tbz	w0, #0, 778c <mbedtls_mpi_inv_mod+0x234>
/home/fangjiang/workspace/optee-os/lib/libmbedtls/mbedtls/library/bignum.c:2907 (discriminator 2)
    76e4:	f9405be0 	ldr	x0, [sp, #176]
    76e8:	b9400000 	ldr	w0, [x0]
    76ec:	36000ca0 	tbz	w0, #0, 7880 <mbedtls_mpi_inv_mod+0x328>
/home/fangjiang/workspace/optee-os/lib/libmbedtls/mbedtls/library/bignum.c:2921
    76f0:	aa1903e1 	mov	x1, x25
    76f4:	aa1803e0 	mov	x0, x24
    76f8:	97fff6da 	bl	5260 <mbedtls_mpi_cmp_mpi>
    76fc:	37f81080 	tbnz	w0, #31, 790c <mbedtls_mpi_inv_mod+0x3b4>
/home/fangjiang/workspace/optee-os/lib/libmbedtls/mbedtls/library/bignum.c:2923
    7700:	aa1803e1 	mov	x1, x24
    7704:	aa1903e2 	mov	x2, x25
    7708:	aa1803e0 	mov	x0, x24
    770c:	97fff81b 	bl	5778 <mbedtls_mpi_sub_mpi>
    7710:	2a0003e1 	mov	w1, w0
    7714:	350005c0 	cbnz	w0, 77cc <mbedtls_mpi_inv_mod+0x274>
/home/fangjiang/workspace/optee-os/lib/libmbedtls/mbedtls/library/bignum.c:2924 (discriminator 2)
    7718:	aa1703e1 	mov	x1, x23
    771c:	aa1303e2 	mov	x2, x19
    7720:	aa1703e0 	mov	x0, x23
    7724:	97fff815 	bl	5778 <mbedtls_mpi_sub_mpi>
    7728:	2a0003e1 	mov	w1, w0
    772c:	35000500 	cbnz	w0, 77cc <mbedtls_mpi_inv_mod+0x274>
/home/fangjiang/workspace/optee-os/lib/libmbedtls/mbedtls/library/bignum.c:2925 (discriminator 2)
    7730:	aa1503e2 	mov	x2, x21
    7734:	aa1603e1 	mov	x1, x22
    7738:	aa1603e0 	mov	x0, x22
    773c:	97fff80f 	bl	5778 <mbedtls_mpi_sub_mpi>
    7740:	2a0003e1 	mov	w1, w0
    7744:	35000440 	cbnz	w0, 77cc <mbedtls_mpi_inv_mod+0x274>
/home/fangjiang/workspace/optee-os/lib/libmbedtls/mbedtls/library/bignum.c:2934
    7748:	aa1803e0 	mov	x0, x24
    774c:	52800001 	mov	w1, #0x0                   	// #0
    7750:	97fff729 	bl	53f4 <mbedtls_mpi_cmp_int>
    7754:	35fffc20 	cbnz	w0, 76d8 <mbedtls_mpi_inv_mod+0x180>
/home/fangjiang/workspace/optee-os/lib/libmbedtls/mbedtls/library/bignum.c:2936 (discriminator 2)
    7758:	aa1303e0 	mov	x0, x19
    775c:	52800001 	mov	w1, #0x0                   	// #0
    7760:	97fff725 	bl	53f4 <mbedtls_mpi_cmp_int>
    7764:	37f80f40 	tbnz	w0, #31, 794c <mbedtls_mpi_inv_mod+0x3f4>
/home/fangjiang/workspace/optee-os/lib/libmbedtls/mbedtls/library/bignum.c:2939 (discriminator 2)
    7768:	aa1403e1 	mov	x1, x20
    776c:	aa1303e0 	mov	x0, x19
    7770:	97fff6bc 	bl	5260 <mbedtls_mpi_cmp_mpi>
    7774:	36f80fa0 	tbz	w0, #31, 7968 <mbedtls_mpi_inv_mod+0x410>
/home/fangjiang/workspace/optee-os/lib/libmbedtls/mbedtls/library/bignum.c:2942
    7778:	f94007e0 	ldr	x0, [sp, #8]
    777c:	aa1303e1 	mov	x1, x19
    7780:	97fff443 	bl	488c <mbedtls_mpi_copy>
    7784:	2a0003e1 	mov	w1, w0
    7788:	14000011 	b	77cc <mbedtls_mpi_inv_mod+0x274>
/home/fangjiang/workspace/optee-os/lib/libmbedtls/mbedtls/library/bignum.c:2895
    778c:	d2800021 	mov	x1, #0x1                   	// #1
    7790:	aa1803e0 	mov	x0, x24
    7794:	97fff65c 	bl	5104 <mbedtls_mpi_shift_r>
    7798:	2a0003e1 	mov	w1, w0
    779c:	35000180 	cbnz	w0, 77cc <mbedtls_mpi_inv_mod+0x274>
/home/fangjiang/workspace/optee-os/lib/libmbedtls/mbedtls/library/bignum.c:2897 (discriminator 2)
    77a0:	f94037e0 	ldr	x0, [sp, #104]
    77a4:	b9400000 	ldr	w0, [x0]
    77a8:	370004a0 	tbnz	w0, #0, 783c <mbedtls_mpi_inv_mod+0x2e4>
/home/fangjiang/workspace/optee-os/lib/libmbedtls/mbedtls/library/bignum.c:2897 (discriminator 1)
    77ac:	f94043e0 	ldr	x0, [sp, #128]
    77b0:	b9400000 	ldr	w0, [x0]
    77b4:	37000440 	tbnz	w0, #0, 783c <mbedtls_mpi_inv_mod+0x2e4>
/home/fangjiang/workspace/optee-os/lib/libmbedtls/mbedtls/library/bignum.c:2903
    77b8:	d2800021 	mov	x1, #0x1                   	// #1
    77bc:	aa1703e0 	mov	x0, x23
    77c0:	97fff651 	bl	5104 <mbedtls_mpi_shift_r>
    77c4:	2a0003e1 	mov	w1, w0
    77c8:	34000540 	cbz	w0, 7870 <mbedtls_mpi_inv_mod+0x318>
/home/fangjiang/workspace/optee-os/lib/libmbedtls/mbedtls/library/bignum.c:2946 (discriminator 3)
    77cc:	aa1a03e0 	mov	x0, x26
    77d0:	b90003e1 	str	w1, [sp]
    77d4:	97fff378 	bl	45b4 <mbedtls_mpi_free>
    77d8:	aa1803e0 	mov	x0, x24
    77dc:	97fff376 	bl	45b4 <mbedtls_mpi_free>
    77e0:	aa1703e0 	mov	x0, x23
    77e4:	97fff374 	bl	45b4 <mbedtls_mpi_free>
    77e8:	aa1603e0 	mov	x0, x22
    77ec:	97fff372 	bl	45b4 <mbedtls_mpi_free>
/home/fangjiang/workspace/optee-os/lib/libmbedtls/mbedtls/library/bignum.c:2947 (discriminator 3)
    77f0:	aa1c03e0 	mov	x0, x28
    77f4:	97fff370 	bl	45b4 <mbedtls_mpi_free>
    77f8:	aa1b03e0 	mov	x0, x27
    77fc:	97fff36e 	bl	45b4 <mbedtls_mpi_free>
    7800:	aa1903e0 	mov	x0, x25
    7804:	97fff36c 	bl	45b4 <mbedtls_mpi_free>
/home/fangjiang/workspace/optee-os/lib/libmbedtls/mbedtls/library/bignum.c:2948 (discriminator 3)
    7808:	aa1303e0 	mov	x0, x19
    780c:	97fff36a 	bl	45b4 <mbedtls_mpi_free>
    7810:	aa1503e0 	mov	x0, x21
    7814:	97fff368 	bl	45b4 <mbedtls_mpi_free>
/home/fangjiang/workspace/optee-os/lib/libmbedtls/mbedtls/library/bignum.c:2950 (discriminator 3)
    7818:	b94003e1 	ldr	w1, [sp]
/home/fangjiang/workspace/optee-os/lib/libmbedtls/mbedtls/library/bignum.c:2951
    781c:	f0000020 	adrp	x0, e000 <_DYNAMIC>
    7820:	f9409800 	ldr	x0, [x0, #304]
    7824:	f94077e3 	ldr	x3, [sp, #232]
    7828:	f9400002 	ldr	x2, [x0]
    782c:	eb020063 	subs	x3, x3, x2
    7830:	d2800002 	mov	x2, #0x0                   	// #0
    7834:	54000b00 	b.eq	7994 <mbedtls_mpi_inv_mod+0x43c>  // b.none
    7838:	940005c2 	bl	8f40 <__stack_chk_fail>
/home/fangjiang/workspace/optee-os/lib/libmbedtls/mbedtls/library/bignum.c:2899
    783c:	aa1703e1 	mov	x1, x23
    7840:	aa1b03e2 	mov	x2, x27
    7844:	aa1703e0 	mov	x0, x23
    7848:	97fff7aa 	bl	56f0 <mbedtls_mpi_add_mpi>
    784c:	2a0003e1 	mov	w1, w0
    7850:	35fffbe0 	cbnz	w0, 77cc <mbedtls_mpi_inv_mod+0x274>
/home/fangjiang/workspace/optee-os/lib/libmbedtls/mbedtls/library/bignum.c:2900 (discriminator 2)
    7854:	aa1603e1 	mov	x1, x22
    7858:	aa1a03e2 	mov	x2, x26
    785c:	aa1603e0 	mov	x0, x22
    7860:	97fff7c6 	bl	5778 <mbedtls_mpi_sub_mpi>
    7864:	2a0003e1 	mov	w1, w0
    7868:	34fffa80 	cbz	w0, 77b8 <mbedtls_mpi_inv_mod+0x260>
    786c:	17ffffd8 	b	77cc <mbedtls_mpi_inv_mod+0x274>
/home/fangjiang/workspace/optee-os/lib/libmbedtls/mbedtls/library/bignum.c:2904 (discriminator 2)
    7870:	aa1603e0 	mov	x0, x22
    7874:	d2800021 	mov	x1, #0x1                   	// #1
    7878:	97fff623 	bl	5104 <mbedtls_mpi_shift_r>
    787c:	17ffff95 	b	76d0 <mbedtls_mpi_inv_mod+0x178>
/home/fangjiang/workspace/optee-os/lib/libmbedtls/mbedtls/library/bignum.c:2909
    7880:	d2800021 	mov	x1, #0x1                   	// #1
    7884:	aa1903e0 	mov	x0, x25
    7888:	97fff61f 	bl	5104 <mbedtls_mpi_shift_r>
    788c:	2a0003e1 	mov	w1, w0
    7890:	35fff9e0 	cbnz	w0, 77cc <mbedtls_mpi_inv_mod+0x274>
/home/fangjiang/workspace/optee-os/lib/libmbedtls/mbedtls/library/bignum.c:2911 (discriminator 2)
    7894:	f94067e0 	ldr	x0, [sp, #200]
    7898:	b9400000 	ldr	w0, [x0]
    789c:	370001e0 	tbnz	w0, #0, 78d8 <mbedtls_mpi_inv_mod+0x380>
/home/fangjiang/workspace/optee-os/lib/libmbedtls/mbedtls/library/bignum.c:2911 (discriminator 1)
    78a0:	f94073e0 	ldr	x0, [sp, #224]
    78a4:	b9400000 	ldr	w0, [x0]
    78a8:	37000180 	tbnz	w0, #0, 78d8 <mbedtls_mpi_inv_mod+0x380>
/home/fangjiang/workspace/optee-os/lib/libmbedtls/mbedtls/library/bignum.c:2917
    78ac:	d2800021 	mov	x1, #0x1                   	// #1
    78b0:	aa1303e0 	mov	x0, x19
    78b4:	97fff614 	bl	5104 <mbedtls_mpi_shift_r>
    78b8:	2a0003e1 	mov	w1, w0
    78bc:	35fff880 	cbnz	w0, 77cc <mbedtls_mpi_inv_mod+0x274>
/home/fangjiang/workspace/optee-os/lib/libmbedtls/mbedtls/library/bignum.c:2918 (discriminator 2)
    78c0:	d2800021 	mov	x1, #0x1                   	// #1
    78c4:	aa1503e0 	mov	x0, x21
    78c8:	97fff60f 	bl	5104 <mbedtls_mpi_shift_r>
    78cc:	2a0003e1 	mov	w1, w0
    78d0:	34fff0a0 	cbz	w0, 76e4 <mbedtls_mpi_inv_mod+0x18c>
    78d4:	17ffffbe 	b	77cc <mbedtls_mpi_inv_mod+0x274>
/home/fangjiang/workspace/optee-os/lib/libmbedtls/mbedtls/library/bignum.c:2913
    78d8:	aa1303e1 	mov	x1, x19
    78dc:	aa1b03e2 	mov	x2, x27
    78e0:	aa1303e0 	mov	x0, x19
    78e4:	97fff783 	bl	56f0 <mbedtls_mpi_add_mpi>
    78e8:	2a0003e1 	mov	w1, w0
    78ec:	35fff700 	cbnz	w0, 77cc <mbedtls_mpi_inv_mod+0x274>
/home/fangjiang/workspace/optee-os/lib/libmbedtls/mbedtls/library/bignum.c:2914 (discriminator 2)
    78f0:	aa1503e1 	mov	x1, x21
    78f4:	aa1a03e2 	mov	x2, x26
    78f8:	aa1503e0 	mov	x0, x21
    78fc:	97fff79f 	bl	5778 <mbedtls_mpi_sub_mpi>
    7900:	2a0003e1 	mov	w1, w0
    7904:	34fffd40 	cbz	w0, 78ac <mbedtls_mpi_inv_mod+0x354>
    7908:	17ffffb1 	b	77cc <mbedtls_mpi_inv_mod+0x274>
/home/fangjiang/workspace/optee-os/lib/libmbedtls/mbedtls/library/bignum.c:2929
    790c:	aa1903e1 	mov	x1, x25
    7910:	aa1803e2 	mov	x2, x24
    7914:	aa1903e0 	mov	x0, x25
    7918:	97fff798 	bl	5778 <mbedtls_mpi_sub_mpi>
    791c:	2a0003e1 	mov	w1, w0
    7920:	35fff560 	cbnz	w0, 77cc <mbedtls_mpi_inv_mod+0x274>
/home/fangjiang/workspace/optee-os/lib/libmbedtls/mbedtls/library/bignum.c:2930 (discriminator 2)
    7924:	aa1303e1 	mov	x1, x19
    7928:	aa1703e2 	mov	x2, x23
    792c:	aa1303e0 	mov	x0, x19
    7930:	97fff792 	bl	5778 <mbedtls_mpi_sub_mpi>
    7934:	2a0003e1 	mov	w1, w0
    7938:	35fff4a0 	cbnz	w0, 77cc <mbedtls_mpi_inv_mod+0x274>
/home/fangjiang/workspace/optee-os/lib/libmbedtls/mbedtls/library/bignum.c:2931 (discriminator 2)
    793c:	aa1603e2 	mov	x2, x22
    7940:	aa1503e1 	mov	x1, x21
    7944:	aa1503e0 	mov	x0, x21
    7948:	17ffff7d 	b	773c <mbedtls_mpi_inv_mod+0x1e4>
/home/fangjiang/workspace/optee-os/lib/libmbedtls/mbedtls/library/bignum.c:2937
    794c:	aa1303e1 	mov	x1, x19
    7950:	aa1403e2 	mov	x2, x20
    7954:	aa1303e0 	mov	x0, x19
    7958:	97fff766 	bl	56f0 <mbedtls_mpi_add_mpi>
    795c:	2a0003e1 	mov	w1, w0
    7960:	34ffefc0 	cbz	w0, 7758 <mbedtls_mpi_inv_mod+0x200>
    7964:	17ffff9a 	b	77cc <mbedtls_mpi_inv_mod+0x274>
/home/fangjiang/workspace/optee-os/lib/libmbedtls/mbedtls/library/bignum.c:2940
    7968:	aa1303e1 	mov	x1, x19
    796c:	aa1403e2 	mov	x2, x20
    7970:	aa1303e0 	mov	x0, x19
    7974:	97fff781 	bl	5778 <mbedtls_mpi_sub_mpi>
    7978:	2a0003e1 	mov	w1, w0
    797c:	34ffef60 	cbz	w0, 7768 <mbedtls_mpi_inv_mod+0x210>
    7980:	17ffff93 	b	77cc <mbedtls_mpi_inv_mod+0x274>
/home/fangjiang/workspace/optee-os/lib/libmbedtls/mbedtls/library/bignum.c:2877
    7984:	128001a1 	mov	w1, #0xfffffff2            	// #-14
    7988:	17ffff91 	b	77cc <mbedtls_mpi_inv_mod+0x274>
/home/fangjiang/workspace/optee-os/lib/libmbedtls/mbedtls/library/bignum.c:2865
    798c:	12800061 	mov	w1, #0xfffffffc            	// #-4
    7990:	17ffffa3 	b	781c <mbedtls_mpi_inv_mod+0x2c4>
/home/fangjiang/workspace/optee-os/lib/libmbedtls/mbedtls/library/bignum.c:2951
    7994:	2a0103e0 	mov	w0, w1
    7998:	a94f7bfd 	ldp	x29, x30, [sp, #240]
    799c:	a95053f3 	ldp	x19, x20, [sp, #256]
    79a0:	a9515bf5 	ldp	x21, x22, [sp, #272]
    79a4:	a95263f7 	ldp	x23, x24, [sp, #288]
    79a8:	a9536bf9 	ldp	x25, x26, [sp, #304]
    79ac:	a95473fb 	ldp	x27, x28, [sp, #320]
    79b0:	910543ff 	add	sp, sp, #0x150
    79b4:	d65f03c0 	ret

00000000000079b8 <mbedtls_mpi_is_prime_ext>:
mbedtls_mpi_is_prime_ext():
/home/fangjiang/workspace/optee-os/lib/libmbedtls/mbedtls/library/bignum.c:3112
    79b8:	d10143ff 	sub	sp, sp, #0x50
    79bc:	f0000024 	adrp	x4, e000 <_DYNAMIC>
    79c0:	a9027bfd 	stp	x29, x30, [sp, #32]
    79c4:	910083fd 	add	x29, sp, #0x20
    79c8:	f9409884 	ldr	x4, [x4, #304]
    79cc:	a90353f3 	stp	x19, x20, [sp, #48]
    79d0:	2a0103f4 	mov	w20, w1
    79d4:	a9045bf5 	stp	x21, x22, [sp, #64]
/home/fangjiang/workspace/optee-os/lib/libmbedtls/mbedtls/library/bignum.c:3122
    79d8:	910003f3 	mov	x19, sp
/home/fangjiang/workspace/optee-os/lib/libmbedtls/mbedtls/library/bignum.c:3112
    79dc:	aa0203f5 	mov	x21, x2
    79e0:	f9400081 	ldr	x1, [x4]
    79e4:	f9000fe1 	str	x1, [sp, #24]
    79e8:	d2800001 	mov	x1, #0x0                   	// #0
    79ec:	aa0303f6 	mov	x22, x3
/home/fangjiang/workspace/optee-os/lib/libmbedtls/mbedtls/library/bignum.c:3118
    79f0:	52800021 	mov	w1, #0x1                   	// #1
    79f4:	790003e1 	strh	w1, [sp]
/home/fangjiang/workspace/optee-os/lib/libmbedtls/mbedtls/library/bignum.c:3120
    79f8:	a9408001 	ldp	x1, x0, [x0, #8]
    79fc:	a90083e1 	stp	x1, x0, [sp, #8]
/home/fangjiang/workspace/optee-os/lib/libmbedtls/mbedtls/library/bignum.c:3122
    7a00:	aa1303e0 	mov	x0, x19
    7a04:	52800001 	mov	w1, #0x0                   	// #0
    7a08:	97fff67b 	bl	53f4 <mbedtls_mpi_cmp_int>
    7a0c:	35000140 	cbnz	w0, 7a34 <mbedtls_mpi_is_prime_ext+0x7c>
/home/fangjiang/workspace/optee-os/lib/libmbedtls/mbedtls/library/bignum.c:3124
    7a10:	128001a0 	mov	w0, #0xfffffff2            	// #-14
/home/fangjiang/workspace/optee-os/lib/libmbedtls/mbedtls/library/bignum.c:3138
    7a14:	f0000024 	adrp	x4, e000 <_DYNAMIC>
    7a18:	f9409884 	ldr	x4, [x4, #304]
    7a1c:	f9400fe1 	ldr	x1, [sp, #24]
    7a20:	f9400082 	ldr	x2, [x4]
    7a24:	eb020021 	subs	x1, x1, x2
    7a28:	d2800002 	mov	x2, #0x0                   	// #0
    7a2c:	540002e0 	b.eq	7a88 <mbedtls_mpi_is_prime_ext+0xd0>  // b.none
    7a30:	94000544 	bl	8f40 <__stack_chk_fail>
/home/fangjiang/workspace/optee-os/lib/libmbedtls/mbedtls/library/bignum.c:3123 (discriminator 1)
    7a34:	aa1303e0 	mov	x0, x19
    7a38:	52800021 	mov	w1, #0x1                   	// #1
    7a3c:	97fff66e 	bl	53f4 <mbedtls_mpi_cmp_int>
/home/fangjiang/workspace/optee-os/lib/libmbedtls/mbedtls/library/bignum.c:3122 (discriminator 1)
    7a40:	34fffe80 	cbz	w0, 7a10 <mbedtls_mpi_is_prime_ext+0x58>
/home/fangjiang/workspace/optee-os/lib/libmbedtls/mbedtls/library/bignum.c:3126
    7a44:	aa1303e0 	mov	x0, x19
    7a48:	52800041 	mov	w1, #0x2                   	// #2
    7a4c:	97fff66a 	bl	53f4 <mbedtls_mpi_cmp_int>
    7a50:	340000c0 	cbz	w0, 7a68 <mbedtls_mpi_is_prime_ext+0xb0>
/home/fangjiang/workspace/optee-os/lib/libmbedtls/mbedtls/library/bignum.c:3129
    7a54:	aa1303e0 	mov	x0, x19
    7a58:	97fffb25 	bl	66ec <mpi_check_small_factors>
    7a5c:	340000a0 	cbz	w0, 7a70 <mbedtls_mpi_is_prime_ext+0xb8>
/home/fangjiang/workspace/optee-os/lib/libmbedtls/mbedtls/library/bignum.c:3131
    7a60:	7100041f 	cmp	w0, #0x1
    7a64:	54fffd81 	b.ne	7a14 <mbedtls_mpi_is_prime_ext+0x5c>  // b.any
/home/fangjiang/workspace/optee-os/lib/libmbedtls/mbedtls/library/bignum.c:3132
    7a68:	52800000 	mov	w0, #0x0                   	// #0
    7a6c:	17ffffea 	b	7a14 <mbedtls_mpi_is_prime_ext+0x5c>
/home/fangjiang/workspace/optee-os/lib/libmbedtls/mbedtls/library/bignum.c:3137
    7a70:	aa1603e3 	mov	x3, x22
    7a74:	aa1503e2 	mov	x2, x21
    7a78:	93407e81 	sxtw	x1, w20
    7a7c:	aa1303e0 	mov	x0, x19
    7a80:	97fffd9b 	bl	70ec <mpi_miller_rabin>
    7a84:	17ffffe4 	b	7a14 <mbedtls_mpi_is_prime_ext+0x5c>
/home/fangjiang/workspace/optee-os/lib/libmbedtls/mbedtls/library/bignum.c:3138
    7a88:	a9427bfd 	ldp	x29, x30, [sp, #32]
    7a8c:	a94353f3 	ldp	x19, x20, [sp, #48]
    7a90:	a9445bf5 	ldp	x21, x22, [sp, #64]
    7a94:	910143ff 	add	sp, sp, #0x50
    7a98:	d65f03c0 	ret

0000000000007a9c <mbedtls_mpi_is_prime>:
mbedtls_mpi_is_prime():
/home/fangjiang/workspace/optee-os/lib/libmbedtls/mbedtls/library/bignum.c:3156
    7a9c:	aa0203e3 	mov	x3, x2
    7aa0:	aa0103e2 	mov	x2, x1
    7aa4:	52800501 	mov	w1, #0x28                  	// #40
    7aa8:	17ffffc4 	b	79b8 <mbedtls_mpi_is_prime_ext>

0000000000007aac <mbedtls_mpi_gen_prime>:
mbedtls_mpi_gen_prime():
/home/fangjiang/workspace/optee-os/lib/libmbedtls/mbedtls/library/bignum.c:3170
    7aac:	d10283ff 	sub	sp, sp, #0xa0
    7ab0:	a9047bfd 	stp	x29, x30, [sp, #64]
    7ab4:	910103fd 	add	x29, sp, #0x40
    7ab8:	a90553f3 	stp	x19, x20, [sp, #80]
    7abc:	aa0003f3 	mov	x19, x0
    7ac0:	f0000020 	adrp	x0, e000 <_DYNAMIC>
    7ac4:	a9065bf5 	stp	x21, x22, [sp, #96]
    7ac8:	f9409800 	ldr	x0, [x0, #304]
    7acc:	a90763f7 	stp	x23, x24, [sp, #112]
    7ad0:	a9086bf9 	stp	x25, x26, [sp, #128]
    7ad4:	a90973fb 	stp	x27, x28, [sp, #144]
    7ad8:	aa0103fc 	mov	x28, x1
    7adc:	f9400001 	ldr	x1, [x0]
    7ae0:	f9001fe1 	str	x1, [sp, #56]
    7ae4:	d2800001 	mov	x1, #0x0                   	// #0
/home/fangjiang/workspace/optee-os/lib/libmbedtls/mbedtls/library/bignum.c:3187
    7ae8:	d283ffa0 	mov	x0, #0x1ffd                	// #8189
    7aec:	d1000f81 	sub	x1, x28, #0x3
    7af0:	eb00003f 	cmp	x1, x0
    7af4:	54001708 	b.hi	7dd4 <mbedtls_mpi_gen_prime+0x328>  // b.pmore
/home/fangjiang/workspace/optee-os/lib/libmbedtls/mbedtls/library/bignum.c:3190
    7af8:	910083f4 	add	x20, sp, #0x20
    7afc:	2a0203f8 	mov	w24, w2
    7b00:	aa1403e0 	mov	x0, x20
    7b04:	aa0303f6 	mov	x22, x3
    7b08:	aa0403f7 	mov	x23, x4
    7b0c:	97fff2a0 	bl	458c <mbedtls_mpi_init_mempool>
/home/fangjiang/workspace/optee-os/lib/libmbedtls/mbedtls/library/bignum.c:3192
    7b10:	f240139f 	tst	x28, #0x1f
    7b14:	d345ff95 	lsr	x21, x28, #5
    7b18:	9a9506a0 	cinc	x0, x21, ne  // ne = any
/home/fangjiang/workspace/optee-os/lib/libmbedtls/mbedtls/library/bignum.c:3194
    7b1c:	37080d58 	tbnz	w24, #1, 7cc4 <mbedtls_mpi_gen_prime+0x218>
/home/fangjiang/workspace/optee-os/lib/libmbedtls/mbedtls/library/bignum.c:3199
    7b20:	f1144f9f 	cmp	x28, #0x513
    7b24:	54000f48 	b.hi	7d0c <mbedtls_mpi_gen_prime+0x260>  // b.pmore
/home/fangjiang/workspace/optee-os/lib/libmbedtls/mbedtls/library/bignum.c:3199 (discriminator 1)
    7b28:	f10d479f 	cmp	x28, #0x351
    7b2c:	54000f48 	b.hi	7d14 <mbedtls_mpi_gen_prime+0x268>  // b.pmore
/home/fangjiang/workspace/optee-os/lib/libmbedtls/mbedtls/library/bignum.c:3200
    7b30:	f10a279f 	cmp	x28, #0x289
    7b34:	54000f88 	b.hi	7d24 <mbedtls_mpi_gen_prime+0x278>  // b.pmore
/home/fangjiang/workspace/optee-os/lib/libmbedtls/mbedtls/library/bignum.c:3200 (discriminator 1)
    7b38:	f105779f 	cmp	x28, #0x15d
    7b3c:	54001048 	b.hi	7d44 <mbedtls_mpi_gen_prime+0x298>  // b.pmore
/home/fangjiang/workspace/optee-os/lib/libmbedtls/mbedtls/library/bignum.c:3201
    7b40:	f103e79f 	cmp	x28, #0xf9
    7b44:	54000ec8 	b.hi	7d1c <mbedtls_mpi_gen_prime+0x270>  // b.pmore
/home/fangjiang/workspace/optee-os/lib/libmbedtls/mbedtls/library/bignum.c:3201 (discriminator 1)
    7b48:	f102579f 	cmp	x28, #0x95
    7b4c:	52800255 	mov	w21, #0x12                  	// #18
    7b50:	52800361 	mov	w1, #0x1b                  	// #27
/home/fangjiang/workspace/optee-os/lib/libmbedtls/mbedtls/library/bignum.c:3212 (discriminator 1)
    7b54:	1a8182ba 	csel	w26, w21, w1, hi  // hi = pmore
/home/fangjiang/workspace/optee-os/lib/libmbedtls/mbedtls/library/bignum.c:3221
    7b58:	d37be815 	lsl	x21, x0, #5
/home/fangjiang/workspace/optee-os/lib/libmbedtls/mbedtls/library/bignum.c:3217
    7b5c:	d37ef419 	lsl	x25, x0, #2
/home/fangjiang/workspace/optee-os/lib/libmbedtls/mbedtls/library/bignum.c:3222
    7b60:	cb1c02bb 	sub	x27, x21, x28
/home/fangjiang/workspace/optee-os/lib/libmbedtls/mbedtls/library/bignum.c:3225
    7b64:	12000318 	and	w24, w24, #0x1
/home/fangjiang/workspace/optee-os/lib/libmbedtls/mbedtls/library/bignum.c:3219
    7b68:	d1001321 	sub	x1, x25, #0x4
    7b6c:	f90007e1 	str	x1, [sp, #8]
/home/fangjiang/workspace/optee-os/lib/libmbedtls/mbedtls/library/bignum.c:3217
    7b70:	aa1603e2 	mov	x2, x22
    7b74:	aa1703e3 	mov	x3, x23
    7b78:	aa1903e1 	mov	x1, x25
    7b7c:	aa1303e0 	mov	x0, x19
    7b80:	97fffd41 	bl	7084 <mbedtls_mpi_fill_random>
    7b84:	2a0003e2 	mov	w2, w0
    7b88:	35000f40 	cbnz	w0, 7d70 <mbedtls_mpi_gen_prime+0x2c4>
/home/fangjiang/workspace/optee-os/lib/libmbedtls/mbedtls/library/bignum.c:3219 (discriminator 2)
    7b8c:	f94007e1 	ldr	x1, [sp, #8]
    7b90:	f9400a60 	ldr	x0, [x19, #16]
    7b94:	b8616800 	ldr	w0, [x0, x1]
    7b98:	529e6661 	mov	w1, #0xf333                	// #62259
    7b9c:	72b6a081 	movk	w1, #0xb504, lsl #16
    7ba0:	6b01001f 	cmp	w0, w1
    7ba4:	54fffe69 	b.ls	7b70 <mbedtls_mpi_gen_prime+0xc4>  // b.plast
/home/fangjiang/workspace/optee-os/lib/libmbedtls/mbedtls/library/bignum.c:3222
    7ba8:	eb15039f 	cmp	x28, x21
    7bac:	54000d83 	b.cc	7d5c <mbedtls_mpi_gen_prime+0x2b0>  // b.lo, b.ul, b.last
/home/fangjiang/workspace/optee-os/lib/libmbedtls/mbedtls/library/bignum.c:3223
    7bb0:	f9400a61 	ldr	x1, [x19, #16]
    7bb4:	b9400020 	ldr	w0, [x1]
    7bb8:	32000002 	orr	w2, w0, #0x1
    7bbc:	b9000022 	str	w2, [x1]
/home/fangjiang/workspace/optee-os/lib/libmbedtls/mbedtls/library/bignum.c:3225
    7bc0:	34000f18 	cbz	w24, 7da0 <mbedtls_mpi_gen_prime+0x2f4>
/home/fangjiang/workspace/optee-os/lib/libmbedtls/mbedtls/library/bignum.c:3240
    7bc4:	32000400 	orr	w0, w0, #0x3
    7bc8:	b9000020 	str	w0, [x1]
/home/fangjiang/workspace/optee-os/lib/libmbedtls/mbedtls/library/bignum.c:3242
    7bcc:	52800062 	mov	w2, #0x3                   	// #3
    7bd0:	aa1303e1 	mov	x1, x19
    7bd4:	910073e0 	add	x0, sp, #0x1c
    7bd8:	97fff9fe 	bl	63d0 <mbedtls_mpi_mod_int>
    7bdc:	2a0003e2 	mov	w2, w0
    7be0:	35000c80 	cbnz	w0, 7d70 <mbedtls_mpi_gen_prime+0x2c4>
/home/fangjiang/workspace/optee-os/lib/libmbedtls/mbedtls/library/bignum.c:3243 (discriminator 2)
    7be4:	b9401fe0 	ldr	w0, [sp, #28]
    7be8:	35000ee0 	cbnz	w0, 7dc4 <mbedtls_mpi_gen_prime+0x318>
/home/fangjiang/workspace/optee-os/lib/libmbedtls/mbedtls/library/bignum.c:3244
    7bec:	52800102 	mov	w2, #0x8                   	// #8
    7bf0:	aa1303e1 	mov	x1, x19
    7bf4:	aa1303e0 	mov	x0, x19
    7bf8:	97fff703 	bl	5804 <mbedtls_mpi_add_int>
    7bfc:	2a0003e2 	mov	w2, w0
    7c00:	35000b80 	cbnz	w0, 7d70 <mbedtls_mpi_gen_prime+0x2c4>
/home/fangjiang/workspace/optee-os/lib/libmbedtls/mbedtls/library/bignum.c:3249
    7c04:	aa1303e1 	mov	x1, x19
    7c08:	aa1403e0 	mov	x0, x20
    7c0c:	97fff320 	bl	488c <mbedtls_mpi_copy>
    7c10:	2a0003e2 	mov	w2, w0
    7c14:	35000ae0 	cbnz	w0, 7d70 <mbedtls_mpi_gen_prime+0x2c4>
/home/fangjiang/workspace/optee-os/lib/libmbedtls/mbedtls/library/bignum.c:3250 (discriminator 2)
    7c18:	aa1403e0 	mov	x0, x20
    7c1c:	d2800021 	mov	x1, #0x1                   	// #1
    7c20:	97fff539 	bl	5104 <mbedtls_mpi_shift_r>
    7c24:	2a0003e2 	mov	w2, w0
    7c28:	35000a40 	cbnz	w0, 7d70 <mbedtls_mpi_gen_prime+0x2c4>
/home/fangjiang/workspace/optee-os/lib/libmbedtls/mbedtls/library/bignum.c:3260
    7c2c:	93407f55 	sxtw	x21, w26
/home/fangjiang/workspace/optee-os/lib/libmbedtls/mbedtls/library/bignum.c:3258 (discriminator 2)
    7c30:	aa1303e0 	mov	x0, x19
    7c34:	97fffaae 	bl	66ec <mpi_check_small_factors>
    7c38:	2a0003e2 	mov	w2, w0
    7c3c:	35000260 	cbnz	w0, 7c88 <mbedtls_mpi_gen_prime+0x1dc>
/home/fangjiang/workspace/optee-os/lib/libmbedtls/mbedtls/library/bignum.c:3259 (discriminator 1)
    7c40:	aa1403e0 	mov	x0, x20
    7c44:	97fffaaa 	bl	66ec <mpi_check_small_factors>
    7c48:	2a0003e2 	mov	w2, w0
/home/fangjiang/workspace/optee-os/lib/libmbedtls/mbedtls/library/bignum.c:3258 (discriminator 1)
    7c4c:	350001e0 	cbnz	w0, 7c88 <mbedtls_mpi_gen_prime+0x1dc>
/home/fangjiang/workspace/optee-os/lib/libmbedtls/mbedtls/library/bignum.c:3260
    7c50:	aa1603e2 	mov	x2, x22
    7c54:	aa1703e3 	mov	x3, x23
    7c58:	aa1503e1 	mov	x1, x21
    7c5c:	aa1303e0 	mov	x0, x19
    7c60:	97fffd23 	bl	70ec <mpi_miller_rabin>
    7c64:	2a0003e2 	mov	w2, w0
/home/fangjiang/workspace/optee-os/lib/libmbedtls/mbedtls/library/bignum.c:3259
    7c68:	35000100 	cbnz	w0, 7c88 <mbedtls_mpi_gen_prime+0x1dc>
/home/fangjiang/workspace/optee-os/lib/libmbedtls/mbedtls/library/bignum.c:3262
    7c6c:	aa1603e2 	mov	x2, x22
    7c70:	aa1703e3 	mov	x3, x23
    7c74:	aa1503e1 	mov	x1, x21
    7c78:	aa1403e0 	mov	x0, x20
    7c7c:	97fffd1c 	bl	70ec <mpi_miller_rabin>
    7c80:	2a0003e2 	mov	w2, w0
/home/fangjiang/workspace/optee-os/lib/libmbedtls/mbedtls/library/bignum.c:3261
    7c84:	34000760 	cbz	w0, 7d70 <mbedtls_mpi_gen_prime+0x2c4>
/home/fangjiang/workspace/optee-os/lib/libmbedtls/mbedtls/library/bignum.c:3266
    7c88:	3100385f 	cmn	w2, #0xe
    7c8c:	54000721 	b.ne	7d70 <mbedtls_mpi_gen_prime+0x2c4>  // b.any
/home/fangjiang/workspace/optee-os/lib/libmbedtls/mbedtls/library/bignum.c:3274
    7c90:	52800182 	mov	w2, #0xc                   	// #12
    7c94:	aa1303e1 	mov	x1, x19
    7c98:	aa1303e0 	mov	x0, x19
    7c9c:	97fff6da 	bl	5804 <mbedtls_mpi_add_int>
    7ca0:	2a0003e2 	mov	w2, w0
    7ca4:	35000660 	cbnz	w0, 7d70 <mbedtls_mpi_gen_prime+0x2c4>
/home/fangjiang/workspace/optee-os/lib/libmbedtls/mbedtls/library/bignum.c:3275 (discriminator 2)
    7ca8:	528000c2 	mov	w2, #0x6                   	// #6
    7cac:	aa1403e1 	mov	x1, x20
    7cb0:	aa1403e0 	mov	x0, x20
    7cb4:	97fff6d4 	bl	5804 <mbedtls_mpi_add_int>
    7cb8:	2a0003e2 	mov	w2, w0
    7cbc:	34fffba0 	cbz	w0, 7c30 <mbedtls_mpi_gen_prime+0x184>
    7cc0:	1400002c 	b	7d70 <mbedtls_mpi_gen_prime+0x2c4>
/home/fangjiang/workspace/optee-os/lib/libmbedtls/mbedtls/library/bignum.c:3209
    7cc4:	f116a79f 	cmp	x28, #0x5a9
    7cc8:	540002e8 	b.hi	7d24 <mbedtls_mpi_gen_prime+0x278>  // b.pmore
/home/fangjiang/workspace/optee-os/lib/libmbedtls/mbedtls/library/bignum.c:3209 (discriminator 1)
    7ccc:	f111f79f 	cmp	x28, #0x47d
    7cd0:	540002e8 	b.hi	7d2c <mbedtls_mpi_gen_prime+0x280>  // b.pmore
/home/fangjiang/workspace/optee-os/lib/libmbedtls/mbedtls/library/bignum.c:3210
    7cd4:	f10f9f9f 	cmp	x28, #0x3e7
    7cd8:	540002e8 	b.hi	7d34 <mbedtls_mpi_gen_prime+0x288>  // b.pmore
/home/fangjiang/workspace/optee-os/lib/libmbedtls/mbedtls/library/bignum.c:3210 (discriminator 1)
    7cdc:	f10d479f 	cmp	x28, #0x351
    7ce0:	540002e8 	b.hi	7d3c <mbedtls_mpi_gen_prime+0x290>  // b.pmore
/home/fangjiang/workspace/optee-os/lib/libmbedtls/mbedtls/library/bignum.c:3211
    7ce4:	f10bb79f 	cmp	x28, #0x2ed
    7ce8:	540002e8 	b.hi	7d44 <mbedtls_mpi_gen_prime+0x298>  // b.pmore
/home/fangjiang/workspace/optee-os/lib/libmbedtls/mbedtls/library/bignum.c:3211 (discriminator 1)
    7cec:	f107cf9f 	cmp	x28, #0x1f3
    7cf0:	540002e8 	b.hi	7d4c <mbedtls_mpi_gen_prime+0x2a0>  // b.pmore
/home/fangjiang/workspace/optee-os/lib/libmbedtls/mbedtls/library/bignum.c:3212
    7cf4:	f103e79f 	cmp	x28, #0xf9
    7cf8:	540002e8 	b.hi	7d54 <mbedtls_mpi_gen_prime+0x2a8>  // b.pmore
/home/fangjiang/workspace/optee-os/lib/libmbedtls/mbedtls/library/bignum.c:3212 (discriminator 1)
    7cfc:	f102579f 	cmp	x28, #0x95
    7d00:	52800515 	mov	w21, #0x28                  	// #40
    7d04:	52800661 	mov	w1, #0x33                  	// #51
    7d08:	17ffff93 	b	7b54 <mbedtls_mpi_gen_prime+0xa8>
/home/fangjiang/workspace/optee-os/lib/libmbedtls/mbedtls/library/bignum.c:3199
    7d0c:	5280005a 	mov	w26, #0x2                   	// #2
    7d10:	17ffff92 	b	7b58 <mbedtls_mpi_gen_prime+0xac>
    7d14:	5280007a 	mov	w26, #0x3                   	// #3
    7d18:	17ffff90 	b	7b58 <mbedtls_mpi_gen_prime+0xac>
/home/fangjiang/workspace/optee-os/lib/libmbedtls/mbedtls/library/bignum.c:3201
    7d1c:	5280019a 	mov	w26, #0xc                   	// #12
    7d20:	17ffff8e 	b	7b58 <mbedtls_mpi_gen_prime+0xac>
/home/fangjiang/workspace/optee-os/lib/libmbedtls/mbedtls/library/bignum.c:3200
    7d24:	5280009a 	mov	w26, #0x4                   	// #4
    7d28:	17ffff8c 	b	7b58 <mbedtls_mpi_gen_prime+0xac>
/home/fangjiang/workspace/optee-os/lib/libmbedtls/mbedtls/library/bignum.c:3209
    7d2c:	528000ba 	mov	w26, #0x5                   	// #5
    7d30:	17ffff8a 	b	7b58 <mbedtls_mpi_gen_prime+0xac>
/home/fangjiang/workspace/optee-os/lib/libmbedtls/mbedtls/library/bignum.c:3210
    7d34:	528000da 	mov	w26, #0x6                   	// #6
    7d38:	17ffff88 	b	7b58 <mbedtls_mpi_gen_prime+0xac>
    7d3c:	528000fa 	mov	w26, #0x7                   	// #7
    7d40:	17ffff86 	b	7b58 <mbedtls_mpi_gen_prime+0xac>
/home/fangjiang/workspace/optee-os/lib/libmbedtls/mbedtls/library/bignum.c:3200
    7d44:	5280011a 	mov	w26, #0x8                   	// #8
    7d48:	17ffff84 	b	7b58 <mbedtls_mpi_gen_prime+0xac>
/home/fangjiang/workspace/optee-os/lib/libmbedtls/mbedtls/library/bignum.c:3211
    7d4c:	528001ba 	mov	w26, #0xd                   	// #13
    7d50:	17ffff82 	b	7b58 <mbedtls_mpi_gen_prime+0xac>
/home/fangjiang/workspace/optee-os/lib/libmbedtls/mbedtls/library/bignum.c:3212
    7d54:	5280039a 	mov	w26, #0x1c                  	// #28
    7d58:	17ffff80 	b	7b58 <mbedtls_mpi_gen_prime+0xac>
/home/fangjiang/workspace/optee-os/lib/libmbedtls/mbedtls/library/bignum.c:3222 (discriminator 1)
    7d5c:	aa1b03e1 	mov	x1, x27
    7d60:	aa1303e0 	mov	x0, x19
    7d64:	97fff4e8 	bl	5104 <mbedtls_mpi_shift_r>
    7d68:	2a0003e2 	mov	w2, w0
    7d6c:	34fff220 	cbz	w0, 7bb0 <mbedtls_mpi_gen_prime+0x104>
/home/fangjiang/workspace/optee-os/lib/libmbedtls/mbedtls/library/bignum.c:3282
    7d70:	aa1403e0 	mov	x0, x20
    7d74:	b9000be2 	str	w2, [sp, #8]
    7d78:	97fff20f 	bl	45b4 <mbedtls_mpi_free>
/home/fangjiang/workspace/optee-os/lib/libmbedtls/mbedtls/library/bignum.c:3284
    7d7c:	b9400be2 	ldr	w2, [sp, #8]
/home/fangjiang/workspace/optee-os/lib/libmbedtls/mbedtls/library/bignum.c:3285
    7d80:	f0000020 	adrp	x0, e000 <_DYNAMIC>
    7d84:	f9409800 	ldr	x0, [x0, #304]
    7d88:	f9401fe3 	ldr	x3, [sp, #56]
    7d8c:	f9400001 	ldr	x1, [x0]
    7d90:	eb010063 	subs	x3, x3, x1
    7d94:	d2800001 	mov	x1, #0x0                   	// #0
    7d98:	54000220 	b.eq	7ddc <mbedtls_mpi_gen_prime+0x330>  // b.none
    7d9c:	94000469 	bl	8f40 <__stack_chk_fail>
/home/fangjiang/workspace/optee-os/lib/libmbedtls/mbedtls/library/bignum.c:3227
    7da0:	aa1603e2 	mov	x2, x22
    7da4:	aa1703e3 	mov	x3, x23
    7da8:	2a1a03e1 	mov	w1, w26
    7dac:	aa1303e0 	mov	x0, x19
    7db0:	97ffff02 	bl	79b8 <mbedtls_mpi_is_prime_ext>
    7db4:	2a0003e2 	mov	w2, w0
/home/fangjiang/workspace/optee-os/lib/libmbedtls/mbedtls/library/bignum.c:3229
    7db8:	3100381f 	cmn	w0, #0xe
    7dbc:	54ffeda0 	b.eq	7b70 <mbedtls_mpi_gen_prime+0xc4>  // b.none
    7dc0:	17ffffec 	b	7d70 <mbedtls_mpi_gen_prime+0x2c4>
/home/fangjiang/workspace/optee-os/lib/libmbedtls/mbedtls/library/bignum.c:3245
    7dc4:	7100041f 	cmp	w0, #0x1
    7dc8:	54fff1e1 	b.ne	7c04 <mbedtls_mpi_gen_prime+0x158>  // b.any
/home/fangjiang/workspace/optee-os/lib/libmbedtls/mbedtls/library/bignum.c:3246
    7dcc:	52800082 	mov	w2, #0x4                   	// #4
    7dd0:	17ffff88 	b	7bf0 <mbedtls_mpi_gen_prime+0x144>
/home/fangjiang/workspace/optee-os/lib/libmbedtls/mbedtls/library/bignum.c:3188
    7dd4:	12800062 	mov	w2, #0xfffffffc            	// #-4
    7dd8:	17ffffea 	b	7d80 <mbedtls_mpi_gen_prime+0x2d4>
/home/fangjiang/workspace/optee-os/lib/libmbedtls/mbedtls/library/bignum.c:3285
    7ddc:	2a0203e0 	mov	w0, w2
    7de0:	a9447bfd 	ldp	x29, x30, [sp, #64]
    7de4:	a94553f3 	ldp	x19, x20, [sp, #80]
    7de8:	a9465bf5 	ldp	x21, x22, [sp, #96]
    7dec:	a94763f7 	ldp	x23, x24, [sp, #112]
    7df0:	a9486bf9 	ldp	x25, x26, [sp, #128]
    7df4:	a94973fb 	ldp	x27, x28, [sp, #144]
    7df8:	910283ff 	add	sp, sp, #0xa0
    7dfc:	d65f03c0 	ret

0000000000007e00 <mbedtls_mpi_self_test>:
mbedtls_mpi_self_test():
/home/fangjiang/workspace/optee-os/lib/libmbedtls/mbedtls/library/bignum.c:3304
    7e00:	d10483ff 	sub	sp, sp, #0x120
    7e04:	a90c7bfd 	stp	x29, x30, [sp, #192]
    7e08:	910303fd 	add	x29, sp, #0xc0
    7e0c:	a90d53f3 	stp	x19, x20, [sp, #208]
    7e10:	2a0003f3 	mov	w19, w0
    7e14:	f0000020 	adrp	x0, e000 <_DYNAMIC>
    7e18:	a90e5bf5 	stp	x21, x22, [sp, #224]
/home/fangjiang/workspace/optee-os/lib/libmbedtls/mbedtls/library/bignum.c:3308
    7e1c:	910043f6 	add	x22, sp, #0x10
/home/fangjiang/workspace/optee-os/lib/libmbedtls/mbedtls/library/bignum.c:3309
    7e20:	910163f4 	add	x20, sp, #0x58
/home/fangjiang/workspace/optee-os/lib/libmbedtls/mbedtls/library/bignum.c:3304
    7e24:	f9409800 	ldr	x0, [x0, #304]
    7e28:	a90f63f7 	stp	x23, x24, [sp, #240]
/home/fangjiang/workspace/optee-os/lib/libmbedtls/mbedtls/library/bignum.c:3309
    7e2c:	910103f8 	add	x24, sp, #0x40
/home/fangjiang/workspace/optee-os/lib/libmbedtls/mbedtls/library/bignum.c:3304
    7e30:	a9106bf9 	stp	x25, x26, [sp, #256]
/home/fangjiang/workspace/optee-os/lib/libmbedtls/mbedtls/library/bignum.c:3310
    7e34:	9101c3fa 	add	x26, sp, #0x70
    7e38:	910223f5 	add	x21, sp, #0x88
/home/fangjiang/workspace/optee-os/lib/libmbedtls/mbedtls/library/bignum.c:3304
    7e3c:	a91173fb 	stp	x27, x28, [sp, #272]
/home/fangjiang/workspace/optee-os/lib/libmbedtls/mbedtls/library/bignum.c:3308
    7e40:	9100a3fc 	add	x28, sp, #0x28
/home/fangjiang/workspace/optee-os/lib/libmbedtls/mbedtls/library/bignum.c:3311
    7e44:	910283fb 	add	x27, sp, #0xa0
/home/fangjiang/workspace/optee-os/lib/libmbedtls/mbedtls/library/bignum.c:3304
    7e48:	f9400001 	ldr	x1, [x0]
    7e4c:	f9005fe1 	str	x1, [sp, #184]
    7e50:	d2800001 	mov	x1, #0x0                   	// #0
/home/fangjiang/workspace/optee-os/lib/libmbedtls/mbedtls/library/bignum.c:3308
    7e54:	aa1603e0 	mov	x0, x22
    7e58:	97fff1cd 	bl	458c <mbedtls_mpi_init_mempool>
    7e5c:	aa1c03e0 	mov	x0, x28
    7e60:	97fff1cb 	bl	458c <mbedtls_mpi_init_mempool>
/home/fangjiang/workspace/optee-os/lib/libmbedtls/mbedtls/library/bignum.c:3309
    7e64:	aa1803e0 	mov	x0, x24
    7e68:	97fff1c9 	bl	458c <mbedtls_mpi_init_mempool>
    7e6c:	aa1403e0 	mov	x0, x20
    7e70:	97fff1c7 	bl	458c <mbedtls_mpi_init_mempool>
/home/fangjiang/workspace/optee-os/lib/libmbedtls/mbedtls/library/bignum.c:3310
    7e74:	aa1a03e0 	mov	x0, x26
    7e78:	97fff1c5 	bl	458c <mbedtls_mpi_init_mempool>
    7e7c:	aa1503e0 	mov	x0, x21
    7e80:	97fff1c3 	bl	458c <mbedtls_mpi_init_mempool>
/home/fangjiang/workspace/optee-os/lib/libmbedtls/mbedtls/library/bignum.c:3311
    7e84:	aa1b03e0 	mov	x0, x27
    7e88:	97fff1c1 	bl	458c <mbedtls_mpi_init_mempool>
/home/fangjiang/workspace/optee-os/lib/libmbedtls/mbedtls/library/bignum.c:3313
    7e8c:	aa1603e0 	mov	x0, x22
    7e90:	b0000022 	adrp	x2, c000 <__text_end+0x1cb0>
    7e94:	52800201 	mov	w1, #0x10                  	// #16
    7e98:	912a3442 	add	x2, x2, #0xa8d
    7e9c:	97fff731 	bl	5b60 <mbedtls_mpi_read_string>
    7ea0:	2a0003f7 	mov	w23, w0
    7ea4:	350004c0 	cbnz	w0, 7f3c <mbedtls_mpi_self_test+0x13c>
/home/fangjiang/workspace/optee-os/lib/libmbedtls/mbedtls/library/bignum.c:3319 (discriminator 2)
    7ea8:	aa1c03e0 	mov	x0, x28
    7eac:	b0000022 	adrp	x2, c000 <__text_end+0x1cb0>
    7eb0:	52800201 	mov	w1, #0x10                  	// #16
    7eb4:	912c3842 	add	x2, x2, #0xb0e
    7eb8:	97fff72a 	bl	5b60 <mbedtls_mpi_read_string>
    7ebc:	2a0003f7 	mov	w23, w0
    7ec0:	350003e0 	cbnz	w0, 7f3c <mbedtls_mpi_self_test+0x13c>
/home/fangjiang/workspace/optee-os/lib/libmbedtls/mbedtls/library/bignum.c:3325 (discriminator 2)
    7ec4:	aa1803e0 	mov	x0, x24
    7ec8:	b0000022 	adrp	x2, c000 <__text_end+0x1cb0>
    7ecc:	52800201 	mov	w1, #0x10                  	// #16
    7ed0:	912e3c42 	add	x2, x2, #0xb8f
    7ed4:	97fff723 	bl	5b60 <mbedtls_mpi_read_string>
    7ed8:	2a0003f7 	mov	w23, w0
    7edc:	35000300 	cbnz	w0, 7f3c <mbedtls_mpi_self_test+0x13c>
/home/fangjiang/workspace/optee-os/lib/libmbedtls/mbedtls/library/bignum.c:3330 (discriminator 2)
    7ee0:	aa1803e2 	mov	x2, x24
    7ee4:	aa1603e1 	mov	x1, x22
    7ee8:	aa1403e0 	mov	x0, x20
    7eec:	97fff686 	bl	5904 <mbedtls_mpi_mul_mpi>
    7ef0:	2a0003f7 	mov	w23, w0
    7ef4:	35000240 	cbnz	w0, 7f3c <mbedtls_mpi_self_test+0x13c>
/home/fangjiang/workspace/optee-os/lib/libmbedtls/mbedtls/library/bignum.c:3332 (discriminator 2)
    7ef8:	aa1503e0 	mov	x0, x21
    7efc:	b0000022 	adrp	x2, c000 <__text_end+0x1cb0>
    7f00:	52800201 	mov	w1, #0x10                  	// #16
    7f04:	912fc042 	add	x2, x2, #0xbf0
    7f08:	97fff716 	bl	5b60 <mbedtls_mpi_read_string>
    7f0c:	2a0003f7 	mov	w23, w0
    7f10:	35000160 	cbnz	w0, 7f3c <mbedtls_mpi_self_test+0x13c>
/home/fangjiang/workspace/optee-os/lib/libmbedtls/mbedtls/library/bignum.c:3341 (discriminator 2)
    7f14:	34000093 	cbz	w19, 7f24 <mbedtls_mpi_self_test+0x124>
/home/fangjiang/workspace/optee-os/lib/libmbedtls/mbedtls/library/bignum.c:3342
    7f18:	b0000020 	adrp	x0, c000 <__text_end+0x1cb0>
    7f1c:	91333c00 	add	x0, x0, #0xccf
    7f20:	97ffe35e 	bl	c98 <printf>
/home/fangjiang/workspace/optee-os/lib/libmbedtls/mbedtls/library/bignum.c:3344
    7f24:	aa1503e1 	mov	x1, x21
    7f28:	aa1403e0 	mov	x0, x20
    7f2c:	97fff4cd 	bl	5260 <mbedtls_mpi_cmp_mpi>
    7f30:	340004e0 	cbz	w0, 7fcc <mbedtls_mpi_self_test+0x1cc>
/home/fangjiang/workspace/optee-os/lib/libmbedtls/mbedtls/library/bignum.c:3346
    7f34:	35000453 	cbnz	w19, 7fbc <mbedtls_mpi_self_test+0x1bc>
/home/fangjiang/workspace/optee-os/lib/libmbedtls/mbedtls/library/bignum.c:3349
    7f38:	52800037 	mov	w23, #0x1                   	// #1
/home/fangjiang/workspace/optee-os/lib/libmbedtls/mbedtls/library/bignum.c:3451
    7f3c:	710002ff 	cmp	w23, #0x0
    7f40:	7a401a64 	ccmp	w19, #0x0, #0x4, ne  // ne = any
    7f44:	540000a0 	b.eq	7f58 <mbedtls_mpi_self_test+0x158>  // b.none
/home/fangjiang/workspace/optee-os/lib/libmbedtls/mbedtls/library/bignum.c:3452
    7f48:	b0000020 	adrp	x0, c000 <__text_end+0x1cb0>
    7f4c:	2a1703e1 	mov	w1, w23
    7f50:	913ab000 	add	x0, x0, #0xeac
    7f54:	97ffe351 	bl	c98 <printf>
/home/fangjiang/workspace/optee-os/lib/libmbedtls/mbedtls/library/bignum.c:3454
    7f58:	aa1603e0 	mov	x0, x22
    7f5c:	97fff196 	bl	45b4 <mbedtls_mpi_free>
    7f60:	aa1c03e0 	mov	x0, x28
    7f64:	97fff194 	bl	45b4 <mbedtls_mpi_free>
    7f68:	aa1803e0 	mov	x0, x24
    7f6c:	97fff192 	bl	45b4 <mbedtls_mpi_free>
    7f70:	aa1403e0 	mov	x0, x20
    7f74:	97fff190 	bl	45b4 <mbedtls_mpi_free>
/home/fangjiang/workspace/optee-os/lib/libmbedtls/mbedtls/library/bignum.c:3455
    7f78:	aa1a03e0 	mov	x0, x26
    7f7c:	97fff18e 	bl	45b4 <mbedtls_mpi_free>
    7f80:	aa1503e0 	mov	x0, x21
    7f84:	97fff18c 	bl	45b4 <mbedtls_mpi_free>
    7f88:	aa1b03e0 	mov	x0, x27
    7f8c:	97fff18a 	bl	45b4 <mbedtls_mpi_free>
/home/fangjiang/workspace/optee-os/lib/libmbedtls/mbedtls/library/bignum.c:3457
    7f90:	34000073 	cbz	w19, 7f9c <mbedtls_mpi_self_test+0x19c>
/home/fangjiang/workspace/optee-os/lib/libmbedtls/mbedtls/library/bignum.c:3458
    7f94:	52800140 	mov	w0, #0xa                   	// #10
    7f98:	97ffe390 	bl	dd8 <putchar>
/home/fangjiang/workspace/optee-os/lib/libmbedtls/mbedtls/library/bignum.c:3461
    7f9c:	f0000020 	adrp	x0, e000 <_DYNAMIC>
    7fa0:	f9409800 	ldr	x0, [x0, #304]
    7fa4:	f9405fe1 	ldr	x1, [sp, #184]
    7fa8:	f9400002 	ldr	x2, [x0]
    7fac:	eb020021 	subs	x1, x1, x2
    7fb0:	d2800002 	mov	x2, #0x0                   	// #0
    7fb4:	54001280 	b.eq	8204 <mbedtls_mpi_self_test+0x404>  // b.none
    7fb8:	940003e2 	bl	8f40 <__stack_chk_fail>
/home/fangjiang/workspace/optee-os/lib/libmbedtls/mbedtls/library/bignum.c:3347
    7fbc:	b0000020 	adrp	x0, c000 <__text_end+0x1cb0>
    7fc0:	9128b800 	add	x0, x0, #0xa2e
    7fc4:	97ffe375 	bl	d98 <puts>
    7fc8:	17ffffdc 	b	7f38 <mbedtls_mpi_self_test+0x138>
/home/fangjiang/workspace/optee-os/lib/libmbedtls/mbedtls/library/bignum.c:3353
    7fcc:	34000093 	cbz	w19, 7fdc <mbedtls_mpi_self_test+0x1dc>
/home/fangjiang/workspace/optee-os/lib/libmbedtls/mbedtls/library/bignum.c:3354
    7fd0:	b0000020 	adrp	x0, c000 <__text_end+0x1cb0>
    7fd4:	9133a400 	add	x0, x0, #0xce9
    7fd8:	97ffe370 	bl	d98 <puts>
/home/fangjiang/workspace/optee-os/lib/libmbedtls/mbedtls/library/bignum.c:3356
    7fdc:	aa1803e3 	mov	x3, x24
    7fe0:	aa1603e2 	mov	x2, x22
    7fe4:	aa1a03e1 	mov	x1, x26
    7fe8:	aa1403e0 	mov	x0, x20
    7fec:	97fff762 	bl	5d74 <mbedtls_mpi_div_mpi>
    7ff0:	2a0003f7 	mov	w23, w0
    7ff4:	35fffa40 	cbnz	w0, 7f3c <mbedtls_mpi_self_test+0x13c>
/home/fangjiang/workspace/optee-os/lib/libmbedtls/mbedtls/library/bignum.c:3358 (discriminator 2)
    7ff8:	aa1503e0 	mov	x0, x21
    7ffc:	b0000022 	adrp	x2, c000 <__text_end+0x1cb0>
    8000:	52800201 	mov	w1, #0x10                  	// #16
    8004:	9133c042 	add	x2, x2, #0xcf0
    8008:	97fff6d6 	bl	5b60 <mbedtls_mpi_read_string>
    800c:	2a0003f7 	mov	w23, w0
    8010:	35fff960 	cbnz	w0, 7f3c <mbedtls_mpi_self_test+0x13c>
/home/fangjiang/workspace/optee-os/lib/libmbedtls/mbedtls/library/bignum.c:3361 (discriminator 2)
    8014:	aa1b03e0 	mov	x0, x27
    8018:	90000022 	adrp	x2, c000 <__text_end+0x1cb0>
    801c:	52800201 	mov	w1, #0x10                  	// #16
    8020:	91345042 	add	x2, x2, #0xd14
    8024:	97fff6cf 	bl	5b60 <mbedtls_mpi_read_string>
    8028:	2a0003f7 	mov	w23, w0
    802c:	35fff880 	cbnz	w0, 7f3c <mbedtls_mpi_self_test+0x13c>
/home/fangjiang/workspace/optee-os/lib/libmbedtls/mbedtls/library/bignum.c:3366 (discriminator 2)
    8030:	34000093 	cbz	w19, 8040 <mbedtls_mpi_self_test+0x240>
/home/fangjiang/workspace/optee-os/lib/libmbedtls/mbedtls/library/bignum.c:3367
    8034:	90000020 	adrp	x0, c000 <__text_end+0x1cb0>
    8038:	9135cc00 	add	x0, x0, #0xd73
    803c:	97ffe317 	bl	c98 <printf>
/home/fangjiang/workspace/optee-os/lib/libmbedtls/mbedtls/library/bignum.c:3369
    8040:	aa1503e1 	mov	x1, x21
    8044:	aa1403e0 	mov	x0, x20
    8048:	97fff486 	bl	5260 <mbedtls_mpi_cmp_mpi>
    804c:	35fff740 	cbnz	w0, 7f34 <mbedtls_mpi_self_test+0x134>
/home/fangjiang/workspace/optee-os/lib/libmbedtls/mbedtls/library/bignum.c:3370 (discriminator 1)
    8050:	aa1b03e1 	mov	x1, x27
    8054:	aa1a03e0 	mov	x0, x26
    8058:	97fff482 	bl	5260 <mbedtls_mpi_cmp_mpi>
/home/fangjiang/workspace/optee-os/lib/libmbedtls/mbedtls/library/bignum.c:3369 (discriminator 1)
    805c:	35fff6c0 	cbnz	w0, 7f34 <mbedtls_mpi_self_test+0x134>
/home/fangjiang/workspace/optee-os/lib/libmbedtls/mbedtls/library/bignum.c:3379
    8060:	34000093 	cbz	w19, 8070 <mbedtls_mpi_self_test+0x270>
/home/fangjiang/workspace/optee-os/lib/libmbedtls/mbedtls/library/bignum.c:3380
    8064:	90000020 	adrp	x0, c000 <__text_end+0x1cb0>
    8068:	9133a400 	add	x0, x0, #0xce9
    806c:	97ffe34b 	bl	d98 <puts>
/home/fangjiang/workspace/optee-os/lib/libmbedtls/mbedtls/library/bignum.c:3382
    8070:	aa1803e3 	mov	x3, x24
    8074:	aa1c03e2 	mov	x2, x28
    8078:	aa1603e1 	mov	x1, x22
    807c:	aa1403e0 	mov	x0, x20
    8080:	d2800004 	mov	x4, #0x0                   	// #0
    8084:	97fff9d1 	bl	67c8 <mbedtls_mpi_exp_mod>
    8088:	2a0003f7 	mov	w23, w0
    808c:	35fff580 	cbnz	w0, 7f3c <mbedtls_mpi_self_test+0x13c>
/home/fangjiang/workspace/optee-os/lib/libmbedtls/mbedtls/library/bignum.c:3384 (discriminator 2)
    8090:	aa1503e0 	mov	x0, x21
    8094:	90000022 	adrp	x2, c000 <__text_end+0x1cb0>
    8098:	52800201 	mov	w1, #0x10                  	// #16
    809c:	91363442 	add	x2, x2, #0xd8d
    80a0:	97fff6b0 	bl	5b60 <mbedtls_mpi_read_string>
    80a4:	2a0003f7 	mov	w23, w0
    80a8:	35fff4a0 	cbnz	w0, 7f3c <mbedtls_mpi_self_test+0x13c>
/home/fangjiang/workspace/optee-os/lib/libmbedtls/mbedtls/library/bignum.c:3389 (discriminator 2)
    80ac:	34000093 	cbz	w19, 80bc <mbedtls_mpi_self_test+0x2bc>
/home/fangjiang/workspace/optee-os/lib/libmbedtls/mbedtls/library/bignum.c:3390
    80b0:	90000020 	adrp	x0, c000 <__text_end+0x1cb0>
    80b4:	9137b000 	add	x0, x0, #0xdec
    80b8:	97ffe2f8 	bl	c98 <printf>
/home/fangjiang/workspace/optee-os/lib/libmbedtls/mbedtls/library/bignum.c:3392
    80bc:	aa1503e1 	mov	x1, x21
    80c0:	aa1403e0 	mov	x0, x20
    80c4:	97fff467 	bl	5260 <mbedtls_mpi_cmp_mpi>
    80c8:	35fff360 	cbnz	w0, 7f34 <mbedtls_mpi_self_test+0x134>
/home/fangjiang/workspace/optee-os/lib/libmbedtls/mbedtls/library/bignum.c:3401
    80cc:	34000093 	cbz	w19, 80dc <mbedtls_mpi_self_test+0x2dc>
/home/fangjiang/workspace/optee-os/lib/libmbedtls/mbedtls/library/bignum.c:3402
    80d0:	90000020 	adrp	x0, c000 <__text_end+0x1cb0>
    80d4:	9133a400 	add	x0, x0, #0xce9
    80d8:	97ffe330 	bl	d98 <puts>
/home/fangjiang/workspace/optee-os/lib/libmbedtls/mbedtls/library/bignum.c:3404
    80dc:	aa1803e2 	mov	x2, x24
    80e0:	aa1603e1 	mov	x1, x22
    80e4:	aa1403e0 	mov	x0, x20
    80e8:	97fffd1c 	bl	7558 <mbedtls_mpi_inv_mod>
    80ec:	2a0003f7 	mov	w23, w0
    80f0:	35fff260 	cbnz	w0, 7f3c <mbedtls_mpi_self_test+0x13c>
/home/fangjiang/workspace/optee-os/lib/libmbedtls/mbedtls/library/bignum.c:3406 (discriminator 2)
    80f4:	aa1503e0 	mov	x0, x21
    80f8:	90000022 	adrp	x2, c000 <__text_end+0x1cb0>
    80fc:	52800201 	mov	w1, #0x10                  	// #16
    8100:	91381842 	add	x2, x2, #0xe06
    8104:	97fff697 	bl	5b60 <mbedtls_mpi_read_string>
    8108:	2a0003f7 	mov	w23, w0
    810c:	35fff180 	cbnz	w0, 7f3c <mbedtls_mpi_self_test+0x13c>
/home/fangjiang/workspace/optee-os/lib/libmbedtls/mbedtls/library/bignum.c:3411 (discriminator 2)
    8110:	34000093 	cbz	w19, 8120 <mbedtls_mpi_self_test+0x320>
/home/fangjiang/workspace/optee-os/lib/libmbedtls/mbedtls/library/bignum.c:3412
    8114:	90000020 	adrp	x0, c000 <__text_end+0x1cb0>
    8118:	91399c00 	add	x0, x0, #0xe67
    811c:	97ffe2df 	bl	c98 <printf>
/home/fangjiang/workspace/optee-os/lib/libmbedtls/mbedtls/library/bignum.c:3414
    8120:	aa1503e1 	mov	x1, x21
    8124:	aa1403e0 	mov	x0, x20
    8128:	97fff44e 	bl	5260 <mbedtls_mpi_cmp_mpi>
    812c:	2a0003f9 	mov	w25, w0
    8130:	35fff020 	cbnz	w0, 7f34 <mbedtls_mpi_self_test+0x134>
/home/fangjiang/workspace/optee-os/lib/libmbedtls/mbedtls/library/bignum.c:3423
    8134:	340000f3 	cbz	w19, 8150 <mbedtls_mpi_self_test+0x350>
/home/fangjiang/workspace/optee-os/lib/libmbedtls/mbedtls/library/bignum.c:3424
    8138:	90000020 	adrp	x0, c000 <__text_end+0x1cb0>
    813c:	9133a400 	add	x0, x0, #0xce9
    8140:	97ffe316 	bl	d98 <puts>
/home/fangjiang/workspace/optee-os/lib/libmbedtls/mbedtls/library/bignum.c:3427
    8144:	90000020 	adrp	x0, c000 <__text_end+0x1cb0>
    8148:	913a0400 	add	x0, x0, #0xe81
    814c:	97ffe2d3 	bl	c98 <printf>
    8150:	90000037 	adrp	x23, c000 <__text_end+0x1cb0>
    8154:	910a92f7 	add	x23, x23, #0x2a4
    8158:	910a82e0 	add	x0, x23, #0x2a0
    815c:	f90007e0 	str	x0, [sp, #8]
/home/fangjiang/workspace/optee-os/lib/libmbedtls/mbedtls/library/bignum.c:3431
    8160:	f94007e0 	ldr	x0, [sp, #8]
    8164:	b9400001 	ldr	w1, [x0]
    8168:	aa1403e0 	mov	x0, x20
    816c:	97fff289 	bl	4b90 <mbedtls_mpi_lset>
    8170:	2a0003f7 	mov	w23, w0
    8174:	35ffee40 	cbnz	w0, 7f3c <mbedtls_mpi_self_test+0x13c>
/home/fangjiang/workspace/optee-os/lib/libmbedtls/mbedtls/library/bignum.c:3432 (discriminator 2)
    8178:	f94007e0 	ldr	x0, [sp, #8]
    817c:	b9400401 	ldr	w1, [x0, #4]
    8180:	aa1a03e0 	mov	x0, x26
    8184:	97fff283 	bl	4b90 <mbedtls_mpi_lset>
    8188:	2a0003f7 	mov	w23, w0
    818c:	35ffed80 	cbnz	w0, 7f3c <mbedtls_mpi_self_test+0x13c>
/home/fangjiang/workspace/optee-os/lib/libmbedtls/mbedtls/library/bignum.c:3434 (discriminator 2)
    8190:	aa1a03e2 	mov	x2, x26
    8194:	aa1403e1 	mov	x1, x20
    8198:	aa1603e0 	mov	x0, x22
    819c:	97fffb42 	bl	6ea4 <mbedtls_mpi_gcd>
    81a0:	2a0003f7 	mov	w23, w0
    81a4:	35ffecc0 	cbnz	w0, 7f3c <mbedtls_mpi_self_test+0x13c>
/home/fangjiang/workspace/optee-os/lib/libmbedtls/mbedtls/library/bignum.c:3436 (discriminator 2)
    81a8:	f94007e0 	ldr	x0, [sp, #8]
    81ac:	b9400801 	ldr	w1, [x0, #8]
    81b0:	aa1603e0 	mov	x0, x22
    81b4:	97fff490 	bl	53f4 <mbedtls_mpi_cmp_int>
    81b8:	2a0003f7 	mov	w23, w0
    81bc:	340000e0 	cbz	w0, 81d8 <mbedtls_mpi_self_test+0x3d8>
/home/fangjiang/workspace/optee-os/lib/libmbedtls/mbedtls/library/bignum.c:3438
    81c0:	34ffebd3 	cbz	w19, 7f38 <mbedtls_mpi_self_test+0x138>
/home/fangjiang/workspace/optee-os/lib/libmbedtls/mbedtls/library/bignum.c:3439
    81c4:	2a1903e1 	mov	w1, w25
    81c8:	90000020 	adrp	x0, c000 <__text_end+0x1cb0>
    81cc:	913a7800 	add	x0, x0, #0xe9e
    81d0:	97ffe2b2 	bl	c98 <printf>
    81d4:	17ffff59 	b	7f38 <mbedtls_mpi_self_test+0x138>
/home/fangjiang/workspace/optee-os/lib/libmbedtls/mbedtls/library/bignum.c:3429 (discriminator 2)
    81d8:	f94007e0 	ldr	x0, [sp, #8]
    81dc:	11000739 	add	w25, w25, #0x1
    81e0:	91003000 	add	x0, x0, #0xc
    81e4:	f90007e0 	str	x0, [sp, #8]
    81e8:	71000f3f 	cmp	w25, #0x3
    81ec:	54fffba1 	b.ne	8160 <mbedtls_mpi_self_test+0x360>  // b.any
/home/fangjiang/workspace/optee-os/lib/libmbedtls/mbedtls/library/bignum.c:3446
    81f0:	34ffea73 	cbz	w19, 7f3c <mbedtls_mpi_self_test+0x13c>
/home/fangjiang/workspace/optee-os/lib/libmbedtls/mbedtls/library/bignum.c:3447
    81f4:	90000020 	adrp	x0, c000 <__text_end+0x1cb0>
    81f8:	9133a400 	add	x0, x0, #0xce9
    81fc:	97ffe2e7 	bl	d98 <puts>
    8200:	17ffff4f 	b	7f3c <mbedtls_mpi_self_test+0x13c>
/home/fangjiang/workspace/optee-os/lib/libmbedtls/mbedtls/library/bignum.c:3461
    8204:	2a1703e0 	mov	w0, w23
    8208:	a94c7bfd 	ldp	x29, x30, [sp, #192]
    820c:	a94d53f3 	ldp	x19, x20, [sp, #208]
    8210:	a94e5bf5 	ldp	x21, x22, [sp, #224]
    8214:	a94f63f7 	ldp	x23, x24, [sp, #240]
    8218:	a9506bf9 	ldp	x25, x26, [sp, #256]
    821c:	a95173fb 	ldp	x27, x28, [sp, #272]
    8220:	910483ff 	add	sp, sp, #0x120
    8224:	d65f03c0 	ret

0000000000008228 <mbedtls_platform_zeroize>:
mbedtls_platform_zeroize():
/home/fangjiang/workspace/optee-os/lib/libmbedtls/mbedtls/library/platform_util.c:68
    8228:	aa0103e2 	mov	x2, x1
/home/fangjiang/workspace/optee-os/lib/libmbedtls/mbedtls/library/platform_util.c:71
    822c:	b40000c1 	cbz	x1, 8244 <mbedtls_platform_zeroize+0x1c>
/home/fangjiang/workspace/optee-os/lib/libmbedtls/mbedtls/library/platform_util.c:72
    8230:	d0000021 	adrp	x1, e000 <_DYNAMIC>
    8234:	f941f423 	ldr	x3, [x1, #1000]
    8238:	52800001 	mov	w1, #0x0                   	// #0
    823c:	aa0303f0 	mov	x16, x3
    8240:	d61f0200 	br	x16
/home/fangjiang/workspace/optee-os/lib/libmbedtls/mbedtls/library/platform_util.c:73
    8244:	d65f03c0 	ret

0000000000008248 <bget>:
bget():
/home/fangjiang/workspace/optee-os/lib/libutils/isoc/bget.c:612
    8248:	a9bf7bfd 	stp	x29, x30, [sp, #-16]!
    824c:	910003fd 	mov	x29, sp
/home/fangjiang/workspace/optee-os/lib/libutils/isoc/bget.c:625
    8250:	f100005f 	cmp	x2, #0x0
    8254:	5400014c 	b.gt	827c <bget+0x34>
/home/fangjiang/workspace/optee-os/lib/libutils/isoc/bget.c:625 (discriminator 1)
    8258:	b0000023 	adrp	x3, d000 <__func__.0+0x5bb>
    825c:	90000021 	adrp	x1, c000 <__text_end+0x1cb0>
    8260:	b0000020 	adrp	x0, d000 <__func__.0+0x5bb>
    8264:	91059063 	add	x3, x3, #0x164
    8268:	913b4821 	add	x1, x1, #0xed2
    826c:	91041000 	add	x0, x0, #0x104
    8270:	52804e22 	mov	w2, #0x271                 	// #625
/home/fangjiang/workspace/optee-os/lib/libutils/isoc/bget.c:690 (discriminator 1)
    8274:	97ffeea4 	bl	3d04 <_assert_log>
    8278:	97ffeeb4 	bl	3d48 <_assert_break>
/home/fangjiang/workspace/optee-os/lib/libutils/isoc/bget.c:628 (discriminator 2)
    827c:	f100001f 	cmp	x0, #0x0
    8280:	5400024b 	b.lt	82c8 <bget+0x80>  // b.tstop
/home/fangjiang/workspace/optee-os/lib/libutils/isoc/bget.c:628 (discriminator 1)
    8284:	54000080 	b.eq	8294 <bget+0x4c>  // b.none
/home/fangjiang/workspace/optee-os/lib/libutils/isoc/bget.c:628 (discriminator 3)
    8288:	cb0003e4 	neg	x4, x0
    828c:	ea24001f 	bics	xzr, x0, x4
    8290:	540001c1 	b.ne	82c8 <bget+0x80>  // b.any
/home/fangjiang/workspace/optee-os/lib/libutils/isoc/bget.c:630
    8294:	91004028 	add	x8, x1, #0x10
    8298:	f2400c3f 	tst	x1, #0xf
    829c:	54000161 	b.ne	82c8 <bget+0x80>  // b.any
/home/fangjiang/workspace/optee-os/lib/libutils/isoc/bget.c:640
    82a0:	d2800205 	mov	x5, #0x10                  	// #16
    82a4:	eb05005f 	cmp	x2, x5
    82a8:	9a85a042 	csel	x2, x2, x5, ge  // ge = tcont
    82ac:	b1003c44 	adds	x4, x2, #0xf
    82b0:	540000c4 	b.mi	82c8 <bget+0x80>  // b.first
    82b4:	eb02009f 	cmp	x4, x2
    82b8:	54000083 	b.cc	82c8 <bget+0x80>  // b.lo, b.ul, b.last
/home/fangjiang/workspace/optee-os/lib/libutils/isoc/bget.c:643
    82bc:	927cec84 	and	x4, x4, #0xfffffffffffffff0
/home/fangjiang/workspace/optee-os/lib/libutils/isoc/bget.c:648
    82c0:	b1004084 	adds	x4, x4, #0x10
    82c4:	54000067 	b.vc	82d0 <bget+0x88>
/home/fangjiang/workspace/optee-os/lib/libutils/isoc/bget.c:629
    82c8:	d2800000 	mov	x0, #0x0                   	// #0
    82cc:	14000085 	b	84e0 <bget+0x298>
/home/fangjiang/workspace/optee-os/lib/libutils/isoc/bget.c:650
    82d0:	ab010084 	adds	x4, x4, x1
    82d4:	54ffffa6 	b.vs	82c8 <bget+0x80>
    82d8:	f100401f 	cmp	x0, #0x10
buf_get_pos():
/home/fangjiang/workspace/optee-os/lib/libutils/isoc/bget.c:599
    82dc:	b27be7e9 	mov	x9, #0x7fffffffffffffe0    	// #9223372036854775776
    82e0:	9a85a000 	csel	x0, x0, x5, ge  // ge = tcont
bget():
/home/fangjiang/workspace/optee-os/lib/libutils/isoc/bget.c:660
    82e4:	f9400862 	ldr	x2, [x3, #16]
buf_get_pos():
/home/fangjiang/workspace/optee-os/lib/libutils/isoc/bget.c:594
    82e8:	cb0003e0 	neg	x0, x0
bget():
/home/fangjiang/workspace/optee-os/lib/libutils/isoc/bget.c:684
    82ec:	eb02007f 	cmp	x3, x2
    82f0:	54fffec0 	b.eq	82c8 <bget+0x80>  // b.none
buf_get_pos():
/home/fangjiang/workspace/optee-os/lib/libutils/isoc/bget.c:585
    82f4:	f9400446 	ldr	x6, [x2, #8]
    82f8:	eb06009f 	cmp	x4, x6
    82fc:	54000f6c 	b.gt	84e8 <bget+0x2a0>
/home/fangjiang/workspace/optee-os/lib/libutils/isoc/bget.c:592
    8300:	cb040045 	sub	x5, x2, x4
/home/fangjiang/workspace/optee-os/lib/libutils/isoc/bget.c:595
    8304:	8b010047 	add	x7, x2, x1
/home/fangjiang/workspace/optee-os/lib/libutils/isoc/bget.c:592
    8308:	8b0800a5 	add	x5, x5, x8
    830c:	8b0600a5 	add	x5, x5, x6
/home/fangjiang/workspace/optee-os/lib/libutils/isoc/bget.c:594
    8310:	8a050005 	and	x5, x0, x5
/home/fangjiang/workspace/optee-os/lib/libutils/isoc/bget.c:595
    8314:	cb0700a5 	sub	x5, x5, x7
/home/fangjiang/workspace/optee-os/lib/libutils/isoc/bget.c:597
    8318:	f10040a7 	subs	x7, x5, #0x10
    831c:	54000080 	b.eq	832c <bget+0xe4>  // b.none
/home/fangjiang/workspace/optee-os/lib/libutils/isoc/bget.c:599
    8320:	d100c0a5 	sub	x5, x5, #0x30
    8324:	eb0900bf 	cmp	x5, x9
    8328:	54000e02 	b.cs	84e8 <bget+0x2a0>  // b.hs, b.nlast
bget():
/home/fangjiang/workspace/optee-os/lib/libutils/isoc/bget.c:690
    832c:	f8666841 	ldr	x1, [x2, x6]
/home/fangjiang/workspace/optee-os/lib/libutils/isoc/bget.c:687
    8330:	8b070040 	add	x0, x2, x7
/home/fangjiang/workspace/optee-os/lib/libutils/isoc/bget.c:688
    8334:	8b060045 	add	x5, x2, x6
/home/fangjiang/workspace/optee-os/lib/libutils/isoc/bget.c:690
    8338:	eb06003f 	cmp	x1, x6
    833c:	54000120 	b.eq	8360 <bget+0x118>  // b.none
/home/fangjiang/workspace/optee-os/lib/libutils/isoc/bget.c:690 (discriminator 1)
    8340:	b0000023 	adrp	x3, d000 <__func__.0+0x5bb>
    8344:	90000021 	adrp	x1, c000 <__text_end+0x1cb0>
    8348:	90000020 	adrp	x0, c000 <__text_end+0x1cb0>
    834c:	91059063 	add	x3, x3, #0x164
    8350:	913b4821 	add	x1, x1, #0xed2
    8354:	913bac00 	add	x0, x0, #0xeeb
    8358:	52805642 	mov	w2, #0x2b2                 	// #690
    835c:	17ffffc6 	b	8274 <bget+0x2c>
/home/fangjiang/workspace/optee-os/lib/libutils/isoc/bget.c:698 (discriminator 2)
    8360:	f9400c41 	ldr	x1, [x2, #24]
/home/fangjiang/workspace/optee-os/lib/libutils/isoc/bget.c:696 (discriminator 2)
    8364:	f826685f 	str	xzr, [x2, x6]
/home/fangjiang/workspace/optee-os/lib/libutils/isoc/bget.c:698 (discriminator 2)
    8368:	f9400828 	ldr	x8, [x1, #16]
    836c:	eb02011f 	cmp	x8, x2
    8370:	54000120 	b.eq	8394 <bget+0x14c>  // b.none
/home/fangjiang/workspace/optee-os/lib/libutils/isoc/bget.c:698 (discriminator 1)
    8374:	b0000023 	adrp	x3, d000 <__func__.0+0x5bb>
    8378:	90000021 	adrp	x1, c000 <__text_end+0x1cb0>
    837c:	90000020 	adrp	x0, c000 <__text_end+0x1cb0>
    8380:	91059063 	add	x3, x3, #0x164
    8384:	913b4821 	add	x1, x1, #0xed2
    8388:	913c2c00 	add	x0, x0, #0xf0b
    838c:	52805742 	mov	w2, #0x2ba                 	// #698
    8390:	17ffffb9 	b	8274 <bget+0x2c>
/home/fangjiang/workspace/optee-os/lib/libutils/isoc/bget.c:699 (discriminator 2)
    8394:	f9400848 	ldr	x8, [x2, #16]
    8398:	f9400d09 	ldr	x9, [x8, #24]
    839c:	eb02013f 	cmp	x9, x2
    83a0:	54000120 	b.eq	83c4 <bget+0x17c>  // b.none
/home/fangjiang/workspace/optee-os/lib/libutils/isoc/bget.c:699 (discriminator 1)
    83a4:	b0000023 	adrp	x3, d000 <__func__.0+0x5bb>
    83a8:	90000021 	adrp	x1, c000 <__text_end+0x1cb0>
    83ac:	90000020 	adrp	x0, c000 <__text_end+0x1cb0>
    83b0:	91059063 	add	x3, x3, #0x164
    83b4:	913b4821 	add	x1, x1, #0xed2
    83b8:	913c9800 	add	x0, x0, #0xf26
    83bc:	52805762 	mov	w2, #0x2bb                 	// #699
    83c0:	17ffffad 	b	8274 <bget+0x2c>
/home/fangjiang/workspace/optee-os/lib/libutils/isoc/bget.c:701 (discriminator 2)
    83c4:	b5000207 	cbnz	x7, 8404 <bget+0x1bc>
/home/fangjiang/workspace/optee-os/lib/libutils/isoc/bget.c:706
    83c8:	f9000828 	str	x8, [x1, #16]
/home/fangjiang/workspace/optee-os/lib/libutils/isoc/bget.c:707
    83cc:	f9400847 	ldr	x7, [x2, #16]
    83d0:	f9000ce1 	str	x1, [x7, #24]
/home/fangjiang/workspace/optee-os/lib/libutils/isoc/bget.c:710
    83d4:	cb0603e7 	neg	x7, x6
    83d8:	f9000447 	str	x7, [x2, #8]
/home/fangjiang/workspace/optee-os/lib/libutils/isoc/bget.c:721
    83dc:	f9400402 	ldr	x2, [x0, #8]
    83e0:	b7f80182 	tbnz	x2, #63, 8410 <bget+0x1c8>
/home/fangjiang/workspace/optee-os/lib/libutils/isoc/bget.c:721 (discriminator 1)
    83e4:	b0000023 	adrp	x3, d000 <__func__.0+0x5bb>
    83e8:	90000021 	adrp	x1, c000 <__text_end+0x1cb0>
    83ec:	90000020 	adrp	x0, c000 <__text_end+0x1cb0>
    83f0:	91059063 	add	x3, x3, #0x164
    83f4:	913b4821 	add	x1, x1, #0xed2
    83f8:	913d0400 	add	x0, x0, #0xf41
    83fc:	52805a22 	mov	w2, #0x2d1                 	// #721
    8400:	17ffff9d 	b	8274 <bget+0x2c>
/home/fangjiang/workspace/optee-os/lib/libutils/isoc/bget.c:716
    8404:	cb0600e6 	sub	x6, x7, x6
    8408:	a9001807 	stp	x7, x6, [x0]
/home/fangjiang/workspace/optee-os/lib/libutils/isoc/bget.c:718
    840c:	17fffff3 	b	83d8 <bget+0x190>
/home/fangjiang/workspace/optee-os/lib/libutils/isoc/bget.c:727 (discriminator 2)
    8410:	cb0203e2 	neg	x2, x2
    8414:	cb040042 	sub	x2, x2, x4
    8418:	f100805f 	cmp	x2, #0x20
    841c:	54000609 	b.ls	84dc <bget+0x294>  // b.plast
/home/fangjiang/workspace/optee-os/lib/libutils/isoc/bget.c:733
    8420:	8b040001 	add	x1, x0, x4
/home/fangjiang/workspace/optee-os/lib/libutils/isoc/bget.c:734
    8424:	f9000422 	str	x2, [x1, #8]
/home/fangjiang/workspace/optee-os/lib/libutils/isoc/bget.c:735
    8428:	f824681f 	str	xzr, [x0, x4]
/home/fangjiang/workspace/optee-os/lib/libutils/isoc/bget.c:736
    842c:	f9400404 	ldr	x4, [x0, #8]
    8430:	8b020082 	add	x2, x4, x2
    8434:	f9000402 	str	x2, [x0, #8]
/home/fangjiang/workspace/optee-os/lib/libutils/isoc/bget.c:738
    8438:	f9400c62 	ldr	x2, [x3, #24]
    843c:	f9400844 	ldr	x4, [x2, #16]
    8440:	eb03009f 	cmp	x4, x3
    8444:	54000120 	b.eq	8468 <bget+0x220>  // b.none
/home/fangjiang/workspace/optee-os/lib/libutils/isoc/bget.c:738 (discriminator 1)
    8448:	b0000023 	adrp	x3, d000 <__func__.0+0x5bb>
    844c:	90000021 	adrp	x1, c000 <__text_end+0x1cb0>
    8450:	90000020 	adrp	x0, c000 <__text_end+0x1cb0>
    8454:	91059063 	add	x3, x3, #0x164
    8458:	913b4821 	add	x1, x1, #0xed2
    845c:	913d5000 	add	x0, x0, #0xf54
    8460:	52805c42 	mov	w2, #0x2e2                 	// #738
    8464:	17ffff84 	b	8274 <bget+0x2c>
/home/fangjiang/workspace/optee-os/lib/libutils/isoc/bget.c:740 (discriminator 2)
    8468:	f9400864 	ldr	x4, [x3, #16]
    846c:	f9400c84 	ldr	x4, [x4, #24]
    8470:	eb03009f 	cmp	x4, x3
    8474:	54000120 	b.eq	8498 <bget+0x250>  // b.none
/home/fangjiang/workspace/optee-os/lib/libutils/isoc/bget.c:740 (discriminator 1)
    8478:	b0000023 	adrp	x3, d000 <__func__.0+0x5bb>
    847c:	90000021 	adrp	x1, c000 <__text_end+0x1cb0>
    8480:	90000020 	adrp	x0, c000 <__text_end+0x1cb0>
    8484:	91059063 	add	x3, x3, #0x164
    8488:	913b4821 	add	x1, x1, #0xed2
    848c:	913e3c00 	add	x0, x0, #0xf8f
    8490:	52805c82 	mov	w2, #0x2e4                 	// #740
    8494:	17ffff78 	b	8274 <bget+0x2c>
/home/fangjiang/workspace/optee-os/lib/libutils/isoc/bget.c:743 (discriminator 2)
    8498:	a9010823 	stp	x3, x2, [x1, #16]
/home/fangjiang/workspace/optee-os/lib/libutils/isoc/bget.c:744 (discriminator 2)
    849c:	f9000c61 	str	x1, [x3, #24]
/home/fangjiang/workspace/optee-os/lib/libutils/isoc/bget.c:745 (discriminator 2)
    84a0:	f9400c22 	ldr	x2, [x1, #24]
    84a4:	f9000841 	str	x1, [x2, #16]
/home/fangjiang/workspace/optee-os/lib/libutils/isoc/bget.c:747 (discriminator 2)
    84a8:	f9400422 	ldr	x2, [x1, #8]
    84ac:	8b020021 	add	x1, x1, x2
    84b0:	eb0100bf 	cmp	x5, x1
    84b4:	54000120 	b.eq	84d8 <bget+0x290>  // b.none
/home/fangjiang/workspace/optee-os/lib/libutils/isoc/bget.c:747 (discriminator 1)
    84b8:	b0000023 	adrp	x3, d000 <__func__.0+0x5bb>
    84bc:	90000021 	adrp	x1, c000 <__text_end+0x1cb0>
    84c0:	90000020 	adrp	x0, c000 <__text_end+0x1cb0>
    84c4:	91059063 	add	x3, x3, #0x164
    84c8:	913b4821 	add	x1, x1, #0xed2
    84cc:	913f2800 	add	x0, x0, #0xfca
    84d0:	52805d62 	mov	w2, #0x2eb                 	// #747
    84d4:	17ffff68 	b	8274 <bget+0x2c>
/home/fangjiang/workspace/optee-os/lib/libutils/isoc/bget.c:748 (discriminator 2)
    84d8:	f90000a2 	str	x2, [x5]
/home/fangjiang/workspace/optee-os/lib/libutils/isoc/bget.c:755
    84dc:	91004000 	add	x0, x0, #0x10
/home/fangjiang/workspace/optee-os/lib/libutils/isoc/bget.c:839
    84e0:	a8c17bfd 	ldp	x29, x30, [sp], #16
    84e4:	d65f03c0 	ret
/home/fangjiang/workspace/optee-os/lib/libutils/isoc/bget.c:759
    84e8:	f9400842 	ldr	x2, [x2, #16]
    84ec:	17ffff80 	b	82ec <bget+0xa4>

00000000000084f0 <bgetz>:
bgetz():
/home/fangjiang/workspace/optee-os/lib/libutils/isoc/bget.c:850
    84f0:	a9be7bfd 	stp	x29, x30, [sp, #-32]!
    84f4:	910003fd 	mov	x29, sp
    84f8:	f9000bf3 	str	x19, [sp, #16]
    84fc:	aa0203f3 	mov	x19, x2
/home/fangjiang/workspace/optee-os/lib/libutils/isoc/bget.c:851
    8500:	97ffff52 	bl	8248 <bget>
    8504:	aa0003e3 	mov	x3, x0
/home/fangjiang/workspace/optee-os/lib/libutils/isoc/bget.c:853
    8508:	b4000320 	cbz	x0, 856c <bgetz+0x7c>
/home/fangjiang/workspace/optee-os/lib/libutils/isoc/bget.c:858
    850c:	f85f8000 	ldur	x0, [x0, #-8]
/home/fangjiang/workspace/optee-os/lib/libutils/isoc/bget.c:859
    8510:	b5000200 	cbnz	x0, 8550 <bgetz+0x60>
/home/fangjiang/workspace/optee-os/lib/libutils/isoc/bget.c:863
    8514:	a97e0061 	ldp	x1, x0, [x3, #-32]
    8518:	d1008021 	sub	x1, x1, #0x20
/home/fangjiang/workspace/optee-os/lib/libutils/isoc/bget.c:865
    851c:	cb000021 	sub	x1, x1, x0
/home/fangjiang/workspace/optee-os/lib/libutils/isoc/bget.c:867
    8520:	eb13003f 	cmp	x1, x19
    8524:	540001aa 	b.ge	8558 <bgetz+0x68>  // b.tcont
/home/fangjiang/workspace/optee-os/lib/libutils/isoc/bget.c:867 (discriminator 1)
    8528:	b0000023 	adrp	x3, d000 <__func__.0+0x5bb>
    852c:	91059063 	add	x3, x3, #0x164
    8530:	91001463 	add	x3, x3, #0x5
    8534:	90000021 	adrp	x1, c000 <__text_end+0x1cb0>
    8538:	90000020 	adrp	x0, c000 <__text_end+0x1cb0>
    853c:	913b4821 	add	x1, x1, #0xed2
    8540:	913fc000 	add	x0, x0, #0xff0
    8544:	52806c62 	mov	w2, #0x363                 	// #867
    8548:	97ffedef 	bl	3d04 <_assert_log>
    854c:	97ffedff 	bl	3d48 <_assert_break>
/home/fangjiang/workspace/optee-os/lib/libutils/isoc/bget.c:865
    8550:	928001e1 	mov	x1, #0xfffffffffffffff0    	// #-16
    8554:	17fffff2 	b	851c <bgetz+0x2c>
memset_unchecked():
/home/fangjiang/workspace/optee-os/lib/libutils/isoc/bget_malloc.c:131 (discriminator 2)
    8558:	93407c22 	sxtw	x2, w1
    855c:	aa0303e0 	mov	x0, x3
    8560:	52800001 	mov	w1, #0x0                   	// #0
    8564:	9400028f 	bl	8fa0 <memset>
    8568:	aa0003e3 	mov	x3, x0
bgetz():
/home/fangjiang/workspace/optee-os/lib/libutils/isoc/bget.c:871
    856c:	aa0303e0 	mov	x0, x3
    8570:	f9400bf3 	ldr	x19, [sp, #16]
    8574:	a8c27bfd 	ldp	x29, x30, [sp], #32
    8578:	d65f03c0 	ret

000000000000857c <brel>:
brel():
/home/fangjiang/workspace/optee-os/lib/libutils/isoc/bget.c:925
    857c:	a9be7bfd 	stp	x29, x30, [sp, #-32]!
    8580:	910003fd 	mov	x29, sp
    8584:	a90153f3 	stp	x19, x20, [sp, #16]
/home/fangjiang/workspace/optee-os/lib/libutils/isoc/bget.c:933
    8588:	b5000160 	cbnz	x0, 85b4 <brel+0x38>
/home/fangjiang/workspace/optee-os/lib/libutils/isoc/bget.c:933 (discriminator 1)
    858c:	b0000023 	adrp	x3, d000 <__func__.0+0x5bb>
    8590:	91059063 	add	x3, x3, #0x164
    8594:	90000021 	adrp	x1, c000 <__text_end+0x1cb0>
    8598:	90000020 	adrp	x0, c000 <__text_end+0x1cb0>
    859c:	91002c63 	add	x3, x3, #0xb
    85a0:	913b4821 	add	x1, x1, #0xed2
    85a4:	913ff800 	add	x0, x0, #0xffe
    85a8:	528074a2 	mov	w2, #0x3a5                 	// #933
/home/fangjiang/workspace/optee-os/lib/libutils/isoc/bget.c:968 (discriminator 1)
    85ac:	97ffedd6 	bl	3d04 <_assert_log>
    85b0:	97ffede6 	bl	3d48 <_assert_break>
/home/fangjiang/workspace/optee-os/lib/libutils/isoc/bget.c:965 (discriminator 2)
    85b4:	f85f8003 	ldur	x3, [x0, #-8]
    85b8:	d1004013 	sub	x19, x0, #0x10
/home/fangjiang/workspace/optee-os/lib/libutils/isoc/bget.c:968 (discriminator 2)
    85bc:	b7f80143 	tbnz	x3, #63, 85e4 <brel+0x68>
/home/fangjiang/workspace/optee-os/lib/libutils/isoc/bget.c:968 (discriminator 1)
    85c0:	b0000023 	adrp	x3, d000 <__func__.0+0x5bb>
    85c4:	91059063 	add	x3, x3, #0x164
    85c8:	90000021 	adrp	x1, c000 <__text_end+0x1cb0>
    85cc:	b0000020 	adrp	x0, d000 <__func__.0+0x5bb>
    85d0:	91002c63 	add	x3, x3, #0xb
    85d4:	913b4821 	add	x1, x1, #0xed2
    85d8:	91002800 	add	x0, x0, #0xa
    85dc:	52807902 	mov	w2, #0x3c8                 	// #968
    85e0:	17fffff3 	b	85ac <brel+0x30>
/home/fangjiang/workspace/optee-os/lib/libutils/isoc/bget.c:974 (discriminator 2)
    85e4:	cb030264 	sub	x4, x19, x3
    85e8:	f9400084 	ldr	x4, [x4]
    85ec:	b4000144 	cbz	x4, 8614 <brel+0x98>
/home/fangjiang/workspace/optee-os/lib/libutils/isoc/bget.c:974 (discriminator 1)
    85f0:	b0000023 	adrp	x3, d000 <__func__.0+0x5bb>
    85f4:	91059063 	add	x3, x3, #0x164
    85f8:	90000021 	adrp	x1, c000 <__text_end+0x1cb0>
    85fc:	b0000020 	adrp	x0, d000 <__func__.0+0x5bb>
    8600:	91002c63 	add	x3, x3, #0xb
    8604:	913b4821 	add	x1, x1, #0xed2
    8608:	91006800 	add	x0, x0, #0x1a
    860c:	528079c2 	mov	w2, #0x3ce                 	// #974
    8610:	17ffffe7 	b	85ac <brel+0x30>
/home/fangjiang/workspace/optee-os/lib/libutils/isoc/bget.c:983 (discriminator 2)
    8614:	f85f0000 	ldur	x0, [x0, #-16]
    8618:	b4000420 	cbz	x0, 869c <brel+0x120>
/home/fangjiang/workspace/optee-os/lib/libutils/isoc/bget.c:994
    861c:	cb000273 	sub	x19, x19, x0
    8620:	f9400661 	ldr	x1, [x19, #8]
    8624:	eb01001f 	cmp	x0, x1
    8628:	54000140 	b.eq	8650 <brel+0xd4>  // b.none
/home/fangjiang/workspace/optee-os/lib/libutils/isoc/bget.c:994 (discriminator 1)
    862c:	b0000023 	adrp	x3, d000 <__func__.0+0x5bb>
    8630:	91059063 	add	x3, x3, #0x164
    8634:	90000021 	adrp	x1, c000 <__text_end+0x1cb0>
    8638:	b0000020 	adrp	x0, d000 <__func__.0+0x5bb>
    863c:	91002c63 	add	x3, x3, #0xb
    8640:	913b4821 	add	x1, x1, #0xed2
    8644:	91011800 	add	x0, x0, #0x46
    8648:	52807c42 	mov	w2, #0x3e2                 	// #994
    864c:	17ffffd8 	b	85ac <brel+0x30>
/home/fangjiang/workspace/optee-os/lib/libutils/isoc/bget.c:996 (discriminator 2)
    8650:	cb030000 	sub	x0, x0, x3
    8654:	f9000660 	str	x0, [x19, #8]
/home/fangjiang/workspace/optee-os/lib/libutils/isoc/bget.c:1016
    8658:	f9400660 	ldr	x0, [x19, #8]
    865c:	8b000274 	add	x20, x19, x0
/home/fangjiang/workspace/optee-os/lib/libutils/isoc/bget.c:1017
    8660:	f9400681 	ldr	x1, [x20, #8]
    8664:	f100003f 	cmp	x1, #0x0
    8668:	540009ad 	b.le	879c <brel+0x220>
/home/fangjiang/workspace/optee-os/lib/libutils/isoc/bget.c:1022
    866c:	f8616a83 	ldr	x3, [x20, x1]
    8670:	eb03003f 	cmp	x1, x3
    8674:	54000560 	b.eq	8720 <brel+0x1a4>  // b.none
/home/fangjiang/workspace/optee-os/lib/libutils/isoc/bget.c:1022 (discriminator 1)
    8678:	b0000023 	adrp	x3, d000 <__func__.0+0x5bb>
    867c:	91059063 	add	x3, x3, #0x164
    8680:	90000021 	adrp	x1, c000 <__text_end+0x1cb0>
    8684:	b0000020 	adrp	x0, d000 <__func__.0+0x5bb>
    8688:	91002c63 	add	x3, x3, #0xb
    868c:	913b4821 	add	x1, x1, #0xed2
    8690:	9101fc00 	add	x0, x0, #0x7f
    8694:	52807fc2 	mov	w2, #0x3fe                 	// #1022
    8698:	17ffffc5 	b	85ac <brel+0x30>
/home/fangjiang/workspace/optee-os/lib/libutils/isoc/bget.c:1002
    869c:	f9400c24 	ldr	x4, [x1, #24]
    86a0:	f9400880 	ldr	x0, [x4, #16]
    86a4:	eb01001f 	cmp	x0, x1
    86a8:	54000140 	b.eq	86d0 <brel+0x154>  // b.none
/home/fangjiang/workspace/optee-os/lib/libutils/isoc/bget.c:1002 (discriminator 1)
    86ac:	b0000023 	adrp	x3, d000 <__func__.0+0x5bb>
    86b0:	91059063 	add	x3, x3, #0x164
    86b4:	90000021 	adrp	x1, c000 <__text_end+0x1cb0>
    86b8:	90000020 	adrp	x0, c000 <__text_end+0x1cb0>
    86bc:	91002c63 	add	x3, x3, #0xb
    86c0:	913b4821 	add	x1, x1, #0xed2
    86c4:	913d5000 	add	x0, x0, #0xf54
    86c8:	52807d42 	mov	w2, #0x3ea                 	// #1002
    86cc:	17ffffb8 	b	85ac <brel+0x30>
/home/fangjiang/workspace/optee-os/lib/libutils/isoc/bget.c:1003 (discriminator 2)
    86d0:	f9400801 	ldr	x1, [x0, #16]
    86d4:	f9400c21 	ldr	x1, [x1, #24]
    86d8:	eb01001f 	cmp	x0, x1
    86dc:	54000140 	b.eq	8704 <brel+0x188>  // b.none
/home/fangjiang/workspace/optee-os/lib/libutils/isoc/bget.c:1003 (discriminator 1)
    86e0:	b0000023 	adrp	x3, d000 <__func__.0+0x5bb>
    86e4:	91059063 	add	x3, x3, #0x164
    86e8:	90000021 	adrp	x1, c000 <__text_end+0x1cb0>
    86ec:	90000020 	adrp	x0, c000 <__text_end+0x1cb0>
    86f0:	91002c63 	add	x3, x3, #0xb
    86f4:	913b4821 	add	x1, x1, #0xed2
    86f8:	913e3c00 	add	x0, x0, #0xf8f
    86fc:	52807d62 	mov	w2, #0x3eb                 	// #1003
    8700:	17ffffab 	b	85ac <brel+0x30>
/home/fangjiang/workspace/optee-os/lib/libutils/isoc/bget.c:1005 (discriminator 2)
    8704:	a9011260 	stp	x0, x4, [x19, #16]
/home/fangjiang/workspace/optee-os/lib/libutils/isoc/bget.c:969 (discriminator 2)
    8708:	cb0303e3 	neg	x3, x3
/home/fangjiang/workspace/optee-os/lib/libutils/isoc/bget.c:1006 (discriminator 2)
    870c:	f9000c13 	str	x19, [x0, #24]
/home/fangjiang/workspace/optee-os/lib/libutils/isoc/bget.c:1007 (discriminator 2)
    8710:	f9400e60 	ldr	x0, [x19, #24]
    8714:	f9000813 	str	x19, [x0, #16]
/home/fangjiang/workspace/optee-os/lib/libutils/isoc/bget.c:1008 (discriminator 2)
    8718:	f9000663 	str	x3, [x19, #8]
    871c:	17ffffcf 	b	8658 <brel+0xdc>
/home/fangjiang/workspace/optee-os/lib/libutils/isoc/bget.c:1023 (discriminator 2)
    8720:	f9400e84 	ldr	x4, [x20, #24]
    8724:	f9400885 	ldr	x5, [x4, #16]
    8728:	eb1400bf 	cmp	x5, x20
    872c:	54000140 	b.eq	8754 <brel+0x1d8>  // b.none
/home/fangjiang/workspace/optee-os/lib/libutils/isoc/bget.c:1023 (discriminator 1)
    8730:	b0000023 	adrp	x3, d000 <__func__.0+0x5bb>
    8734:	91059063 	add	x3, x3, #0x164
    8738:	90000021 	adrp	x1, c000 <__text_end+0x1cb0>
    873c:	b0000020 	adrp	x0, d000 <__func__.0+0x5bb>
    8740:	91002c63 	add	x3, x3, #0xb
    8744:	913b4821 	add	x1, x1, #0xed2
    8748:	9102e000 	add	x0, x0, #0xb8
    874c:	52807fe2 	mov	w2, #0x3ff                 	// #1023
    8750:	17ffff97 	b	85ac <brel+0x30>
/home/fangjiang/workspace/optee-os/lib/libutils/isoc/bget.c:1024 (discriminator 2)
    8754:	f94008a3 	ldr	x3, [x5, #16]
    8758:	f9400c66 	ldr	x6, [x3, #24]
    875c:	eb0500df 	cmp	x6, x5
    8760:	54000140 	b.eq	8788 <brel+0x20c>  // b.none
/home/fangjiang/workspace/optee-os/lib/libutils/isoc/bget.c:1024 (discriminator 1)
    8764:	b0000023 	adrp	x3, d000 <__func__.0+0x5bb>
    8768:	91059063 	add	x3, x3, #0x164
    876c:	90000021 	adrp	x1, c000 <__text_end+0x1cb0>
    8770:	b0000020 	adrp	x0, d000 <__func__.0+0x5bb>
    8774:	91002c63 	add	x3, x3, #0xb
    8778:	913b4821 	add	x1, x1, #0xed2
    877c:	91035400 	add	x0, x0, #0xd5
    8780:	52808002 	mov	w2, #0x400                 	// #1024
    8784:	17ffff8a 	b	85ac <brel+0x30>
/home/fangjiang/workspace/optee-os/lib/libutils/isoc/bget.c:1027 (discriminator 2)
    8788:	8b010000 	add	x0, x0, x1
/home/fangjiang/workspace/optee-os/lib/libutils/isoc/bget.c:1025 (discriminator 2)
    878c:	f9000883 	str	x3, [x4, #16]
/home/fangjiang/workspace/optee-os/lib/libutils/isoc/bget.c:1036 (discriminator 2)
    8790:	8b000274 	add	x20, x19, x0
/home/fangjiang/workspace/optee-os/lib/libutils/isoc/bget.c:1026 (discriminator 2)
    8794:	f9000c64 	str	x4, [x3, #24]
/home/fangjiang/workspace/optee-os/lib/libutils/isoc/bget.c:1027 (discriminator 2)
    8798:	f9000660 	str	x0, [x19, #8]
/home/fangjiang/workspace/optee-os/lib/libutils/isoc/bget.c:1038
    879c:	340000e2 	cbz	w2, 87b8 <brel+0x23c>
/home/fangjiang/workspace/optee-os/lib/libutils/isoc/bget.c:1040
    87a0:	f9400662 	ldr	x2, [x19, #8]
memset_unchecked():
/home/fangjiang/workspace/optee-os/lib/libutils/isoc/bget_malloc.c:131
    87a4:	91008260 	add	x0, x19, #0x20
    87a8:	52800aa1 	mov	w1, #0x55                  	// #85
brel():
/home/fangjiang/workspace/optee-os/lib/libutils/isoc/bget.c:1040
    87ac:	51008042 	sub	w2, w2, #0x20
memset_unchecked():
/home/fangjiang/workspace/optee-os/lib/libutils/isoc/bget_malloc.c:131
    87b0:	93407c42 	sxtw	x2, w2
    87b4:	940001fb 	bl	8fa0 <memset>
brel():
/home/fangjiang/workspace/optee-os/lib/libutils/isoc/bget.c:1042
    87b8:	f9400680 	ldr	x0, [x20, #8]
    87bc:	b7f80140 	tbnz	x0, #63, 87e4 <brel+0x268>
/home/fangjiang/workspace/optee-os/lib/libutils/isoc/bget.c:1042 (discriminator 1)
    87c0:	b0000023 	adrp	x3, d000 <__func__.0+0x5bb>
    87c4:	91059063 	add	x3, x3, #0x164
    87c8:	90000021 	adrp	x1, c000 <__text_end+0x1cb0>
    87cc:	b0000020 	adrp	x0, d000 <__func__.0+0x5bb>
    87d0:	91002c63 	add	x3, x3, #0xb
    87d4:	913b4821 	add	x1, x1, #0xed2
    87d8:	9103c800 	add	x0, x0, #0xf2
    87dc:	52808242 	mov	w2, #0x412                 	// #1042
    87e0:	17ffff73 	b	85ac <brel+0x30>
/home/fangjiang/workspace/optee-os/lib/libutils/isoc/bget.c:1047 (discriminator 2)
    87e4:	f9400660 	ldr	x0, [x19, #8]
    87e8:	f9000280 	str	x0, [x20]
/home/fangjiang/workspace/optee-os/lib/libutils/isoc/bget.c:1075 (discriminator 2)
    87ec:	a94153f3 	ldp	x19, x20, [sp, #16]
    87f0:	a8c27bfd 	ldp	x29, x30, [sp], #32
    87f4:	d65f03c0 	ret

00000000000087f8 <bgetr>:
bgetr():
/home/fangjiang/workspace/optee-os/lib/libutils/isoc/bget.c:884
    87f8:	a9bc7bfd 	stp	x29, x30, [sp, #-64]!
    87fc:	910003fd 	mov	x29, sp
    8800:	a90153f3 	stp	x19, x20, [sp, #16]
    8804:	aa0303f4 	mov	x20, x3
/home/fangjiang/workspace/optee-os/lib/libutils/isoc/bget.c:889
    8808:	aa0403e3 	mov	x3, x4
/home/fangjiang/workspace/optee-os/lib/libutils/isoc/bget.c:884
    880c:	a9025bf5 	stp	x21, x22, [sp, #32]
    8810:	aa0003f5 	mov	x21, x0
    8814:	aa0103e0 	mov	x0, x1
    8818:	aa0203e1 	mov	x1, x2
/home/fangjiang/workspace/optee-os/lib/libutils/isoc/bget.c:889
    881c:	aa1403e2 	mov	x2, x20
/home/fangjiang/workspace/optee-os/lib/libutils/isoc/bget.c:884
    8820:	f9001bf7 	str	x23, [sp, #48]
    8824:	aa0403f7 	mov	x23, x4
/home/fangjiang/workspace/optee-os/lib/libutils/isoc/bget.c:889
    8828:	97fffe88 	bl	8248 <bget>
    882c:	aa0003f6 	mov	x22, x0
    8830:	b4000420 	cbz	x0, 88b4 <bgetr+0xbc>
/home/fangjiang/workspace/optee-os/lib/libutils/isoc/bget.c:892
    8834:	b4000415 	cbz	x21, 88b4 <bgetr+0xbc>
/home/fangjiang/workspace/optee-os/lib/libutils/isoc/bget.c:906
    8838:	f85f82a1 	ldur	x1, [x21, #-8]
    883c:	928001f3 	mov	x19, #0xfffffffffffffff0    	// #-16
    8840:	cb010273 	sub	x19, x19, x1
/home/fangjiang/workspace/optee-os/lib/libutils/isoc/bget.c:907
    8844:	f100027f 	cmp	x19, #0x0
    8848:	5400016c 	b.gt	8874 <bgetr+0x7c>
/home/fangjiang/workspace/optee-os/lib/libutils/isoc/bget.c:907 (discriminator 1)
    884c:	b0000023 	adrp	x3, d000 <__func__.0+0x5bb>
    8850:	91059063 	add	x3, x3, #0x164
    8854:	91004063 	add	x3, x3, #0x10
    8858:	90000021 	adrp	x1, c000 <__text_end+0x1cb0>
    885c:	b0000020 	adrp	x0, d000 <__func__.0+0x5bb>
    8860:	913b4821 	add	x1, x1, #0xed2
    8864:	91040c00 	add	x0, x0, #0x103
    8868:	52807162 	mov	w2, #0x38b                 	// #907
    886c:	97ffed26 	bl	3d04 <_assert_log>
    8870:	97ffed36 	bl	3d48 <_assert_break>
/home/fangjiang/workspace/optee-os/lib/libutils/isoc/bget.c:908 (discriminator 2)
    8874:	eb13029f 	cmp	x20, x19
    8878:	93407e81 	sxtw	x1, w20
    887c:	93407e62 	sxtw	x2, w19
    8880:	9a81a042 	csel	x2, x2, x1, ge  // ge = tcont
    8884:	aa1503e1 	mov	x1, x21
    8888:	97ffdde6 	bl	20 <memcpy>
/home/fangjiang/workspace/optee-os/lib/libutils/isoc/bget.c:912 (discriminator 2)
    888c:	eb13029f 	cmp	x20, x19
    8890:	540000ad 	b.le	88a4 <bgetr+0xac>
/home/fangjiang/workspace/optee-os/lib/libutils/isoc/bget.c:913
    8894:	cb130282 	sub	x2, x20, x19
    8898:	8b1302c0 	add	x0, x22, x19
    889c:	52800001 	mov	w1, #0x0                   	// #0
    88a0:	940001c0 	bl	8fa0 <memset>
/home/fangjiang/workspace/optee-os/lib/libutils/isoc/bget.c:915
    88a4:	aa1703e1 	mov	x1, x23
    88a8:	aa1503e0 	mov	x0, x21
    88ac:	52800002 	mov	w2, #0x0                   	// #0
    88b0:	97ffff33 	bl	857c <brel>
/home/fangjiang/workspace/optee-os/lib/libutils/isoc/bget.c:917
    88b4:	aa1603e0 	mov	x0, x22
    88b8:	a94153f3 	ldp	x19, x20, [sp, #16]
    88bc:	a9425bf5 	ldp	x21, x22, [sp, #32]
    88c0:	f9401bf7 	ldr	x23, [sp, #48]
    88c4:	a8c47bfd 	ldp	x29, x30, [sp], #64
    88c8:	d65f03c0 	ret

00000000000088cc <bpool>:
bpool():
/home/fangjiang/workspace/optee-os/lib/libutils/isoc/bget.c:1101
    88cc:	a9bf7bfd 	stp	x29, x30, [sp, #-16]!
/home/fangjiang/workspace/optee-os/lib/libutils/isoc/bget.c:1106
    88d0:	927cec21 	and	x1, x1, #0xfffffffffffffff0
/home/fangjiang/workspace/optee-os/lib/libutils/isoc/bget.c:1125
    88d4:	f1004021 	subs	x1, x1, #0x10
/home/fangjiang/workspace/optee-os/lib/libutils/isoc/bget.c:1101
    88d8:	910003fd 	mov	x29, sp
/home/fangjiang/workspace/optee-os/lib/libutils/isoc/bget.c:1125
    88dc:	54000165 	b.pl	8908 <bpool+0x3c>  // b.nfrst
/home/fangjiang/workspace/optee-os/lib/libutils/isoc/bget.c:1125 (discriminator 1)
    88e0:	b0000023 	adrp	x3, d000 <__func__.0+0x5bb>
    88e4:	91059063 	add	x3, x3, #0x164
    88e8:	90000021 	adrp	x1, c000 <__text_end+0x1cb0>
    88ec:	b0000020 	adrp	x0, d000 <__func__.0+0x5bb>
    88f0:	91005863 	add	x3, x3, #0x16
    88f4:	913b4821 	add	x1, x1, #0xed2
    88f8:	91043400 	add	x0, x0, #0x10d
    88fc:	52808ca2 	mov	w2, #0x465                 	// #1125
/home/fangjiang/workspace/optee-os/lib/libutils/isoc/bget.c:1135 (discriminator 1)
    8900:	97ffed01 	bl	3d04 <_assert_log>
    8904:	97ffed11 	bl	3d48 <_assert_break>
/home/fangjiang/workspace/optee-os/lib/libutils/isoc/bget.c:1135 (discriminator 2)
    8908:	f9400c44 	ldr	x4, [x2, #24]
    890c:	f9400883 	ldr	x3, [x4, #16]
/home/fangjiang/workspace/optee-os/lib/libutils/isoc/bget.c:1131 (discriminator 2)
    8910:	f900001f 	str	xzr, [x0]
/home/fangjiang/workspace/optee-os/lib/libutils/isoc/bget.c:1135 (discriminator 2)
    8914:	eb02007f 	cmp	x3, x2
    8918:	54000140 	b.eq	8940 <bpool+0x74>  // b.none
/home/fangjiang/workspace/optee-os/lib/libutils/isoc/bget.c:1135 (discriminator 1)
    891c:	b0000023 	adrp	x3, d000 <__func__.0+0x5bb>
    8920:	91059063 	add	x3, x3, #0x164
    8924:	90000021 	adrp	x1, c000 <__text_end+0x1cb0>
    8928:	90000020 	adrp	x0, c000 <__text_end+0x1cb0>
    892c:	91005863 	add	x3, x3, #0x16
    8930:	913b4821 	add	x1, x1, #0xed2
    8934:	913d5000 	add	x0, x0, #0xf54
    8938:	52808de2 	mov	w2, #0x46f                 	// #1135
    893c:	17fffff1 	b	8900 <bpool+0x34>
/home/fangjiang/workspace/optee-os/lib/libutils/isoc/bget.c:1136 (discriminator 2)
    8940:	f9400862 	ldr	x2, [x3, #16]
    8944:	f9400c42 	ldr	x2, [x2, #24]
    8948:	eb02007f 	cmp	x3, x2
    894c:	54000140 	b.eq	8974 <bpool+0xa8>  // b.none
/home/fangjiang/workspace/optee-os/lib/libutils/isoc/bget.c:1136 (discriminator 1)
    8950:	b0000023 	adrp	x3, d000 <__func__.0+0x5bb>
    8954:	91059063 	add	x3, x3, #0x164
    8958:	90000021 	adrp	x1, c000 <__text_end+0x1cb0>
    895c:	90000020 	adrp	x0, c000 <__text_end+0x1cb0>
    8960:	91005863 	add	x3, x3, #0x16
    8964:	913b4821 	add	x1, x1, #0xed2
    8968:	913e3c00 	add	x0, x0, #0xf8f
    896c:	52808e02 	mov	w2, #0x470                 	// #1136
    8970:	17ffffe4 	b	8900 <bpool+0x34>
/home/fangjiang/workspace/optee-os/lib/libutils/isoc/bget.c:1138 (discriminator 2)
    8974:	a9011003 	stp	x3, x4, [x0, #16]
/home/fangjiang/workspace/optee-os/lib/libutils/isoc/bget.c:1139 (discriminator 2)
    8978:	f9000c60 	str	x0, [x3, #24]
/home/fangjiang/workspace/optee-os/lib/libutils/isoc/bget.c:1140 (discriminator 2)
    897c:	f9400c02 	ldr	x2, [x0, #24]
    8980:	f9000840 	str	x0, [x2, #16]
/home/fangjiang/workspace/optee-os/lib/libutils/isoc/bget.c:1156 (discriminator 2)
    8984:	8b010002 	add	x2, x0, x1
/home/fangjiang/workspace/optee-os/lib/libutils/isoc/bget.c:1151 (discriminator 2)
    8988:	f9000401 	str	x1, [x0, #8]
/home/fangjiang/workspace/optee-os/lib/libutils/isoc/bget.c:1157 (discriminator 2)
    898c:	f8216801 	str	x1, [x0, x1]
/home/fangjiang/workspace/optee-os/lib/libutils/isoc/bget.c:1160 (discriminator 2)
    8990:	d2f00000 	mov	x0, #0x8000000000000000    	// #-9223372036854775808
    8994:	f9000440 	str	x0, [x2, #8]
/home/fangjiang/workspace/optee-os/lib/libutils/isoc/bget.c:1161 (discriminator 2)
    8998:	a8c17bfd 	ldp	x29, x30, [sp], #16
    899c:	d65f03c0 	ret

00000000000089a0 <raw_memalign>:
raw_memalign():
/home/fangjiang/workspace/optee-os/lib/libutils/isoc/bget_malloc.c:351
    89a0:	aa0003e6 	mov	x6, x0
    89a4:	aa0303e5 	mov	x5, x3
    89a8:	aa0203e0 	mov	x0, x2
    89ac:	aa0403e3 	mov	x3, x4
/home/fangjiang/workspace/optee-os/lib/libutils/isoc/bget_malloc.c:355
    89b0:	b40001e2 	cbz	x2, 89ec <raw_memalign+0x4c>
/home/fangjiang/workspace/optee-os/lib/libutils/isoc/bget_malloc.c:355 (discriminator 1)
    89b4:	cb0203e2 	neg	x2, x2
    89b8:	ea22001f 	bics	xzr, x0, x2
    89bc:	54000181 	b.ne	89ec <raw_memalign+0x4c>  // b.any
/home/fangjiang/workspace/optee-os/lib/libutils/isoc/bget_malloc.c:361
    89c0:	ab0100a5 	adds	x5, x5, x1
    89c4:	d2800002 	mov	x2, #0x0                   	// #0
    89c8:	54000064 	b.mi	89d4 <raw_memalign+0x34>  // b.first
    89cc:	eb0100bf 	cmp	x5, x1
    89d0:	54000042 	b.cs	89d8 <raw_memalign+0x38>  // b.hs, b.nlast
    89d4:	d2800022 	mov	x2, #0x1                   	// #1
    89d8:	b50000a2 	cbnz	x2, 89ec <raw_memalign+0x4c>
/home/fangjiang/workspace/optee-os/lib/libutils/isoc/bget_malloc.c:366
    89dc:	f10000bf 	cmp	x5, #0x0
/home/fangjiang/workspace/optee-os/lib/libutils/isoc/bget_malloc.c:368
    89e0:	aa0603e1 	mov	x1, x6
    89e4:	9a9f14a2 	csinc	x2, x5, xzr, ne  // ne = any
    89e8:	17fffe18 	b	8248 <bget>
/home/fangjiang/workspace/optee-os/lib/libutils/isoc/bget_malloc.c:373
    89ec:	d2800000 	mov	x0, #0x0                   	// #0
    89f0:	d65f03c0 	ret

00000000000089f4 <raw_malloc>:
raw_malloc():
/home/fangjiang/workspace/optee-os/lib/libutils/isoc/bget_malloc.c:382
    89f4:	aa0303e4 	mov	x4, x3
    89f8:	aa0203e3 	mov	x3, x2
    89fc:	d2800202 	mov	x2, #0x10                  	// #16
    8a00:	17ffffe8 	b	89a0 <raw_memalign>

0000000000008a04 <raw_free>:
raw_free():
/home/fangjiang/workspace/optee-os/lib/libutils/isoc/bget_malloc.c:386
    8a04:	12001c42 	and	w2, w2, #0xff
/home/fangjiang/workspace/optee-os/lib/libutils/isoc/bget_malloc.c:389
    8a08:	b4000040 	cbz	x0, 8a10 <raw_free+0xc>
/home/fangjiang/workspace/optee-os/lib/libutils/isoc/bget_malloc.c:390
    8a0c:	17fffedc 	b	857c <brel>
/home/fangjiang/workspace/optee-os/lib/libutils/isoc/bget_malloc.c:391
    8a10:	d65f03c0 	ret

0000000000008a14 <raw_calloc>:
raw_calloc():
/home/fangjiang/workspace/optee-os/lib/libutils/isoc/bget_malloc.c:395
    8a14:	aa0303e6 	mov	x6, x3
    8a18:	aa0403e3 	mov	x3, x4
/home/fangjiang/workspace/optee-os/lib/libutils/isoc/bget_malloc.c:402
    8a1c:	9b067c45 	mul	x5, x2, x6
    8a20:	9bc67c42 	umulh	x2, x2, x6
    8a24:	f100005f 	cmp	x2, #0x0
    8a28:	9a9f07e2 	cset	x2, ne  // ne = any
    8a2c:	b7f80185 	tbnz	x5, #63, 8a5c <raw_calloc+0x48>
    8a30:	b5000162 	cbnz	x2, 8a5c <raw_calloc+0x48>
/home/fangjiang/workspace/optee-os/lib/libutils/isoc/bget_malloc.c:404
    8a34:	8b0100a2 	add	x2, x5, x1
    8a38:	d2f00004 	mov	x4, #0x8000000000000000    	// #-9223372036854775808
    8a3c:	8b040044 	add	x4, x2, x4
    8a40:	eb01009f 	cmp	x4, x1
    8a44:	540000c3 	b.cc	8a5c <raw_calloc+0x48>  // b.lo, b.ul, b.last
/home/fangjiang/workspace/optee-os/lib/libutils/isoc/bget_malloc.c:409
    8a48:	f100005f 	cmp	x2, #0x0
/home/fangjiang/workspace/optee-os/lib/libutils/isoc/bget_malloc.c:411
    8a4c:	aa0003e1 	mov	x1, x0
    8a50:	9a9f1442 	csinc	x2, x2, xzr, ne  // ne = any
    8a54:	d2800000 	mov	x0, #0x0                   	// #0
    8a58:	17fffea6 	b	84f0 <bgetz>
/home/fangjiang/workspace/optee-os/lib/libutils/isoc/bget_malloc.c:416
    8a5c:	d2800000 	mov	x0, #0x0                   	// #0
    8a60:	d65f03c0 	ret

0000000000008a64 <raw_realloc>:
raw_realloc():
/home/fangjiang/workspace/optee-os/lib/libutils/isoc/bget_malloc.c:425
    8a64:	ab010063 	adds	x3, x3, x1
    8a68:	540001a4 	b.mi	8a9c <raw_realloc+0x38>  // b.first
    8a6c:	eb01007f 	cmp	x3, x1
    8a70:	54000163 	b.cc	8a9c <raw_realloc+0x38>  // b.lo, b.ul, b.last
/home/fangjiang/workspace/optee-os/lib/libutils/isoc/bget_malloc.c:427
    8a74:	8b020063 	add	x3, x3, x2
    8a78:	d2f00001 	mov	x1, #0x8000000000000000    	// #-9223372036854775808
    8a7c:	8b010061 	add	x1, x3, x1
    8a80:	eb02003f 	cmp	x1, x2
    8a84:	540000c3 	b.cc	8a9c <raw_realloc+0x38>  // b.lo, b.ul, b.last
/home/fangjiang/workspace/optee-os/lib/libutils/isoc/bget_malloc.c:434
    8a88:	f100007f 	cmp	x3, #0x0
/home/fangjiang/workspace/optee-os/lib/libutils/isoc/bget_malloc.c:436
    8a8c:	d2800002 	mov	x2, #0x0                   	// #0
    8a90:	9a9f1463 	csinc	x3, x3, xzr, ne  // ne = any
    8a94:	d2800001 	mov	x1, #0x0                   	// #0
    8a98:	17ffff58 	b	87f8 <bgetr>
/home/fangjiang/workspace/optee-os/lib/libutils/isoc/bget_malloc.c:441
    8a9c:	d2800000 	mov	x0, #0x0                   	// #0
    8aa0:	d65f03c0 	ret

0000000000008aa4 <gen_malloc_add_pool>:
gen_malloc_add_pool():
/home/fangjiang/workspace/optee-os/lib/libutils/isoc/bget_malloc.c:787
    8aa4:	a9bd7bfd 	stp	x29, x30, [sp, #-48]!
    8aa8:	910003fd 	mov	x29, sp
    8aac:	a90153f3 	stp	x19, x20, [sp, #16]
/home/fangjiang/workspace/optee-os/lib/libutils/isoc/bget_malloc.c:792
    8ab0:	8b020033 	add	x19, x1, x2
/home/fangjiang/workspace/optee-os/lib/libutils/isoc/bget_malloc.c:795
    8ab4:	91003c21 	add	x1, x1, #0xf
    8ab8:	927cec34 	and	x20, x1, #0xfffffffffffffff0
/home/fangjiang/workspace/optee-os/lib/libutils/isoc/bget_malloc.c:796
    8abc:	927cee73 	and	x19, x19, #0xfffffffffffffff0
/home/fangjiang/workspace/optee-os/lib/libutils/isoc/bget_malloc.c:787
    8ac0:	a9025bf5 	stp	x21, x22, [sp, #32]
/home/fangjiang/workspace/optee-os/lib/libutils/isoc/bget_malloc.c:798
    8ac4:	eb13029f 	cmp	x20, x19
    8ac8:	540004c8 	b.hi	8b60 <gen_malloc_add_pool+0xbc>  // b.pmore
/home/fangjiang/workspace/optee-os/lib/libutils/isoc/bget_malloc.c:798 (discriminator 1)
    8acc:	cb140273 	sub	x19, x19, x20
    8ad0:	f100be7f 	cmp	x19, #0x2f
    8ad4:	54000469 	b.ls	8b60 <gen_malloc_add_pool+0xbc>  // b.plast
    8ad8:	aa0003f5 	mov	x21, x0
/home/fangjiang/workspace/optee-os/lib/libutils/isoc/bget_malloc.c:804
    8adc:	f9401400 	ldr	x0, [x0, #40]
    8ae0:	b5000060 	cbnz	x0, 8aec <gen_malloc_add_pool+0x48>
/home/fangjiang/workspace/optee-os/lib/libutils/isoc/bget_malloc.c:804 (discriminator 1)
    8ae4:	f10ffe7f 	cmp	x19, #0x3ff
    8ae8:	540003c9 	b.ls	8b60 <gen_malloc_add_pool+0xbc>  // b.plast
/home/fangjiang/workspace/optee-os/lib/libutils/isoc/bget_malloc.c:812
    8aec:	aa1503e2 	mov	x2, x21
    8af0:	aa1303e1 	mov	x1, x19
    8af4:	aa1403e0 	mov	x0, x20
    8af8:	97ffff75 	bl	88cc <bpool>
/home/fangjiang/workspace/optee-os/lib/libutils/isoc/bget_malloc.c:813
    8afc:	a9425aa0 	ldp	x0, x22, [x21, #32]
realloc_unlocked():
/home/fangjiang/workspace/optee-os/lib/libutils/isoc/bget_malloc.c:745
    8b00:	aa1503e4 	mov	x4, x21
    8b04:	d2800002 	mov	x2, #0x0                   	// #0
    8b08:	d2800001 	mov	x1, #0x0                   	// #0
gen_malloc_add_pool():
/home/fangjiang/workspace/optee-os/lib/libutils/isoc/bget_malloc.c:813
    8b0c:	910006d6 	add	x22, x22, #0x1
realloc_unlocked():
/home/fangjiang/workspace/optee-os/lib/libutils/isoc/bget_malloc.c:745
    8b10:	d37ceec3 	lsl	x3, x22, #4
    8b14:	97ffffd4 	bl	8a64 <raw_realloc>
gen_malloc_add_pool():
/home/fangjiang/workspace/optee-os/lib/libutils/isoc/bget_malloc.c:815
    8b18:	b5000160 	cbnz	x0, 8b44 <gen_malloc_add_pool+0xa0>
/home/fangjiang/workspace/optee-os/lib/libutils/isoc/bget_malloc.c:815 (discriminator 1)
    8b1c:	b0000023 	adrp	x3, d000 <__func__.0+0x5bb>
    8b20:	91059063 	add	x3, x3, #0x164
    8b24:	91007063 	add	x3, x3, #0x1c
    8b28:	b0000021 	adrp	x1, d000 <__func__.0+0x5bb>
    8b2c:	b0000020 	adrp	x0, d000 <__func__.0+0x5bb>
    8b30:	91050821 	add	x1, x1, #0x142
    8b34:	91058800 	add	x0, x0, #0x162
    8b38:	528065e2 	mov	w2, #0x32f                 	// #815
    8b3c:	97ffec72 	bl	3d04 <_assert_log>
    8b40:	97ffec82 	bl	3d48 <_assert_break>
/home/fangjiang/workspace/optee-os/lib/libutils/isoc/bget_malloc.c:817 (discriminator 2)
    8b44:	f94016a1 	ldr	x1, [x21, #40]
/home/fangjiang/workspace/optee-os/lib/libutils/isoc/bget_malloc.c:816 (discriminator 2)
    8b48:	f90012a0 	str	x0, [x21, #32]
/home/fangjiang/workspace/optee-os/lib/libutils/isoc/bget_malloc.c:817 (discriminator 2)
    8b4c:	d37cec22 	lsl	x2, x1, #4
    8b50:	8b011001 	add	x1, x0, x1, lsl #4
    8b54:	f8226814 	str	x20, [x0, x2]
/home/fangjiang/workspace/optee-os/lib/libutils/isoc/bget_malloc.c:818 (discriminator 2)
    8b58:	f9000433 	str	x19, [x1, #8]
/home/fangjiang/workspace/optee-os/lib/libutils/isoc/bget_malloc.c:822 (discriminator 2)
    8b5c:	f90016b6 	str	x22, [x21, #40]
/home/fangjiang/workspace/optee-os/lib/libutils/isoc/bget_malloc.c:824
    8b60:	a94153f3 	ldp	x19, x20, [sp, #16]
    8b64:	a9425bf5 	ldp	x21, x22, [sp, #32]
    8b68:	a8c37bfd 	ldp	x29, x30, [sp], #48
    8b6c:	d65f03c0 	ret

0000000000008b70 <malloc>:
malloc():
/home/fangjiang/workspace/optee-os/lib/libutils/isoc/bget_malloc.c:719
    8b70:	aa0003e2 	mov	x2, x0
    8b74:	d0000023 	adrp	x3, e000 <_DYNAMIC>
    8b78:	d2800001 	mov	x1, #0x0                   	// #0
    8b7c:	910fc063 	add	x3, x3, #0x3f0
    8b80:	d2800000 	mov	x0, #0x0                   	// #0
    8b84:	17ffff9c 	b	89f4 <raw_malloc>

0000000000008b88 <calloc>:
calloc():
/home/fangjiang/workspace/optee-os/lib/libutils/isoc/bget_malloc.c:737
    8b88:	aa0103e3 	mov	x3, x1
    8b8c:	aa0003e2 	mov	x2, x0
    8b90:	d0000024 	adrp	x4, e000 <_DYNAMIC>
    8b94:	d2800001 	mov	x1, #0x0                   	// #0
    8b98:	910fc084 	add	x4, x4, #0x3f0
    8b9c:	d2800000 	mov	x0, #0x0                   	// #0
    8ba0:	17ffff9d 	b	8a14 <raw_calloc>

0000000000008ba4 <realloc>:
realloc_unlocked():
/home/fangjiang/workspace/optee-os/lib/libutils/isoc/bget_malloc.c:745
    8ba4:	aa0103e3 	mov	x3, x1
    8ba8:	d0000024 	adrp	x4, e000 <_DYNAMIC>
    8bac:	d2800002 	mov	x2, #0x0                   	// #0
    8bb0:	910fc084 	add	x4, x4, #0x3f0
    8bb4:	d2800001 	mov	x1, #0x0                   	// #0
    8bb8:	17ffffab 	b	8a64 <raw_realloc>

0000000000008bbc <memalign>:
memalign():
/home/fangjiang/workspace/optee-os/lib/libutils/isoc/bget_malloc.c:763
    8bbc:	aa0103e3 	mov	x3, x1
    8bc0:	aa0003e2 	mov	x2, x0
    8bc4:	d0000024 	adrp	x4, e000 <_DYNAMIC>
    8bc8:	d2800001 	mov	x1, #0x0                   	// #0
    8bcc:	910fc084 	add	x4, x4, #0x3f0
    8bd0:	d2800000 	mov	x0, #0x0                   	// #0
    8bd4:	17ffff73 	b	89a0 <raw_memalign>

0000000000008bd8 <free>:
free_helper():
/home/fangjiang/workspace/optee-os/lib/libutils/isoc/bget_malloc.c:728
    8bd8:	52800002 	mov	w2, #0x0                   	// #0
    8bdc:	d0000021 	adrp	x1, e000 <_DYNAMIC>
    8be0:	910fc021 	add	x1, x1, #0x3f0
    8be4:	17ffff88 	b	8a04 <raw_free>

0000000000008be8 <free_wipe>:
    8be8:	52800022 	mov	w2, #0x1                   	// #1
    8bec:	d0000021 	adrp	x1, e000 <_DYNAMIC>
    8bf0:	910fc021 	add	x1, x1, #0x3f0
    8bf4:	17ffff84 	b	8a04 <raw_free>

0000000000008bf8 <raw_malloc_get_ctx_size>:
raw_malloc_get_ctx_size():
/home/fangjiang/workspace/optee-os/lib/libutils/isoc/bget_malloc.c:896
    8bf8:	d2800600 	mov	x0, #0x30                  	// #48
    8bfc:	d65f03c0 	ret

0000000000008c00 <raw_malloc_init_ctx>:
raw_malloc_init_ctx():
/home/fangjiang/workspace/optee-os/lib/libutils/isoc/bget_malloc.c:900
    8c00:	4f000400 	movi	v0.4s, #0x0
    8c04:	ad000000 	stp	q0, q0, [x0]
/home/fangjiang/workspace/optee-os/lib/libutils/isoc/bget_malloc.c:902
    8c08:	a9010000 	stp	x0, x0, [x0, #16]
/home/fangjiang/workspace/optee-os/lib/libutils/isoc/bget_malloc.c:900
    8c0c:	3d800800 	str	q0, [x0, #32]
/home/fangjiang/workspace/optee-os/lib/libutils/isoc/bget_malloc.c:903
    8c10:	d65f03c0 	ret

0000000000008c14 <raw_malloc_add_pool>:
raw_malloc_add_pool():
/home/fangjiang/workspace/optee-os/lib/libutils/isoc/bget_malloc.c:907
    8c14:	17ffffa4 	b	8aa4 <gen_malloc_add_pool>

0000000000008c18 <malloc_add_pool>:
malloc_add_pool():
/home/fangjiang/workspace/optee-os/lib/libutils/isoc/bget_malloc.c:919
    8c18:	aa0103e2 	mov	x2, x1
    8c1c:	aa0003e1 	mov	x1, x0
    8c20:	d0000020 	adrp	x0, e000 <_DYNAMIC>
    8c24:	910fc000 	add	x0, x0, #0x3f0
    8c28:	17ffff9f 	b	8aa4 <gen_malloc_add_pool>

0000000000008c2c <malloc_buffer_is_within_alloced>:
gen_malloc_buffer_is_within_alloced():
/home/fangjiang/workspace/optee-os/lib/libutils/isoc/bget_malloc.c:839
    8c2c:	ab010001 	adds	x1, x0, x1
    8c30:	54000b82 	b.cs	8da0 <malloc_buffer_is_within_alloced+0x174>  // b.hs, b.nlast
    8c34:	aa0003e4 	mov	x4, x0
bpool_foreach_iterator_init():
/home/fangjiang/workspace/optee-os/lib/libutils/isoc/bget_malloc.c:290
    8c38:	d0000020 	adrp	x0, e000 <_DYNAMIC>
    8c3c:	910fc000 	add	x0, x0, #0x3f0
/home/fangjiang/workspace/optee-os/lib/libutils/isoc/bget_malloc.c:289
    8c40:	d2800006 	mov	x6, #0x0                   	// #0
bpool_foreach_pool():
/home/fangjiang/workspace/optee-os/lib/libutils/isoc/bget_malloc.c:299
    8c44:	d2f0000a 	mov	x10, #0x8000000000000000    	// #-9223372036854775808
    8c48:	928001eb 	mov	x11, #0xfffffffffffffff0    	// #-16
bpool_foreach():
/home/fangjiang/workspace/optee-os/lib/libutils/isoc/bget_malloc.c:336
    8c4c:	a9422407 	ldp	x7, x9, [x0, #32]
bpool_foreach_iterator_init():
/home/fangjiang/workspace/optee-os/lib/libutils/isoc/bget_malloc.c:290
    8c50:	f94000e3 	ldr	x3, [x7]
/home/fangjiang/workspace/optee-os/lib/libutils/isoc/bget_malloc.c:289
    8c54:	aa0303e0 	mov	x0, x3
bpool_foreach_pool():
/home/fangjiang/workspace/optee-os/lib/libutils/isoc/bget_malloc.c:297
    8c58:	f9400462 	ldr	x2, [x3, #8]
/home/fangjiang/workspace/optee-os/lib/libutils/isoc/bget_malloc.c:299
    8c5c:	eb0a005f 	cmp	x2, x10
    8c60:	540009a0 	b.eq	8d94 <malloc_buffer_is_within_alloced+0x168>  // b.none
malloc_buffer_is_within_alloced():
/home/fangjiang/workspace/optee-os/lib/libutils/isoc/bget_malloc.c:923
    8c64:	a9bf7bfd 	stp	x29, x30, [sp, #-16]!
    8c68:	910003fd 	mov	x29, sp
    8c6c:	1400000d 	b	8ca0 <malloc_buffer_is_within_alloced+0x74>
bpool_foreach_pool():
/home/fangjiang/workspace/optee-os/lib/libutils/isoc/bget_malloc.c:316
    8c70:	91004005 	add	x5, x0, #0x10
gen_malloc_buffer_is_within_alloced():
/home/fangjiang/workspace/optee-os/lib/libutils/isoc/bget_malloc.c:848
    8c74:	8b0200a2 	add	x2, x5, x2
/home/fangjiang/workspace/optee-os/lib/libutils/isoc/bget_malloc.c:850
    8c78:	eb02003f 	cmp	x1, x2
    8c7c:	1a9f87e0 	cset	w0, ls  // ls = plast
    8c80:	eb05009f 	cmp	x4, x5
    8c84:	1a9f37e2 	cset	w2, cs  // cs = hs, nlast
    8c88:	6a020000 	ands	w0, w0, w2
    8c8c:	540007a1 	b.ne	8d80 <malloc_buffer_is_within_alloced+0x154>  // b.any
bpool_foreach_pool():
/home/fangjiang/workspace/optee-os/lib/libutils/isoc/bget_malloc.c:297
    8c90:	f9400462 	ldr	x2, [x3, #8]
bpool_foreach_iterator_init():
/home/fangjiang/workspace/optee-os/lib/libutils/isoc/bget_malloc.c:289
    8c94:	aa0303e0 	mov	x0, x3
bpool_foreach_pool():
/home/fangjiang/workspace/optee-os/lib/libutils/isoc/bget_malloc.c:299
    8c98:	eb0a005f 	cmp	x2, x10
    8c9c:	540006a0 	b.eq	8d70 <malloc_buffer_is_within_alloced+0x144>  // b.none
/home/fangjiang/workspace/optee-os/lib/libutils/isoc/bget_malloc.c:302
    8ca0:	b6f80242 	tbz	x2, #63, 8ce8 <malloc_buffer_is_within_alloced+0xbc>
/home/fangjiang/workspace/optee-os/lib/libutils/isoc/bget_malloc.c:304
    8ca4:	cb0203e8 	neg	x8, x2
/home/fangjiang/workspace/optee-os/lib/libutils/isoc/bget_malloc.c:306
    8ca8:	52800005 	mov	w5, #0x0                   	// #0
/home/fangjiang/workspace/optee-os/lib/libutils/isoc/bget_malloc.c:319
    8cac:	8b080063 	add	x3, x3, x8
bpool_foreach():
/home/fangjiang/workspace/optee-os/lib/libutils/isoc/bget_malloc.c:331
    8cb0:	35ffff05 	cbnz	w5, 8c90 <malloc_buffer_is_within_alloced+0x64>
bget_buf_size():
/home/fangjiang/workspace/optee-os/lib/libutils/isoc/bget_malloc.c:460
    8cb4:	cb020162 	sub	x2, x11, x2
/home/fangjiang/workspace/optee-os/lib/libutils/isoc/bget_malloc.c:461
    8cb8:	f100005f 	cmp	x2, #0x0
    8cbc:	54fffdac 	b.gt	8c70 <malloc_buffer_is_within_alloced+0x44>
    8cc0:	b0000023 	adrp	x3, d000 <__func__.0+0x5bb>
    8cc4:	91059063 	add	x3, x3, #0x164
    8cc8:	9100c063 	add	x3, x3, #0x30
    8ccc:	b0000021 	adrp	x1, d000 <__func__.0+0x5bb>
    8cd0:	b0000020 	adrp	x0, d000 <__func__.0+0x5bb>
    8cd4:	91050821 	add	x1, x1, #0x142
    8cd8:	91040c00 	add	x0, x0, #0x103
    8cdc:	528039a2 	mov	w2, #0x1cd                 	// #461
    8ce0:	97ffec09 	bl	3d04 <_assert_log>
    8ce4:	97ffec19 	bl	3d48 <_assert_break>
bpool_foreach_pool():
/home/fangjiang/workspace/optee-os/lib/libutils/isoc/bget_malloc.c:312
    8ce8:	f9400c65 	ldr	x5, [x3, #24]
    8cec:	f94008a5 	ldr	x5, [x5, #16]
    8cf0:	eb0300bf 	cmp	x5, x3
    8cf4:	54000160 	b.eq	8d20 <malloc_buffer_is_within_alloced+0xf4>  // b.none
    8cf8:	b0000023 	adrp	x3, d000 <__func__.0+0x5bb>
    8cfc:	91059063 	add	x3, x3, #0x164
    8d00:	9100f863 	add	x3, x3, #0x3e
    8d04:	b0000021 	adrp	x1, d000 <__func__.0+0x5bb>
    8d08:	90000020 	adrp	x0, c000 <__text_end+0x1cb0>
    8d0c:	91050821 	add	x1, x1, #0x142
    8d10:	913c2c00 	add	x0, x0, #0xf0b
    8d14:	52802702 	mov	w2, #0x138                 	// #312
    8d18:	97ffebfb 	bl	3d04 <_assert_log>
    8d1c:	97ffec0b 	bl	3d48 <_assert_break>
/home/fangjiang/workspace/optee-os/lib/libutils/isoc/bget_malloc.c:313
    8d20:	f9400865 	ldr	x5, [x3, #16]
    8d24:	f9400ca5 	ldr	x5, [x5, #24]
    8d28:	eb0300bf 	cmp	x5, x3
    8d2c:	54000160 	b.eq	8d58 <malloc_buffer_is_within_alloced+0x12c>  // b.none
    8d30:	b0000023 	adrp	x3, d000 <__func__.0+0x5bb>
    8d34:	91059063 	add	x3, x3, #0x164
    8d38:	9100f863 	add	x3, x3, #0x3e
    8d3c:	b0000021 	adrp	x1, d000 <__func__.0+0x5bb>
    8d40:	90000020 	adrp	x0, c000 <__text_end+0x1cb0>
    8d44:	91050821 	add	x1, x1, #0x142
    8d48:	913c9800 	add	x0, x0, #0xf26
    8d4c:	52802722 	mov	w2, #0x139                 	// #313
    8d50:	97ffebed 	bl	3d04 <_assert_log>
    8d54:	97ffebfd 	bl	3d48 <_assert_break>
    8d58:	aa0203e8 	mov	x8, x2
/home/fangjiang/workspace/optee-os/lib/libutils/isoc/bget_malloc.c:309
    8d5c:	52800025 	mov	w5, #0x1                   	// #1
    8d60:	17ffffd3 	b	8cac <malloc_buffer_is_within_alloced+0x80>
bpool_foreach():
/home/fangjiang/workspace/optee-os/lib/libutils/isoc/bget_malloc.c:340
    8d64:	d37cecc0 	lsl	x0, x6, #4
    8d68:	f86068e3 	ldr	x3, [x7, x0]
    8d6c:	17ffffc9 	b	8c90 <malloc_buffer_is_within_alloced+0x64>
/home/fangjiang/workspace/optee-os/lib/libutils/isoc/bget_malloc.c:336
    8d70:	910004c6 	add	x6, x6, #0x1
    8d74:	eb0900df 	cmp	x6, x9
    8d78:	54ffff63 	b.cc	8d64 <malloc_buffer_is_within_alloced+0x138>  // b.lo, b.ul, b.last
gen_malloc_buffer_is_within_alloced():
/home/fangjiang/workspace/optee-os/lib/libutils/isoc/bget_malloc.c:833
    8d7c:	52800000 	mov	w0, #0x0                   	// #0
malloc_buffer_is_within_alloced():
/home/fangjiang/workspace/optee-os/lib/libutils/isoc/bget_malloc.c:925
    8d80:	a8c17bfd 	ldp	x29, x30, [sp], #16
    8d84:	d65f03c0 	ret
bpool_foreach():
/home/fangjiang/workspace/optee-os/lib/libutils/isoc/bget_malloc.c:340
    8d88:	d37cecc0 	lsl	x0, x6, #4
    8d8c:	f86068e3 	ldr	x3, [x7, x0]
    8d90:	17ffffb1 	b	8c54 <malloc_buffer_is_within_alloced+0x28>
/home/fangjiang/workspace/optee-os/lib/libutils/isoc/bget_malloc.c:336
    8d94:	910004c6 	add	x6, x6, #0x1
    8d98:	eb0900df 	cmp	x6, x9
    8d9c:	54ffff63 	b.cc	8d88 <malloc_buffer_is_within_alloced+0x15c>  // b.lo, b.ul, b.last
gen_malloc_buffer_is_within_alloced():
/home/fangjiang/workspace/optee-os/lib/libutils/isoc/bget_malloc.c:833
    8da0:	52800000 	mov	w0, #0x0                   	// #0
malloc_buffer_is_within_alloced():
/home/fangjiang/workspace/optee-os/lib/libutils/isoc/bget_malloc.c:925
    8da4:	d65f03c0 	ret

0000000000008da8 <malloc_buffer_overlaps_heap>:
malloc_buffer_overlaps_heap():
/home/fangjiang/workspace/optee-os/lib/libutils/isoc/bget_malloc.c:929
    8da8:	ab010001 	adds	x1, x0, x1
/home/fangjiang/workspace/optee-os/lib/libutils/isoc/bget_malloc.c:928
    8dac:	aa0003e3 	mov	x3, x0
gen_malloc_buffer_overlaps_heap():
/home/fangjiang/workspace/optee-os/lib/libutils/isoc/bget_malloc.c:873
    8db0:	d0000020 	adrp	x0, e000 <_DYNAMIC>
    8db4:	910fc000 	add	x0, x0, #0x3f0
    8db8:	9a9f37e9 	cset	x9, cs  // cs = hs, nlast
    8dbc:	d2800007 	mov	x7, #0x0                   	// #0
    8dc0:	a9422004 	ldp	x4, x8, [x0, #32]
    8dc4:	eb0800ff 	cmp	x7, x8
    8dc8:	54000061 	b.ne	8dd4 <malloc_buffer_overlaps_heap+0x2c>  // b.any
/home/fangjiang/workspace/optee-os/lib/libutils/isoc/bget_malloc.c:868
    8dcc:	52800000 	mov	w0, #0x0                   	// #0
malloc_buffer_overlaps_heap():
/home/fangjiang/workspace/optee-os/lib/libutils/isoc/bget_malloc.c:930
    8dd0:	d65f03c0 	ret
gen_malloc_buffer_overlaps_heap():
/home/fangjiang/workspace/optee-os/lib/libutils/isoc/bget_malloc.c:874
    8dd4:	a9400086 	ldp	x6, x0, [x4]
/home/fangjiang/workspace/optee-os/lib/libutils/isoc/bget_malloc.c:877
    8dd8:	ab0000c5 	adds	x5, x6, x0
    8ddc:	1a9f37e2 	cset	w2, cs  // cs = hs, nlast
    8de0:	2a090040 	orr	w0, w2, w9
    8de4:	35ffff60 	cbnz	w0, 8dd0 <malloc_buffer_overlaps_heap+0x28>
/home/fangjiang/workspace/optee-os/lib/libutils/isoc/bget_malloc.c:882
    8de8:	eb06003f 	cmp	x1, x6
    8dec:	91004084 	add	x4, x4, #0x10
    8df0:	1a9f97e2 	cset	w2, hi  // hi = pmore
    8df4:	eb05007f 	cmp	x3, x5
    8df8:	1a9f27e0 	cset	w0, cc  // cc = lo, ul, last
    8dfc:	2a000040 	orr	w0, w2, w0
    8e00:	35fffe80 	cbnz	w0, 8dd0 <malloc_buffer_overlaps_heap+0x28>
/home/fangjiang/workspace/optee-os/lib/libutils/isoc/bget_malloc.c:873
    8e04:	910004e7 	add	x7, x7, #0x1
    8e08:	17ffffef 	b	8dc4 <malloc_buffer_overlaps_heap+0x1c>

0000000000008e0c <snprintf>:
snprintf():
/home/fangjiang/workspace/optee-os/lib/libutils/isoc/snprintf.c:10
    8e0c:	d104c3ff 	sub	sp, sp, #0x130
    8e10:	a9057bfd 	stp	x29, x30, [sp, #80]
    8e14:	910143fd 	add	x29, sp, #0x50
    8e18:	a90653f3 	stp	x19, x20, [sp, #96]
    8e1c:	d0000033 	adrp	x19, e000 <_DYNAMIC>
    8e20:	aa0003f4 	mov	x20, x0
    8e24:	f9409a60 	ldr	x0, [x19, #304]
    8e28:	a9075bf5 	stp	x21, x22, [sp, #112]
    8e2c:	aa0103f5 	mov	x21, x1
    8e30:	3d8023e0 	str	q0, [sp, #128]
    8e34:	aa0203f6 	mov	x22, x2
/home/fangjiang/workspace/optee-os/lib/libutils/isoc/snprintf.c:15
    8e38:	d2800402 	mov	x2, #0x20                  	// #32
/home/fangjiang/workspace/optee-os/lib/libutils/isoc/snprintf.c:10
    8e3c:	3d8027e1 	str	q1, [sp, #144]
    8e40:	3d802be2 	str	q2, [sp, #160]
    8e44:	3d802fe3 	str	q3, [sp, #176]
    8e48:	3d8033e4 	str	q4, [sp, #192]
    8e4c:	3d8037e5 	str	q5, [sp, #208]
    8e50:	3d803be6 	str	q6, [sp, #224]
    8e54:	3d803fe7 	str	q7, [sp, #240]
    8e58:	a91093e3 	stp	x3, x4, [sp, #264]
/home/fangjiang/workspace/optee-os/lib/libutils/isoc/snprintf.c:15
    8e5c:	910003e3 	mov	x3, sp
/home/fangjiang/workspace/optee-os/lib/libutils/isoc/snprintf.c:10
    8e60:	a9119be5 	stp	x5, x6, [sp, #280]
    8e64:	f90097e7 	str	x7, [sp, #296]
    8e68:	f9400001 	ldr	x1, [x0]
    8e6c:	f90027e1 	str	x1, [sp, #72]
    8e70:	d2800001 	mov	x1, #0x0                   	// #0
/home/fangjiang/workspace/optee-os/lib/libutils/isoc/snprintf.c:14
    8e74:	9104c3e0 	add	x0, sp, #0x130
    8e78:	a90283e0 	stp	x0, x0, [sp, #40]
    8e7c:	910403e0 	add	x0, sp, #0x100
/home/fangjiang/workspace/optee-os/lib/libutils/isoc/snprintf.c:15
    8e80:	9100a3e1 	add	x1, sp, #0x28
/home/fangjiang/workspace/optee-os/lib/libutils/isoc/snprintf.c:14
    8e84:	f9001fe0 	str	x0, [sp, #56]
    8e88:	128004e0 	mov	w0, #0xffffffd8            	// #-40
    8e8c:	b90043e0 	str	w0, [sp, #64]
    8e90:	12800fe0 	mov	w0, #0xffffff80            	// #-128
    8e94:	b90047e0 	str	w0, [sp, #68]
/home/fangjiang/workspace/optee-os/lib/libutils/isoc/snprintf.c:15
    8e98:	aa0303e0 	mov	x0, x3
    8e9c:	97ffdc61 	bl	20 <memcpy>
    8ea0:	aa0003e3 	mov	x3, x0
    8ea4:	aa1603e2 	mov	x2, x22
    8ea8:	aa1503e1 	mov	x1, x21
    8eac:	aa1403e0 	mov	x0, x20
    8eb0:	52800004 	mov	w4, #0x0                   	// #0
    8eb4:	94000049 	bl	8fd8 <__vsnprintf>
/home/fangjiang/workspace/optee-os/lib/libutils/isoc/snprintf.c:19
    8eb8:	f9409a73 	ldr	x19, [x19, #304]
    8ebc:	f94027e1 	ldr	x1, [sp, #72]
    8ec0:	f9400262 	ldr	x2, [x19]
    8ec4:	eb020021 	subs	x1, x1, x2
    8ec8:	d2800002 	mov	x2, #0x0                   	// #0
    8ecc:	54000040 	b.eq	8ed4 <snprintf+0xc8>  // b.none
    8ed0:	9400001c 	bl	8f40 <__stack_chk_fail>
    8ed4:	a9457bfd 	ldp	x29, x30, [sp, #80]
    8ed8:	a94653f3 	ldp	x19, x20, [sp, #96]
    8edc:	a9475bf5 	ldp	x21, x22, [sp, #112]
    8ee0:	9104c3ff 	add	sp, sp, #0x130
    8ee4:	d65f03c0 	ret

0000000000008ee8 <vsnprintf>:
vsnprintf():
/home/fangjiang/workspace/optee-os/lib/libutils/isoc/snprintf.c:22
    8ee8:	a9bb7bfd 	stp	x29, x30, [sp, #-80]!
/home/fangjiang/workspace/optee-os/lib/libutils/isoc/snprintf.c:23
    8eec:	9100c3e4 	add	x4, sp, #0x30
/home/fangjiang/workspace/optee-os/lib/libutils/isoc/snprintf.c:22
    8ef0:	910003fd 	mov	x29, sp
    8ef4:	a90153f3 	stp	x19, x20, [sp, #16]
    8ef8:	aa0003f3 	mov	x19, x0
    8efc:	aa0103f4 	mov	x20, x1
/home/fangjiang/workspace/optee-os/lib/libutils/isoc/snprintf.c:23
    8f00:	aa0403e0 	mov	x0, x4
/home/fangjiang/workspace/optee-os/lib/libutils/isoc/snprintf.c:22
    8f04:	aa0303e1 	mov	x1, x3
    8f08:	f90013f5 	str	x21, [sp, #32]
    8f0c:	aa0203f5 	mov	x21, x2
/home/fangjiang/workspace/optee-os/lib/libutils/isoc/snprintf.c:23
    8f10:	d2800402 	mov	x2, #0x20                  	// #32
    8f14:	97ffdc43 	bl	20 <memcpy>
    8f18:	aa1503e2 	mov	x2, x21
    8f1c:	aa0003e3 	mov	x3, x0
    8f20:	aa1403e1 	mov	x1, x20
    8f24:	aa1303e0 	mov	x0, x19
    8f28:	52800004 	mov	w4, #0x0                   	// #0
    8f2c:	9400002b 	bl	8fd8 <__vsnprintf>
/home/fangjiang/workspace/optee-os/lib/libutils/isoc/snprintf.c:24
    8f30:	a94153f3 	ldp	x19, x20, [sp, #16]
    8f34:	f94013f5 	ldr	x21, [sp, #32]
    8f38:	a8c57bfd 	ldp	x29, x30, [sp], #80
    8f3c:	d65f03c0 	ret

0000000000008f40 <__stack_chk_fail>:
__stack_chk_fail():
/home/fangjiang/workspace/optee-os/lib/libutils/isoc/stack_check.c:12 (discriminator 1)
    8f40:	14000000 	b	8f40 <__stack_chk_fail>

0000000000008f44 <memmove>:
memmove():
/home/fangjiang/workspace/optee-os/lib/libutils/isoc/newlib/memmove.c:96
    8f44:	eb01001f 	cmp	x0, x1
    8f48:	54000289 	b.ls	8f98 <memmove+0x54>  // b.plast
/home/fangjiang/workspace/optee-os/lib/libutils/isoc/newlib/memmove.c:96 (discriminator 1)
    8f4c:	8b020023 	add	x3, x1, x2
    8f50:	eb00007f 	cmp	x3, x0
    8f54:	54000229 	b.ls	8f98 <memmove+0x54>  // b.plast
/home/fangjiang/workspace/optee-os/lib/libutils/isoc/newlib/memmove.c:99
    8f58:	8b020004 	add	x4, x0, x2
/home/fangjiang/workspace/optee-os/lib/libutils/isoc/newlib/memmove.c:100
    8f5c:	aa2203e2 	mvn	x2, x2
    8f60:	d2800001 	mov	x1, #0x0                   	// #0
    8f64:	d1000421 	sub	x1, x1, #0x1
    8f68:	eb01005f 	cmp	x2, x1
    8f6c:	54000041 	b.ne	8f74 <memmove+0x30>  // b.any
/home/fangjiang/workspace/optee-os/lib/libutils/isoc/newlib/memmove.c:157
    8f70:	d65f03c0 	ret
/home/fangjiang/workspace/optee-os/lib/libutils/isoc/newlib/memmove.c:101
    8f74:	38616865 	ldrb	w5, [x3, x1]
    8f78:	38216885 	strb	w5, [x4, x1]
    8f7c:	17fffffa 	b	8f64 <memmove+0x20>
/home/fangjiang/workspace/optee-os/lib/libutils/isoc/newlib/memmove.c:104
    8f80:	38636824 	ldrb	w4, [x1, x3]
    8f84:	38236804 	strb	w4, [x0, x3]
    8f88:	91000463 	add	x3, x3, #0x1
/home/fangjiang/workspace/optee-os/lib/libutils/isoc/newlib/memmove.c:103
    8f8c:	eb03005f 	cmp	x2, x3
    8f90:	54ffff81 	b.ne	8f80 <memmove+0x3c>  // b.any
    8f94:	17fffff7 	b	8f70 <memmove+0x2c>
    8f98:	d2800003 	mov	x3, #0x0                   	// #0
    8f9c:	17fffffc 	b	8f8c <memmove+0x48>

0000000000008fa0 <memset>:
memset():
/home/fangjiang/workspace/optee-os/lib/libutils/isoc/newlib/memset.c:125
    8fa0:	d2800003 	mov	x3, #0x0                   	// #0
    8fa4:	eb03005f 	cmp	x2, x3
    8fa8:	54000041 	b.ne	8fb0 <memset+0x10>  // b.any
/home/fangjiang/workspace/optee-os/lib/libutils/isoc/newlib/memset.c:129
    8fac:	d65f03c0 	ret
/home/fangjiang/workspace/optee-os/lib/libutils/isoc/newlib/memset.c:126
    8fb0:	38236801 	strb	w1, [x0, x3]
    8fb4:	91000463 	add	x3, x3, #0x1
    8fb8:	17fffffb 	b	8fa4 <memset+0x4>

0000000000008fbc <strlen>:
strlen():
/home/fangjiang/workspace/optee-os/lib/libutils/isoc/newlib/strlen.c:117
    8fbc:	aa0003e1 	mov	x1, x0
    8fc0:	39400022 	ldrb	w2, [x1]
    8fc4:	35000062 	cbnz	w2, 8fd0 <strlen+0x14>
/home/fangjiang/workspace/optee-os/lib/libutils/isoc/newlib/strlen.c:120
    8fc8:	cb000020 	sub	x0, x1, x0
    8fcc:	d65f03c0 	ret
/home/fangjiang/workspace/optee-os/lib/libutils/isoc/newlib/strlen.c:118
    8fd0:	91000421 	add	x1, x1, #0x1
    8fd4:	17fffffb 	b	8fc0 <strlen+0x4>

0000000000008fd8 <__vsnprintf>:
__vsnprintf():
/home/fangjiang/workspace/optee-os/lib/libutils/ext/snprintk.c:138
    8fd8:	d101c3ff 	sub	sp, sp, #0x70
    8fdc:	d0000025 	adrp	x5, e000 <_DYNAMIC>
    8fe0:	a9037bfd 	stp	x29, x30, [sp, #48]
    8fe4:	9100c3fd 	add	x29, sp, #0x30
    8fe8:	f94098a5 	ldr	x5, [x5, #304]
    8fec:	a90453f3 	stp	x19, x20, [sp, #64]
    8ff0:	aa0103f4 	mov	x20, x1
    8ff4:	a9055bf5 	stp	x21, x22, [sp, #80]
    8ff8:	aa0003f3 	mov	x19, x0
/home/fangjiang/workspace/optee-os/lib/libutils/ext/snprintk.c:142
    8ffc:	8b140016 	add	x22, x0, x20
/home/fangjiang/workspace/optee-os/lib/libutils/ext/snprintk.c:138
    9000:	f90033f7 	str	x23, [sp, #96]
    9004:	aa0303e1 	mov	x1, x3
    9008:	aa0203f5 	mov	x21, x2
    900c:	12001c97 	and	w23, w4, #0xff
    9010:	f94000a0 	ldr	x0, [x5]
    9014:	f90017e0 	str	x0, [sp, #40]
    9018:	d2800000 	mov	x0, #0x0                   	// #0
/home/fangjiang/workspace/optee-os/lib/libutils/ext/snprintk.c:143
    901c:	910003e5 	mov	x5, sp
    9020:	aa0503e0 	mov	x0, x5
    9024:	d2800402 	mov	x2, #0x20                  	// #32
/home/fangjiang/workspace/optee-os/lib/libutils/ext/snprintk.c:142
    9028:	f90013f6 	str	x22, [sp, #32]
/home/fangjiang/workspace/optee-os/lib/libutils/ext/snprintk.c:143
    902c:	97ffdbfd 	bl	20 <memcpy>
    9030:	aa0003e3 	mov	x3, x0
    9034:	2a1703e4 	mov	w4, w23
    9038:	aa1303e2 	mov	x2, x19
    903c:	910083e1 	add	x1, sp, #0x20
    9040:	aa1503e0 	mov	x0, x21
    9044:	94000064 	bl	91d4 <kprintf.constprop.0>
/home/fangjiang/workspace/optee-os/lib/libutils/ext/snprintk.c:144
    9048:	f100027f 	cmp	x19, #0x0
    904c:	fa401a84 	ccmp	x20, #0x0, #0x4, ne  // ne = any
    9050:	540000a0 	b.eq	9064 <__vsnprintf+0x8c>  // b.none
/home/fangjiang/workspace/optee-os/lib/libutils/ext/snprintk.c:146
    9054:	93407c01 	sxtw	x1, w0
    9058:	eb20c29f 	cmp	x20, w0, sxtw
    905c:	54000148 	b.hi	9084 <__vsnprintf+0xac>  // b.pmore
/home/fangjiang/workspace/optee-os/lib/libutils/ext/snprintk.c:147
    9060:	381ff2df 	sturb	wzr, [x22, #-1]
/home/fangjiang/workspace/optee-os/lib/libutils/ext/snprintk.c:152
    9064:	b0000025 	adrp	x5, e000 <_DYNAMIC>
    9068:	f94098a5 	ldr	x5, [x5, #304]
    906c:	f94017e1 	ldr	x1, [sp, #40]
    9070:	f94000a2 	ldr	x2, [x5]
    9074:	eb020021 	subs	x1, x1, x2
    9078:	d2800002 	mov	x2, #0x0                   	// #0
    907c:	54000080 	b.eq	908c <__vsnprintf+0xb4>  // b.none
    9080:	97ffffb0 	bl	8f40 <__stack_chk_fail>
/home/fangjiang/workspace/optee-os/lib/libutils/ext/snprintk.c:149
    9084:	38216a7f 	strb	wzr, [x19, x1]
/home/fangjiang/workspace/optee-os/lib/libutils/ext/snprintk.c:151
    9088:	17fffff7 	b	9064 <__vsnprintf+0x8c>
/home/fangjiang/workspace/optee-os/lib/libutils/ext/snprintk.c:152
    908c:	a9437bfd 	ldp	x29, x30, [sp, #48]
    9090:	a94453f3 	ldp	x19, x20, [sp, #64]
    9094:	a9455bf5 	ldp	x21, x22, [sp, #80]
    9098:	f94033f7 	ldr	x23, [sp, #96]
    909c:	9101c3ff 	add	sp, sp, #0x70
    90a0:	d65f03c0 	ret

00000000000090a4 <vsnprintk>:
vsnprintk():
/home/fangjiang/workspace/optee-os/lib/libutils/ext/snprintk.c:130
    90a4:	a9bb7bfd 	stp	x29, x30, [sp, #-80]!
/home/fangjiang/workspace/optee-os/lib/libutils/ext/snprintk.c:131
    90a8:	9100c3e4 	add	x4, sp, #0x30
/home/fangjiang/workspace/optee-os/lib/libutils/ext/snprintk.c:130
    90ac:	910003fd 	mov	x29, sp
    90b0:	a90153f3 	stp	x19, x20, [sp, #16]
    90b4:	aa0003f3 	mov	x19, x0
    90b8:	aa0103f4 	mov	x20, x1
/home/fangjiang/workspace/optee-os/lib/libutils/ext/snprintk.c:131
    90bc:	aa0403e0 	mov	x0, x4
/home/fangjiang/workspace/optee-os/lib/libutils/ext/snprintk.c:130
    90c0:	aa0303e1 	mov	x1, x3
    90c4:	f90013f5 	str	x21, [sp, #32]
    90c8:	aa0203f5 	mov	x21, x2
/home/fangjiang/workspace/optee-os/lib/libutils/ext/snprintk.c:131
    90cc:	d2800402 	mov	x2, #0x20                  	// #32
    90d0:	97ffdbd4 	bl	20 <memcpy>
    90d4:	aa1503e2 	mov	x2, x21
    90d8:	aa0003e3 	mov	x3, x0
    90dc:	aa1403e1 	mov	x1, x20
    90e0:	aa1303e0 	mov	x0, x19
    90e4:	52800024 	mov	w4, #0x1                   	// #1
    90e8:	97ffffbc 	bl	8fd8 <__vsnprintf>
/home/fangjiang/workspace/optee-os/lib/libutils/ext/snprintk.c:132
    90ec:	a94153f3 	ldp	x19, x20, [sp, #16]
    90f0:	f94013f5 	ldr	x21, [sp, #32]
    90f4:	a8c57bfd 	ldp	x29, x30, [sp], #80
    90f8:	d65f03c0 	ret

00000000000090fc <snprintk>:
snprintk():
/home/fangjiang/workspace/optee-os/lib/libutils/ext/snprintk.c:113
    90fc:	d104c3ff 	sub	sp, sp, #0x130
    9100:	a9057bfd 	stp	x29, x30, [sp, #80]
    9104:	910143fd 	add	x29, sp, #0x50
    9108:	a90653f3 	stp	x19, x20, [sp, #96]
    910c:	b0000033 	adrp	x19, e000 <_DYNAMIC>
    9110:	aa0003f4 	mov	x20, x0
    9114:	f9409a60 	ldr	x0, [x19, #304]
    9118:	a9075bf5 	stp	x21, x22, [sp, #112]
    911c:	aa0103f5 	mov	x21, x1
    9120:	3d8023e0 	str	q0, [sp, #128]
    9124:	aa0203f6 	mov	x22, x2
/home/fangjiang/workspace/optee-os/lib/libutils/ext/snprintk.c:118
    9128:	d2800402 	mov	x2, #0x20                  	// #32
/home/fangjiang/workspace/optee-os/lib/libutils/ext/snprintk.c:113
    912c:	3d8027e1 	str	q1, [sp, #144]
    9130:	3d802be2 	str	q2, [sp, #160]
    9134:	3d802fe3 	str	q3, [sp, #176]
    9138:	3d8033e4 	str	q4, [sp, #192]
    913c:	3d8037e5 	str	q5, [sp, #208]
    9140:	3d803be6 	str	q6, [sp, #224]
    9144:	3d803fe7 	str	q7, [sp, #240]
    9148:	a91093e3 	stp	x3, x4, [sp, #264]
/home/fangjiang/workspace/optee-os/lib/libutils/ext/snprintk.c:118
    914c:	910003e3 	mov	x3, sp
/home/fangjiang/workspace/optee-os/lib/libutils/ext/snprintk.c:113
    9150:	a9119be5 	stp	x5, x6, [sp, #280]
    9154:	f90097e7 	str	x7, [sp, #296]
    9158:	f9400001 	ldr	x1, [x0]
    915c:	f90027e1 	str	x1, [sp, #72]
    9160:	d2800001 	mov	x1, #0x0                   	// #0
/home/fangjiang/workspace/optee-os/lib/libutils/ext/snprintk.c:117
    9164:	9104c3e0 	add	x0, sp, #0x130
    9168:	a90283e0 	stp	x0, x0, [sp, #40]
    916c:	910403e0 	add	x0, sp, #0x100
/home/fangjiang/workspace/optee-os/lib/libutils/ext/snprintk.c:118
    9170:	9100a3e1 	add	x1, sp, #0x28
/home/fangjiang/workspace/optee-os/lib/libutils/ext/snprintk.c:117
    9174:	f9001fe0 	str	x0, [sp, #56]
    9178:	128004e0 	mov	w0, #0xffffffd8            	// #-40
    917c:	b90043e0 	str	w0, [sp, #64]
    9180:	12800fe0 	mov	w0, #0xffffff80            	// #-128
    9184:	b90047e0 	str	w0, [sp, #68]
/home/fangjiang/workspace/optee-os/lib/libutils/ext/snprintk.c:118
    9188:	aa0303e0 	mov	x0, x3
    918c:	97ffdba5 	bl	20 <memcpy>
    9190:	aa0003e3 	mov	x3, x0
    9194:	aa1603e2 	mov	x2, x22
    9198:	aa1503e1 	mov	x1, x21
    919c:	aa1403e0 	mov	x0, x20
    91a0:	97ffffc1 	bl	90a4 <vsnprintk>
/home/fangjiang/workspace/optee-os/lib/libutils/ext/snprintk.c:122
    91a4:	f9409a73 	ldr	x19, [x19, #304]
    91a8:	f94027e1 	ldr	x1, [sp, #72]
    91ac:	f9400262 	ldr	x2, [x19]
    91b0:	eb020021 	subs	x1, x1, x2
    91b4:	d2800002 	mov	x2, #0x0                   	// #0
    91b8:	54000040 	b.eq	91c0 <snprintk+0xc4>  // b.none
    91bc:	97ffff61 	bl	8f40 <__stack_chk_fail>
    91c0:	a9457bfd 	ldp	x29, x30, [sp, #80]
    91c4:	a94653f3 	ldp	x19, x20, [sp, #96]
    91c8:	a9475bf5 	ldp	x21, x22, [sp, #112]
    91cc:	9104c3ff 	add	sp, sp, #0x130
    91d0:	d65f03c0 	ret

00000000000091d4 <kprintf.constprop.0>:
kprintf():
/home/fangjiang/workspace/optee-os/lib/libutils/ext/snprintk.c:242
    91d4:	d103c3ff 	sub	sp, sp, #0xf0
    91d8:	aa0103e9 	mov	x9, x1
    91dc:	a9097bfd 	stp	x29, x30, [sp, #144]
    91e0:	910243fd 	add	x29, sp, #0x90
    91e4:	a90e73fb 	stp	x27, x28, [sp, #224]
    91e8:	aa0003fc 	mov	x28, x0
    91ec:	12001c80 	and	w0, w4, #0xff
    91f0:	b9004be0 	str	w0, [sp, #72]
    91f4:	b0000020 	adrp	x0, e000 <_DYNAMIC>
    91f8:	a90a53f3 	stp	x19, x20, [sp, #160]
    91fc:	b9401874 	ldr	w20, [x3, #24]
    9200:	f9409800 	ldr	x0, [x0, #304]
    9204:	a90b5bf5 	stp	x21, x22, [sp, #176]
    9208:	aa0203f6 	mov	x22, x2
    920c:	a90c63f7 	stp	x23, x24, [sp, #192]
    9210:	a90d6bf9 	stp	x25, x26, [sp, #208]
    9214:	f9400001 	ldr	x1, [x0]
    9218:	f90047e1 	str	x1, [sp, #136]
    921c:	d2800001 	mov	x1, #0x0                   	// #0
    9220:	a9406c73 	ldp	x19, x27, [x3]
/home/fangjiang/workspace/optee-os/lib/libutils/ext/snprintk.c:264
    9224:	b4000489 	cbz	x9, 92b4 <kprintf.constprop.0+0xe0>
/home/fangjiang/workspace/optee-os/lib/libutils/ext/snprintk.c:265
    9228:	f9400139 	ldr	x25, [x9]
/home/fangjiang/workspace/optee-os/lib/libutils/ext/snprintk.c:297
    922c:	f0000018 	adrp	x24, c000 <__text_end+0x1cb0>
/home/fangjiang/workspace/optee-os/lib/libutils/ext/snprintk.c:275
    9230:	d2800017 	mov	x23, #0x0                   	// #0
/home/fangjiang/workspace/optee-os/lib/libutils/ext/snprintk.c:297
    9234:	9115a300 	add	x0, x24, #0x568
/home/fangjiang/workspace/optee-os/lib/libutils/ext/snprintk.c:273
    9238:	5280001a 	mov	w26, #0x0                   	// #0
/home/fangjiang/workspace/optee-os/lib/libutils/ext/snprintk.c:297
    923c:	f9001fe0 	str	x0, [sp, #56]
/home/fangjiang/workspace/optee-os/lib/libutils/ext/snprintk.c:281
    9240:	39400380 	ldrb	w0, [x28]
    9244:	7100941f 	cmp	w0, #0x25
    9248:	7a401804 	ccmp	w0, #0x0, #0x4, ne  // ne = any
    924c:	54000381 	b.ne	92bc <kprintf.constprop.0+0xe8>  // b.any
/home/fangjiang/workspace/optee-os/lib/libutils/ext/snprintk.c:285
    9250:	340051a0 	cbz	w0, 9c84 <kprintf.constprop.0+0xab0>
/home/fangjiang/workspace/optee-os/lib/libutils/ext/snprintk.c:293
    9254:	12800005 	mov	w5, #0xffffffff            	// #-1
/home/fangjiang/workspace/optee-os/lib/libutils/ext/snprintk.c:297
    9258:	f0000002 	adrp	x2, c000 <__text_end+0x1cb0>
/home/fangjiang/workspace/optee-os/lib/libutils/ext/snprintk.c:288
    925c:	9100079c 	add	x28, x28, #0x1
    9260:	2a1403e4 	mov	w4, w20
    9264:	aa1303e3 	mov	x3, x19
/home/fangjiang/workspace/optee-os/lib/libutils/ext/snprintk.c:297
    9268:	91161042 	add	x2, x2, #0x584
/home/fangjiang/workspace/optee-os/lib/libutils/ext/snprintk.c:330
    926c:	2a0503e7 	mov	w7, w5
/home/fangjiang/workspace/optee-os/lib/libutils/ext/snprintk.c:294
    9270:	52800001 	mov	w1, #0x0                   	// #0
/home/fangjiang/workspace/optee-os/lib/libutils/ext/snprintk.c:292
    9274:	5280000b 	mov	w11, #0x0                   	// #0
/home/fangjiang/workspace/optee-os/lib/libutils/ext/snprintk.c:290
    9278:	52800015 	mov	w21, #0x0                   	// #0
/home/fangjiang/workspace/optee-os/lib/libutils/ext/snprintk.c:305
    927c:	5280040d 	mov	w13, #0x20                  	// #32
/home/fangjiang/workspace/optee-os/lib/libutils/ext/snprintk.c:296
    9280:	38401798 	ldrb	w24, [x28], #1
/home/fangjiang/workspace/optee-os/lib/libutils/ext/snprintk.c:297
    9284:	7100e71f 	cmp	w24, #0x39
    9288:	5400036c 	b.gt	92f4 <kprintf.constprop.0+0x120>
    928c:	71007f1f 	cmp	w24, #0x1f
    9290:	54004f8d 	b.le	9c80 <kprintf.constprop.0+0xaac>
    9294:	51008300 	sub	w0, w24, #0x20
    9298:	7100641f 	cmp	w0, #0x19
    929c:	54000328 	b.hi	9300 <kprintf.constprop.0+0x12c>  // b.pmore
    92a0:	f9401fe6 	ldr	x6, [sp, #56]
    92a4:	386048c0 	ldrb	w0, [x6, w0, uxtw]
    92a8:	10000066 	adr	x6, 92b4 <kprintf.constprop.0+0xe0>
    92ac:	8b2088c0 	add	x0, x6, w0, sxtb #2
    92b0:	d61f0000 	br	x0
/home/fangjiang/workspace/optee-os/lib/libutils/ext/snprintk.c:267
    92b4:	d2800019 	mov	x25, #0x0                   	// #0
    92b8:	17ffffdd 	b	922c <kprintf.constprop.0+0x58>
/home/fangjiang/workspace/optee-os/lib/libutils/ext/snprintk.c:282
    92bc:	1100075a 	add	w26, w26, #0x1
/home/fangjiang/workspace/optee-os/lib/libutils/ext/snprintk.c:283
    92c0:	b40000b6 	cbz	x22, 92d4 <kprintf.constprop.0+0x100>
    92c4:	f100013f 	cmp	x9, #0x0
    92c8:	fa5912c0 	ccmp	x22, x25, #0x0, ne  // ne = any
    92cc:	54000042 	b.cs	92d4 <kprintf.constprop.0+0x100>  // b.hs, b.nlast
    92d0:	380016c0 	strb	w0, [x22], #1
/home/fangjiang/workspace/optee-os/lib/libutils/ext/snprintk.c:281
    92d4:	9100079c 	add	x28, x28, #0x1
    92d8:	17ffffda 	b	9240 <kprintf.constprop.0+0x6c>
/home/fangjiang/workspace/optee-os/lib/libutils/ext/snprintk.c:297
    92dc:	52800561 	mov	w1, #0x2b                  	// #43
    92e0:	17ffffe8 	b	9280 <kprintf.constprop.0+0xac>
    92e4:	78605840 	ldrh	w0, [x2, w0, uxtw #1]
    92e8:	10000066 	adr	x6, 92f4 <kprintf.constprop.0+0x120>
    92ec:	8b20a8c0 	add	x0, x6, w0, sxth #2
    92f0:	d61f0000 	br	x0
    92f4:	51011300 	sub	w0, w24, #0x44
    92f8:	7100d81f 	cmp	w0, #0x36
    92fc:	54ffff49 	b.ls	92e4 <kprintf.constprop.0+0x110>  // b.plast
/home/fangjiang/workspace/optee-os/lib/libutils/ext/snprintk.c:554
    9300:	2a0403f4 	mov	w20, w4
    9304:	aa0303f3 	mov	x19, x3
/home/fangjiang/workspace/optee-os/lib/libutils/ext/snprintk.c:551
    9308:	390183f8 	strb	w24, [sp, #96]
/home/fangjiang/workspace/optee-os/lib/libutils/ext/snprintk.c:554
    930c:	1400005a 	b	9474 <kprintf.constprop.0+0x2a0>
/home/fangjiang/workspace/optee-os/lib/libutils/ext/snprintk.c:305
    9310:	7100003f 	cmp	w1, #0x0
    9314:	1a8d1021 	csel	w1, w1, w13, ne  // ne = any
    9318:	17ffffda 	b	9280 <kprintf.constprop.0+0xac>
/home/fangjiang/workspace/optee-os/lib/libutils/ext/snprintk.c:308
    931c:	320002b5 	orr	w21, w21, #0x1
/home/fangjiang/workspace/optee-os/lib/libutils/ext/snprintk.c:309
    9320:	17ffffd8 	b	9280 <kprintf.constprop.0+0xac>
/home/fangjiang/workspace/optee-os/lib/libutils/ext/snprintk.c:317
    9324:	37f80124 	tbnz	w4, #31, 9348 <kprintf.constprop.0+0x174>
    9328:	91002c66 	add	x6, x3, #0xb
    932c:	aa0303e0 	mov	x0, x3
    9330:	927df0c3 	and	x3, x6, #0xfffffffffffffff8
    9334:	b940000b 	ldr	w11, [x0]
    9338:	36fffa4b 	tbz	w11, #31, 9280 <kprintf.constprop.0+0xac>
/home/fangjiang/workspace/optee-os/lib/libutils/ext/snprintk.c:319
    933c:	4b0b03eb 	neg	w11, w11
/home/fangjiang/workspace/optee-os/lib/libutils/ext/snprintk.c:322
    9340:	321e02b5 	orr	w21, w21, #0x4
/home/fangjiang/workspace/optee-os/lib/libutils/ext/snprintk.c:323
    9344:	17ffffcf 	b	9280 <kprintf.constprop.0+0xac>
/home/fangjiang/workspace/optee-os/lib/libutils/ext/snprintk.c:317
    9348:	11002086 	add	w6, w4, #0x8
    934c:	710000df 	cmp	w6, #0x0
    9350:	540000cd 	b.le	9368 <kprintf.constprop.0+0x194>
    9354:	91002c68 	add	x8, x3, #0xb
    9358:	aa0303e0 	mov	x0, x3
    935c:	2a0603e4 	mov	w4, w6
    9360:	927df103 	and	x3, x8, #0xfffffffffffffff8
    9364:	17fffff4 	b	9334 <kprintf.constprop.0+0x160>
    9368:	8b24c360 	add	x0, x27, w4, sxtw
    936c:	2a0603e4 	mov	w4, w6
    9370:	17fffff1 	b	9334 <kprintf.constprop.0+0x160>
/home/fangjiang/workspace/optee-os/lib/libutils/ext/snprintk.c:328
    9374:	38401798 	ldrb	w24, [x28], #1
    9378:	7100ab1f 	cmp	w24, #0x2a
    937c:	54000361 	b.ne	93e8 <kprintf.constprop.0+0x214>  // b.any
/home/fangjiang/workspace/optee-os/lib/libutils/ext/snprintk.c:329
    9380:	37f80144 	tbnz	w4, #31, 93a8 <kprintf.constprop.0+0x1d4>
    9384:	91002c60 	add	x0, x3, #0xb
    9388:	2a0403e6 	mov	w6, w4
    938c:	927df000 	and	x0, x0, #0xfffffffffffffff8
/home/fangjiang/workspace/optee-os/lib/libutils/ext/snprintk.c:330
    9390:	b9400065 	ldr	w5, [x3]
/home/fangjiang/workspace/optee-os/lib/libutils/ext/snprintk.c:331
    9394:	2a0603e4 	mov	w4, w6
    9398:	aa0003e3 	mov	x3, x0
/home/fangjiang/workspace/optee-os/lib/libutils/ext/snprintk.c:330
    939c:	710000bf 	cmp	w5, #0x0
    93a0:	1a87a0a5 	csel	w5, w5, w7, ge  // ge = tcont
/home/fangjiang/workspace/optee-os/lib/libutils/ext/snprintk.c:331
    93a4:	17ffffb7 	b	9280 <kprintf.constprop.0+0xac>
/home/fangjiang/workspace/optee-os/lib/libutils/ext/snprintk.c:329
    93a8:	11002086 	add	w6, w4, #0x8
    93ac:	710000df 	cmp	w6, #0x0
    93b0:	5400008d 	b.le	93c0 <kprintf.constprop.0+0x1ec>
    93b4:	91002c60 	add	x0, x3, #0xb
    93b8:	927df000 	and	x0, x0, #0xfffffffffffffff8
    93bc:	17fffff5 	b	9390 <kprintf.constprop.0+0x1bc>
    93c0:	aa0303e0 	mov	x0, x3
    93c4:	8b24c363 	add	x3, x27, w4, sxtw
    93c8:	17fffff2 	b	9390 <kprintf.constprop.0+0x1bc>
/home/fangjiang/workspace/optee-os/lib/libutils/ext/snprintk.c:335
    93cc:	52800146 	mov	w6, #0xa                   	// #10
/home/fangjiang/workspace/optee-os/lib/libutils/ext/snprintk.c:336
    93d0:	38401798 	ldrb	w24, [x28], #1
/home/fangjiang/workspace/optee-os/lib/libutils/ext/snprintk.c:335
    93d4:	1b0600a5 	madd	w5, w5, w6, w0
/home/fangjiang/workspace/optee-os/lib/libutils/ext/snprintk.c:334
    93d8:	5100c300 	sub	w0, w24, #0x30
    93dc:	7100241f 	cmp	w0, #0x9
    93e0:	54ffff69 	b.ls	93cc <kprintf.constprop.0+0x1f8>  // b.plast
    93e4:	17ffffa8 	b	9284 <kprintf.constprop.0+0xb0>
/home/fangjiang/workspace/optee-os/lib/libutils/ext/snprintk.c:333
    93e8:	52800005 	mov	w5, #0x0                   	// #0
    93ec:	17fffffb 	b	93d8 <kprintf.constprop.0+0x204>
/home/fangjiang/workspace/optee-os/lib/libutils/ext/snprintk.c:346
    93f0:	321602b5 	orr	w21, w21, #0x400
/home/fangjiang/workspace/optee-os/lib/libutils/ext/snprintk.c:347
    93f4:	17ffffa3 	b	9280 <kprintf.constprop.0+0xac>
/home/fangjiang/workspace/optee-os/lib/libutils/ext/snprintk.c:297
    93f8:	5280000b 	mov	w11, #0x0                   	// #0
/home/fangjiang/workspace/optee-os/lib/libutils/ext/snprintk.c:352
    93fc:	5100c308 	sub	w8, w24, #0x30
    9400:	52800140 	mov	w0, #0xa                   	// #10
/home/fangjiang/workspace/optee-os/lib/libutils/ext/snprintk.c:353
    9404:	38401798 	ldrb	w24, [x28], #1
/home/fangjiang/workspace/optee-os/lib/libutils/ext/snprintk.c:352
    9408:	1b00216b 	madd	w11, w11, w0, w8
/home/fangjiang/workspace/optee-os/lib/libutils/ext/snprintk.c:354
    940c:	5100c300 	sub	w0, w24, #0x30
    9410:	7100241f 	cmp	w0, #0x9
    9414:	54ffff49 	b.ls	93fc <kprintf.constprop.0+0x228>  // b.plast
    9418:	17ffff9b 	b	9284 <kprintf.constprop.0+0xb0>
/home/fangjiang/workspace/optee-os/lib/libutils/ext/snprintk.c:358
    941c:	321a02b5 	orr	w21, w21, #0x40
/home/fangjiang/workspace/optee-os/lib/libutils/ext/snprintk.c:359
    9420:	17ffff98 	b	9280 <kprintf.constprop.0+0xac>
/home/fangjiang/workspace/optee-os/lib/libutils/ext/snprintk.c:361
    9424:	321902b5 	orr	w21, w21, #0x80
/home/fangjiang/workspace/optee-os/lib/libutils/ext/snprintk.c:362
    9428:	17ffff96 	b	9280 <kprintf.constprop.0+0xac>
/home/fangjiang/workspace/optee-os/lib/libutils/ext/snprintk.c:364
    942c:	39400380 	ldrb	w0, [x28]
    9430:	7101b01f 	cmp	w0, #0x6c
    9434:	54000081 	b.ne	9444 <kprintf.constprop.0+0x270>  // b.any
/home/fangjiang/workspace/optee-os/lib/libutils/ext/snprintk.c:328
    9438:	9100079c 	add	x28, x28, #0x1
/home/fangjiang/workspace/optee-os/lib/libutils/ext/snprintk.c:372
    943c:	321b02b5 	orr	w21, w21, #0x20
/home/fangjiang/workspace/optee-os/lib/libutils/ext/snprintk.c:373
    9440:	17ffff90 	b	9280 <kprintf.constprop.0+0xac>
/home/fangjiang/workspace/optee-os/lib/libutils/ext/snprintk.c:368
    9444:	321c02b5 	orr	w21, w21, #0x10
    9448:	17ffff8e 	b	9280 <kprintf.constprop.0+0xac>
/home/fangjiang/workspace/optee-os/lib/libutils/ext/snprintk.c:375
    944c:	321802b5 	orr	w21, w21, #0x100
/home/fangjiang/workspace/optee-os/lib/libutils/ext/snprintk.c:376
    9450:	17ffff8c 	b	9280 <kprintf.constprop.0+0xac>
/home/fangjiang/workspace/optee-os/lib/libutils/ext/snprintk.c:378
    9454:	321702b5 	orr	w21, w21, #0x200
/home/fangjiang/workspace/optee-os/lib/libutils/ext/snprintk.c:379
    9458:	17ffff8a 	b	9280 <kprintf.constprop.0+0xac>
/home/fangjiang/workspace/optee-os/lib/libutils/ext/snprintk.c:381
    945c:	37f80164 	tbnz	w4, #31, 9488 <kprintf.constprop.0+0x2b4>
    9460:	91002c73 	add	x19, x3, #0xb
    9464:	2a0403f4 	mov	w20, w4
    9468:	927df273 	and	x19, x19, #0xfffffffffffffff8
    946c:	b9400060 	ldr	w0, [x3]
    9470:	390183e0 	strb	w0, [sp, #96]
/home/fangjiang/workspace/optee-os/lib/libutils/ext/snprintk.c:550
    9474:	910183ed 	add	x13, sp, #0x60
/home/fangjiang/workspace/optee-os/lib/libutils/ext/snprintk.c:552
    9478:	52800025 	mov	w5, #0x1                   	// #1
/home/fangjiang/workspace/optee-os/lib/libutils/ext/snprintk.c:291
    947c:	52800002 	mov	w2, #0x0                   	// #0
/home/fangjiang/workspace/optee-os/lib/libutils/ext/snprintk.c:553
    9480:	52800001 	mov	w1, #0x0                   	// #0
/home/fangjiang/workspace/optee-os/lib/libutils/ext/snprintk.c:554
    9484:	140000fa 	b	986c <kprintf.constprop.0+0x698>
/home/fangjiang/workspace/optee-os/lib/libutils/ext/snprintk.c:381
    9488:	11002094 	add	w20, w4, #0x8
    948c:	7100029f 	cmp	w20, #0x0
    9490:	5400008d 	b.le	94a0 <kprintf.constprop.0+0x2cc>
    9494:	91002c73 	add	x19, x3, #0xb
    9498:	927df273 	and	x19, x19, #0xfffffffffffffff8
    949c:	17fffff4 	b	946c <kprintf.constprop.0+0x298>
    94a0:	aa0303f3 	mov	x19, x3
    94a4:	8b24c363 	add	x3, x27, w4, sxtw
    94a8:	17fffff1 	b	946c <kprintf.constprop.0+0x298>
/home/fangjiang/workspace/optee-os/lib/libutils/ext/snprintk.c:386
    94ac:	321c02b5 	orr	w21, w21, #0x10
/home/fangjiang/workspace/optee-os/lib/libutils/ext/snprintk.c:390
    94b0:	363802f5 	tbz	w21, #7, 950c <kprintf.constprop.0+0x338>
    94b4:	37f80424 	tbnz	w4, #31, 9538 <kprintf.constprop.0+0x364>
    94b8:	91003c73 	add	x19, x3, #0xf
    94bc:	2a0403f4 	mov	w20, w4
    94c0:	927df273 	and	x19, x19, #0xfffffffffffffff8
    94c4:	f9400062 	ldr	x2, [x3]
/home/fangjiang/workspace/optee-os/lib/libutils/ext/snprintk.c:391
    94c8:	b6f82d22 	tbz	x2, #63, 9a6c <kprintf.constprop.0+0x898>
/home/fangjiang/workspace/optee-os/lib/libutils/ext/snprintk.c:392
    94cc:	cb0203e2 	neg	x2, x2
/home/fangjiang/workspace/optee-os/lib/libutils/ext/snprintk.c:395
    94d0:	52800020 	mov	w0, #0x1                   	// #1
/home/fangjiang/workspace/optee-os/lib/libutils/ext/snprintk.c:393
    94d4:	528005a1 	mov	w1, #0x2d                  	// #45
/home/fangjiang/workspace/optee-os/lib/libutils/ext/snprintk.c:494
    94d8:	310004bf 	cmn	w5, #0x1
    94dc:	54003b21 	b.ne	9c40 <kprintf.constprop.0+0xa6c>  // b.any
/home/fangjiang/workspace/optee-os/lib/libutils/ext/snprintk.c:509
    94e0:	7100041f 	cmp	w0, #0x1
    94e4:	54002c80 	b.eq	9a74 <kprintf.constprop.0+0x8a0>  // b.none
    94e8:	7100081f 	cmp	w0, #0x2
    94ec:	54000ea1 	b.ne	96c0 <kprintf.constprop.0+0x4ec>  // b.any
/home/fangjiang/workspace/optee-os/lib/libutils/ext/snprintk.c:502
    94f0:	910217ed 	add	x13, sp, #0x85
/home/fangjiang/workspace/optee-os/lib/libutils/ext/snprintk.c:531
    94f4:	92400c40 	and	x0, x2, #0xf
/home/fangjiang/workspace/optee-os/lib/libutils/ext/snprintk.c:532
    94f8:	d344fc42 	lsr	x2, x2, #4
/home/fangjiang/workspace/optee-os/lib/libutils/ext/snprintk.c:531
    94fc:	38606ae0 	ldrb	w0, [x23, x0]
    9500:	381ffda0 	strb	w0, [x13, #-1]!
/home/fangjiang/workspace/optee-os/lib/libutils/ext/snprintk.c:533
    9504:	b5ffff82 	cbnz	x2, 94f4 <kprintf.constprop.0+0x320>
    9508:	1400007b 	b	96f4 <kprintf.constprop.0+0x520>
/home/fangjiang/workspace/optee-os/lib/libutils/ext/snprintk.c:390
    950c:	3747fd55 	tbnz	w21, #8, 94b4 <kprintf.constprop.0+0x2e0>
    9510:	374ffd35 	tbnz	w21, #9, 94b4 <kprintf.constprop.0+0x2e0>
    9514:	372ffd15 	tbnz	w21, #5, 94b4 <kprintf.constprop.0+0x2e0>
    9518:	3727fcf5 	tbnz	w21, #4, 94b4 <kprintf.constprop.0+0x2e0>
    951c:	36300335 	tbz	w21, #6, 9580 <kprintf.constprop.0+0x3ac>
    9520:	37f801e4 	tbnz	w4, #31, 955c <kprintf.constprop.0+0x388>
    9524:	91002c73 	add	x19, x3, #0xb
    9528:	2a0403f4 	mov	w20, w4
    952c:	927df273 	and	x19, x19, #0xfffffffffffffff8
    9530:	79800062 	ldrsh	x2, [x3]
    9534:	17ffffe5 	b	94c8 <kprintf.constprop.0+0x2f4>
    9538:	11002094 	add	w20, w4, #0x8
    953c:	7100029f 	cmp	w20, #0x0
    9540:	5400008d 	b.le	9550 <kprintf.constprop.0+0x37c>
    9544:	91003c73 	add	x19, x3, #0xf
    9548:	927df273 	and	x19, x19, #0xfffffffffffffff8
    954c:	17ffffde 	b	94c4 <kprintf.constprop.0+0x2f0>
    9550:	aa0303f3 	mov	x19, x3
    9554:	8b24c363 	add	x3, x27, w4, sxtw
    9558:	17ffffdb 	b	94c4 <kprintf.constprop.0+0x2f0>
    955c:	11002094 	add	w20, w4, #0x8
    9560:	7100029f 	cmp	w20, #0x0
    9564:	5400008d 	b.le	9574 <kprintf.constprop.0+0x3a0>
    9568:	91002c73 	add	x19, x3, #0xb
    956c:	927df273 	and	x19, x19, #0xfffffffffffffff8
    9570:	17fffff0 	b	9530 <kprintf.constprop.0+0x35c>
    9574:	aa0303f3 	mov	x19, x3
    9578:	8b24c363 	add	x3, x27, w4, sxtw
    957c:	17ffffed 	b	9530 <kprintf.constprop.0+0x35c>
    9580:	37f800c4 	tbnz	w4, #31, 9598 <kprintf.constprop.0+0x3c4>
    9584:	91002c73 	add	x19, x3, #0xb
    9588:	2a0403f4 	mov	w20, w4
    958c:	927df273 	and	x19, x19, #0xfffffffffffffff8
    9590:	b9800062 	ldrsw	x2, [x3]
    9594:	17ffffcd 	b	94c8 <kprintf.constprop.0+0x2f4>
    9598:	11002094 	add	w20, w4, #0x8
    959c:	7100029f 	cmp	w20, #0x0
    95a0:	5400008d 	b.le	95b0 <kprintf.constprop.0+0x3dc>
    95a4:	91002c73 	add	x19, x3, #0xb
    95a8:	927df273 	and	x19, x19, #0xfffffffffffffff8
    95ac:	17fffff9 	b	9590 <kprintf.constprop.0+0x3bc>
    95b0:	aa0303f3 	mov	x19, x3
    95b4:	8b24c363 	add	x3, x27, w4, sxtw
    95b8:	17fffff6 	b	9590 <kprintf.constprop.0+0x3bc>
/home/fangjiang/workspace/optee-os/lib/libutils/ext/snprintk.c:398
    95bc:	36380135 	tbz	w21, #7, 95e0 <kprintf.constprop.0+0x40c>
/home/fangjiang/workspace/optee-os/lib/libutils/ext/snprintk.c:407
    95c0:	37f80284 	tbnz	w4, #31, 9610 <kprintf.constprop.0+0x43c>
    95c4:	91003c73 	add	x19, x3, #0xf
    95c8:	2a0403f4 	mov	w20, w4
    95cc:	927df273 	and	x19, x19, #0xfffffffffffffff8
    95d0:	f9400060 	ldr	x0, [x3]
    95d4:	93407f41 	sxtw	x1, w26
    95d8:	f9000001 	str	x1, [x0]
    95dc:	17ffff19 	b	9240 <kprintf.constprop.0+0x6c>
/home/fangjiang/workspace/optee-os/lib/libutils/ext/snprintk.c:400
    95e0:	3747ff15 	tbnz	w21, #8, 95c0 <kprintf.constprop.0+0x3ec>
/home/fangjiang/workspace/optee-os/lib/libutils/ext/snprintk.c:402
    95e4:	374ffef5 	tbnz	w21, #9, 95c0 <kprintf.constprop.0+0x3ec>
/home/fangjiang/workspace/optee-os/lib/libutils/ext/snprintk.c:404
    95e8:	372ffed5 	tbnz	w21, #5, 95c0 <kprintf.constprop.0+0x3ec>
/home/fangjiang/workspace/optee-os/lib/libutils/ext/snprintk.c:406
    95ec:	3727feb5 	tbnz	w21, #4, 95c0 <kprintf.constprop.0+0x3ec>
/home/fangjiang/workspace/optee-os/lib/libutils/ext/snprintk.c:408
    95f0:	36300355 	tbz	w21, #6, 9658 <kprintf.constprop.0+0x484>
/home/fangjiang/workspace/optee-os/lib/libutils/ext/snprintk.c:409
    95f4:	37f80204 	tbnz	w4, #31, 9634 <kprintf.constprop.0+0x460>
    95f8:	91003c73 	add	x19, x3, #0xf
    95fc:	2a0403f4 	mov	w20, w4
    9600:	927df273 	and	x19, x19, #0xfffffffffffffff8
    9604:	f9400060 	ldr	x0, [x3]
    9608:	7900001a 	strh	w26, [x0]
    960c:	17ffff0d 	b	9240 <kprintf.constprop.0+0x6c>
/home/fangjiang/workspace/optee-os/lib/libutils/ext/snprintk.c:407
    9610:	11002094 	add	w20, w4, #0x8
    9614:	7100029f 	cmp	w20, #0x0
    9618:	5400008d 	b.le	9628 <kprintf.constprop.0+0x454>
    961c:	91003c73 	add	x19, x3, #0xf
    9620:	927df273 	and	x19, x19, #0xfffffffffffffff8
    9624:	17ffffeb 	b	95d0 <kprintf.constprop.0+0x3fc>
    9628:	aa0303f3 	mov	x19, x3
    962c:	8b24c363 	add	x3, x27, w4, sxtw
    9630:	17ffffe8 	b	95d0 <kprintf.constprop.0+0x3fc>
/home/fangjiang/workspace/optee-os/lib/libutils/ext/snprintk.c:409
    9634:	11002094 	add	w20, w4, #0x8
    9638:	7100029f 	cmp	w20, #0x0
    963c:	5400008d 	b.le	964c <kprintf.constprop.0+0x478>
    9640:	91003c73 	add	x19, x3, #0xf
    9644:	927df273 	and	x19, x19, #0xfffffffffffffff8
    9648:	17ffffef 	b	9604 <kprintf.constprop.0+0x430>
    964c:	aa0303f3 	mov	x19, x3
    9650:	8b24c363 	add	x3, x27, w4, sxtw
    9654:	17ffffec 	b	9604 <kprintf.constprop.0+0x430>
/home/fangjiang/workspace/optee-os/lib/libutils/ext/snprintk.c:411
    9658:	37f800e4 	tbnz	w4, #31, 9674 <kprintf.constprop.0+0x4a0>
    965c:	91003c73 	add	x19, x3, #0xf
    9660:	2a0403f4 	mov	w20, w4
    9664:	927df273 	and	x19, x19, #0xfffffffffffffff8
    9668:	f9400060 	ldr	x0, [x3]
    966c:	b900001a 	str	w26, [x0]
    9670:	17fffef4 	b	9240 <kprintf.constprop.0+0x6c>
    9674:	11002094 	add	w20, w4, #0x8
    9678:	7100029f 	cmp	w20, #0x0
    967c:	5400008d 	b.le	968c <kprintf.constprop.0+0x4b8>
    9680:	91003c73 	add	x19, x3, #0xf
    9684:	927df273 	and	x19, x19, #0xfffffffffffffff8
    9688:	17fffff8 	b	9668 <kprintf.constprop.0+0x494>
    968c:	aa0303f3 	mov	x19, x3
    9690:	8b24c363 	add	x3, x27, w4, sxtw
    9694:	17fffff5 	b	9668 <kprintf.constprop.0+0x494>
/home/fangjiang/workspace/optee-os/lib/libutils/ext/snprintk.c:414
    9698:	321c02b5 	orr	w21, w21, #0x10
/home/fangjiang/workspace/optee-os/lib/libutils/ext/snprintk.c:417
    969c:	36380355 	tbz	w21, #7, 9704 <kprintf.constprop.0+0x530>
    96a0:	37f80484 	tbnz	w4, #31, 9730 <kprintf.constprop.0+0x55c>
    96a4:	91003c73 	add	x19, x3, #0xf
    96a8:	2a0403f4 	mov	w20, w4
    96ac:	927df273 	and	x19, x19, #0xfffffffffffffff8
    96b0:	f9400062 	ldr	x2, [x3]
/home/fangjiang/workspace/optee-os/lib/libutils/ext/snprintk.c:494
    96b4:	52800001 	mov	w1, #0x0                   	// #0
    96b8:	310004bf 	cmn	w5, #0x1
    96bc:	54002c01 	b.ne	9c3c <kprintf.constprop.0+0xa68>  // b.any
/home/fangjiang/workspace/optee-os/lib/libutils/ext/snprintk.c:502
    96c0:	910217ed 	add	x13, sp, #0x85
/home/fangjiang/workspace/optee-os/lib/libutils/ext/snprintk.c:512
    96c4:	12000840 	and	w0, w2, #0x7
    96c8:	aa0d03e4 	mov	x4, x13
    96cc:	1100c000 	add	w0, w0, #0x30
    96d0:	381ffda0 	strb	w0, [x13, #-1]!
/home/fangjiang/workspace/optee-os/lib/libutils/ext/snprintk.c:513
    96d4:	d343fc42 	lsr	x2, x2, #3
/home/fangjiang/workspace/optee-os/lib/libutils/ext/snprintk.c:514
    96d8:	b5ffff62 	cbnz	x2, 96c4 <kprintf.constprop.0+0x4f0>
/home/fangjiang/workspace/optee-os/lib/libutils/ext/snprintk.c:516
    96dc:	360000d5 	tbz	w21, #0, 96f4 <kprintf.constprop.0+0x520>
    96e0:	7100c01f 	cmp	w0, #0x30
    96e4:	54000080 	b.eq	96f4 <kprintf.constprop.0+0x520>  // b.none
/home/fangjiang/workspace/optee-os/lib/libutils/ext/snprintk.c:517
    96e8:	52800600 	mov	w0, #0x30                  	// #48
    96ec:	381ff1a0 	sturb	w0, [x13, #-1]
    96f0:	d100088d 	sub	x13, x4, #0x2
/home/fangjiang/workspace/optee-os/lib/libutils/ext/snprintk.c:543
    96f4:	2a0503e2 	mov	w2, w5
    96f8:	910217e5 	add	x5, sp, #0x85
    96fc:	4b0d00a5 	sub	w5, w5, w13
    9700:	1400005b 	b	986c <kprintf.constprop.0+0x698>
/home/fangjiang/workspace/optee-os/lib/libutils/ext/snprintk.c:417
    9704:	3747fcf5 	tbnz	w21, #8, 96a0 <kprintf.constprop.0+0x4cc>
    9708:	374ffcd5 	tbnz	w21, #9, 96a0 <kprintf.constprop.0+0x4cc>
    970c:	372ffcb5 	tbnz	w21, #5, 96a0 <kprintf.constprop.0+0x4cc>
    9710:	3727fc95 	tbnz	w21, #4, 96a0 <kprintf.constprop.0+0x4cc>
    9714:	36300335 	tbz	w21, #6, 9778 <kprintf.constprop.0+0x5a4>
    9718:	37f801e4 	tbnz	w4, #31, 9754 <kprintf.constprop.0+0x580>
    971c:	91002c73 	add	x19, x3, #0xb
    9720:	2a0403f4 	mov	w20, w4
    9724:	927df273 	and	x19, x19, #0xfffffffffffffff8
    9728:	79400062 	ldrh	w2, [x3]
    972c:	17ffffe2 	b	96b4 <kprintf.constprop.0+0x4e0>
    9730:	11002094 	add	w20, w4, #0x8
    9734:	7100029f 	cmp	w20, #0x0
    9738:	5400008d 	b.le	9748 <kprintf.constprop.0+0x574>
    973c:	91003c73 	add	x19, x3, #0xf
    9740:	927df273 	and	x19, x19, #0xfffffffffffffff8
    9744:	17ffffdb 	b	96b0 <kprintf.constprop.0+0x4dc>
    9748:	aa0303f3 	mov	x19, x3
    974c:	8b24c363 	add	x3, x27, w4, sxtw
    9750:	17ffffd8 	b	96b0 <kprintf.constprop.0+0x4dc>
    9754:	11002094 	add	w20, w4, #0x8
    9758:	7100029f 	cmp	w20, #0x0
    975c:	5400008d 	b.le	976c <kprintf.constprop.0+0x598>
    9760:	91002c73 	add	x19, x3, #0xb
    9764:	927df273 	and	x19, x19, #0xfffffffffffffff8
    9768:	17fffff0 	b	9728 <kprintf.constprop.0+0x554>
    976c:	aa0303f3 	mov	x19, x3
    9770:	8b24c363 	add	x3, x27, w4, sxtw
    9774:	17ffffed 	b	9728 <kprintf.constprop.0+0x554>
    9778:	37f800c4 	tbnz	w4, #31, 9790 <kprintf.constprop.0+0x5bc>
    977c:	91002c73 	add	x19, x3, #0xb
    9780:	2a0403f4 	mov	w20, w4
    9784:	927df273 	and	x19, x19, #0xfffffffffffffff8
    9788:	b9400062 	ldr	w2, [x3]
    978c:	17ffffca 	b	96b4 <kprintf.constprop.0+0x4e0>
    9790:	11002094 	add	w20, w4, #0x8
    9794:	7100029f 	cmp	w20, #0x0
    9798:	5400008d 	b.le	97a8 <kprintf.constprop.0+0x5d4>
    979c:	91002c73 	add	x19, x3, #0xb
    97a0:	927df273 	and	x19, x19, #0xfffffffffffffff8
    97a4:	17fffff9 	b	9788 <kprintf.constprop.0+0x5b4>
    97a8:	aa0303f3 	mov	x19, x3
    97ac:	8b24c363 	add	x3, x27, w4, sxtw
    97b0:	17fffff6 	b	9788 <kprintf.constprop.0+0x5b4>
/home/fangjiang/workspace/optee-os/lib/libutils/ext/snprintk.c:421
    97b4:	b9404be0 	ldr	w0, [sp, #72]
    97b8:	34000c80 	cbz	w0, 9948 <kprintf.constprop.0+0x774>
    97bc:	39400380 	ldrb	w0, [x28]
    97c0:	7101541f 	cmp	w0, #0x55
    97c4:	54000c21 	b.ne	9948 <kprintf.constprop.0+0x774>  // b.any
    97c8:	39400780 	ldrb	w0, [x28, #1]
    97cc:	7101b01f 	cmp	w0, #0x6c
    97d0:	54000bc1 	b.ne	9948 <kprintf.constprop.0+0x774>  // b.any
/home/fangjiang/workspace/optee-os/lib/libutils/ext/snprintk.c:426
    97d4:	91000b9c 	add	x28, x28, #0x2
/home/fangjiang/workspace/optee-os/lib/libutils/ext/snprintk.c:427
    97d8:	37f80a64 	tbnz	w4, #31, 9924 <kprintf.constprop.0+0x750>
    97dc:	91003c73 	add	x19, x3, #0xf
    97e0:	2a0403f4 	mov	w20, w4
    97e4:	927df273 	and	x19, x19, #0xfffffffffffffff8
    97e8:	f9400061 	ldr	x1, [x3]
uuid2str():
/home/fangjiang/workspace/optee-os/lib/libutils/ext/snprintk.c:229
    97ec:	910183ed 	add	x13, sp, #0x60
    97f0:	90000022 	adrp	x2, d000 <__func__.0+0x5bb>
    97f4:	9106f042 	add	x2, x2, #0x1bc
    97f8:	f90023ed 	str	x13, [sp, #64]
    97fc:	39403c20 	ldrb	w0, [x1, #15]
    9800:	39402427 	ldrb	w7, [x1, #9]
    9804:	39402026 	ldrb	w6, [x1, #8]
    9808:	79400c25 	ldrh	w5, [x1, #6]
    980c:	79400824 	ldrh	w4, [x1, #4]
    9810:	b9002be0 	str	w0, [sp, #40]
    9814:	b9004feb 	str	w11, [sp, #76]
    9818:	39403820 	ldrb	w0, [x1, #14]
    981c:	b90023e0 	str	w0, [sp, #32]
    9820:	f9002be9 	str	x9, [sp, #80]
    9824:	39403420 	ldrb	w0, [x1, #13]
    9828:	b9001be0 	str	w0, [sp, #24]
    982c:	39403020 	ldrb	w0, [x1, #12]
    9830:	b90013e0 	str	w0, [sp, #16]
    9834:	39402c20 	ldrb	w0, [x1, #11]
    9838:	b9000be0 	str	w0, [sp, #8]
    983c:	39402820 	ldrb	w0, [x1, #10]
    9840:	b90003e0 	str	w0, [sp]
    9844:	aa0d03e0 	mov	x0, x13
    9848:	b9400023 	ldr	w3, [x1]
    984c:	d28004a1 	mov	x1, #0x25                  	// #37
    9850:	97fffe2b 	bl	90fc <snprintk>
    9854:	b9404feb 	ldr	w11, [sp, #76]
kprintf():
/home/fangjiang/workspace/optee-os/lib/libutils/ext/snprintk.c:466
    9858:	2a0003e5 	mov	w5, w0
    985c:	f94023ed 	ldr	x13, [sp, #64]
/home/fangjiang/workspace/optee-os/lib/libutils/ext/snprintk.c:291
    9860:	52800002 	mov	w2, #0x0                   	// #0
    9864:	f9402be9 	ldr	x9, [sp, #80]
/home/fangjiang/workspace/optee-os/lib/libutils/ext/snprintk.c:467
    9868:	52800001 	mov	w1, #0x0                   	// #0
/home/fangjiang/workspace/optee-os/lib/libutils/ext/snprintk.c:571
    986c:	6b05005f 	cmp	w2, w5
    9870:	1a85a040 	csel	w0, w2, w5, ge  // ge = tcont
/home/fangjiang/workspace/optee-os/lib/libutils/ext/snprintk.c:572
    9874:	340021c1 	cbz	w1, 9cac <kprintf.constprop.0+0xad8>
/home/fangjiang/workspace/optee-os/lib/libutils/ext/snprintk.c:573
    9878:	11000400 	add	w0, w0, #0x1
/home/fangjiang/workspace/optee-os/lib/libutils/ext/snprintk.c:578
    987c:	6b0b001f 	cmp	w0, w11
    9880:	1a8ba004 	csel	w4, w0, w11, ge  // ge = tcont
    9884:	0b04035a 	add	w26, w26, w4
/home/fangjiang/workspace/optee-os/lib/libutils/ext/snprintk.c:581
    9888:	52808084 	mov	w4, #0x404                 	// #1028
    988c:	6a0402a4 	ands	w4, w21, w4
    9890:	540000a1 	b.ne	98a4 <kprintf.constprop.0+0x6d0>  // b.any
/home/fangjiang/workspace/optee-os/lib/libutils/ext/snprintk.c:582
    9894:	4b000166 	sub	w6, w11, w0
/home/fangjiang/workspace/optee-os/lib/libutils/ext/snprintk.c:584
    9898:	52800407 	mov	w7, #0x20                  	// #32
/home/fangjiang/workspace/optee-os/lib/libutils/ext/snprintk.c:583
    989c:	710000df 	cmp	w6, #0x0
    98a0:	540020cc 	b.gt	9cb8 <kprintf.constprop.0+0xae4>
/home/fangjiang/workspace/optee-os/lib/libutils/ext/snprintk.c:588
    98a4:	34002181 	cbz	w1, 9cd4 <kprintf.constprop.0+0xb00>
/home/fangjiang/workspace/optee-os/lib/libutils/ext/snprintk.c:589
    98a8:	b40000b6 	cbz	x22, 98bc <kprintf.constprop.0+0x6e8>
    98ac:	f100013f 	cmp	x9, #0x0
    98b0:	fa561322 	ccmp	x25, x22, #0x2, ne  // ne = any
    98b4:	54000049 	b.ls	98bc <kprintf.constprop.0+0x6e8>  // b.plast
    98b8:	380016c1 	strb	w1, [x22], #1
/home/fangjiang/workspace/optee-os/lib/libutils/ext/snprintk.c:596
    98bc:	7110009f 	cmp	w4, #0x400
    98c0:	540000a1 	b.ne	98d4 <kprintf.constprop.0+0x700>  // b.any
/home/fangjiang/workspace/optee-os/lib/libutils/ext/snprintk.c:597
    98c4:	4b000161 	sub	w1, w11, w0
/home/fangjiang/workspace/optee-os/lib/libutils/ext/snprintk.c:599
    98c8:	52800604 	mov	w4, #0x30                  	// #48
/home/fangjiang/workspace/optee-os/lib/libutils/ext/snprintk.c:598
    98cc:	7100003f 	cmp	w1, #0x0
    98d0:	5400226c 	b.gt	9d1c <kprintf.constprop.0+0xb48>
/home/fangjiang/workspace/optee-os/lib/libutils/ext/snprintk.c:603
    98d4:	4b050042 	sub	w2, w2, w5
/home/fangjiang/workspace/optee-os/lib/libutils/ext/snprintk.c:605
    98d8:	52800601 	mov	w1, #0x30                  	// #48
/home/fangjiang/workspace/optee-os/lib/libutils/ext/snprintk.c:604
    98dc:	7100005f 	cmp	w2, #0x0
    98e0:	540022cc 	b.gt	9d38 <kprintf.constprop.0+0xb64>
    98e4:	2a0503e5 	mov	w5, w5
    98e8:	d2800001 	mov	x1, #0x0                   	// #0
/home/fangjiang/workspace/optee-os/lib/libutils/ext/snprintk.c:608
    98ec:	eb05003f 	cmp	x1, x5
    98f0:	54002321 	b.ne	9d54 <kprintf.constprop.0+0xb80>  // b.any
/home/fangjiang/workspace/optee-os/lib/libutils/ext/snprintk.c:611
    98f4:	3617ca75 	tbz	w21, #2, 9240 <kprintf.constprop.0+0x6c>
/home/fangjiang/workspace/optee-os/lib/libutils/ext/snprintk.c:612
    98f8:	4b000160 	sub	w0, w11, w0
/home/fangjiang/workspace/optee-os/lib/libutils/ext/snprintk.c:614
    98fc:	52800401 	mov	w1, #0x20                  	// #32
/home/fangjiang/workspace/optee-os/lib/libutils/ext/snprintk.c:613
    9900:	7100001f 	cmp	w0, #0x0
    9904:	54ffc9ed 	b.le	9240 <kprintf.constprop.0+0x6c>
/home/fangjiang/workspace/optee-os/lib/libutils/ext/snprintk.c:614
    9908:	b40000b6 	cbz	x22, 991c <kprintf.constprop.0+0x748>
    990c:	f100013f 	cmp	x9, #0x0
    9910:	fa561322 	ccmp	x25, x22, #0x2, ne  // ne = any
    9914:	54000049 	b.ls	991c <kprintf.constprop.0+0x748>  // b.plast
    9918:	380016c1 	strb	w1, [x22], #1
    991c:	51000400 	sub	w0, w0, #0x1
    9920:	17fffff8 	b	9900 <kprintf.constprop.0+0x72c>
/home/fangjiang/workspace/optee-os/lib/libutils/ext/snprintk.c:427
    9924:	11002094 	add	w20, w4, #0x8
    9928:	7100029f 	cmp	w20, #0x0
    992c:	5400008d 	b.le	993c <kprintf.constprop.0+0x768>
    9930:	91003c73 	add	x19, x3, #0xf
    9934:	927df273 	and	x19, x19, #0xfffffffffffffff8
    9938:	17ffffac 	b	97e8 <kprintf.constprop.0+0x614>
    993c:	aa0303f3 	mov	x19, x3
    9940:	8b24c363 	add	x3, x27, w4, sxtw
    9944:	17ffffa9 	b	97e8 <kprintf.constprop.0+0x614>
/home/fangjiang/workspace/optee-os/lib/libutils/ext/snprintk.c:441
    9948:	37f801c4 	tbnz	w4, #31, 9980 <kprintf.constprop.0+0x7ac>
    994c:	91003c73 	add	x19, x3, #0xf
    9950:	2a0403f4 	mov	w20, w4
    9954:	927df273 	and	x19, x19, #0xfffffffffffffff8
    9958:	f9400062 	ldr	x2, [x3]
/home/fangjiang/workspace/optee-os/lib/libutils/ext/snprintk.c:443
    995c:	f0000017 	adrp	x23, c000 <__text_end+0x1cb0>
/home/fangjiang/workspace/optee-os/lib/libutils/ext/snprintk.c:444
    9960:	321f02b5 	orr	w21, w21, #0x2
/home/fangjiang/workspace/optee-os/lib/libutils/ext/snprintk.c:443
    9964:	9117caf7 	add	x23, x23, #0x5f2
/home/fangjiang/workspace/optee-os/lib/libutils/ext/snprintk.c:445
    9968:	52800f18 	mov	w24, #0x78                  	// #120
/home/fangjiang/workspace/optee-os/lib/libutils/ext/snprintk.c:494
    996c:	52800001 	mov	w1, #0x0                   	// #0
    9970:	310004bf 	cmn	w5, #0x1
    9974:	54ffdbe0 	b.eq	94f0 <kprintf.constprop.0+0x31c>  // b.none
    9978:	52800040 	mov	w0, #0x2                   	// #2
    997c:	140000b1 	b	9c40 <kprintf.constprop.0+0xa6c>
/home/fangjiang/workspace/optee-os/lib/libutils/ext/snprintk.c:441
    9980:	11002094 	add	w20, w4, #0x8
    9984:	7100029f 	cmp	w20, #0x0
    9988:	5400008d 	b.le	9998 <kprintf.constprop.0+0x7c4>
    998c:	91003c73 	add	x19, x3, #0xf
    9990:	927df273 	and	x19, x19, #0xfffffffffffffff8
    9994:	17fffff1 	b	9958 <kprintf.constprop.0+0x784>
    9998:	aa0303f3 	mov	x19, x3
    999c:	8b24c363 	add	x3, x27, w4, sxtw
    99a0:	17ffffee 	b	9958 <kprintf.constprop.0+0x784>
/home/fangjiang/workspace/optee-os/lib/libutils/ext/snprintk.c:448
    99a4:	37f80364 	tbnz	w4, #31, 9a10 <kprintf.constprop.0+0x83c>
    99a8:	91003c73 	add	x19, x3, #0xf
    99ac:	2a0403f4 	mov	w20, w4
    99b0:	927df273 	and	x19, x19, #0xfffffffffffffff8
    99b4:	f940006d 	ldr	x13, [x3]
    99b8:	b500006d 	cbnz	x13, 99c4 <kprintf.constprop.0+0x7f0>
/home/fangjiang/workspace/optee-os/lib/libutils/ext/snprintk.c:450
    99bc:	90000023 	adrp	x3, d000 <__func__.0+0x5bb>
    99c0:	9106d46d 	add	x13, x3, #0x1b5
/home/fangjiang/workspace/optee-os/lib/libutils/ext/snprintk.c:451
    99c4:	310004bf 	cmn	w5, #0x1
    99c8:	54000360 	b.eq	9a34 <kprintf.constprop.0+0x860>  // b.none
/home/fangjiang/workspace/optee-os/lib/libutils/ext/snprintk.c:457
    99cc:	93407ca2 	sxtw	x2, w5
    99d0:	aa0d03e0 	mov	x0, x13
    99d4:	52800001 	mov	w1, #0x0                   	// #0
    99d8:	f90023ed 	str	x13, [sp, #64]
    99dc:	2909afe5 	stp	w5, w11, [sp, #76]
    99e0:	f9002fe9 	str	x9, [sp, #88]
    99e4:	94000250 	bl	a324 <memchr>
/home/fangjiang/workspace/optee-os/lib/libutils/ext/snprintk.c:459
    99e8:	2949afe5 	ldp	w5, w11, [sp, #76]
    99ec:	f94023ed 	ldr	x13, [sp, #64]
    99f0:	f9402fe9 	ldr	x9, [sp, #88]
    99f4:	b4000080 	cbz	x0, 9a04 <kprintf.constprop.0+0x830>
/home/fangjiang/workspace/optee-os/lib/libutils/ext/snprintk.c:460
    99f8:	cb0d0000 	sub	x0, x0, x13
    99fc:	6b0000bf 	cmp	w5, w0
    9a00:	1a80d0a5 	csel	w5, w5, w0, le
/home/fangjiang/workspace/optee-os/lib/libutils/ext/snprintk.c:291
    9a04:	52800002 	mov	w2, #0x0                   	// #0
/home/fangjiang/workspace/optee-os/lib/libutils/ext/snprintk.c:467
    9a08:	52800001 	mov	w1, #0x0                   	// #0
    9a0c:	17ffff98 	b	986c <kprintf.constprop.0+0x698>
/home/fangjiang/workspace/optee-os/lib/libutils/ext/snprintk.c:448
    9a10:	11002094 	add	w20, w4, #0x8
    9a14:	7100029f 	cmp	w20, #0x0
    9a18:	5400008d 	b.le	9a28 <kprintf.constprop.0+0x854>
    9a1c:	91003c73 	add	x19, x3, #0xf
    9a20:	927df273 	and	x19, x19, #0xfffffffffffffff8
    9a24:	17ffffe4 	b	99b4 <kprintf.constprop.0+0x7e0>
    9a28:	aa0303f3 	mov	x19, x3
    9a2c:	8b24c363 	add	x3, x27, w4, sxtw
    9a30:	17ffffe1 	b	99b4 <kprintf.constprop.0+0x7e0>
/home/fangjiang/workspace/optee-os/lib/libutils/ext/snprintk.c:466
    9a34:	aa0d03e0 	mov	x0, x13
    9a38:	f90023ed 	str	x13, [sp, #64]
    9a3c:	b9004feb 	str	w11, [sp, #76]
    9a40:	f9002be9 	str	x9, [sp, #80]
    9a44:	97fffd5e 	bl	8fbc <strlen>
    9a48:	17ffff83 	b	9854 <kprintf.constprop.0+0x680>
/home/fangjiang/workspace/optee-os/lib/libutils/ext/snprintk.c:470
    9a4c:	321c02b5 	orr	w21, w21, #0x10
/home/fangjiang/workspace/optee-os/lib/libutils/ext/snprintk.c:473
    9a50:	36380235 	tbz	w21, #7, 9a94 <kprintf.constprop.0+0x8c0>
    9a54:	37f80364 	tbnz	w4, #31, 9ac0 <kprintf.constprop.0+0x8ec>
    9a58:	91003c73 	add	x19, x3, #0xf
    9a5c:	2a0403f4 	mov	w20, w4
    9a60:	927df273 	and	x19, x19, #0xfffffffffffffff8
    9a64:	f9400062 	ldr	x2, [x3]
/home/fangjiang/workspace/optee-os/lib/libutils/ext/snprintk.c:488
    9a68:	52800001 	mov	w1, #0x0                   	// #0
/home/fangjiang/workspace/optee-os/lib/libutils/ext/snprintk.c:494
    9a6c:	310004bf 	cmn	w5, #0x1
    9a70:	54000f61 	b.ne	9c5c <kprintf.constprop.0+0xa88>  // b.any
/home/fangjiang/workspace/optee-os/lib/libutils/ext/snprintk.c:502
    9a74:	910217e0 	add	x0, sp, #0x85
/home/fangjiang/workspace/optee-os/lib/libutils/ext/snprintk.c:523
    9a78:	d2800144 	mov	x4, #0xa                   	// #10
    9a7c:	d100040d 	sub	x13, x0, #0x1
/home/fangjiang/workspace/optee-os/lib/libutils/ext/snprintk.c:522
    9a80:	f100245f 	cmp	x2, #0x9
    9a84:	54000f08 	b.hi	9c64 <kprintf.constprop.0+0xa90>  // b.pmore
/home/fangjiang/workspace/optee-os/lib/libutils/ext/snprintk.c:526
    9a88:	1100c042 	add	w2, w2, #0x30
    9a8c:	381ff002 	sturb	w2, [x0, #-1]
/home/fangjiang/workspace/optee-os/lib/libutils/ext/snprintk.c:527
    9a90:	17ffff19 	b	96f4 <kprintf.constprop.0+0x520>
/home/fangjiang/workspace/optee-os/lib/libutils/ext/snprintk.c:473
    9a94:	3747fe15 	tbnz	w21, #8, 9a54 <kprintf.constprop.0+0x880>
    9a98:	374ffdf5 	tbnz	w21, #9, 9a54 <kprintf.constprop.0+0x880>
    9a9c:	372ffdd5 	tbnz	w21, #5, 9a54 <kprintf.constprop.0+0x880>
    9aa0:	3727fdb5 	tbnz	w21, #4, 9a54 <kprintf.constprop.0+0x880>
    9aa4:	36300335 	tbz	w21, #6, 9b08 <kprintf.constprop.0+0x934>
    9aa8:	37f801e4 	tbnz	w4, #31, 9ae4 <kprintf.constprop.0+0x910>
    9aac:	91002c73 	add	x19, x3, #0xb
    9ab0:	2a0403f4 	mov	w20, w4
    9ab4:	927df273 	and	x19, x19, #0xfffffffffffffff8
    9ab8:	79400062 	ldrh	w2, [x3]
    9abc:	17ffffeb 	b	9a68 <kprintf.constprop.0+0x894>
    9ac0:	11002094 	add	w20, w4, #0x8
    9ac4:	7100029f 	cmp	w20, #0x0
    9ac8:	5400008d 	b.le	9ad8 <kprintf.constprop.0+0x904>
    9acc:	91003c73 	add	x19, x3, #0xf
    9ad0:	927df273 	and	x19, x19, #0xfffffffffffffff8
    9ad4:	17ffffe4 	b	9a64 <kprintf.constprop.0+0x890>
    9ad8:	aa0303f3 	mov	x19, x3
    9adc:	8b24c363 	add	x3, x27, w4, sxtw
    9ae0:	17ffffe1 	b	9a64 <kprintf.constprop.0+0x890>
    9ae4:	11002094 	add	w20, w4, #0x8
    9ae8:	7100029f 	cmp	w20, #0x0
    9aec:	5400008d 	b.le	9afc <kprintf.constprop.0+0x928>
    9af0:	91002c73 	add	x19, x3, #0xb
    9af4:	927df273 	and	x19, x19, #0xfffffffffffffff8
    9af8:	17fffff0 	b	9ab8 <kprintf.constprop.0+0x8e4>
    9afc:	aa0303f3 	mov	x19, x3
    9b00:	8b24c363 	add	x3, x27, w4, sxtw
    9b04:	17ffffed 	b	9ab8 <kprintf.constprop.0+0x8e4>
    9b08:	37f800c4 	tbnz	w4, #31, 9b20 <kprintf.constprop.0+0x94c>
    9b0c:	91002c73 	add	x19, x3, #0xb
    9b10:	2a0403f4 	mov	w20, w4
    9b14:	927df273 	and	x19, x19, #0xfffffffffffffff8
    9b18:	b9400062 	ldr	w2, [x3]
    9b1c:	17ffffd3 	b	9a68 <kprintf.constprop.0+0x894>
    9b20:	11002094 	add	w20, w4, #0x8
    9b24:	7100029f 	cmp	w20, #0x0
    9b28:	5400008d 	b.le	9b38 <kprintf.constprop.0+0x964>
    9b2c:	91002c73 	add	x19, x3, #0xb
    9b30:	927df273 	and	x19, x19, #0xfffffffffffffff8
    9b34:	17fffff9 	b	9b18 <kprintf.constprop.0+0x944>
    9b38:	aa0303f3 	mov	x19, x3
    9b3c:	8b24c363 	add	x3, x27, w4, sxtw
    9b40:	17fffff6 	b	9b18 <kprintf.constprop.0+0x944>
/home/fangjiang/workspace/optee-os/lib/libutils/ext/snprintk.c:297
    9b44:	f0000017 	adrp	x23, c000 <__text_end+0x1cb0>
    9b48:	9117caf7 	add	x23, x23, #0x5f2
    9b4c:	910046f7 	add	x23, x23, #0x11
/home/fangjiang/workspace/optee-os/lib/libutils/ext/snprintk.c:481
    9b50:	363801f5 	tbz	w21, #7, 9b8c <kprintf.constprop.0+0x9b8>
    9b54:	37f80324 	tbnz	w4, #31, 9bb8 <kprintf.constprop.0+0x9e4>
    9b58:	91003c73 	add	x19, x3, #0xf
    9b5c:	2a0403f4 	mov	w20, w4
    9b60:	927df273 	and	x19, x19, #0xfffffffffffffff8
    9b64:	f9400062 	ldr	x2, [x3]
/home/fangjiang/workspace/optee-os/lib/libutils/ext/snprintk.c:484
    9b68:	3607f035 	tbz	w21, #0, 996c <kprintf.constprop.0+0x798>
    9b6c:	b4fff002 	cbz	x2, 996c <kprintf.constprop.0+0x798>
/home/fangjiang/workspace/optee-os/lib/libutils/ext/snprintk.c:485
    9b70:	321f02b5 	orr	w21, w21, #0x2
/home/fangjiang/workspace/optee-os/lib/libutils/ext/snprintk.c:482
    9b74:	52800040 	mov	w0, #0x2                   	// #2
/home/fangjiang/workspace/optee-os/lib/libutils/ext/snprintk.c:488
    9b78:	52800001 	mov	w1, #0x0                   	// #0
    9b7c:	17fffe57 	b	94d8 <kprintf.constprop.0+0x304>
/home/fangjiang/workspace/optee-os/lib/libutils/ext/snprintk.c:480
    9b80:	f0000017 	adrp	x23, c000 <__text_end+0x1cb0>
    9b84:	9117caf7 	add	x23, x23, #0x5f2
    9b88:	17fffff2 	b	9b50 <kprintf.constprop.0+0x97c>
/home/fangjiang/workspace/optee-os/lib/libutils/ext/snprintk.c:481
    9b8c:	3747fe55 	tbnz	w21, #8, 9b54 <kprintf.constprop.0+0x980>
    9b90:	374ffe35 	tbnz	w21, #9, 9b54 <kprintf.constprop.0+0x980>
    9b94:	372ffe15 	tbnz	w21, #5, 9b54 <kprintf.constprop.0+0x980>
    9b98:	3727fdf5 	tbnz	w21, #4, 9b54 <kprintf.constprop.0+0x980>
    9b9c:	36300335 	tbz	w21, #6, 9c00 <kprintf.constprop.0+0xa2c>
    9ba0:	37f801e4 	tbnz	w4, #31, 9bdc <kprintf.constprop.0+0xa08>
    9ba4:	91002c73 	add	x19, x3, #0xb
    9ba8:	2a0403f4 	mov	w20, w4
    9bac:	927df273 	and	x19, x19, #0xfffffffffffffff8
    9bb0:	79400062 	ldrh	w2, [x3]
    9bb4:	17ffffed 	b	9b68 <kprintf.constprop.0+0x994>
    9bb8:	11002094 	add	w20, w4, #0x8
    9bbc:	7100029f 	cmp	w20, #0x0
    9bc0:	5400008d 	b.le	9bd0 <kprintf.constprop.0+0x9fc>
    9bc4:	91003c73 	add	x19, x3, #0xf
    9bc8:	927df273 	and	x19, x19, #0xfffffffffffffff8
    9bcc:	17ffffe6 	b	9b64 <kprintf.constprop.0+0x990>
    9bd0:	aa0303f3 	mov	x19, x3
    9bd4:	8b24c363 	add	x3, x27, w4, sxtw
    9bd8:	17ffffe3 	b	9b64 <kprintf.constprop.0+0x990>
    9bdc:	11002094 	add	w20, w4, #0x8
    9be0:	7100029f 	cmp	w20, #0x0
    9be4:	5400008d 	b.le	9bf4 <kprintf.constprop.0+0xa20>
    9be8:	91002c73 	add	x19, x3, #0xb
    9bec:	927df273 	and	x19, x19, #0xfffffffffffffff8
    9bf0:	17fffff0 	b	9bb0 <kprintf.constprop.0+0x9dc>
    9bf4:	aa0303f3 	mov	x19, x3
    9bf8:	8b24c363 	add	x3, x27, w4, sxtw
    9bfc:	17ffffed 	b	9bb0 <kprintf.constprop.0+0x9dc>
    9c00:	37f800c4 	tbnz	w4, #31, 9c18 <kprintf.constprop.0+0xa44>
    9c04:	91002c73 	add	x19, x3, #0xb
    9c08:	2a0403f4 	mov	w20, w4
    9c0c:	927df273 	and	x19, x19, #0xfffffffffffffff8
    9c10:	b9400062 	ldr	w2, [x3]
    9c14:	17ffffd5 	b	9b68 <kprintf.constprop.0+0x994>
    9c18:	11002094 	add	w20, w4, #0x8
    9c1c:	7100029f 	cmp	w20, #0x0
    9c20:	5400008d 	b.le	9c30 <kprintf.constprop.0+0xa5c>
    9c24:	91002c73 	add	x19, x3, #0xb
    9c28:	927df273 	and	x19, x19, #0xfffffffffffffff8
    9c2c:	17fffff9 	b	9c10 <kprintf.constprop.0+0xa3c>
    9c30:	aa0303f3 	mov	x19, x3
    9c34:	8b24c363 	add	x3, x27, w4, sxtw
    9c38:	17fffff6 	b	9c10 <kprintf.constprop.0+0xa3c>
/home/fangjiang/workspace/optee-os/lib/libutils/ext/snprintk.c:494
    9c3c:	52800000 	mov	w0, #0x0                   	// #0
/home/fangjiang/workspace/optee-os/lib/libutils/ext/snprintk.c:503
    9c40:	f100005f 	cmp	x2, #0x0
/home/fangjiang/workspace/optee-os/lib/libutils/ext/snprintk.c:495
    9c44:	12157ab5 	and	w21, w21, #0xfffffbff
/home/fangjiang/workspace/optee-os/lib/libutils/ext/snprintk.c:503
    9c48:	7a4008a0 	ccmp	w5, #0x0, #0x0, eq  // eq = none
    9c4c:	54ffc4a1 	b.ne	94e0 <kprintf.constprop.0+0x30c>  // b.any
/home/fangjiang/workspace/optee-os/lib/libutils/ext/snprintk.c:502
    9c50:	910217ed 	add	x13, sp, #0x85
    9c54:	52800005 	mov	w5, #0x0                   	// #0
    9c58:	17fffea7 	b	96f4 <kprintf.constprop.0+0x520>
/home/fangjiang/workspace/optee-os/lib/libutils/ext/snprintk.c:494
    9c5c:	52800020 	mov	w0, #0x1                   	// #1
    9c60:	17fffff8 	b	9c40 <kprintf.constprop.0+0xa6c>
/home/fangjiang/workspace/optee-os/lib/libutils/ext/snprintk.c:523
    9c64:	9ac40846 	udiv	x6, x2, x4
    9c68:	9b0488c2 	msub	x2, x6, x4, x2
    9c6c:	1100c042 	add	w2, w2, #0x30
    9c70:	381ff002 	sturb	w2, [x0, #-1]
/home/fangjiang/workspace/optee-os/lib/libutils/ext/snprintk.c:524
    9c74:	aa0603e2 	mov	x2, x6
    9c78:	aa0d03e0 	mov	x0, x13
    9c7c:	17ffff80 	b	9a7c <kprintf.constprop.0+0x8a8>
/home/fangjiang/workspace/optee-os/lib/libutils/ext/snprintk.c:547
    9c80:	35ffb418 	cbnz	w24, 9300 <kprintf.constprop.0+0x12c>
/home/fangjiang/workspace/optee-os/lib/libutils/ext/snprintk.c:619
    9c84:	b4000049 	cbz	x9, 9c8c <kprintf.constprop.0+0xab8>
/home/fangjiang/workspace/optee-os/lib/libutils/ext/snprintk.c:620
    9c88:	f9000136 	str	x22, [x9]
/home/fangjiang/workspace/optee-os/lib/libutils/ext/snprintk.c:622
    9c8c:	b0000020 	adrp	x0, e000 <_DYNAMIC>
    9c90:	f9409800 	ldr	x0, [x0, #304]
    9c94:	f94047e2 	ldr	x2, [sp, #136]
    9c98:	f9400001 	ldr	x1, [x0]
    9c9c:	eb010042 	subs	x2, x2, x1
    9ca0:	d2800001 	mov	x1, #0x0                   	// #0
    9ca4:	54000680 	b.eq	9d74 <kprintf.constprop.0+0xba0>  // b.none
    9ca8:	97fffca6 	bl	8f40 <__stack_chk_fail>
/home/fangjiang/workspace/optee-os/lib/libutils/ext/snprintk.c:574
    9cac:	360fde95 	tbz	w21, #1, 987c <kprintf.constprop.0+0x6a8>
/home/fangjiang/workspace/optee-os/lib/libutils/ext/snprintk.c:575
    9cb0:	11000800 	add	w0, w0, #0x2
    9cb4:	17fffef2 	b	987c <kprintf.constprop.0+0x6a8>
/home/fangjiang/workspace/optee-os/lib/libutils/ext/snprintk.c:584
    9cb8:	b40000b6 	cbz	x22, 9ccc <kprintf.constprop.0+0xaf8>
    9cbc:	f100013f 	cmp	x9, #0x0
    9cc0:	fa561322 	ccmp	x25, x22, #0x2, ne  // ne = any
    9cc4:	54000049 	b.ls	9ccc <kprintf.constprop.0+0xaf8>  // b.plast
    9cc8:	380016c7 	strb	w7, [x22], #1
    9ccc:	510004c6 	sub	w6, w6, #0x1
    9cd0:	17fffef3 	b	989c <kprintf.constprop.0+0x6c8>
/home/fangjiang/workspace/optee-os/lib/libutils/ext/snprintk.c:590
    9cd4:	360fdf55 	tbz	w21, #1, 98bc <kprintf.constprop.0+0x6e8>
/home/fangjiang/workspace/optee-os/lib/libutils/ext/snprintk.c:591
    9cd8:	b4ffdf36 	cbz	x22, 98bc <kprintf.constprop.0+0x6e8>
    9cdc:	f100013f 	cmp	x9, #0x0
    9ce0:	1a9f17e6 	cset	w6, eq  // eq = none
    9ce4:	710000df 	cmp	w6, #0x0
    9ce8:	fa560322 	ccmp	x25, x22, #0x2, eq  // eq = none
    9cec:	54ffde89 	b.ls	98bc <kprintf.constprop.0+0x6e8>  // b.plast
    9cf0:	aa1603e1 	mov	x1, x22
    9cf4:	52800607 	mov	w7, #0x30                  	// #48
/home/fangjiang/workspace/optee-os/lib/libutils/ext/snprintk.c:592
    9cf8:	710000df 	cmp	w6, #0x0
/home/fangjiang/workspace/optee-os/lib/libutils/ext/snprintk.c:591
    9cfc:	38001427 	strb	w7, [x1], #1
/home/fangjiang/workspace/optee-os/lib/libutils/ext/snprintk.c:592
    9d00:	fa410322 	ccmp	x25, x1, #0x2, eq  // eq = none
    9d04:	54000089 	b.ls	9d14 <kprintf.constprop.0+0xb40>  // b.plast
    9d08:	91000ad6 	add	x22, x22, #0x2
    9d0c:	381ff2d8 	sturb	w24, [x22, #-1]
    9d10:	17fffeeb 	b	98bc <kprintf.constprop.0+0x6e8>
    9d14:	aa0103f6 	mov	x22, x1
    9d18:	17fffee9 	b	98bc <kprintf.constprop.0+0x6e8>
/home/fangjiang/workspace/optee-os/lib/libutils/ext/snprintk.c:599
    9d1c:	b40000b6 	cbz	x22, 9d30 <kprintf.constprop.0+0xb5c>
    9d20:	f100013f 	cmp	x9, #0x0
    9d24:	fa561322 	ccmp	x25, x22, #0x2, ne  // ne = any
    9d28:	54000049 	b.ls	9d30 <kprintf.constprop.0+0xb5c>  // b.plast
    9d2c:	380016c4 	strb	w4, [x22], #1
    9d30:	51000421 	sub	w1, w1, #0x1
    9d34:	17fffee6 	b	98cc <kprintf.constprop.0+0x6f8>
/home/fangjiang/workspace/optee-os/lib/libutils/ext/snprintk.c:605
    9d38:	b40000b6 	cbz	x22, 9d4c <kprintf.constprop.0+0xb78>
    9d3c:	f100013f 	cmp	x9, #0x0
    9d40:	fa561322 	ccmp	x25, x22, #0x2, ne  // ne = any
    9d44:	54000049 	b.ls	9d4c <kprintf.constprop.0+0xb78>  // b.plast
    9d48:	380016c1 	strb	w1, [x22], #1
    9d4c:	51000442 	sub	w2, w2, #0x1
    9d50:	17fffee3 	b	98dc <kprintf.constprop.0+0x708>
/home/fangjiang/workspace/optee-os/lib/libutils/ext/snprintk.c:609
    9d54:	b40000d6 	cbz	x22, 9d6c <kprintf.constprop.0+0xb98>
    9d58:	f100013f 	cmp	x9, #0x0
    9d5c:	fa561322 	ccmp	x25, x22, #0x2, ne  // ne = any
    9d60:	54000069 	b.ls	9d6c <kprintf.constprop.0+0xb98>  // b.plast
    9d64:	386169a2 	ldrb	w2, [x13, x1]
    9d68:	380016c2 	strb	w2, [x22], #1
/home/fangjiang/workspace/optee-os/lib/libutils/ext/snprintk.c:608
    9d6c:	91000421 	add	x1, x1, #0x1
    9d70:	17fffedf 	b	98ec <kprintf.constprop.0+0x718>
/home/fangjiang/workspace/optee-os/lib/libutils/ext/snprintk.c:622
    9d74:	2a1a03e0 	mov	w0, w26
    9d78:	a9497bfd 	ldp	x29, x30, [sp, #144]
    9d7c:	a94a53f3 	ldp	x19, x20, [sp, #160]
    9d80:	a94b5bf5 	ldp	x21, x22, [sp, #176]
    9d84:	a94c63f7 	ldp	x23, x24, [sp, #192]
    9d88:	a94d6bf9 	ldp	x25, x26, [sp, #208]
    9d8c:	a94e73fb 	ldp	x27, x28, [sp, #224]
    9d90:	9103c3ff 	add	sp, sp, #0xf0
    9d94:	d65f03c0 	ret

0000000000009d98 <__vsprintf>:
__vsprintf():
/home/fangjiang/workspace/optee-os/lib/libutils/ext/snprintk.c:155
    9d98:	a9bc7bfd 	stp	x29, x30, [sp, #-64]!
/home/fangjiang/workspace/optee-os/lib/libutils/ext/snprintk.c:156
    9d9c:	910083e3 	add	x3, sp, #0x20
/home/fangjiang/workspace/optee-os/lib/libutils/ext/snprintk.c:155
    9da0:	910003fd 	mov	x29, sp
    9da4:	a90153f3 	stp	x19, x20, [sp, #16]
    9da8:	aa0003f4 	mov	x20, x0
    9dac:	aa0103f3 	mov	x19, x1
/home/fangjiang/workspace/optee-os/lib/libutils/ext/snprintk.c:156
    9db0:	aa0303e0 	mov	x0, x3
/home/fangjiang/workspace/optee-os/lib/libutils/ext/snprintk.c:155
    9db4:	aa0203e1 	mov	x1, x2
/home/fangjiang/workspace/optee-os/lib/libutils/ext/snprintk.c:156
    9db8:	d2800402 	mov	x2, #0x20                  	// #32
    9dbc:	97ffd899 	bl	20 <memcpy>
    9dc0:	aa1403e2 	mov	x2, x20
    9dc4:	aa0003e3 	mov	x3, x0
    9dc8:	52800004 	mov	w4, #0x0                   	// #0
    9dcc:	aa1303e0 	mov	x0, x19
    9dd0:	d2800001 	mov	x1, #0x0                   	// #0
    9dd4:	97fffd00 	bl	91d4 <kprintf.constprop.0>
/home/fangjiang/workspace/optee-os/lib/libutils/ext/snprintk.c:157
    9dd8:	a94153f3 	ldp	x19, x20, [sp, #16]
    9ddc:	a8c47bfd 	ldp	x29, x30, [sp], #64
    9de0:	d65f03c0 	ret

0000000000009de4 <trace_set_level>:
trace_set_level():
/home/fangjiang/workspace/optee-os/lib/libutils/ext/trace.c:28
    9de4:	7100141f 	cmp	w0, #0x5
    9de8:	52800081 	mov	w1, #0x4                   	// #4
    9dec:	1a813000 	csel	w0, w0, w1, cc  // cc = lo, ul, last
    9df0:	b0000021 	adrp	x1, e000 <_DYNAMIC>
    9df4:	f940a021 	ldr	x1, [x1, #320]
    9df8:	b9000020 	str	w0, [x1]
/home/fangjiang/workspace/optee-os/lib/libutils/ext/trace.c:29
    9dfc:	d65f03c0 	ret

0000000000009e00 <trace_get_level>:
trace_get_level():
/home/fangjiang/workspace/optee-os/lib/libutils/ext/trace.c:33
    9e00:	b0000020 	adrp	x0, e000 <_DYNAMIC>
/home/fangjiang/workspace/optee-os/lib/libutils/ext/trace.c:34
    9e04:	f940a000 	ldr	x0, [x0, #320]
    9e08:	b9400000 	ldr	w0, [x0]
    9e0c:	d65f03c0 	ret

0000000000009e10 <trace_vprintf>:
trace_vprintf():
/home/fangjiang/workspace/optee-os/lib/libutils/ext/trace.c:113
    9e10:	d10643ff 	sub	sp, sp, #0x190
    9e14:	a9137bfd 	stp	x29, x30, [sp, #304]
    9e18:	9104c3fd 	add	x29, sp, #0x130
    9e1c:	a9176bf9 	stp	x25, x26, [sp, #368]
    9e20:	2a0103f9 	mov	w25, w1
    9e24:	b0000021 	adrp	x1, e000 <_DYNAMIC>
    9e28:	a9155bf5 	stp	x21, x22, [sp, #336]
    9e2c:	aa0003f6 	mov	x22, x0
    9e30:	aa0103f5 	mov	x21, x1
    9e34:	f9409820 	ldr	x0, [x1, #304]
    9e38:	a91453f3 	stp	x19, x20, [sp, #320]
    9e3c:	2a0203f3 	mov	w19, w2
    9e40:	a91663f7 	stp	x23, x24, [sp, #352]
    9e44:	aa0403f7 	mov	x23, x4
    9e48:	aa0503f8 	mov	x24, x5
    9e4c:	a91873fb 	stp	x27, x28, [sp, #384]
/home/fangjiang/workspace/optee-os/lib/libutils/ext/trace.c:118
    9e50:	72001c7b 	ands	w27, w3, #0xff
/home/fangjiang/workspace/optee-os/lib/libutils/ext/trace.c:113
    9e54:	f9400002 	ldr	x2, [x0]
    9e58:	f90097e2 	str	x2, [sp, #296]
    9e5c:	d2800002 	mov	x2, #0x0                   	// #0
/home/fangjiang/workspace/optee-os/lib/libutils/ext/trace.c:118
    9e60:	54000b20 	b.eq	9fc4 <trace_vprintf+0x1b4>  // b.none
/home/fangjiang/workspace/optee-os/lib/libutils/ext/trace.c:118 (discriminator 1)
    9e64:	f940a020 	ldr	x0, [x1, #320]
    9e68:	b9400000 	ldr	w0, [x0]
    9e6c:	6b13001f 	cmp	w0, w19
    9e70:	540009cb 	b.lt	9fa8 <trace_vprintf+0x198>  // b.tstop
trace_level_to_string():
/home/fangjiang/workspace/optee-os/lib/libutils/ext/trace.c:51
    9e74:	7100127f 	cmp	w19, #0x4
/home/fangjiang/workspace/optee-os/lib/libutils/ext/trace.c:54
    9e78:	90000020 	adrp	x0, d000 <__func__.0+0x5bb>
/home/fangjiang/workspace/optee-os/lib/libutils/ext/trace.c:51
    9e7c:	1a9f9261 	csel	w1, w19, wzr, ls  // ls = plast
/home/fangjiang/workspace/optee-os/lib/libutils/ext/trace.c:54
    9e80:	91081c00 	add	x0, x0, #0x207
    9e84:	3861c803 	ldrb	w3, [x0, w1, sxtw]
trace_vprintf():
/home/fangjiang/workspace/optee-os/lib/libutils/ext/trace.c:122
    9e88:	9100a3f4 	add	x20, sp, #0x28
    9e8c:	90000022 	adrp	x2, d000 <__func__.0+0x5bb>
    9e90:	aa1403e0 	mov	x0, x20
    9e94:	9107b442 	add	x2, x2, #0x1ed
    9e98:	d2802001 	mov	x1, #0x100                 	// #256
    9e9c:	97fffc98 	bl	90fc <snprintk>
/home/fangjiang/workspace/optee-os/lib/libutils/ext/trace.c:124
    9ea0:	37f80840 	tbnz	w0, #31, 9fa8 <trace_vprintf+0x198>
/home/fangjiang/workspace/optee-os/lib/libutils/ext/trace.c:129
    9ea4:	f940a6a3 	ldr	x3, [x21, #328]
    9ea8:	d280201c 	mov	x28, #0x100                 	// #256
/home/fangjiang/workspace/optee-os/lib/libutils/ext/trace.c:126
    9eac:	93407c1a 	sxtw	x26, w0
/home/fangjiang/workspace/optee-os/lib/libutils/ext/trace.c:129
    9eb0:	cb20c381 	sub	x1, x28, w0, sxtw
    9eb4:	90000022 	adrp	x2, d000 <__func__.0+0x5bb>
    9eb8:	8b20c280 	add	x0, x20, w0, sxtw
    9ebc:	9107c442 	add	x2, x2, #0x1f1
    9ec0:	97fffc8f 	bl	90fc <snprintk>
/home/fangjiang/workspace/optee-os/lib/libutils/ext/trace.c:131
    9ec4:	37f80720 	tbnz	w0, #31, 9fa8 <trace_vprintf+0x198>
/home/fangjiang/workspace/optee-os/lib/libutils/ext/trace.c:133
    9ec8:	8b20c35a 	add	x26, x26, w0, sxtw
/home/fangjiang/workspace/optee-os/lib/libutils/ext/trace.c:135
    9ecc:	3400093b 	cbz	w27, 9ff0 <trace_vprintf+0x1e0>
/home/fangjiang/workspace/optee-os/lib/libutils/ext/trace.c:135 (discriminator 1)
    9ed0:	52800340 	mov	w0, #0x1a                  	// #26
    9ed4:	1ad32400 	lsr	w0, w0, w19
    9ed8:	360008c0 	tbz	w0, #0, 9ff0 <trace_vprintf+0x1e0>
print_thread_id():
/home/fangjiang/workspace/optee-os/lib/libutils/ext/trace.c:66
    9edc:	97ffdb6d 	bl	c90 <trace_ext_get_thread_id>
trace_vprintf():
/home/fangjiang/workspace/optee-os/lib/libutils/ext/trace.c:137
    9ee0:	8b1a029b 	add	x27, x20, x26
    9ee4:	cb1a039c 	sub	x28, x28, x26
print_thread_id():
/home/fangjiang/workspace/optee-os/lib/libutils/ext/trace.c:66
    9ee8:	2a0003e4 	mov	w4, w0
/home/fangjiang/workspace/optee-os/lib/libutils/ext/trace.c:68
    9eec:	37f80700 	tbnz	w0, #31, 9fcc <trace_vprintf+0x1bc>
/home/fangjiang/workspace/optee-os/lib/libutils/ext/trace.c:69
    9ef0:	90000022 	adrp	x2, d000 <__func__.0+0x5bb>
    9ef4:	aa1c03e1 	mov	x1, x28
    9ef8:	9107d442 	add	x2, x2, #0x1f5
    9efc:	aa1b03e0 	mov	x0, x27
    9f00:	52800023 	mov	w3, #0x1                   	// #1
    9f04:	97fffc7e 	bl	90fc <snprintk>
trace_vprintf():
/home/fangjiang/workspace/optee-os/lib/libutils/ext/trace.c:144
    9f08:	37f80500 	tbnz	w0, #31, 9fa8 <trace_vprintf+0x198>
/home/fangjiang/workspace/optee-os/lib/libutils/ext/trace.c:146
    9f0c:	8b20c353 	add	x19, x26, w0, sxtw
/home/fangjiang/workspace/optee-os/lib/libutils/ext/trace.c:148
    9f10:	b4000176 	cbz	x22, 9f3c <trace_vprintf+0x12c>
/home/fangjiang/workspace/optee-os/lib/libutils/ext/trace.c:149
    9f14:	90000022 	adrp	x2, d000 <__func__.0+0x5bb>
    9f18:	d2802001 	mov	x1, #0x100                 	// #256
    9f1c:	2a1903e4 	mov	w4, w25
    9f20:	aa1603e3 	mov	x3, x22
    9f24:	91080042 	add	x2, x2, #0x200
    9f28:	cb130021 	sub	x1, x1, x19
    9f2c:	8b130280 	add	x0, x20, x19
    9f30:	97fffc73 	bl	90fc <snprintk>
/home/fangjiang/workspace/optee-os/lib/libutils/ext/trace.c:151
    9f34:	37f803a0 	tbnz	w0, #31, 9fa8 <trace_vprintf+0x198>
/home/fangjiang/workspace/optee-os/lib/libutils/ext/trace.c:153
    9f38:	8b20c273 	add	x19, x19, w0, sxtw
/home/fangjiang/workspace/optee-os/lib/libutils/ext/trace.c:163
    9f3c:	910003e3 	mov	x3, sp
    9f40:	aa1803e1 	mov	x1, x24
    9f44:	aa0303e0 	mov	x0, x3
    9f48:	d2800402 	mov	x2, #0x20                  	// #32
    9f4c:	97ffd835 	bl	20 <memcpy>
    9f50:	aa0003e3 	mov	x3, x0
    9f54:	d2802001 	mov	x1, #0x100                 	// #256
    9f58:	aa1703e2 	mov	x2, x23
    9f5c:	cb130021 	sub	x1, x1, x19
    9f60:	8b130280 	add	x0, x20, x19
    9f64:	97fffc50 	bl	90a4 <vsnprintk>
/home/fangjiang/workspace/optee-os/lib/libutils/ext/trace.c:164
    9f68:	7100001f 	cmp	w0, #0x0
    9f6c:	5400004d 	b.le	9f74 <trace_vprintf+0x164>
/home/fangjiang/workspace/optee-os/lib/libutils/ext/trace.c:165
    9f70:	8b20c273 	add	x19, x19, w0, sxtw
/home/fangjiang/workspace/optee-os/lib/libutils/ext/trace.c:167
    9f74:	f103fa7f 	cmp	x19, #0xfe
    9f78:	d2801fc0 	mov	x0, #0xfe                  	// #254
    9f7c:	9a809273 	csel	x19, x19, x0, ls  // ls = plast
/home/fangjiang/workspace/optee-os/lib/libutils/ext/trace.c:170
    9f80:	52800140 	mov	w0, #0xa                   	// #10
    9f84:	38336a80 	strb	w0, [x20, x19]
/home/fangjiang/workspace/optee-os/lib/libutils/ext/trace.c:171
    9f88:	b4000093 	cbz	x19, 9f98 <trace_vprintf+0x188>
/home/fangjiang/workspace/optee-os/lib/libutils/ext/trace.c:171 (discriminator 1)
    9f8c:	38736a80 	ldrb	w0, [x20, x19]
    9f90:	7100281f 	cmp	w0, #0xa
    9f94:	540003c0 	b.eq	a00c <trace_vprintf+0x1fc>  // b.none
/home/fangjiang/workspace/optee-os/lib/libutils/ext/trace.c:174
    9f98:	9100abe0 	add	x0, sp, #0x2a
    9f9c:	3833681f 	strb	wzr, [x0, x19]
/home/fangjiang/workspace/optee-os/lib/libutils/ext/trace.c:176
    9fa0:	aa1403e0 	mov	x0, x20
    9fa4:	97ffdb31 	bl	c68 <trace_ext_puts>
/home/fangjiang/workspace/optee-os/lib/libutils/ext/trace.c:177
    9fa8:	f9409ab5 	ldr	x21, [x21, #304]
    9fac:	f94097e0 	ldr	x0, [sp, #296]
    9fb0:	f94002a1 	ldr	x1, [x21]
    9fb4:	eb010000 	subs	x0, x0, x1
    9fb8:	d2800001 	mov	x1, #0x0                   	// #0
    9fbc:	540002c0 	b.eq	a014 <trace_vprintf+0x204>  // b.none
    9fc0:	97fffbe0 	bl	8f40 <__stack_chk_fail>
trace_level_to_string():
/home/fangjiang/workspace/optee-os/lib/libutils/ext/trace.c:49
    9fc4:	528009a3 	mov	w3, #0x4d                  	// #77
    9fc8:	17ffffb0 	b	9e88 <trace_vprintf+0x78>
print_thread_id():
/home/fangjiang/workspace/optee-os/lib/libutils/ext/trace.c:71
    9fcc:	aa1c03e1 	mov	x1, x28
    9fd0:	aa1b03e0 	mov	x0, x27
    9fd4:	f0000004 	adrp	x4, c000 <__text_end+0x1cb0>
    9fd8:	52800023 	mov	w3, #0x1                   	// #1
    9fdc:	913b4484 	add	x4, x4, #0xed1
    9fe0:	90000022 	adrp	x2, d000 <__func__.0+0x5bb>
    9fe4:	9107ec42 	add	x2, x2, #0x1fb
    9fe8:	97fffc45 	bl	90fc <snprintk>
    9fec:	17ffffc7 	b	9f08 <trace_vprintf+0xf8>
trace_vprintf():
/home/fangjiang/workspace/optee-os/lib/libutils/ext/trace.c:157
    9ff0:	f103fb5f 	cmp	x26, #0xfe
    9ff4:	54fffda8 	b.hi	9fa8 <trace_vprintf+0x198>  // b.pmore
/home/fangjiang/workspace/optee-os/lib/libutils/ext/trace.c:159
    9ff8:	91000753 	add	x19, x26, #0x1
    9ffc:	52800400 	mov	w0, #0x20                  	// #32
    a000:	383a6a80 	strb	w0, [x20, x26]
/home/fangjiang/workspace/optee-os/lib/libutils/ext/trace.c:160
    a004:	38336a9f 	strb	wzr, [x20, x19]
    a008:	17ffffcd 	b	9f3c <trace_vprintf+0x12c>
/home/fangjiang/workspace/optee-os/lib/libutils/ext/trace.c:172
    a00c:	d1000673 	sub	x19, x19, #0x1
    a010:	17ffffde 	b	9f88 <trace_vprintf+0x178>
/home/fangjiang/workspace/optee-os/lib/libutils/ext/trace.c:177
    a014:	a9537bfd 	ldp	x29, x30, [sp, #304]
    a018:	a95453f3 	ldp	x19, x20, [sp, #320]
    a01c:	a9555bf5 	ldp	x21, x22, [sp, #336]
    a020:	a95663f7 	ldp	x23, x24, [sp, #352]
    a024:	a9576bf9 	ldp	x25, x26, [sp, #368]
    a028:	a95873fb 	ldp	x27, x28, [sp, #384]
    a02c:	910643ff 	add	sp, sp, #0x190
    a030:	d65f03c0 	ret

000000000000a034 <trace_printf>:
trace_printf():
/home/fangjiang/workspace/optee-os/lib/libutils/ext/trace.c:104
    a034:	d104c3ff 	sub	sp, sp, #0x130
    a038:	a9057bfd 	stp	x29, x30, [sp, #80]
    a03c:	910143fd 	add	x29, sp, #0x50
    a040:	a90653f3 	stp	x19, x20, [sp, #96]
    a044:	90000033 	adrp	x19, e000 <_DYNAMIC>
    a048:	aa0003f4 	mov	x20, x0
    a04c:	f9409a60 	ldr	x0, [x19, #304]
    a050:	a9075bf5 	stp	x21, x22, [sp, #112]
    a054:	2a0103f5 	mov	w21, w1
    a058:	a90863f7 	stp	x23, x24, [sp, #128]
    a05c:	2a0203f6 	mov	w22, w2
    a060:	12001c78 	and	w24, w3, #0xff
    a064:	3d8027e0 	str	q0, [sp, #144]
    a068:	aa0403f7 	mov	x23, x4
/home/fangjiang/workspace/optee-os/lib/libutils/ext/trace.c:108
    a06c:	d2800402 	mov	x2, #0x20                  	// #32
/home/fangjiang/workspace/optee-os/lib/libutils/ext/trace.c:104
    a070:	3d802be1 	str	q1, [sp, #160]
    a074:	3d802fe2 	str	q2, [sp, #176]
    a078:	3d8033e3 	str	q3, [sp, #192]
    a07c:	3d8037e4 	str	q4, [sp, #208]
    a080:	3d803be5 	str	q5, [sp, #224]
    a084:	3d803fe6 	str	q6, [sp, #240]
    a088:	3d8043e7 	str	q7, [sp, #256]
    a08c:	a9119be5 	stp	x5, x6, [sp, #280]
/home/fangjiang/workspace/optee-os/lib/libutils/ext/trace.c:108
    a090:	910003e5 	mov	x5, sp
/home/fangjiang/workspace/optee-os/lib/libutils/ext/trace.c:104
    a094:	f90097e7 	str	x7, [sp, #296]
    a098:	f9400001 	ldr	x1, [x0]
    a09c:	f90027e1 	str	x1, [sp, #72]
    a0a0:	d2800001 	mov	x1, #0x0                   	// #0
/home/fangjiang/workspace/optee-os/lib/libutils/ext/trace.c:107
    a0a4:	9104c3e0 	add	x0, sp, #0x130
    a0a8:	a90283e0 	stp	x0, x0, [sp, #40]
    a0ac:	910443e0 	add	x0, sp, #0x110
/home/fangjiang/workspace/optee-os/lib/libutils/ext/trace.c:108
    a0b0:	9100a3e1 	add	x1, sp, #0x28
/home/fangjiang/workspace/optee-os/lib/libutils/ext/trace.c:107
    a0b4:	f9001fe0 	str	x0, [sp, #56]
    a0b8:	128002e0 	mov	w0, #0xffffffe8            	// #-24
    a0bc:	b90043e0 	str	w0, [sp, #64]
    a0c0:	12800fe0 	mov	w0, #0xffffff80            	// #-128
    a0c4:	b90047e0 	str	w0, [sp, #68]
/home/fangjiang/workspace/optee-os/lib/libutils/ext/trace.c:108
    a0c8:	aa0503e0 	mov	x0, x5
    a0cc:	97ffd7d5 	bl	20 <memcpy>
    a0d0:	aa0003e5 	mov	x5, x0
    a0d4:	2a1503e1 	mov	w1, w21
    a0d8:	aa1403e0 	mov	x0, x20
    a0dc:	aa1703e4 	mov	x4, x23
    a0e0:	2a1803e3 	mov	w3, w24
    a0e4:	2a1603e2 	mov	w2, w22
    a0e8:	97ffff4a 	bl	9e10 <trace_vprintf>
/home/fangjiang/workspace/optee-os/lib/libutils/ext/trace.c:110
    a0ec:	f9409a73 	ldr	x19, [x19, #304]
    a0f0:	f94027e0 	ldr	x0, [sp, #72]
    a0f4:	f9400261 	ldr	x1, [x19]
    a0f8:	eb010000 	subs	x0, x0, x1
    a0fc:	d2800001 	mov	x1, #0x0                   	// #0
    a100:	54000040 	b.eq	a108 <trace_printf+0xd4>  // b.none
    a104:	97fffb8f 	bl	8f40 <__stack_chk_fail>
    a108:	a9457bfd 	ldp	x29, x30, [sp, #80]
    a10c:	a94653f3 	ldp	x19, x20, [sp, #96]
    a110:	a9475bf5 	ldp	x21, x22, [sp, #112]
    a114:	a94863f7 	ldp	x23, x24, [sp, #128]
    a118:	9104c3ff 	add	sp, sp, #0x130
    a11c:	d65f03c0 	ret

000000000000a120 <dhex_dump>:
dhex_dump():
/home/fangjiang/workspace/optee-os/lib/libutils/ext/trace.c:287
    a120:	d65f03c0 	ret

000000000000a124 <mempool_alloc_pool>:
mempool_alloc_pool():
/home/fangjiang/workspace/optee-os/lib/libutils/ext/mempool.c:120
    a124:	a9bd7bfd 	stp	x29, x30, [sp, #-48]!
    a128:	910003fd 	mov	x29, sp
    a12c:	f90013f5 	str	x21, [sp, #32]
    a130:	aa0003f5 	mov	x21, x0
/home/fangjiang/workspace/optee-os/lib/libutils/ext/mempool.c:121
    a134:	d2800020 	mov	x0, #0x1                   	// #1
/home/fangjiang/workspace/optee-os/lib/libutils/ext/mempool.c:120
    a138:	a90153f3 	stp	x19, x20, [sp, #16]
    a13c:	aa0103f3 	mov	x19, x1
/home/fangjiang/workspace/optee-os/lib/libutils/ext/mempool.c:121
    a140:	d2800301 	mov	x1, #0x18                  	// #24
    a144:	97fffa91 	bl	8b88 <calloc>
/home/fangjiang/workspace/optee-os/lib/libutils/ext/mempool.c:124
    a148:	f2400abf 	tst	x21, #0x7
    a14c:	54000140 	b.eq	a174 <mempool_alloc_pool+0x50>  // b.none
/home/fangjiang/workspace/optee-os/lib/libutils/ext/mempool.c:124 (discriminator 1)
    a150:	f0000003 	adrp	x3, d000 <__func__.0+0x5bb>
    a154:	f0000001 	adrp	x1, d000 <__func__.0+0x5bb>
    a158:	f0000000 	adrp	x0, d000 <__func__.0+0x5bb>
    a15c:	910a5463 	add	x3, x3, #0x295
    a160:	91083021 	add	x1, x1, #0x20c
    a164:	91089c00 	add	x0, x0, #0x227
    a168:	52800f82 	mov	w2, #0x7c                  	// #124
init_mpool():
/home/fangjiang/workspace/optee-os/lib/libutils/ext/mempool.c:84
    a16c:	97ffe6e6 	bl	3d04 <_assert_log>
    a170:	97ffe6f6 	bl	3d48 <_assert_break>
    a174:	aa0003f4 	mov	x20, x0
mempool_alloc_pool():
/home/fangjiang/workspace/optee-os/lib/libutils/ext/mempool.c:126 (discriminator 2)
    a178:	b4000300 	cbz	x0, a1d8 <mempool_alloc_pool+0xb4>
/home/fangjiang/workspace/optee-os/lib/libutils/ext/mempool.c:128
    a17c:	a9005413 	stp	x19, x21, [x0]
init_mpool():
/home/fangjiang/workspace/optee-os/lib/libutils/ext/mempool.c:74
    a180:	97fffa9e 	bl	8bf8 <raw_malloc_get_ctx_size>
/home/fangjiang/workspace/optee-os/lib/libutils/ext/mempool.c:75
    a184:	f9400681 	ldr	x1, [x20, #8]
    a188:	8b010273 	add	x19, x19, x1
    a18c:	cb000273 	sub	x19, x19, x0
    a190:	927cee73 	and	x19, x19, #0xfffffffffffffff0
/home/fangjiang/workspace/optee-os/lib/libutils/ext/mempool.c:84
    a194:	eb13003f 	cmp	x1, x19
    a198:	54000143 	b.cc	a1c0 <mempool_alloc_pool+0x9c>  // b.lo, b.ul, b.last
    a19c:	f0000003 	adrp	x3, d000 <__func__.0+0x5bb>
    a1a0:	910a5463 	add	x3, x3, #0x295
    a1a4:	f0000001 	adrp	x1, d000 <__func__.0+0x5bb>
    a1a8:	f0000000 	adrp	x0, d000 <__func__.0+0x5bb>
    a1ac:	91004c63 	add	x3, x3, #0x13
    a1b0:	91083021 	add	x1, x1, #0x20c
    a1b4:	91093800 	add	x0, x0, #0x24e
    a1b8:	52800a82 	mov	w2, #0x54                  	// #84
    a1bc:	17ffffec 	b	a16c <mempool_alloc_pool+0x48>
/home/fangjiang/workspace/optee-os/lib/libutils/ext/mempool.c:85
    a1c0:	f9000a93 	str	x19, [x20, #16]
/home/fangjiang/workspace/optee-os/lib/libutils/ext/mempool.c:86
    a1c4:	aa1303e0 	mov	x0, x19
    a1c8:	97fffa8e 	bl	8c00 <raw_malloc_init_ctx>
/home/fangjiang/workspace/optee-os/lib/libutils/ext/mempool.c:87
    a1cc:	a9408281 	ldp	x1, x0, [x20, #8]
    a1d0:	cb010262 	sub	x2, x19, x1
    a1d4:	97fffa90 	bl	8c14 <raw_malloc_add_pool>
mempool_alloc_pool():
/home/fangjiang/workspace/optee-os/lib/libutils/ext/mempool.c:138
    a1d8:	aa1403e0 	mov	x0, x20
    a1dc:	a94153f3 	ldp	x19, x20, [sp, #16]
    a1e0:	f94013f5 	ldr	x21, [sp, #32]
    a1e4:	a8c37bfd 	ldp	x29, x30, [sp], #48
    a1e8:	d65f03c0 	ret

000000000000a1ec <mempool_alloc>:
mempool_alloc():
/home/fangjiang/workspace/optee-os/lib/libutils/ext/mempool.c:141
    a1ec:	a9be7bfd 	stp	x29, x30, [sp, #-32]!
/home/fangjiang/workspace/optee-os/lib/libutils/ext/mempool.c:146
    a1f0:	aa0103e2 	mov	x2, x1
/home/fangjiang/workspace/optee-os/lib/libutils/ext/mempool.c:141
    a1f4:	910003fd 	mov	x29, sp
/home/fangjiang/workspace/optee-os/lib/libutils/ext/mempool.c:146
    a1f8:	f9400803 	ldr	x3, [x0, #16]
    a1fc:	d2800000 	mov	x0, #0x0                   	// #0
/home/fangjiang/workspace/optee-os/lib/libutils/ext/mempool.c:141
    a200:	a90153f3 	stp	x19, x20, [sp, #16]
    a204:	aa0103f4 	mov	x20, x1
/home/fangjiang/workspace/optee-os/lib/libutils/ext/mempool.c:146
    a208:	d2800001 	mov	x1, #0x0                   	// #0
    a20c:	97fff9fa 	bl	89f4 <raw_malloc>
    a210:	aa0003f3 	mov	x19, x0
/home/fangjiang/workspace/optee-os/lib/libutils/ext/mempool.c:147
    a214:	b5000160 	cbnz	x0, a240 <mempool_alloc+0x54>
/home/fangjiang/workspace/optee-os/lib/libutils/ext/mempool.c:161
    a218:	f0000000 	adrp	x0, d000 <__func__.0+0x5bb>
    a21c:	910a5400 	add	x0, x0, #0x295
    a220:	f0000004 	adrp	x4, d000 <__func__.0+0x5bb>
    a224:	aa1403e5 	mov	x5, x20
    a228:	91097484 	add	x4, x4, #0x25d
    a22c:	91007800 	add	x0, x0, #0x1e
    a230:	52800023 	mov	w3, #0x1                   	// #1
    a234:	52800022 	mov	w2, #0x1                   	// #1
    a238:	52801421 	mov	w1, #0xa1                  	// #161
    a23c:	97ffff7e 	bl	a034 <trace_printf>
/home/fangjiang/workspace/optee-os/lib/libutils/ext/mempool.c:164
    a240:	aa1303e0 	mov	x0, x19
    a244:	a94153f3 	ldp	x19, x20, [sp, #16]
    a248:	a8c27bfd 	ldp	x29, x30, [sp], #32
    a24c:	d65f03c0 	ret

000000000000a250 <mempool_calloc>:
mempool_calloc():
/home/fangjiang/workspace/optee-os/lib/libutils/ext/mempool.c:167
    a250:	a9be7bfd 	stp	x29, x30, [sp, #-32]!
/home/fangjiang/workspace/optee-os/lib/libutils/ext/mempool.c:171
    a254:	9bc27c23 	umulh	x3, x1, x2
/home/fangjiang/workspace/optee-os/lib/libutils/ext/mempool.c:167
    a258:	910003fd 	mov	x29, sp
    a25c:	a90153f3 	stp	x19, x20, [sp, #16]
/home/fangjiang/workspace/optee-os/lib/libutils/ext/mempool.c:171
    a260:	9b027c34 	mul	x20, x1, x2
    a264:	b5000123 	cbnz	x3, a288 <mempool_calloc+0x38>
/home/fangjiang/workspace/optee-os/lib/libutils/ext/mempool.c:174
    a268:	aa1403e1 	mov	x1, x20
    a26c:	97ffffe0 	bl	a1ec <mempool_alloc>
    a270:	aa0003f3 	mov	x19, x0
/home/fangjiang/workspace/optee-os/lib/libutils/ext/mempool.c:175
    a274:	b50000e0 	cbnz	x0, a290 <mempool_calloc+0x40>
/home/fangjiang/workspace/optee-os/lib/libutils/ext/mempool.c:179
    a278:	aa1303e0 	mov	x0, x19
    a27c:	a94153f3 	ldp	x19, x20, [sp, #16]
    a280:	a8c27bfd 	ldp	x29, x30, [sp], #32
    a284:	d65f03c0 	ret
/home/fangjiang/workspace/optee-os/lib/libutils/ext/mempool.c:172
    a288:	d2800013 	mov	x19, #0x0                   	// #0
    a28c:	17fffffb 	b	a278 <mempool_calloc+0x28>
/home/fangjiang/workspace/optee-os/lib/libutils/ext/mempool.c:176
    a290:	aa1403e2 	mov	x2, x20
    a294:	52800001 	mov	w1, #0x0                   	// #0
    a298:	97fffb42 	bl	8fa0 <memset>
    a29c:	17fffff7 	b	a278 <mempool_calloc+0x28>

000000000000a2a0 <mempool_free>:
mempool_free():
/home/fangjiang/workspace/optee-os/lib/libutils/ext/mempool.c:182
    a2a0:	aa0003e3 	mov	x3, x0
    a2a4:	aa0103e0 	mov	x0, x1
/home/fangjiang/workspace/optee-os/lib/libutils/ext/mempool.c:183
    a2a8:	52800002 	mov	w2, #0x0                   	// #0
    a2ac:	f9400861 	ldr	x1, [x3, #16]
    a2b0:	17fff9d5 	b	8a04 <raw_free>

000000000000a2b4 <consttime_memcmp>:
consttime_memcmp():
/home/fangjiang/workspace/optee-os/lib/libutils/ext/consttime_memcmp.c:36
    a2b4:	d10043ff 	sub	sp, sp, #0x10
/home/fangjiang/workspace/optee-os/lib/libutils/ext/consttime_memcmp.c:41
    a2b8:	52802003 	mov	w3, #0x100                 	// #256
/home/fangjiang/workspace/optee-os/lib/libutils/ext/consttime_memcmp.c:43
    a2bc:	d2800005 	mov	x5, #0x0                   	// #0
/home/fangjiang/workspace/optee-os/lib/libutils/ext/consttime_memcmp.c:39
    a2c0:	52800006 	mov	w6, #0x0                   	// #0
/home/fangjiang/workspace/optee-os/lib/libutils/ext/consttime_memcmp.c:41
    a2c4:	b9000fe3 	str	w3, [sp, #12]
/home/fangjiang/workspace/optee-os/lib/libutils/ext/consttime_memcmp.c:40
    a2c8:	52800003 	mov	w3, #0x0                   	// #0
/home/fangjiang/workspace/optee-os/lib/libutils/ext/consttime_memcmp.c:43 (discriminator 1)
    a2cc:	eb0200bf 	cmp	x5, x2
    a2d0:	540000a1 	b.ne	a2e4 <consttime_memcmp+0x30>  // b.any
/home/fangjiang/workspace/optee-os/lib/libutils/ext/consttime_memcmp.c:50
    a2d4:	53087c63 	lsr	w3, w3, #8
/home/fangjiang/workspace/optee-os/lib/libutils/ext/consttime_memcmp.c:51
    a2d8:	4b462060 	sub	w0, w3, w6, lsr #8
    a2dc:	910043ff 	add	sp, sp, #0x10
    a2e0:	d65f03c0 	ret
/home/fangjiang/workspace/optee-os/lib/libutils/ext/consttime_memcmp.c:45 (discriminator 2)
    a2e4:	38656808 	ldrb	w8, [x0, x5]
    a2e8:	38656824 	ldrb	w4, [x1, x5]
    a2ec:	910004a5 	add	x5, x5, #0x1
/home/fangjiang/workspace/optee-os/lib/libutils/ext/consttime_memcmp.c:44 (discriminator 2)
    a2f0:	b9400fe9 	ldr	w9, [sp, #12]
/home/fangjiang/workspace/optee-os/lib/libutils/ext/consttime_memcmp.c:45 (discriminator 2)
    a2f4:	4b040107 	sub	w7, w8, w4
/home/fangjiang/workspace/optee-os/lib/libutils/ext/consttime_memcmp.c:47 (discriminator 2)
    a2f8:	4b080084 	sub	w4, w4, w8
/home/fangjiang/workspace/optee-os/lib/libutils/ext/consttime_memcmp.c:44 (discriminator 2)
    a2fc:	0a0900e7 	and	w7, w7, w9
    a300:	2a0700c6 	orr	w6, w6, w7
/home/fangjiang/workspace/optee-os/lib/libutils/ext/consttime_memcmp.c:46 (discriminator 2)
    a304:	b9400fe7 	ldr	w7, [sp, #12]
    a308:	0a070084 	and	w4, w4, w7
/home/fangjiang/workspace/optee-os/lib/libutils/ext/consttime_memcmp.c:48 (discriminator 2)
    a30c:	b9400fe7 	ldr	w7, [sp, #12]
/home/fangjiang/workspace/optee-os/lib/libutils/ext/consttime_memcmp.c:46 (discriminator 2)
    a310:	2a040063 	orr	w3, w3, w4
/home/fangjiang/workspace/optee-os/lib/libutils/ext/consttime_memcmp.c:48 (discriminator 2)
    a314:	2a0300c4 	orr	w4, w6, w3
    a318:	0a2400e4 	bic	w4, w7, w4
    a31c:	b9000fe4 	str	w4, [sp, #12]
/home/fangjiang/workspace/optee-os/lib/libutils/ext/consttime_memcmp.c:43 (discriminator 2)
    a320:	17ffffeb 	b	a2cc <consttime_memcmp+0x18>

000000000000a324 <memchr>:
memchr():
/home/fangjiang/workspace/optee-os/lib/libutils/isoc/newlib/memchr.c:109
    a324:	12001c21 	and	w1, w1, #0xff
/home/fangjiang/workspace/optee-os/lib/libutils/isoc/newlib/memchr.c:153
    a328:	8b020002 	add	x2, x0, x2
    a32c:	eb02001f 	cmp	x0, x2
    a330:	54000061 	b.ne	a33c <memchr+0x18>  // b.any
/home/fangjiang/workspace/optee-os/lib/libutils/isoc/newlib/memchr.c:159
    a334:	d2800000 	mov	x0, #0x0                   	// #0
/home/fangjiang/workspace/optee-os/lib/libutils/isoc/newlib/memchr.c:160
    a338:	d65f03c0 	ret
/home/fangjiang/workspace/optee-os/lib/libutils/isoc/newlib/memchr.c:154
    a33c:	39400003 	ldrb	w3, [x0]
    a340:	6b01007f 	cmp	w3, w1
    a344:	54ffffa0 	b.eq	a338 <memchr+0x14>  // b.none
/home/fangjiang/workspace/optee-os/lib/libutils/isoc/newlib/memchr.c:156
    a348:	91000400 	add	x0, x0, #0x1
    a34c:	17fffff8 	b	a32c <memchr+0x8>
