
b6a189a0-7697-4aa8-9d62-80f64ec4e74d.elf:     file format elf64-littleaarch64
b6a189a0-7697-4aa8-9d62-80f64ec4e74d.elf
architecture: aarch64, flags 0x00000150:
HAS_SYMS, DYNAMIC, D_PAGED
start address 0x0000000000000280

Program Header:
    LOAD off    0x0000000000001000 vaddr 0x0000000000000000 paddr 0x0000000000000000 align 2**12
         filesz 0x000000000000d628 memsz 0x000000000000d628 flags r-x
    LOAD off    0x000000000000f000 vaddr 0x000000000000e000 paddr 0x000000000000e000 align 2**12
         filesz 0x000000000000042c memsz 0x000000000000b4c0 flags rw-
 DYNAMIC off    0x000000000000f000 vaddr 0x000000000000e000 paddr 0x000000000000e000 align 2**3
         filesz 0x0000000000000110 memsz 0x0000000000000110 flags rw-
   STACK off    0x0000000000000000 vaddr 0x0000000000000000 paddr 0x0000000000000000 align 2**4
         filesz 0x0000000000000000 memsz 0x0000000000000000 flags rw-

Dynamic Section:
  HASH                 0x000000000000d3d0
  GNU_HASH             0x000000000000d2e0
  STRTAB               0x000000000000d3a0
  SYMTAB               0x000000000000d310
  STRSZ                0x000000000000002e
  SYMENT               0x0000000000000018
  DEBUG                0x0000000000000000
  RELA                 0x000000000000d400
  RELASZ               0x0000000000000378
  RELAENT              0x0000000000000018
  FLAGS_1              0x0000000008000000
  RELACOUNT            0x0000000000000017
private flags = 0x0:

Sections:
Idx Name          Size      VMA               LMA               File off  Algn
  0 .ta_head      00000020  0000000000000000  0000000000000000  00001000  2**3
                  CONTENTS, ALLOC, LOAD, READONLY, DATA
  1 .text         0000a348  0000000000000020  0000000000000020  00001020  2**4
                  CONTENTS, ALLOC, LOAD, READONLY, CODE
  2 .eh_frame     00001ef4  000000000000a368  000000000000a368  0000b368  2**3
                  CONTENTS, ALLOC, LOAD, READONLY, DATA
  3 .rodata       00001079  000000000000c260  000000000000c260  0000d260  2**3
                  CONTENTS, ALLOC, LOAD, READONLY, DATA
  4 .gnu.hash     00000030  000000000000d2e0  000000000000d2e0  0000e2e0  2**3
                  CONTENTS, ALLOC, LOAD, READONLY, DATA
  5 .dynsym       00000090  000000000000d310  000000000000d310  0000e310  2**3
                  CONTENTS, ALLOC, LOAD, READONLY, DATA
  6 .dynstr       0000002e  000000000000d3a0  000000000000d3a0  0000e3a0  2**0
                  CONTENTS, ALLOC, LOAD, READONLY, DATA
  7 .hash         0000002c  000000000000d3d0  000000000000d3d0  0000e3d0  2**3
                  CONTENTS, ALLOC, LOAD, READONLY, DATA
  8 .rela.dyn     00000228  000000000000d400  000000000000d400  0000e400  2**3
                  CONTENTS, ALLOC, LOAD, READONLY, DATA
  9 .dynamic      00000110  000000000000e000  000000000000e000  0000f000  2**3
                  CONTENTS, ALLOC, LOAD, DATA
 10 .got          00000090  000000000000e110  000000000000e110  0000f110  2**3
                  CONTENTS, ALLOC, LOAD, DATA
 11 .rela.got     00000150  000000000000e1a0  000000000000e1a0  0000f1a0  2**3
                  CONTENTS, ALLOC, LOAD, READONLY, DATA
 12 .data         0000013c  000000000000e2f0  000000000000e2f0  0000f2f0  2**3
                  CONTENTS, ALLOC, LOAD, DATA
 13 .bss          0000b090  000000000000e430  000000000000e430  0000f42c  2**3
                  ALLOC
 14 .debug_info   00013e11  0000000000000000  0000000000000000  0000f42c  2**0
                  CONTENTS, READONLY, DEBUGGING, OCTETS
 15 .debug_abbrev 000035a7  0000000000000000  0000000000000000  0002323d  2**0
                  CONTENTS, READONLY, DEBUGGING, OCTETS
 16 .debug_loclists 0000c32f  0000000000000000  0000000000000000  000267e4  2**0
                  CONTENTS, READONLY, DEBUGGING, OCTETS
 17 .debug_aranges 00000860  0000000000000000  0000000000000000  00032b20  2**4
                  CONTENTS, READONLY, DEBUGGING, OCTETS
 18 .debug_rnglists 0000073b  0000000000000000  0000000000000000  00033380  2**0
                  CONTENTS, READONLY, DEBUGGING, OCTETS
 19 .debug_macro  0001456c  0000000000000000  0000000000000000  00033abb  2**0
                  CONTENTS, READONLY, DEBUGGING, OCTETS
 20 .debug_line   00009f0f  0000000000000000  0000000000000000  00048027  2**0
                  CONTENTS, READONLY, DEBUGGING, OCTETS
 21 .debug_str    00017170  0000000000000000  0000000000000000  00051f36  2**0
                  CONTENTS, READONLY, DEBUGGING, OCTETS
 22 .debug_line_str 000008d9  0000000000000000  0000000000000000  000690a6  2**0
                  CONTENTS, READONLY, DEBUGGING, OCTETS
 23 .comment      0000002d  0000000000000000  0000000000000000  0006997f  2**0
                  CONTENTS, READONLY
SYMBOL TABLE:
0000000000000000 l    d  .ta_head	0000000000000000 .ta_head
0000000000000020 l    d  .text	0000000000000000 .text
000000000000a368 l    d  .eh_frame	0000000000000000 .eh_frame
000000000000c260 l    d  .rodata	0000000000000000 .rodata
000000000000d2e0 l    d  .gnu.hash	0000000000000000 .gnu.hash
000000000000d310 l    d  .dynsym	0000000000000000 .dynsym
000000000000d3a0 l    d  .dynstr	0000000000000000 .dynstr
000000000000d3d0 l    d  .hash	0000000000000000 .hash
000000000000d400 l    d  .rela.dyn	0000000000000000 .rela.dyn
000000000000e000 l    d  .dynamic	0000000000000000 .dynamic
000000000000e110 l    d  .got	0000000000000000 .got
000000000000e1a0 l    d  .rela.got	0000000000000000 .rela.got
000000000000e2f0 l    d  .data	0000000000000000 .data
000000000000e430 l    d  .bss	0000000000000000 .bss
0000000000000000 l    d  .debug_info	0000000000000000 .debug_info
0000000000000000 l    d  .debug_abbrev	0000000000000000 .debug_abbrev
0000000000000000 l    d  .debug_loclists	0000000000000000 .debug_loclists
0000000000000000 l    d  .debug_aranges	0000000000000000 .debug_aranges
0000000000000000 l    d  .debug_rnglists	0000000000000000 .debug_rnglists
0000000000000000 l    d  .debug_macro	0000000000000000 .debug_macro
0000000000000000 l    d  .debug_line	0000000000000000 .debug_line
0000000000000000 l    d  .debug_str	0000000000000000 .debug_str
0000000000000000 l    d  .debug_line_str	0000000000000000 .debug_line_str
0000000000000000 l    d  .comment	0000000000000000 .comment
0000000000000000 l    df *ABS*	0000000000000000 user_ta_header.c
000000000000c268 l     O .rodata	0000000000000004 __compound_literal.5
000000000000c26c l     O .rodata	0000000000000004 __compound_literal.4
000000000000c270 l     O .rodata	0000000000000004 __compound_literal.3
000000000000c274 l     O .rodata	0000000000000001 __compound_literal.2
000000000000c275 l     O .rodata	0000000000000001 __compound_literal.1
000000000000c276 l     O .rodata	0000000000000001 __compound_literal.0
0000000000000000 l    df *ABS*	0000000000000000 memcpy.c
0000000000000000 l    df *ABS*	0000000000000000 store_stride_ta.c
000000000000010c l     F .text	000000000000000c secure_trigger_store
0000000000000118 l     F .text	0000000000000008 secure_trigger_load
0000000000000120 l     F .text	000000000000009c load_sequence
0000000000000000 l    df *ABS*	0000000000000000 utee_syscalls_a64.o
0000000000000000 l    df *ABS*	0000000000000000 user_ta_entry.c
0000000000000548 l     F .text	00000000000000b0 _get_fn_array
00000000000005f8 l     F .text	0000000000000098 _fini_iterate_phdr_cb
0000000000000690 l     F .text	0000000000000028 ta_header_get_session
00000000000006b8 l     F .text	0000000000000070 to_utee_params
0000000000000728 l     F .text	0000000000000060 from_utee_params
0000000000000788 l     F .text	0000000000000094 _init_iterate_phdr_cb
0000000000000980 l     F .text	0000000000000094 ta_header_remove_session
000000000000c735 l     O .rodata	0000000000000016 __func__.0
000000000000e430 l     O .bss	0000000000000008 _num_mod_init
000000000000e438 l     O .bss	0000000000000001 init_done
000000000000e3c8 l     O .data	0000000000000010 ta_sessions
000000000000e3d8 l     O .data	0000000000000010 __phdr_info_head
0000000000000000 l    df *ABS*	0000000000000000 abort.c
0000000000000000 l    df *ABS*	0000000000000000 trace_ext.c
0000000000000000 l    df *ABS*	0000000000000000 tee_api.c
0000000000000e68 l     F .text	00000000000000a8 update_out_param
0000000000001084 l     F .text	000000000000020c copy_param
000000000000c763 l     O .rodata	000000000000000b __func__.0
000000000000e498 l     O .bss	0000000000000008 tee_api_instance_data
0000000000000000 l    df *ABS*	0000000000000000 tee_api_arith_mpi.c
0000000000001760 l     F .text	0000000000000030 api_panic
0000000000001790 l     F .text	0000000000000030 mpi_panic
00000000000017c0 l     F .text	0000000000000098 get_mpi
0000000000001858 l     F .text	0000000000000064 copy_mpi_to_bigint
00000000000018bc l     F .text	0000000000000154 bigint_binary
0000000000001a10 l     F .text	0000000000000020 mpi_is_odd
0000000000001a30 l     F .text	0000000000000028 rng_read
0000000000001a58 l     F .text	000000000000057c mpi_egcd
000000000000e4a0 l     O .bss	0000000000003000 data.17
00000000000024d0 l     F .text	00000000000001d8 bigint_binary_mod
000000000000c825 l     O .rodata	0000000000000008 __func__.14
000000000000c82d l     O .rodata	000000000000000e __func__.10
000000000000c83b l     O .rodata	0000000000000009 __func__.2
000000000000c844 l     O .rodata	0000000000000012 __func__.16
000000000000c856 l     O .rodata	000000000000000f __func__.15
000000000000c865 l     O .rodata	000000000000001f __func__.13
000000000000c884 l     O .rodata	0000000000000019 __func__.12
000000000000c89d l     O .rodata	0000000000000012 __func__.6
000000000000c8af l     O .rodata	0000000000000015 __func__.11
000000000000c8c4 l     O .rodata	000000000000000e __func__.9
000000000000c8d2 l     O .rodata	000000000000000e __func__.8
000000000000c8e0 l     O .rodata	000000000000000e __func__.7
000000000000c8ee l     O .rodata	0000000000000011 __func__.5
000000000000c8ff l     O .rodata	0000000000000018 __func__.4
000000000000c917 l     O .rodata	000000000000001d __func__.3
000000000000c934 l     O .rodata	0000000000000019 __func__.1
000000000000c94d l     O .rodata	0000000000000015 __func__.0
0000000000000000 l    df *ABS*	0000000000000000 tee_api_panic.c
0000000000003598 l     F .text	000000000000001c check_access
00000000000035bc l     F .text	0000000000000010 check_res.constprop.0
0000000000000000 l    df *ABS*	0000000000000000 tee_system_pta.c
00000000000036f8 l     F .text	0000000000000084 invoke_system_pta
000000000000c288 l     O .rodata	0000000000000010 uuid.2
000000000000c298 l     O .rodata	000000000000000a __func__.1
000000000000c2a2 l     O .rodata	0000000000000017 __func__.0
00000000000114a0 l     O .bss	0000000000000008 sess.3
0000000000000000 l    df *ABS*	0000000000000000 tcb.c
000000000000ca4d l     O .rodata	0000000000000010 __func__.1
000000000000ca5d l     O .rodata	0000000000000010 __func__.0
00000000000114a8 l     O .bss	0000000000000008 _tls_size
00000000000114b0 l     O .bss	0000000000000008 _tcb
0000000000000000 l    df *ABS*	0000000000000000 assert.c
0000000000000000 l    df *ABS*	0000000000000000 bignum.c
0000000000003d74 l     F .text	000000000000003c mpi_safe_cond_assign
0000000000003db0 l     F .text	0000000000000064 mpi_get_digit
0000000000003e14 l     F .text	000000000000040c mpi_mul_hlp
0000000000004220 l     F .text	0000000000000148 mpi_montmul
0000000000004368 l     F .text	0000000000000080 mpi_montred
00000000000043e8 l     F .text	0000000000000038 mpi_montg_init.isra.0
0000000000004420 l     F .text	00000000000000b4 mpi_bigendian_to_host.part.0
00000000000044d4 l     F .text	00000000000000c0 mpi_fill_random_internal
0000000000004720 l     F .text	000000000000006c mbedtls_mpi_resize_clear
0000000000006704 l     F .text	00000000000000cc mpi_check_small_factors
0000000000007104 l     F .text	00000000000002ac mpi_miller_rabin
000000000000c2bc l     O .rodata	00000000000002a0 small_prime
000000000000c55c l     O .rodata	0000000000000024 gcd_pairs
0000000000000000 l    df *ABS*	0000000000000000 platform_util.c
000000000000e3e8 l     O .data	0000000000000008 memset_func
0000000000000000 l    df *ABS*	0000000000000000 bget_malloc.c
0000000000008abc l     F .text	00000000000000cc gen_malloc_add_pool
000000000000d17c l     O .rodata	0000000000000005 __func__.7
000000000000d181 l     O .rodata	0000000000000006 __func__.6
000000000000d187 l     O .rodata	0000000000000005 __func__.4
000000000000d18c l     O .rodata	0000000000000006 __func__.5
000000000000d192 l     O .rodata	0000000000000006 __func__.3
000000000000d198 l     O .rodata	0000000000000014 __func__.2
000000000000d1ac l     O .rodata	000000000000000e __func__.1
000000000000d1ba l     O .rodata	0000000000000013 __func__.0
000000000000e3f0 l     O .data	0000000000000030 malloc_ctx
0000000000000000 l    df *ABS*	0000000000000000 snprintf.c
0000000000000000 l    df *ABS*	0000000000000000 stack_check.c
0000000000000000 l    df *ABS*	0000000000000000 memmove.c
0000000000000000 l    df *ABS*	0000000000000000 memset.c
0000000000000000 l    df *ABS*	0000000000000000 strlen.c
0000000000000000 l    df *ABS*	0000000000000000 snprintk.c
00000000000091ec l     F .text	0000000000000bc4 kprintf.constprop.0
000000000000c60a l     O .rodata	0000000000000011 hexdigits
000000000000c61b l     O .rodata	0000000000000011 HEXDIGITS
0000000000000000 l    df *ABS*	0000000000000000 trace.c
000000000000d21f l     O .rodata	0000000000000005 lvl_strs.0
0000000000000000 l    df *ABS*	0000000000000000 mempool.c
000000000000d2ad l     O .rodata	0000000000000013 __func__.2
000000000000d2c0 l     O .rodata	000000000000000b __func__.1
000000000000d2cb l     O .rodata	000000000000000e __func__.0
0000000000000000 l    df *ABS*	0000000000000000 consttime_memcmp.c
0000000000000000 l    df *ABS*	0000000000000000 memchr.c
0000000000000000 l    df *ABS*	0000000000000000 
000000000000e000 l     O *ABS*	0000000000000000 _DYNAMIC
000000000000e128 l     O *ABS*	0000000000000000 _GLOBAL_OFFSET_TABLE_
0000000000000df0 g     F .text	0000000000000078 putchar
0000000000003364 g     F .text	0000000000000004 TEE_BigIntConvertToFMM
0000000000002dd0 g     F .text	000000000000000c TEE_BigIntSquareMod
00000000000026a8 g     F .text	00000000000001a8 TEE_BigIntShiftRight
0000000000008c2c g     F .text	0000000000000004 raw_malloc_add_pool
00000000000038dc g     F .text	00000000000000f4 tee_invoke_supp_plugin
0000000000004638 g     F .text	00000000000000e8 mbedtls_mpi_grow
0000000000001718 g     F .text	0000000000000030 TEE_Realloc
00000000000036d8 g     F .text	0000000000000020 __utee_check_inout_annotation
0000000000008a1c g     F .text	0000000000000010 raw_free
0000000000000cb0 g     F .text	0000000000000100 printf
00000000000002b4 g     F .text	000000000000000c _utee_log
00000000000013c4 g     F .text	0000000000000164 TEE_InvokeTACommand
00000000000035cc g     F .text	000000000000004c __utee_check_outbuf_annotation
00000000000045a4 g     F .text	0000000000000028 mbedtls_mpi_init_mempool
0000000000000434 g     F .text	000000000000000c _utee_cryp_random_number_generate
0000000000004f48 g     F .text	00000000000000c4 mbedtls_mpi_write_binary
00000000000090bc g     F .text	0000000000000058 vsnprintk
000000000000589c g     F .text	0000000000000080 mbedtls_mpi_sub_int
0000000000008f5c g     F .text	000000000000005c memmove
0000000000008e24 g     F .text	00000000000000dc snprintf
0000000000002448 g     F .text	0000000000000088 TEE_BigIntCmpS32
000000000000e420 g     O .data	0000000000000008 __stack_chk_guard
000000000000478c g     F .text	0000000000000118 mbedtls_mpi_shrink
000000000000295c g     F .text	000000000000000c TEE_BigIntAdd
00000000000003d4 g     F .text	000000000000000c _utee_cryp_obj_restrict_usage
000000000000c278 g     O .rodata	0000000000000008 ta_heap_size
000000000000047c g     F .text	000000000000000c _utee_asymm_operate
0000000000005b78 g     F .text	0000000000000214 mbedtls_mpi_read_string
0000000000002974 g     F .text	00000000000000ec TEE_BigIntNeg
00000000000004d0 g     F .text	000000000000000c _utee_storage_free_enum
0000000000000020 g       .text	0000000000000000 __text_start
000000000000511c g     F .text	00000000000000c0 mbedtls_mpi_shift_r
0000000000008dc0 g     F .text	0000000000000064 malloc_buffer_overlaps_heap
0000000000000380 g     F .text	000000000000000c _utee_hash_init
0000000000002db8 g     F .text	000000000000000c TEE_BigIntSubMod
0000000000007ac4 g     F .text	0000000000000354 mbedtls_mpi_gen_prime
0000000000004c10 g     F .text	000000000000002c mbedtls_mpi_get_bit
0000000000004e0c g     F .text	0000000000000084 mbedtls_mpi_read_binary
000000000000a04c g     F .text	00000000000000ec trace_printf
00000000000067d8 g     F .text	0000000000000004 mbedtls_mpi_montmul
000000000000053c g     F .text	000000000000000c _utee_cache_operation
0000000000000020 g     F .text	00000000000000ec memcpy
0000000000003368 g     F .text	00000000000000dc TEE_BigIntConvertFromFMM
00000000000035b4 g     F .text	0000000000000008 TEE_Panic
0000000000000db0 g     F .text	0000000000000040 puts
0000000000003444 g     F .text	0000000000000154 TEE_BigIntComputeFMM
0000000000001678 g     F .text	0000000000000028 TEE_GetREETime
000000000000e2f0 g     O .data	00000000000000d8 ta_props
0000000000003618 g     F .text	0000000000000030 __utee_check_instring_annotation
0000000000008b88 g     F .text	0000000000000018 malloc
0000000000008f00 g     F .text	0000000000000058 vsnprintf
000000000000e428 g     O .data	0000000000000004 trace_level
00000000000023a8 g     F .text	00000000000000a0 TEE_BigIntCmp
000000000000c260 g     O .rodata	0000000000000008 ta_num_props
0000000000008810 g     F .text	00000000000000d4 bgetr
0000000000000494 g     F .text	000000000000000c _utee_storage_obj_open
000000000000a2b8 g     F .text	0000000000000014 mempool_free
000000000000038c g     F .text	000000000000000c _utee_hash_update
0000000000002158 g     F .text	00000000000000d0 TEE_BigIntConvertToOctetString
0000000000004d1c g     F .text	000000000000005c mbedtls_mpi_bitlen
0000000000002850 g     F .text	000000000000008c TEE_BigIntGetBit
000000000000c280 g     O .rodata	0000000000000003 trace_ext_prefix
00000000000004f4 g     F .text	000000000000000c _utee_storage_next_enum
0000000000008a0c g     F .text	0000000000000010 raw_malloc
0000000000008508 g     F .text	000000000000008c bgetz
0000000000001534 g     F .text	000000000000000c TEE_GetInstanceData
0000000000001580 g     F .text	000000000000003c TEE_Wait
000000000000591c g     F .text	00000000000001b4 mbedtls_mpi_mul_mpi
0000000000001750 g     F .text	0000000000000008 TEE_CacheFlush
0000000000009e28 g     F .text	0000000000000224 trace_vprintf
00000000000001c4 g     F .text	0000000000000004 TA_DestroyEntryPoint
0000000000004594 g     F .text	0000000000000010 mbedtls_mpi_init
00000000000004ac g     F .text	000000000000000c _utee_storage_obj_del
0000000000004cc8 g     F .text	0000000000000054 mbedtls_mpi_lsb
0000000000003d1c g     F .text	0000000000000044 _assert_log
0000000000000368 g     F .text	000000000000000c _utee_cryp_state_copy
000000000000335c g     F .text	0000000000000008 TEE_BigIntFMMContextSizeInU32
0000000000003818 g     F .text	00000000000000c4 tee_unmap
0000000000001fd4 g     F .text	0000000000000050 _TEE_MathAPI_Init
00000000000039d0 g     F .text	0000000000000240 __utee_tcb_init
0000000000005708 g     F .text	0000000000000088 mbedtls_mpi_add_mpi
0000000000000c60 g     F .text	0000000000000020 abort
00000000000073b0 g     F .text	00000000000001c0 mbedtls_mpi_random
0000000000008f58 g     F .text	0000000000000004 __stack_chk_fail
0000000000003694 g     F .text	0000000000000020 __utee_check_out_annotation
00000000000114c0 g     O .bss	0000000000008000 ta_heap
0000000000002ddc g     F .text	0000000000000158 TEE_BigIntInvMod
000000000000081c g     F .text	0000000000000154 __utee_call_elf_init_fn
00000000000001d0 g     F .text	0000000000000004 TA_CloseSessionEntryPoint
00000000000002f0 g     F .text	000000000000000c _utee_close_ta_session
0000000000005790 g     F .text	000000000000008c mbedtls_mpi_sub_mpi
000000000000a2cc g     F .text	0000000000000070 consttime_memcmp
00000000000002a8 g     F .text	000000000000000c _utee_return
00000000000002c0 g     F .text	000000000000000c __utee_panic
0000000000003c10 g     F .text	000000000000001c __tls_get_addr
00000000000001d4 g     F .text	00000000000000ac TA_InvokeCommandEntryPoint
0000000000000970 g     F .text	0000000000000010 __utee_call_elf_fini_fn
0000000000008c00 g     F .text	0000000000000010 free_wipe
000000000000a204 g     F .text	0000000000000064 mempool_alloc
000000000000029c g     F .text	000000000000000c _utee_panic
0000000000008c18 g     F .text	0000000000000014 raw_malloc_init_ctx
000000000000a268 g     F .text	0000000000000050 mempool_calloc
0000000000000530 g     F .text	000000000000000c _utee_cryp_obj_generate_key
0000000000000518 g     F .text	000000000000000c _utee_storage_obj_trunc
0000000000000320 g     F .text	000000000000000c _utee_unmask_cancellation
0000000000008ba0 g     F .text	000000000000001c calloc
00000000000016a0 g     F .text	0000000000000068 TEE_Malloc
0000000000001070 g     F .text	0000000000000014 TEE_CheckMemoryAccessRights
00000000000002cc g     F .text	000000000000000c _utee_get_property
0000000000004ba8 g     F .text	0000000000000068 mbedtls_mpi_lset
00000000000001c8 g     F .text	0000000000000008 TA_OpenSessionEntryPoint
0000000000003c2c g     F .text	00000000000000f0 dl_iterate_phdr
00000000000194c0 g       .bss	0000000000000000 __ftrace_buf_end
000000000000e490 g     O .bss	0000000000000004 ta_param_types
00000000000062b4 g     F .text	0000000000000080 mbedtls_mpi_div_int
00000000000079d0 g     F .text	00000000000000e4 mbedtls_mpi_is_prime_ext
00000000000032b4 g     F .text	0000000000000090 TEE_BigIntIsProbablePrime
0000000000005ad0 g     F .text	00000000000000a8 mbedtls_mpi_mul_int
00000000000067e0 g     F .text	00000000000006dc mbedtls_mpi_exp_mod
0000000000004a04 g     F .text	00000000000000a4 mbedtls_mpi_safe_cond_assign
0000000000005348 g     F .text	00000000000000c4 mbedtls_mpi_lt_mpi_ct
0000000000002024 g     F .text	0000000000000064 TEE_BigIntInit
0000000000003648 g     F .text	000000000000004c __utee_check_outstring_annotation
0000000000001540 g     F .text	0000000000000008 TEE_MemMove
0000000000008240 g     F .text	0000000000000020 mbedtls_platform_zeroize
0000000000002088 g     F .text	00000000000000d0 TEE_BigIntConvertFromOctetString
0000000000000470 g     F .text	000000000000000c _utee_authenc_dec_final
00000000000051dc g     F .text	000000000000009c mbedtls_mpi_cmp_abs
0000000000000500 g     F .text	000000000000000c _utee_storage_obj_read
000000000000a33c g     F .text	000000000000002c memchr
0000000000000fa0 g     F .text	0000000000000068 TEE_UnmaskCancellation
0000000000007e18 g     F .text	0000000000000428 mbedtls_mpi_self_test
0000000000000524 g     F .text	000000000000000c _utee_storage_obj_seek
0000000000000314 g     F .text	000000000000000c _utee_check_access_rights
000000000000540c g     F .text	0000000000000080 mbedtls_mpi_cmp_int
00000000000004dc g     F .text	000000000000000c _utee_storage_reset_enum
00000000000036b4 g     F .text	0000000000000024 __utee_check_attr_in_annotation
0000000000000458 g     F .text	000000000000000c _utee_authenc_update_payload
0000000000002d40 g     F .text	000000000000006c TEE_BigIntMod
00000000000063e8 g     F .text	00000000000000a0 mbedtls_mpi_mod_int
0000000000004d94 g     F .text	0000000000000078 mbedtls_mpi_read_binary_le
0000000000002b84 g     F .text	00000000000001bc TEE_BigIntDiv
00000000000003ec g     F .text	000000000000000c _utee_cryp_obj_alloc
00000000000194c0 g       .bss	0000000000000000 __ftrace_buf_start
00000000000048a4 g     F .text	00000000000000cc mbedtls_mpi_copy
0000000000009db0 g     F .text	000000000000004c __vsprintf
0000000000000350 g     F .text	000000000000000c _utee_set_ta_time
00000000000002fc g     F .text	000000000000000c _utee_invoke_ta_command
0000000000008bbc g     F .text	0000000000000018 realloc
0000000000004970 g     F .text	0000000000000094 mbedtls_mpi_swap
000000000000a13c g     F .text	00000000000000c8 mempool_alloc_pool
0000000000002a60 g     F .text	000000000000011c TEE_BigIntMul
0000000000008c10 g     F .text	0000000000000008 raw_malloc_get_ctx_size
000000000000500c g     F .text	0000000000000110 mbedtls_mpi_shift_l
0000000000005278 g     F .text	00000000000000d0 mbedtls_mpi_cmp_mpi
0000000000001550 g     F .text	0000000000000008 TEE_MemFill
0000000000008c30 g     F .text	0000000000000014 malloc_add_pool
0000000000009e18 g     F .text	0000000000000010 trace_get_level
000000000000548c g     F .text	0000000000000120 mbedtls_mpi_add_abs
000000000000334c g     F .text	0000000000000010 TEE_BigIntFMMSizeInU32
0000000000008a7c g     F .text	0000000000000040 raw_realloc
0000000000003344 g     F .text	0000000000000004 TEE_BigIntInitFMM
00000000000003a4 g     F .text	000000000000000c _utee_cipher_init
0000000000000a14 g     F .text	000000000000024c __utee_entry
000000000000a368 g       .text	0000000000000000 __text_end
0000000000002f34 g     F .text	0000000000000110 TEE_BigIntRelativePrime
0000000000006334 g     F .text	00000000000000b4 mbedtls_mpi_mod_mpi
00000000000003c8 g     F .text	000000000000000c _utee_cryp_obj_get_info
00000000000088e4 g     F .text	00000000000000d4 bpool
000000000000035c g     F .text	000000000000000c _utee_cryp_state_alloc
0000000000000f38 g     F .text	0000000000000068 TEE_GetCancellationFlag
0000000000006ebc g     F .text	00000000000001e0 mbedtls_mpi_gcd
0000000000001634 g     F .text	0000000000000044 TEE_SetTAPersistentTime
0000000000004e90 g     F .text	00000000000000b8 mbedtls_mpi_write_binary_le
0000000000008fb8 g     F .text	000000000000001c memset
00000000000089b8 g     F .text	0000000000000054 raw_memalign
00000000000015bc g     F .text	0000000000000078 TEE_GetTAPersistentTime
000000000000a138 g     F .text	0000000000000004 dhex_dump
0000000000001008 g     F .text	0000000000000068 TEE_MaskCancellation
00000000000003e0 g     F .text	000000000000000c _utee_cryp_obj_get_attr
0000000000009dfc g     F .text	000000000000001c trace_set_level
00000000000003bc g     F .text	000000000000000c _utee_cipher_final
0000000000000374 g     F .text	000000000000000c _utee_cryp_state_free
00000000000002e4 g     F .text	000000000000000c _utee_open_ta_session
00000000000022e4 g     F .text	00000000000000c4 TEE_BigIntConvertToS32
0000000000002968 g     F .text	000000000000000c TEE_BigIntSub
0000000000000294 g     F .text	0000000000000008 tahead_get_trace_level
00000000000004e8 g     F .text	000000000000000c _utee_storage_start_enum
000000000000377c g     F .text	000000000000009c tee_map_zi
00000000000067dc g     F .text	0000000000000004 mbedtls_mpi_montred
0000000000008bd4 g     F .text	000000000000001c memalign
0000000000002228 g     F .text	00000000000000bc TEE_BigIntConvertFromS32
000000000000581c g     F .text	0000000000000080 mbedtls_mpi_add_int
0000000000000464 g     F .text	000000000000000c _utee_authenc_enc_final
0000000000008c44 g     F .text	000000000000017c malloc_buffer_is_within_alloced
00000000000003f8 g     F .text	000000000000000c _utee_cryp_obj_close
0000000000003348 g     F .text	0000000000000004 TEE_BigIntInitFMMContext
000000000000032c g     F .text	000000000000000c _utee_mask_cancellation
00000000000004b8 g     F .text	000000000000000c _utee_storage_obj_rename
0000000000002b7c g     F .text	0000000000000008 TEE_BigIntSquare
000000000000050c g     F .text	000000000000000c _utee_storage_obj_write
00000000000001bc g     F .text	0000000000000008 TA_CreateEntryPoint
0000000000000280 g     F .text	0000000000000014 __ta_entry
000000000000044c g     F .text	000000000000000c _utee_authenc_update_aad
0000000000009114 g     F .text	00000000000000d8 snprintk
00000000000067d0 g     F .text	0000000000000008 mbedtls_mpi_montg_init
00000000000028dc g     F .text	0000000000000080 TEE_BigIntGetBitCount
000000000000041c g     F .text	000000000000000c _utee_cryp_obj_copy
0000000000002dc4 g     F .text	000000000000000c TEE_BigIntMulMod
0000000000007570 g     F .text	0000000000000460 mbedtls_mpi_inv_mod
000000000000e450 g     O .bss	0000000000000040 ta_params
0000000000005d8c g     F .text	0000000000000528 mbedtls_mpi_div_mpi
0000000000004d78 g     F .text	000000000000001c mbedtls_mpi_size
0000000000008260 g     F .text	00000000000002a8 bget
0000000000000338 g     F .text	000000000000000c _utee_wait
0000000000004c3c g     F .text	000000000000008c mbedtls_mpi_set_bit
0000000000001708 g     F .text	0000000000000010 TEE_Free
0000000000007ab4 g     F .text	0000000000000010 mbedtls_mpi_is_prime
0000000000001758 g     F .text	0000000000000008 TEE_CacheInvalidate
0000000000003d60 g     F .text	0000000000000014 _assert_break
0000000000002dac g     F .text	000000000000000c TEE_BigIntAddMod
0000000000000344 g     F .text	000000000000000c _utee_get_time
0000000000000410 g     F .text	000000000000000c _utee_cryp_obj_populate
0000000000001548 g     F .text	0000000000000008 TEE_MemCompare
00000000000003b0 g     F .text	000000000000000c _utee_cipher_update
0000000000008ff0 g     F .text	00000000000000cc __vsnprintf
000000000000e440 g     O .bss	0000000000000010 __elf_phdr_info
0000000000001290 g     F .text	0000000000000134 TEE_OpenTASession
0000000000000c80 g     F .text	0000000000000028 trace_ext_puts
0000000000000ca8 g     F .text	0000000000000008 trace_ext_get_thread_id
0000000000000428 g     F .text	000000000000000c _utee_cryp_derive_key
00000000000045cc g     F .text	000000000000006c mbedtls_mpi_free
0000000000000404 g     F .text	000000000000000c _utee_cryp_obj_reset
0000000000001748 g     F .text	0000000000000008 TEE_CacheClean
00000000000002d8 g     F .text	000000000000000c _utee_get_property_name_to_index
0000000000008a2c g     F .text	0000000000000050 raw_calloc
0000000000004aa8 g     F .text	0000000000000100 mbedtls_mpi_safe_cond_swap
0000000000000440 g     F .text	000000000000000c _utee_authenc_init
0000000000008fd4 g     F .text	000000000000001c strlen
0000000000003044 g     F .text	0000000000000270 TEE_BigIntComputeExtendedGcd
00000000000004c4 g     F .text	000000000000000c _utee_storage_alloc_enum
0000000000001558 g     F .text	0000000000000028 TEE_GetSystemTime
0000000000000488 g     F .text	000000000000000c _utee_asymm_verify
0000000000000000 g     O .ta_head	0000000000000020 ta_head
0000000000008594 g     F .text	000000000000027c brel
00000000000055ac g     F .text	000000000000015c mbedtls_mpi_sub_abs
000000000000709c g     F .text	0000000000000068 mbedtls_mpi_fill_random
0000000000001528 g     F .text	000000000000000c TEE_SetInstanceData
0000000000000308 g     F .text	000000000000000c _utee_get_cancellation_flag
0000000000006488 g     F .text	000000000000027c mbedtls_mpi_write_string
0000000000000f10 g     F .text	0000000000000028 TEE_CloseTASession
00000000000004a0 g     F .text	000000000000000c _utee_storage_obj_create
0000000000008bf0 g     F .text	0000000000000010 free
00000000000114b8 g     O .bss	0000000000000008 mbedtls_mpi_mempool
0000000000000398 g     F .text	000000000000000c _utee_hash_final



Disassembly of section .text:

0000000000000020 <memcpy>:
memcpy():
/home/fangjiang/workspace/optee-os/lib/libutils/isoc/newlib/memcpy.c:106
      20:	f1007c5f 	cmp	x2, #0x1f
      24:	54000629 	b.ls	e8 <memcpy+0xc8>  // b.plast
/home/fangjiang/workspace/optee-os/lib/libutils/isoc/newlib/memcpy.c:106 (discriminator 1)
      28:	aa010005 	orr	x5, x0, x1
      2c:	f24008a5 	ands	x5, x5, #0x7
      30:	54000641 	b.ne	f8 <memcpy+0xd8>  // b.any
      34:	d1008048 	sub	x8, x2, #0x20
/home/fangjiang/workspace/optee-os/lib/libutils/isoc/newlib/memcpy.c:108
      38:	aa0103e3 	mov	x3, x1
      3c:	927be908 	and	x8, x8, #0xffffffffffffffe0
/home/fangjiang/workspace/optee-os/lib/libutils/isoc/newlib/memcpy.c:107
      40:	aa0003e4 	mov	x4, x0
      44:	91008108 	add	x8, x8, #0x20
      48:	8b080007 	add	x7, x0, x8
      4c:	d503201f 	nop
/home/fangjiang/workspace/optee-os/lib/libutils/isoc/newlib/memcpy.c:112
      50:	f9400066 	ldr	x6, [x3]
      54:	f9000086 	str	x6, [x4]
/home/fangjiang/workspace/optee-os/lib/libutils/isoc/newlib/memcpy.c:113
      58:	91008063 	add	x3, x3, #0x20
      5c:	91008084 	add	x4, x4, #0x20
      60:	f85e8066 	ldur	x6, [x3, #-24]
      64:	f81e8086 	stur	x6, [x4, #-24]
/home/fangjiang/workspace/optee-os/lib/libutils/isoc/newlib/memcpy.c:114
      68:	f85f0066 	ldur	x6, [x3, #-16]
      6c:	f81f0086 	stur	x6, [x4, #-16]
/home/fangjiang/workspace/optee-os/lib/libutils/isoc/newlib/memcpy.c:115
      70:	f85f8066 	ldur	x6, [x3, #-8]
      74:	f81f8086 	stur	x6, [x4, #-8]
/home/fangjiang/workspace/optee-os/lib/libutils/isoc/newlib/memcpy.c:111
      78:	eb0400ff 	cmp	x7, x4
      7c:	54fffea1 	b.ne	50 <memcpy+0x30>  // b.any
/home/fangjiang/workspace/optee-os/lib/libutils/isoc/newlib/memcpy.c:115
      80:	8b080021 	add	x1, x1, x8
/home/fangjiang/workspace/optee-os/lib/libutils/isoc/newlib/memcpy.c:116
      84:	92401043 	and	x3, x2, #0x1f
/home/fangjiang/workspace/optee-os/lib/libutils/isoc/newlib/memcpy.c:120
      88:	f27d045f 	tst	x2, #0x18
      8c:	540003c0 	b.eq	104 <memcpy+0xe4>  // b.none
/home/fangjiang/workspace/optee-os/lib/libutils/isoc/newlib/memcpy.c:121
      90:	f8656826 	ldr	x6, [x1, x5]
      94:	f8256886 	str	x6, [x4, x5]
/home/fangjiang/workspace/optee-os/lib/libutils/isoc/newlib/memcpy.c:120
      98:	910020a5 	add	x5, x5, #0x8
      9c:	cb050066 	sub	x6, x3, x5
      a0:	f1001cdf 	cmp	x6, #0x7
      a4:	54ffff68 	b.hi	90 <memcpy+0x70>  // b.pmore
      a8:	d1002063 	sub	x3, x3, #0x8
/home/fangjiang/workspace/optee-os/lib/libutils/isoc/newlib/memcpy.c:122
      ac:	92400842 	and	x2, x2, #0x7
      b0:	927df063 	and	x3, x3, #0xfffffffffffffff8
/home/fangjiang/workspace/optee-os/lib/libutils/isoc/newlib/memcpy.c:130
      b4:	d1000446 	sub	x6, x2, #0x1
      b8:	91002063 	add	x3, x3, #0x8
/home/fangjiang/workspace/optee-os/lib/libutils/isoc/newlib/memcpy.c:121
      bc:	8b030084 	add	x4, x4, x3
      c0:	8b030021 	add	x1, x1, x3
/home/fangjiang/workspace/optee-os/lib/libutils/isoc/newlib/memcpy.c:130
      c4:	b4000102 	cbz	x2, e4 <memcpy+0xc4>
/home/fangjiang/workspace/optee-os/lib/libutils/isoc/newlib/memcpy.c:99
      c8:	d2800002 	mov	x2, #0x0                   	// #0
      cc:	d503201f 	nop
/home/fangjiang/workspace/optee-os/lib/libutils/isoc/newlib/memcpy.c:131
      d0:	38626825 	ldrb	w5, [x1, x2]
/home/fangjiang/workspace/optee-os/lib/libutils/isoc/newlib/memcpy.c:130
      d4:	eb0200df 	cmp	x6, x2
/home/fangjiang/workspace/optee-os/lib/libutils/isoc/newlib/memcpy.c:131
      d8:	38226885 	strb	w5, [x4, x2]
/home/fangjiang/workspace/optee-os/lib/libutils/isoc/newlib/memcpy.c:130
      dc:	91000442 	add	x2, x2, #0x1
      e0:	54ffff81 	b.ne	d0 <memcpy+0xb0>  // b.any
/home/fangjiang/workspace/optee-os/lib/libutils/isoc/newlib/memcpy.c:135
      e4:	d65f03c0 	ret
/home/fangjiang/workspace/optee-os/lib/libutils/isoc/newlib/memcpy.c:99
      e8:	aa0003e4 	mov	x4, x0
/home/fangjiang/workspace/optee-os/lib/libutils/isoc/newlib/memcpy.c:130
      ec:	d1000446 	sub	x6, x2, #0x1
      f0:	b5fffec2 	cbnz	x2, c8 <memcpy+0xa8>
/home/fangjiang/workspace/optee-os/lib/libutils/isoc/newlib/memcpy.c:135
      f4:	d65f03c0 	ret
/home/fangjiang/workspace/optee-os/lib/libutils/isoc/newlib/memcpy.c:130
      f8:	d1000446 	sub	x6, x2, #0x1
/home/fangjiang/workspace/optee-os/lib/libutils/isoc/newlib/memcpy.c:99
      fc:	aa0003e4 	mov	x4, x0
     100:	17fffff2 	b	c8 <memcpy+0xa8>
/home/fangjiang/workspace/optee-os/lib/libutils/isoc/newlib/memcpy.c:120
     104:	aa0303e2 	mov	x2, x3
     108:	17fffff9 	b	ec <memcpy+0xcc>

000000000000010c <secure_trigger_store>:
secure_trigger_store():
/home/fangjiang/workspace/re-prefetcher/store-stride-prefetcher/optee_store_stride_ta/store_stride_ta.c:30
     10c:	12001c01 	and	w1, w0, #0xff
     110:	39000001 	strb	w1, [x0]
/home/fangjiang/workspace/re-prefetcher/store-stride-prefetcher/optee_store_stride_ta/store_stride_ta.c:31
     114:	d65f03c0 	ret

0000000000000118 <secure_trigger_load>:
secure_trigger_load():
/home/fangjiang/workspace/re-prefetcher/store-stride-prefetcher/optee_store_stride_ta/store_stride_ta.c:36
     118:	39400000 	ldrb	w0, [x0]
/home/fangjiang/workspace/re-prefetcher/store-stride-prefetcher/optee_store_stride_ta/store_stride_ta.c:37
     11c:	d65f03c0 	ret

0000000000000120 <load_sequence>:
load_sequence():
/home/fangjiang/workspace/re-prefetcher/store-stride-prefetcher/optee_store_stride_ta/store_stride_ta.c:71
     120:	a9be7bfd 	stp	x29, x30, [sp, #-32]!
     124:	910003fd 	mov	x29, sp
/home/fangjiang/workspace/re-prefetcher/store-stride-prefetcher/optee_store_stride_ta/store_stride_ta.c:81
     128:	39007fff 	strb	wzr, [sp, #31]
/home/fangjiang/workspace/re-prefetcher/store-stride-prefetcher/optee_store_stride_ta/store_stride_ta.c:83
     12c:	71005c1f 	cmp	w0, #0x17
     130:	54000421 	b.ne	1b4 <load_sequence+0x94>  // b.any
/home/fangjiang/workspace/re-prefetcher/store-stride-prefetcher/optee_store_stride_ta/store_stride_ta.c:87
     134:	aa0103e0 	mov	x0, x1
     138:	aa0103e3 	mov	x3, x1
     13c:	12001c42 	and	w2, w2, #0xff
     140:	f8410401 	ldr	x1, [x0], #16
/home/fangjiang/workspace/re-prefetcher/store-stride-prefetcher/optee_store_stride_ta/store_stride_ta.c:89
     144:	b9401064 	ldr	w4, [x3, #16]
/home/fangjiang/workspace/re-prefetcher/store-stride-prefetcher/optee_store_stride_ta/store_stride_ta.c:93
     148:	f100003f 	cmp	x1, #0x0
/home/fangjiang/workspace/re-prefetcher/store-stride-prefetcher/optee_store_stride_ta/store_stride_ta.c:91
     14c:	b9400400 	ldr	w0, [x0, #4]
/home/fangjiang/workspace/re-prefetcher/store-stride-prefetcher/optee_store_stride_ta/store_stride_ta.c:89
     150:	2a0403e5 	mov	w5, w4
/home/fangjiang/workspace/re-prefetcher/store-stride-prefetcher/optee_store_stride_ta/store_stride_ta.c:93
     154:	fa4018a4 	ccmp	x5, #0x0, #0x4, ne  // ne = any
/home/fangjiang/workspace/re-prefetcher/store-stride-prefetcher/optee_store_stride_ta/store_stride_ta.c:91
     158:	0b000042 	add	w2, w2, w0
/home/fangjiang/workspace/re-prefetcher/store-stride-prefetcher/optee_store_stride_ta/store_stride_ta.c:93
     15c:	540002c0 	b.eq	1b4 <load_sequence+0x94>  // b.none
/home/fangjiang/workspace/re-prefetcher/store-stride-prefetcher/optee_store_stride_ta/store_stride_ta.c:93 (discriminator 1)
     160:	340002a2 	cbz	w2, 1b4 <load_sequence+0x94>
/home/fangjiang/workspace/re-prefetcher/store-stride-prefetcher/optee_store_stride_ta/store_stride_ta.c:94 (discriminator 2)
     164:	51000440 	sub	w0, w2, #0x1
/home/fangjiang/workspace/re-prefetcher/store-stride-prefetcher/optee_store_stride_ta/store_stride_ta.c:88 (discriminator 2)
     168:	b9400863 	ldr	w3, [x3, #8]
/home/fangjiang/workspace/re-prefetcher/store-stride-prefetcher/optee_store_stride_ta/store_stride_ta.c:94 (discriminator 2)
     16c:	9ba47c00 	umull	x0, w0, w4
/home/fangjiang/workspace/re-prefetcher/store-stride-prefetcher/optee_store_stride_ta/store_stride_ta.c:93 (discriminator 2)
     170:	eb03001f 	cmp	x0, x3
     174:	54000202 	b.cs	1b4 <load_sequence+0x94>  // b.hs, b.nlast
/home/fangjiang/workspace/re-prefetcher/store-stride-prefetcher/optee_store_stride_ta/store_stride_ta.c:98
     178:	52800004 	mov	w4, #0x0                   	// #0
/home/fangjiang/workspace/re-prefetcher/store-stride-prefetcher/optee_store_stride_ta/store_stride_ta.c:99 (discriminator 3)
     17c:	aa0103e0 	mov	x0, x1
     180:	97ffffe6 	bl	118 <secure_trigger_load>
     184:	39407fe3 	ldrb	w3, [sp, #31]
/home/fangjiang/workspace/re-prefetcher/store-stride-prefetcher/optee_store_stride_ta/store_stride_ta.c:98 (discriminator 3)
     188:	11000484 	add	w4, w4, #0x1
     18c:	8b050021 	add	x1, x1, x5
/home/fangjiang/workspace/re-prefetcher/store-stride-prefetcher/optee_store_stride_ta/store_stride_ta.c:99 (discriminator 3)
     190:	4a000063 	eor	w3, w3, w0
     194:	12001c63 	and	w3, w3, #0xff
     198:	39007fe3 	strb	w3, [sp, #31]
/home/fangjiang/workspace/re-prefetcher/store-stride-prefetcher/optee_store_stride_ta/store_stride_ta.c:98 (discriminator 3)
     19c:	6b04005f 	cmp	w2, w4
     1a0:	54fffee1 	b.ne	17c <load_sequence+0x5c>  // b.any
/home/fangjiang/workspace/re-prefetcher/store-stride-prefetcher/optee_store_stride_ta/store_stride_ta.c:102
     1a4:	39407fe0 	ldrb	w0, [sp, #31]
/home/fangjiang/workspace/re-prefetcher/store-stride-prefetcher/optee_store_stride_ta/store_stride_ta.c:103
     1a8:	52800000 	mov	w0, #0x0                   	// #0
/home/fangjiang/workspace/re-prefetcher/store-stride-prefetcher/optee_store_stride_ta/store_stride_ta.c:104
     1ac:	a8c27bfd 	ldp	x29, x30, [sp], #32
     1b0:	d65f03c0 	ret
/home/fangjiang/workspace/re-prefetcher/store-stride-prefetcher/optee_store_stride_ta/store_stride_ta.c:84
     1b4:	129fff20 	mov	w0, #0xffff0006            	// #-65530
     1b8:	17fffffd 	b	1ac <load_sequence+0x8c>

00000000000001bc <TA_CreateEntryPoint>:
TA_CreateEntryPoint():
/home/fangjiang/workspace/re-prefetcher/store-stride-prefetcher/optee_store_stride_ta/store_stride_ta.c:9
     1bc:	52800000 	mov	w0, #0x0                   	// #0
     1c0:	d65f03c0 	ret

00000000000001c4 <TA_DestroyEntryPoint>:
TA_DestroyEntryPoint():
/home/fangjiang/workspace/re-prefetcher/store-stride-prefetcher/optee_store_stride_ta/store_stride_ta.c:12
     1c4:	d65f03c0 	ret

00000000000001c8 <TA_OpenSessionEntryPoint>:
TA_OpenSessionEntryPoint():
/home/fangjiang/workspace/re-prefetcher/store-stride-prefetcher/optee_store_stride_ta/store_stride_ta.c:21
     1c8:	52800000 	mov	w0, #0x0                   	// #0
     1cc:	d65f03c0 	ret

00000000000001d0 <TA_CloseSessionEntryPoint>:
TA_CloseSessionEntryPoint():
/home/fangjiang/workspace/re-prefetcher/store-stride-prefetcher/optee_store_stride_ta/store_stride_ta.c:25
     1d0:	d65f03c0 	ret

00000000000001d4 <TA_InvokeCommandEntryPoint>:
TA_InvokeCommandEntryPoint():
/home/fangjiang/workspace/re-prefetcher/store-stride-prefetcher/optee_store_stride_ta/store_stride_ta.c:109
     1d4:	2a0103e4 	mov	w4, w1
/home/fangjiang/workspace/re-prefetcher/store-stride-prefetcher/optee_store_stride_ta/store_stride_ta.c:112
     1d8:	71000c3f 	cmp	w1, #0x3
     1dc:	54000128 	b.hi	200 <TA_InvokeCommandEntryPoint+0x2c>  // b.pmore
     1e0:	2a0203e0 	mov	w0, w2
     1e4:	aa0303e1 	mov	x1, x3
     1e8:	90000062 	adrp	x2, c000 <__text_end+0x1c98>
     1ec:	910a1042 	add	x2, x2, #0x284
     1f0:	38644842 	ldrb	w2, [x2, w4, uxtw]
     1f4:	10000063 	adr	x3, 200 <TA_InvokeCommandEntryPoint+0x2c>
     1f8:	8b228862 	add	x2, x3, w2, sxtb #2
     1fc:	d61f0040 	br	x2
     200:	129ffea4 	mov	w4, #0xffff000a            	// #-65526
/home/fangjiang/workspace/re-prefetcher/store-stride-prefetcher/optee_store_stride_ta/store_stride_ta.c:124
     204:	2a0403e0 	mov	w0, w4
     208:	d65f03c0 	ret
trigger_store():
/home/fangjiang/workspace/re-prefetcher/store-stride-prefetcher/optee_store_stride_ta/store_stride_ta.c:49
     20c:	71005c1f 	cmp	w0, #0x17
     210:	54000341 	b.ne	278 <TA_InvokeCommandEntryPoint+0xa4>  // b.any
/home/fangjiang/workspace/re-prefetcher/store-stride-prefetcher/optee_store_stride_ta/store_stride_ta.c:53
     214:	f9400023 	ldr	x3, [x1]
/home/fangjiang/workspace/re-prefetcher/store-stride-prefetcher/optee_store_stride_ta/store_stride_ta.c:56
     218:	29420820 	ldp	w0, w2, [x1, #16]
/home/fangjiang/workspace/re-prefetcher/store-stride-prefetcher/optee_store_stride_ta/store_stride_ta.c:58
     21c:	f100007f 	cmp	x3, #0x0
/home/fangjiang/workspace/re-prefetcher/store-stride-prefetcher/optee_store_stride_ta/store_stride_ta.c:54
     220:	b9400825 	ldr	w5, [x1, #8]
/home/fangjiang/workspace/re-prefetcher/store-stride-prefetcher/optee_store_stride_ta/store_stride_ta.c:58
     224:	fa4010a0 	ccmp	x5, x0, #0x0, ne  // ne = any
     228:	54000289 	b.ls	278 <TA_InvokeCommandEntryPoint+0xa4>  // b.plast
/home/fangjiang/workspace/re-prefetcher/store-stride-prefetcher/optee_store_stride_ta/store_stride_ta.c:59
     22c:	f100005f 	cmp	x2, #0x0
/home/fangjiang/workspace/re-prefetcher/store-stride-prefetcher/optee_store_stride_ta/store_stride_ta.c:58
     230:	fa4210a2 	ccmp	x5, x2, #0x2, ne  // ne = any
     234:	54000229 	b.ls	278 <TA_InvokeCommandEntryPoint+0xa4>  // b.plast
TA_InvokeCommandEntryPoint():
/home/fangjiang/workspace/re-prefetcher/store-stride-prefetcher/optee_store_stride_ta/store_stride_ta.c:109
     238:	a9bf7bfd 	stp	x29, x30, [sp, #-16]!
trigger_store():
/home/fangjiang/workspace/re-prefetcher/store-stride-prefetcher/optee_store_stride_ta/store_stride_ta.c:63
     23c:	8b000060 	add	x0, x3, x0
TA_InvokeCommandEntryPoint():
/home/fangjiang/workspace/re-prefetcher/store-stride-prefetcher/optee_store_stride_ta/store_stride_ta.c:109
     240:	910003fd 	mov	x29, sp
trigger_store():
/home/fangjiang/workspace/re-prefetcher/store-stride-prefetcher/optee_store_stride_ta/store_stride_ta.c:63
     244:	97ffffb2 	bl	10c <secure_trigger_store>
/home/fangjiang/workspace/re-prefetcher/store-stride-prefetcher/optee_store_stride_ta/store_stride_ta.c:64
     248:	b4000062 	cbz	x2, 254 <TA_InvokeCommandEntryPoint+0x80>
/home/fangjiang/workspace/re-prefetcher/store-stride-prefetcher/optee_store_stride_ta/store_stride_ta.c:65
     24c:	8b020060 	add	x0, x3, x2
     250:	97ffffaf 	bl	10c <secure_trigger_store>
TA_InvokeCommandEntryPoint():
/home/fangjiang/workspace/re-prefetcher/store-stride-prefetcher/optee_store_stride_ta/store_stride_ta.c:124
     254:	2a0403e0 	mov	w0, w4
     258:	a8c17bfd 	ldp	x29, x30, [sp], #16
     25c:	d65f03c0 	ret
/home/fangjiang/workspace/re-prefetcher/store-stride-prefetcher/optee_store_stride_ta/store_stride_ta.c:116
     260:	52800022 	mov	w2, #0x1                   	// #1
/home/fangjiang/workspace/re-prefetcher/store-stride-prefetcher/optee_store_stride_ta/store_stride_ta.c:118
     264:	17ffffaf 	b	120 <load_sequence>
     268:	52800002 	mov	w2, #0x0                   	// #0
     26c:	17fffffe 	b	264 <TA_InvokeCommandEntryPoint+0x90>
/home/fangjiang/workspace/re-prefetcher/store-stride-prefetcher/optee_store_stride_ta/store_stride_ta.c:120
     270:	52800004 	mov	w4, #0x0                   	// #0
     274:	17ffffe4 	b	204 <TA_InvokeCommandEntryPoint+0x30>
trigger_store():
/home/fangjiang/workspace/re-prefetcher/store-stride-prefetcher/optee_store_stride_ta/store_stride_ta.c:50
     278:	129fff24 	mov	w4, #0xffff0006            	// #-65530
     27c:	17ffffe2 	b	204 <TA_InvokeCommandEntryPoint+0x30>

0000000000000280 <__ta_entry>:
__ta_entry():
/home/fangjiang/workspace/optee-os/out/arm-plat-mediatek/export-ta_arm64/src/user_ta_header.c:48
     280:	a9bf7bfd 	stp	x29, x30, [sp, #-16]!
     284:	910003fd 	mov	x29, sp
/home/fangjiang/workspace/optee-os/out/arm-plat-mediatek/export-ta_arm64/src/user_ta_header.c:49
     288:	940001e3 	bl	a14 <__utee_entry>
/home/fangjiang/workspace/optee-os/out/arm-plat-mediatek/export-ta_arm64/src/user_ta_header.c:60
     28c:	2a0003e0 	mov	w0, w0
     290:	94000006 	bl	2a8 <_utee_return>

0000000000000294 <tahead_get_trace_level>:
tahead_get_trace_level():
/home/fangjiang/workspace/optee-os/out/arm-plat-mediatek/export-ta_arm64/src/user_ta_header.c:154
     294:	52800020 	mov	w0, #0x1                   	// #1
     298:	d65f03c0 	ret

000000000000029c <_utee_panic>:
_utee_panic():
/home/fangjiang/workspace/optee-os/lib/libutee/arch/arm/utee_syscalls_a64.S:41
     29c:	a9bf7bfd 	stp	x29, x30, [sp, #-16]!
/home/fangjiang/workspace/optee-os/lib/libutee/arch/arm/utee_syscalls_a64.S:42
     2a0:	910003e1 	mov	x1, sp
/home/fangjiang/workspace/optee-os/lib/libutee/arch/arm/utee_syscalls_a64.S:43
     2a4:	94000007 	bl	2c0 <__utee_panic>

00000000000002a8 <_utee_return>:
_utee_return():
/home/fangjiang/workspace/optee-os/lib/libutee/arch/arm/utee_syscalls_asm.S:8
     2a8:	d2800008 	mov	x8, #0x0                   	// #0
     2ac:	d4000001 	svc	#0x0
     2b0:	d65f03c0 	ret

00000000000002b4 <_utee_log>:
_utee_log():
/home/fangjiang/workspace/optee-os/lib/libutee/arch/arm/utee_syscalls_asm.S:10
     2b4:	d2800028 	mov	x8, #0x1                   	// #1
     2b8:	d4000001 	svc	#0x0
     2bc:	d65f03c0 	ret

00000000000002c0 <__utee_panic>:
__utee_panic():
/home/fangjiang/workspace/optee-os/lib/libutee/arch/arm/utee_syscalls_asm.S:12
     2c0:	d2800048 	mov	x8, #0x2                   	// #2
     2c4:	d4000001 	svc	#0x0
     2c8:	d65f03c0 	ret

00000000000002cc <_utee_get_property>:
_utee_get_property():
/home/fangjiang/workspace/optee-os/lib/libutee/arch/arm/utee_syscalls_asm.S:14
     2cc:	d2800068 	mov	x8, #0x3                   	// #3
     2d0:	d4000001 	svc	#0x0
     2d4:	d65f03c0 	ret

00000000000002d8 <_utee_get_property_name_to_index>:
_utee_get_property_name_to_index():
/home/fangjiang/workspace/optee-os/lib/libutee/arch/arm/utee_syscalls_asm.S:16
     2d8:	d2800088 	mov	x8, #0x4                   	// #4
     2dc:	d4000001 	svc	#0x0
     2e0:	d65f03c0 	ret

00000000000002e4 <_utee_open_ta_session>:
_utee_open_ta_session():
/home/fangjiang/workspace/optee-os/lib/libutee/arch/arm/utee_syscalls_asm.S:19
     2e4:	d28000a8 	mov	x8, #0x5                   	// #5
     2e8:	d4000001 	svc	#0x0
     2ec:	d65f03c0 	ret

00000000000002f0 <_utee_close_ta_session>:
_utee_close_ta_session():
/home/fangjiang/workspace/optee-os/lib/libutee/arch/arm/utee_syscalls_asm.S:21
     2f0:	d28000c8 	mov	x8, #0x6                   	// #6
     2f4:	d4000001 	svc	#0x0
     2f8:	d65f03c0 	ret

00000000000002fc <_utee_invoke_ta_command>:
_utee_invoke_ta_command():
/home/fangjiang/workspace/optee-os/lib/libutee/arch/arm/utee_syscalls_asm.S:23
     2fc:	d28000e8 	mov	x8, #0x7                   	// #7
     300:	d4000001 	svc	#0x0
     304:	d65f03c0 	ret

0000000000000308 <_utee_get_cancellation_flag>:
_utee_get_cancellation_flag():
/home/fangjiang/workspace/optee-os/lib/libutee/arch/arm/utee_syscalls_asm.S:25
     308:	d2800128 	mov	x8, #0x9                   	// #9
     30c:	d4000001 	svc	#0x0
     310:	d65f03c0 	ret

0000000000000314 <_utee_check_access_rights>:
_utee_check_access_rights():
/home/fangjiang/workspace/optee-os/lib/libutee/arch/arm/utee_syscalls_asm.S:28
     314:	d2800108 	mov	x8, #0x8                   	// #8
     318:	d4000001 	svc	#0x0
     31c:	d65f03c0 	ret

0000000000000320 <_utee_unmask_cancellation>:
_utee_unmask_cancellation():
/home/fangjiang/workspace/optee-os/lib/libutee/arch/arm/utee_syscalls_asm.S:30
     320:	d2800148 	mov	x8, #0xa                   	// #10
     324:	d4000001 	svc	#0x0
     328:	d65f03c0 	ret

000000000000032c <_utee_mask_cancellation>:
_utee_mask_cancellation():
/home/fangjiang/workspace/optee-os/lib/libutee/arch/arm/utee_syscalls_asm.S:32
     32c:	d2800168 	mov	x8, #0xb                   	// #11
     330:	d4000001 	svc	#0x0
     334:	d65f03c0 	ret

0000000000000338 <_utee_wait>:
_utee_wait():
/home/fangjiang/workspace/optee-os/lib/libutee/arch/arm/utee_syscalls_asm.S:34
     338:	d2800188 	mov	x8, #0xc                   	// #12
     33c:	d4000001 	svc	#0x0
     340:	d65f03c0 	ret

0000000000000344 <_utee_get_time>:
_utee_get_time():
/home/fangjiang/workspace/optee-os/lib/libutee/arch/arm/utee_syscalls_asm.S:36
     344:	d28001a8 	mov	x8, #0xd                   	// #13
     348:	d4000001 	svc	#0x0
     34c:	d65f03c0 	ret

0000000000000350 <_utee_set_ta_time>:
_utee_set_ta_time():
/home/fangjiang/workspace/optee-os/lib/libutee/arch/arm/utee_syscalls_asm.S:38
     350:	d28001c8 	mov	x8, #0xe                   	// #14
     354:	d4000001 	svc	#0x0
     358:	d65f03c0 	ret

000000000000035c <_utee_cryp_state_alloc>:
_utee_cryp_state_alloc():
/home/fangjiang/workspace/optee-os/lib/libutee/arch/arm/utee_syscalls_asm.S:40
     35c:	d28001e8 	mov	x8, #0xf                   	// #15
     360:	d4000001 	svc	#0x0
     364:	d65f03c0 	ret

0000000000000368 <_utee_cryp_state_copy>:
_utee_cryp_state_copy():
/home/fangjiang/workspace/optee-os/lib/libutee/arch/arm/utee_syscalls_asm.S:42
     368:	d2800208 	mov	x8, #0x10                  	// #16
     36c:	d4000001 	svc	#0x0
     370:	d65f03c0 	ret

0000000000000374 <_utee_cryp_state_free>:
_utee_cryp_state_free():
/home/fangjiang/workspace/optee-os/lib/libutee/arch/arm/utee_syscalls_asm.S:44
     374:	d2800228 	mov	x8, #0x11                  	// #17
     378:	d4000001 	svc	#0x0
     37c:	d65f03c0 	ret

0000000000000380 <_utee_hash_init>:
_utee_hash_init():
/home/fangjiang/workspace/optee-os/lib/libutee/arch/arm/utee_syscalls_asm.S:46
     380:	d2800248 	mov	x8, #0x12                  	// #18
     384:	d4000001 	svc	#0x0
     388:	d65f03c0 	ret

000000000000038c <_utee_hash_update>:
_utee_hash_update():
/home/fangjiang/workspace/optee-os/lib/libutee/arch/arm/utee_syscalls_asm.S:48
     38c:	d2800268 	mov	x8, #0x13                  	// #19
     390:	d4000001 	svc	#0x0
     394:	d65f03c0 	ret

0000000000000398 <_utee_hash_final>:
_utee_hash_final():
/home/fangjiang/workspace/optee-os/lib/libutee/arch/arm/utee_syscalls_asm.S:50
     398:	d2800288 	mov	x8, #0x14                  	// #20
     39c:	d4000001 	svc	#0x0
     3a0:	d65f03c0 	ret

00000000000003a4 <_utee_cipher_init>:
_utee_cipher_init():
/home/fangjiang/workspace/optee-os/lib/libutee/arch/arm/utee_syscalls_asm.S:52
     3a4:	d28002a8 	mov	x8, #0x15                  	// #21
     3a8:	d4000001 	svc	#0x0
     3ac:	d65f03c0 	ret

00000000000003b0 <_utee_cipher_update>:
_utee_cipher_update():
/home/fangjiang/workspace/optee-os/lib/libutee/arch/arm/utee_syscalls_asm.S:54
     3b0:	d28002c8 	mov	x8, #0x16                  	// #22
     3b4:	d4000001 	svc	#0x0
     3b8:	d65f03c0 	ret

00000000000003bc <_utee_cipher_final>:
_utee_cipher_final():
/home/fangjiang/workspace/optee-os/lib/libutee/arch/arm/utee_syscalls_asm.S:56
     3bc:	d28002e8 	mov	x8, #0x17                  	// #23
     3c0:	d4000001 	svc	#0x0
     3c4:	d65f03c0 	ret

00000000000003c8 <_utee_cryp_obj_get_info>:
_utee_cryp_obj_get_info():
/home/fangjiang/workspace/optee-os/lib/libutee/arch/arm/utee_syscalls_asm.S:58
     3c8:	d2800308 	mov	x8, #0x18                  	// #24
     3cc:	d4000001 	svc	#0x0
     3d0:	d65f03c0 	ret

00000000000003d4 <_utee_cryp_obj_restrict_usage>:
_utee_cryp_obj_restrict_usage():
/home/fangjiang/workspace/optee-os/lib/libutee/arch/arm/utee_syscalls_asm.S:60
     3d4:	d2800328 	mov	x8, #0x19                  	// #25
     3d8:	d4000001 	svc	#0x0
     3dc:	d65f03c0 	ret

00000000000003e0 <_utee_cryp_obj_get_attr>:
_utee_cryp_obj_get_attr():
/home/fangjiang/workspace/optee-os/lib/libutee/arch/arm/utee_syscalls_asm.S:63
     3e0:	d2800348 	mov	x8, #0x1a                  	// #26
     3e4:	d4000001 	svc	#0x0
     3e8:	d65f03c0 	ret

00000000000003ec <_utee_cryp_obj_alloc>:
_utee_cryp_obj_alloc():
/home/fangjiang/workspace/optee-os/lib/libutee/arch/arm/utee_syscalls_asm.S:65
     3ec:	d2800368 	mov	x8, #0x1b                  	// #27
     3f0:	d4000001 	svc	#0x0
     3f4:	d65f03c0 	ret

00000000000003f8 <_utee_cryp_obj_close>:
_utee_cryp_obj_close():
/home/fangjiang/workspace/optee-os/lib/libutee/arch/arm/utee_syscalls_asm.S:67
     3f8:	d2800388 	mov	x8, #0x1c                  	// #28
     3fc:	d4000001 	svc	#0x0
     400:	d65f03c0 	ret

0000000000000404 <_utee_cryp_obj_reset>:
_utee_cryp_obj_reset():
/home/fangjiang/workspace/optee-os/lib/libutee/arch/arm/utee_syscalls_asm.S:69
     404:	d28003a8 	mov	x8, #0x1d                  	// #29
     408:	d4000001 	svc	#0x0
     40c:	d65f03c0 	ret

0000000000000410 <_utee_cryp_obj_populate>:
_utee_cryp_obj_populate():
/home/fangjiang/workspace/optee-os/lib/libutee/arch/arm/utee_syscalls_asm.S:71
     410:	d28003c8 	mov	x8, #0x1e                  	// #30
     414:	d4000001 	svc	#0x0
     418:	d65f03c0 	ret

000000000000041c <_utee_cryp_obj_copy>:
_utee_cryp_obj_copy():
/home/fangjiang/workspace/optee-os/lib/libutee/arch/arm/utee_syscalls_asm.S:73
     41c:	d28003e8 	mov	x8, #0x1f                  	// #31
     420:	d4000001 	svc	#0x0
     424:	d65f03c0 	ret

0000000000000428 <_utee_cryp_derive_key>:
_utee_cryp_derive_key():
/home/fangjiang/workspace/optee-os/lib/libutee/arch/arm/utee_syscalls_asm.S:75
     428:	d2800408 	mov	x8, #0x20                  	// #32
     42c:	d4000001 	svc	#0x0
     430:	d65f03c0 	ret

0000000000000434 <_utee_cryp_random_number_generate>:
_utee_cryp_random_number_generate():
/home/fangjiang/workspace/optee-os/lib/libutee/arch/arm/utee_syscalls_asm.S:77
     434:	d2800428 	mov	x8, #0x21                  	// #33
     438:	d4000001 	svc	#0x0
     43c:	d65f03c0 	ret

0000000000000440 <_utee_authenc_init>:
_utee_authenc_init():
/home/fangjiang/workspace/optee-os/lib/libutee/arch/arm/utee_syscalls_asm.S:80
     440:	d2800448 	mov	x8, #0x22                  	// #34
     444:	d4000001 	svc	#0x0
     448:	d65f03c0 	ret

000000000000044c <_utee_authenc_update_aad>:
_utee_authenc_update_aad():
/home/fangjiang/workspace/optee-os/lib/libutee/arch/arm/utee_syscalls_asm.S:82
     44c:	d2800468 	mov	x8, #0x23                  	// #35
     450:	d4000001 	svc	#0x0
     454:	d65f03c0 	ret

0000000000000458 <_utee_authenc_update_payload>:
_utee_authenc_update_payload():
/home/fangjiang/workspace/optee-os/lib/libutee/arch/arm/utee_syscalls_asm.S:84
     458:	d2800488 	mov	x8, #0x24                  	// #36
     45c:	d4000001 	svc	#0x0
     460:	d65f03c0 	ret

0000000000000464 <_utee_authenc_enc_final>:
_utee_authenc_enc_final():
/home/fangjiang/workspace/optee-os/lib/libutee/arch/arm/utee_syscalls_asm.S:87
     464:	d28004a8 	mov	x8, #0x25                  	// #37
     468:	d4000001 	svc	#0x0
     46c:	d65f03c0 	ret

0000000000000470 <_utee_authenc_dec_final>:
_utee_authenc_dec_final():
/home/fangjiang/workspace/optee-os/lib/libutee/arch/arm/utee_syscalls_asm.S:89
     470:	d28004c8 	mov	x8, #0x26                  	// #38
     474:	d4000001 	svc	#0x0
     478:	d65f03c0 	ret

000000000000047c <_utee_asymm_operate>:
_utee_asymm_operate():
/home/fangjiang/workspace/optee-os/lib/libutee/arch/arm/utee_syscalls_asm.S:91
     47c:	d28004e8 	mov	x8, #0x27                  	// #39
     480:	d4000001 	svc	#0x0
     484:	d65f03c0 	ret

0000000000000488 <_utee_asymm_verify>:
_utee_asymm_verify():
/home/fangjiang/workspace/optee-os/lib/libutee/arch/arm/utee_syscalls_asm.S:93
     488:	d2800508 	mov	x8, #0x28                  	// #40
     48c:	d4000001 	svc	#0x0
     490:	d65f03c0 	ret

0000000000000494 <_utee_storage_obj_open>:
_utee_storage_obj_open():
/home/fangjiang/workspace/optee-os/lib/libutee/arch/arm/utee_syscalls_asm.S:95
     494:	d2800528 	mov	x8, #0x29                  	// #41
     498:	d4000001 	svc	#0x0
     49c:	d65f03c0 	ret

00000000000004a0 <_utee_storage_obj_create>:
_utee_storage_obj_create():
/home/fangjiang/workspace/optee-os/lib/libutee/arch/arm/utee_syscalls_asm.S:97
     4a0:	d2800548 	mov	x8, #0x2a                  	// #42
     4a4:	d4000001 	svc	#0x0
     4a8:	d65f03c0 	ret

00000000000004ac <_utee_storage_obj_del>:
_utee_storage_obj_del():
/home/fangjiang/workspace/optee-os/lib/libutee/arch/arm/utee_syscalls_asm.S:99
     4ac:	d2800568 	mov	x8, #0x2b                  	// #43
     4b0:	d4000001 	svc	#0x0
     4b4:	d65f03c0 	ret

00000000000004b8 <_utee_storage_obj_rename>:
_utee_storage_obj_rename():
/home/fangjiang/workspace/optee-os/lib/libutee/arch/arm/utee_syscalls_asm.S:101
     4b8:	d2800588 	mov	x8, #0x2c                  	// #44
     4bc:	d4000001 	svc	#0x0
     4c0:	d65f03c0 	ret

00000000000004c4 <_utee_storage_alloc_enum>:
_utee_storage_alloc_enum():
/home/fangjiang/workspace/optee-os/lib/libutee/arch/arm/utee_syscalls_asm.S:103
     4c4:	d28005a8 	mov	x8, #0x2d                  	// #45
     4c8:	d4000001 	svc	#0x0
     4cc:	d65f03c0 	ret

00000000000004d0 <_utee_storage_free_enum>:
_utee_storage_free_enum():
/home/fangjiang/workspace/optee-os/lib/libutee/arch/arm/utee_syscalls_asm.S:105
     4d0:	d28005c8 	mov	x8, #0x2e                  	// #46
     4d4:	d4000001 	svc	#0x0
     4d8:	d65f03c0 	ret

00000000000004dc <_utee_storage_reset_enum>:
_utee_storage_reset_enum():
/home/fangjiang/workspace/optee-os/lib/libutee/arch/arm/utee_syscalls_asm.S:107
     4dc:	d28005e8 	mov	x8, #0x2f                  	// #47
     4e0:	d4000001 	svc	#0x0
     4e4:	d65f03c0 	ret

00000000000004e8 <_utee_storage_start_enum>:
_utee_storage_start_enum():
/home/fangjiang/workspace/optee-os/lib/libutee/arch/arm/utee_syscalls_asm.S:109
     4e8:	d2800608 	mov	x8, #0x30                  	// #48
     4ec:	d4000001 	svc	#0x0
     4f0:	d65f03c0 	ret

00000000000004f4 <_utee_storage_next_enum>:
_utee_storage_next_enum():
/home/fangjiang/workspace/optee-os/lib/libutee/arch/arm/utee_syscalls_asm.S:111
     4f4:	d2800628 	mov	x8, #0x31                  	// #49
     4f8:	d4000001 	svc	#0x0
     4fc:	d65f03c0 	ret

0000000000000500 <_utee_storage_obj_read>:
_utee_storage_obj_read():
/home/fangjiang/workspace/optee-os/lib/libutee/arch/arm/utee_syscalls_asm.S:113
     500:	d2800648 	mov	x8, #0x32                  	// #50
     504:	d4000001 	svc	#0x0
     508:	d65f03c0 	ret

000000000000050c <_utee_storage_obj_write>:
_utee_storage_obj_write():
/home/fangjiang/workspace/optee-os/lib/libutee/arch/arm/utee_syscalls_asm.S:115
     50c:	d2800668 	mov	x8, #0x33                  	// #51
     510:	d4000001 	svc	#0x0
     514:	d65f03c0 	ret

0000000000000518 <_utee_storage_obj_trunc>:
_utee_storage_obj_trunc():
/home/fangjiang/workspace/optee-os/lib/libutee/arch/arm/utee_syscalls_asm.S:117
     518:	d2800688 	mov	x8, #0x34                  	// #52
     51c:	d4000001 	svc	#0x0
     520:	d65f03c0 	ret

0000000000000524 <_utee_storage_obj_seek>:
_utee_storage_obj_seek():
/home/fangjiang/workspace/optee-os/lib/libutee/arch/arm/utee_syscalls_asm.S:119
     524:	d28006a8 	mov	x8, #0x35                  	// #53
     528:	d4000001 	svc	#0x0
     52c:	d65f03c0 	ret

0000000000000530 <_utee_cryp_obj_generate_key>:
_utee_cryp_obj_generate_key():
/home/fangjiang/workspace/optee-os/lib/libutee/arch/arm/utee_syscalls_asm.S:121
     530:	d28006c8 	mov	x8, #0x36                  	// #54
     534:	d4000001 	svc	#0x0
     538:	d65f03c0 	ret

000000000000053c <_utee_cache_operation>:
_utee_cache_operation():
/home/fangjiang/workspace/optee-os/lib/libutee/arch/arm/utee_syscalls_asm.S:124
     53c:	d28008c8 	mov	x8, #0x46                  	// #70
     540:	d4000001 	svc	#0x0
     544:	d65f03c0 	ret

0000000000000548 <_get_fn_array>:
_get_fn_array():
/home/fangjiang/workspace/optee-os/lib/libutee/arch/arm/user_ta_entry.c:79
     548:	79403009 	ldrh	w9, [x0, #24]
/home/fangjiang/workspace/optee-os/lib/libutee/arch/arm/user_ta_entry.c:90
     54c:	93407c21 	sxtw	x1, w1
/home/fangjiang/workspace/optee-os/lib/libutee/arch/arm/user_ta_entry.c:93
     550:	93407c42 	sxtw	x2, w2
/home/fangjiang/workspace/optee-os/lib/libutee/arch/arm/user_ta_entry.c:79
     554:	d2800007 	mov	x7, #0x0                   	// #0
/home/fangjiang/workspace/optee-os/lib/libutee/arch/arm/user_ta_entry.c:80
     558:	d280070a 	mov	x10, #0x38                  	// #56
/home/fangjiang/workspace/optee-os/lib/libutee/arch/arm/user_ta_entry.c:79 (discriminator 1)
     55c:	eb07013f 	cmp	x9, x7
     560:	54000048 	b.hi	568 <_get_fn_array+0x20>  // b.pmore
/home/fangjiang/workspace/optee-os/lib/libutee/arch/arm/user_ta_entry.c:99
     564:	d65f03c0 	ret
/home/fangjiang/workspace/optee-os/lib/libutee/arch/arm/user_ta_entry.c:80
     568:	9b0a7ce5 	mul	x5, x7, x10
     56c:	f9400808 	ldr	x8, [x0, #16]
     570:	8b050106 	add	x6, x8, x5
/home/fangjiang/workspace/optee-os/lib/libutee/arch/arm/user_ta_entry.c:81
     574:	b8656905 	ldr	w5, [x8, x5]
     578:	710008bf 	cmp	w5, #0x2
     57c:	54000060 	b.eq	588 <_get_fn_array+0x40>  // b.none
/home/fangjiang/workspace/optee-os/lib/libutee/arch/arm/user_ta_entry.c:79
     580:	910004e7 	add	x7, x7, #0x1
     584:	17fffff6 	b	55c <_get_fn_array+0x14>
/home/fangjiang/workspace/optee-os/lib/libutee/arch/arm/user_ta_entry.c:84
     588:	f9400008 	ldr	x8, [x0]
     58c:	f94008c5 	ldr	x5, [x6, #16]
/home/fangjiang/workspace/optee-os/lib/libutee/arch/arm/user_ta_entry.c:83
     590:	f94014c6 	ldr	x6, [x6, #40]
/home/fangjiang/workspace/optee-os/lib/libutee/arch/arm/user_ta_entry.c:84
     594:	8b0800a5 	add	x5, x5, x8
/home/fangjiang/workspace/optee-os/lib/libutee/arch/arm/user_ta_entry.c:85
     598:	927cecc6 	and	x6, x6, #0xfffffffffffffff0
     59c:	8b0500c6 	add	x6, x6, x5
/home/fangjiang/workspace/optee-os/lib/libutee/arch/arm/user_ta_entry.c:85 (discriminator 1)
     5a0:	eb0600bf 	cmp	x5, x6
     5a4:	54fffee0 	b.eq	580 <_get_fn_array+0x38>  // b.none
/home/fangjiang/workspace/optee-os/lib/libutee/arch/arm/user_ta_entry.c:86
     5a8:	f9400068 	ldr	x8, [x3]
     5ac:	b4000068 	cbz	x8, 5b8 <_get_fn_array+0x70>
/home/fangjiang/workspace/optee-os/lib/libutee/arch/arm/user_ta_entry.c:86 (discriminator 1)
     5b0:	f9400088 	ldr	x8, [x4]
     5b4:	b5fffe68 	cbnz	x8, 580 <_get_fn_array+0x38>
/home/fangjiang/workspace/optee-os/lib/libutee/arch/arm/user_ta_entry.c:88
     5b8:	f94000a8 	ldr	x8, [x5]
     5bc:	b4fffe28 	cbz	x8, 580 <_get_fn_array+0x38>
/home/fangjiang/workspace/optee-os/lib/libutee/arch/arm/user_ta_entry.c:90
     5c0:	eb01011f 	cmp	x8, x1
     5c4:	540000e1 	b.ne	5e0 <_get_fn_array+0x98>  // b.any
/home/fangjiang/workspace/optee-os/lib/libutee/arch/arm/user_ta_entry.c:91
     5c8:	f940000b 	ldr	x11, [x0]
     5cc:	f94004a8 	ldr	x8, [x5, #8]
     5d0:	8b0b0108 	add	x8, x8, x11
     5d4:	f9000068 	str	x8, [x3]
/home/fangjiang/workspace/optee-os/lib/libutee/arch/arm/user_ta_entry.c:96 (discriminator 2)
     5d8:	910040a5 	add	x5, x5, #0x10
/home/fangjiang/workspace/optee-os/lib/libutee/arch/arm/user_ta_entry.c:85 (discriminator 2)
     5dc:	17fffff1 	b	5a0 <_get_fn_array+0x58>
/home/fangjiang/workspace/optee-os/lib/libutee/arch/arm/user_ta_entry.c:93
     5e0:	eb02011f 	cmp	x8, x2
     5e4:	54ffffa1 	b.ne	5d8 <_get_fn_array+0x90>  // b.any
/home/fangjiang/workspace/optee-os/lib/libutee/arch/arm/user_ta_entry.c:94
     5e8:	f94004a8 	ldr	x8, [x5, #8]
     5ec:	d343fd08 	lsr	x8, x8, #3
     5f0:	f9000088 	str	x8, [x4]
     5f4:	17fffff9 	b	5d8 <_get_fn_array+0x90>

00000000000005f8 <_fini_iterate_phdr_cb>:
_fini_iterate_phdr_cb():
/home/fangjiang/workspace/optee-os/lib/libutee/arch/arm/user_ta_entry.c:135
     5f8:	d10103ff 	sub	sp, sp, #0x40
     5fc:	d0000061 	adrp	x1, e000 <_DYNAMIC>
/home/fangjiang/workspace/optee-os/lib/libutee/arch/arm/user_ta_entry.c:140
     600:	910043e4 	add	x4, sp, #0x10
     604:	910023e3 	add	x3, sp, #0x8
/home/fangjiang/workspace/optee-os/lib/libutee/arch/arm/user_ta_entry.c:135
     608:	a9027bfd 	stp	x29, x30, [sp, #32]
     60c:	910083fd 	add	x29, sp, #0x20
     610:	f9409821 	ldr	x1, [x1, #304]
     614:	f9001bf3 	str	x19, [sp, #48]
/home/fangjiang/workspace/optee-os/lib/libutee/arch/arm/user_ta_entry.c:142
     618:	d2800033 	mov	x19, #0x1                   	// #1
/home/fangjiang/workspace/optee-os/lib/libutee/arch/arm/user_ta_entry.c:135
     61c:	f9400022 	ldr	x2, [x1]
     620:	f9000fe2 	str	x2, [sp, #24]
     624:	d2800002 	mov	x2, #0x0                   	// #0
/home/fangjiang/workspace/optee-os/lib/libutee/arch/arm/user_ta_entry.c:140
     628:	52800341 	mov	w1, #0x1a                  	// #26
     62c:	52800382 	mov	w2, #0x1c                  	// #28
/home/fangjiang/workspace/optee-os/lib/libutee/arch/arm/user_ta_entry.c:137
     630:	a900ffff 	stp	xzr, xzr, [sp, #8]
/home/fangjiang/workspace/optee-os/lib/libutee/arch/arm/user_ta_entry.c:140
     634:	97ffffc5 	bl	548 <_get_fn_array>
/home/fangjiang/workspace/optee-os/lib/libutee/arch/arm/user_ta_entry.c:142 (discriminator 1)
     638:	f9400be0 	ldr	x0, [sp, #16]
     63c:	eb13001f 	cmp	x0, x19
     640:	54000122 	b.cs	664 <_fini_iterate_phdr_cb+0x6c>  // b.hs, b.nlast
/home/fangjiang/workspace/optee-os/lib/libutee/arch/arm/user_ta_entry.c:146
     644:	d0000061 	adrp	x1, e000 <_DYNAMIC>
     648:	f9409821 	ldr	x1, [x1, #304]
     64c:	f9400fe0 	ldr	x0, [sp, #24]
     650:	f9400022 	ldr	x2, [x1]
     654:	eb020000 	subs	x0, x0, x2
     658:	d2800002 	mov	x2, #0x0                   	// #0
     65c:	54000100 	b.eq	67c <_fini_iterate_phdr_cb+0x84>  // b.none
     660:	9400223e 	bl	8f58 <__stack_chk_fail>
/home/fangjiang/workspace/optee-os/lib/libutee/arch/arm/user_ta_entry.c:143 (discriminator 3)
     664:	f94007e1 	ldr	x1, [sp, #8]
     668:	cb130000 	sub	x0, x0, x19
/home/fangjiang/workspace/optee-os/lib/libutee/arch/arm/user_ta_entry.c:142 (discriminator 3)
     66c:	91000673 	add	x19, x19, #0x1
/home/fangjiang/workspace/optee-os/lib/libutee/arch/arm/user_ta_entry.c:143 (discriminator 3)
     670:	f8607820 	ldr	x0, [x1, x0, lsl #3]
     674:	d63f0000 	blr	x0
/home/fangjiang/workspace/optee-os/lib/libutee/arch/arm/user_ta_entry.c:142 (discriminator 3)
     678:	17fffff0 	b	638 <_fini_iterate_phdr_cb+0x40>
/home/fangjiang/workspace/optee-os/lib/libutee/arch/arm/user_ta_entry.c:146
     67c:	52800000 	mov	w0, #0x0                   	// #0
     680:	a9427bfd 	ldp	x29, x30, [sp, #32]
     684:	f9401bf3 	ldr	x19, [sp, #48]
     688:	910103ff 	add	sp, sp, #0x40
     68c:	d65f03c0 	ret

0000000000000690 <ta_header_get_session>:
ta_header_get_session():
/home/fangjiang/workspace/optee-os/lib/libutee/arch/arm/user_ta_entry.c:183
     690:	2a0003e1 	mov	w1, w0
/home/fangjiang/workspace/optee-os/lib/libutee/arch/arm/user_ta_entry.c:186
     694:	d0000060 	adrp	x0, e000 <_DYNAMIC>
     698:	f941e400 	ldr	x0, [x0, #968]
/home/fangjiang/workspace/optee-os/lib/libutee/arch/arm/user_ta_entry.c:186 (discriminator 1)
     69c:	b5000040 	cbnz	x0, 6a4 <ta_header_get_session+0x14>
/home/fangjiang/workspace/optee-os/lib/libutee/arch/arm/user_ta_entry.c:191
     6a0:	d65f03c0 	ret
/home/fangjiang/workspace/optee-os/lib/libutee/arch/arm/user_ta_entry.c:187
     6a4:	b9400002 	ldr	w2, [x0]
     6a8:	6b01005f 	cmp	w2, w1
     6ac:	54ffffa0 	b.eq	6a0 <ta_header_get_session+0x10>  // b.none
/home/fangjiang/workspace/optee-os/lib/libutee/arch/arm/user_ta_entry.c:186 (discriminator 2)
     6b0:	f9400800 	ldr	x0, [x0, #16]
     6b4:	17fffffa 	b	69c <ta_header_get_session+0xc>

00000000000006b8 <to_utee_params>:
to_utee_params():
/home/fangjiang/workspace/optee-os/lib/libutee/arch/arm/user_ta_entry.c:245
     6b8:	2a0103e3 	mov	w3, w1
     6bc:	f8008403 	str	x3, [x0], #8
     6c0:	52800003 	mov	w3, #0x0                   	// #0
/home/fangjiang/workspace/optee-os/lib/libutee/arch/arm/user_ta_entry.c:247
     6c4:	1ac32425 	lsr	w5, w1, w3
     6c8:	12000ca4 	and	w4, w5, #0xf
     6cc:	721e04bf 	tst	w5, #0xc
     6d0:	54000181 	b.ne	700 <to_utee_params+0x48>  // b.any
     6d4:	340001c4 	cbz	w4, 70c <to_utee_params+0x54>
/home/fangjiang/workspace/optee-os/lib/libutee/arch/arm/user_ta_entry.c:251
     6d8:	b9400044 	ldr	w4, [x2]
     6dc:	f9000004 	str	x4, [x0]
/home/fangjiang/workspace/optee-os/lib/libutee/arch/arm/user_ta_entry.c:252
     6e0:	b9400444 	ldr	w4, [x2, #4]
/home/fangjiang/workspace/optee-os/lib/libutee/arch/arm/user_ta_entry.c:246 (discriminator 2)
     6e4:	11001063 	add	w3, w3, #0x4
/home/fangjiang/workspace/optee-os/lib/libutee/arch/arm/user_ta_entry.c:252 (discriminator 2)
     6e8:	f9000404 	str	x4, [x0, #8]
/home/fangjiang/workspace/optee-os/lib/libutee/arch/arm/user_ta_entry.c:246 (discriminator 2)
     6ec:	91004042 	add	x2, x2, #0x10
     6f0:	91004000 	add	x0, x0, #0x10
     6f4:	7100407f 	cmp	w3, #0x10
     6f8:	54fffe61 	b.ne	6c4 <to_utee_params+0xc>  // b.any
/home/fangjiang/workspace/optee-os/lib/libutee/arch/arm/user_ta_entry.c:266
     6fc:	d65f03c0 	ret
/home/fangjiang/workspace/optee-os/lib/libutee/arch/arm/user_ta_entry.c:247
     700:	51001484 	sub	w4, w4, #0x5
     704:	7100089f 	cmp	w4, #0x2
     708:	54000089 	b.ls	718 <to_utee_params+0x60>  // b.plast
/home/fangjiang/workspace/optee-os/lib/libutee/arch/arm/user_ta_entry.c:263
     70c:	d2800004 	mov	x4, #0x0                   	// #0
/home/fangjiang/workspace/optee-os/lib/libutee/arch/arm/user_ta_entry.c:261
     710:	f900001f 	str	xzr, [x0]
/home/fangjiang/workspace/optee-os/lib/libutee/arch/arm/user_ta_entry.c:263
     714:	17fffff4 	b	6e4 <to_utee_params+0x2c>
/home/fangjiang/workspace/optee-os/lib/libutee/arch/arm/user_ta_entry.c:257
     718:	f9400044 	ldr	x4, [x2]
     71c:	f9000004 	str	x4, [x0]
/home/fangjiang/workspace/optee-os/lib/libutee/arch/arm/user_ta_entry.c:258
     720:	b9400844 	ldr	w4, [x2, #8]
/home/fangjiang/workspace/optee-os/lib/libutee/arch/arm/user_ta_entry.c:259
     724:	17fffff0 	b	6e4 <to_utee_params+0x2c>

0000000000000728 <from_utee_params>:
from_utee_params():
/home/fangjiang/workspace/optee-os/lib/libutee/arch/arm/user_ta_entry.c:273
     728:	f8408445 	ldr	x5, [x2], #8
     72c:	52800003 	mov	w3, #0x0                   	// #0
     730:	2a0503e9 	mov	w9, w5
/home/fangjiang/workspace/optee-os/lib/libutee/arch/arm/user_ta_entry.c:279
     734:	1ac32528 	lsr	w8, w9, w3
     738:	12000d04 	and	w4, w8, #0xf
/home/fangjiang/workspace/optee-os/lib/libutee/arch/arm/user_ta_entry.c:277
     73c:	a9401847 	ldp	x7, x6, [x2]
/home/fangjiang/workspace/optee-os/lib/libutee/arch/arm/user_ta_entry.c:279
     740:	721e051f 	tst	w8, #0xc
     744:	54000081 	b.ne	754 <from_utee_params+0x2c>  // b.any
     748:	340000c4 	cbz	w4, 760 <from_utee_params+0x38>
/home/fangjiang/workspace/optee-os/lib/libutee/arch/arm/user_ta_entry.c:284
     74c:	29001807 	stp	w7, w6, [x0]
/home/fangjiang/workspace/optee-os/lib/libutee/arch/arm/user_ta_entry.c:285
     750:	14000004 	b	760 <from_utee_params+0x38>
/home/fangjiang/workspace/optee-os/lib/libutee/arch/arm/user_ta_entry.c:279
     754:	51001484 	sub	w4, w4, #0x5
     758:	7100089f 	cmp	w4, #0x2
     75c:	54000109 	b.ls	77c <from_utee_params+0x54>  // b.plast
/home/fangjiang/workspace/optee-os/lib/libutee/arch/arm/user_ta_entry.c:275 (discriminator 2)
     760:	11001063 	add	w3, w3, #0x4
     764:	91004042 	add	x2, x2, #0x10
     768:	91004000 	add	x0, x0, #0x10
     76c:	7100407f 	cmp	w3, #0x10
     770:	54fffe21 	b.ne	734 <from_utee_params+0xc>  // b.any
/home/fangjiang/workspace/optee-os/lib/libutee/arch/arm/user_ta_entry.c:298
     774:	b9000025 	str	w5, [x1]
/home/fangjiang/workspace/optee-os/lib/libutee/arch/arm/user_ta_entry.c:299
     778:	d65f03c0 	ret
/home/fangjiang/workspace/optee-os/lib/libutee/arch/arm/user_ta_entry.c:289
     77c:	f9000007 	str	x7, [x0]
/home/fangjiang/workspace/optee-os/lib/libutee/arch/arm/user_ta_entry.c:290
     780:	b9000806 	str	w6, [x0, #8]
/home/fangjiang/workspace/optee-os/lib/libutee/arch/arm/user_ta_entry.c:291
     784:	17fffff7 	b	760 <from_utee_params+0x38>

0000000000000788 <_init_iterate_phdr_cb>:
_init_iterate_phdr_cb():
/home/fangjiang/workspace/optee-os/lib/libutee/arch/arm/user_ta_entry.c:55
     788:	a9bd7bfd 	stp	x29, x30, [sp, #-48]!
     78c:	910003fd 	mov	x29, sp
     790:	a90153f3 	stp	x19, x20, [sp, #16]
     794:	aa0203f4 	mov	x20, x2
     798:	f90013f5 	str	x21, [sp, #32]
     79c:	aa0003f5 	mov	x21, x0
/home/fangjiang/workspace/optee-os/lib/libutee/arch/arm/user_ta_entry.c:59
     7a0:	d2800a00 	mov	x0, #0x50                  	// #80
     7a4:	940020f9 	bl	8b88 <malloc>
/home/fangjiang/workspace/optee-os/lib/libutee/arch/arm/user_ta_entry.c:60
     7a8:	b5000140 	cbnz	x0, 7d0 <_init_iterate_phdr_cb+0x48>
/home/fangjiang/workspace/optee-os/lib/libutee/arch/arm/user_ta_entry.c:61
     7ac:	90000064 	adrp	x4, c000 <__text_end+0x1c98>
     7b0:	90000060 	adrp	x0, c000 <__text_end+0x1c98>
     7b4:	911c7084 	add	x4, x4, #0x71c
     7b8:	911cd400 	add	x0, x0, #0x735
     7bc:	52800023 	mov	w3, #0x1                   	// #1
     7c0:	52800022 	mov	w2, #0x1                   	// #1
     7c4:	528007a1 	mov	w1, #0x3d                  	// #61
     7c8:	94002621 	bl	a04c <trace_printf>
/home/fangjiang/workspace/optee-os/lib/libutee/arch/arm/user_ta_entry.c:62
     7cc:	94000125 	bl	c60 <abort>
     7d0:	aa0003f3 	mov	x19, x0
/home/fangjiang/workspace/optee-os/lib/libutee/arch/arm/user_ta_entry.c:64
     7d4:	aa1503e1 	mov	x1, x21
     7d8:	d2800802 	mov	x2, #0x40                  	// #64
     7dc:	97fffe11 	bl	20 <memcpy>
/home/fangjiang/workspace/optee-os/lib/libutee/arch/arm/user_ta_entry.c:65
     7e0:	d0000060 	adrp	x0, e000 <_DYNAMIC>
     7e4:	910f2000 	add	x0, x0, #0x3c8
/home/fangjiang/workspace/optee-os/lib/libutee/arch/arm/user_ta_entry.c:68
     7e8:	f94013f5 	ldr	x21, [sp, #32]
/home/fangjiang/workspace/optee-os/lib/libutee/arch/arm/user_ta_entry.c:65
     7ec:	f9400c01 	ldr	x1, [x0, #24]
     7f0:	a904067f 	stp	xzr, x1, [x19, #64]
     7f4:	f9000033 	str	x19, [x1]
     7f8:	91010273 	add	x19, x19, #0x40
     7fc:	f9000c13 	str	x19, [x0, #24]
/home/fangjiang/workspace/optee-os/lib/libutee/arch/arm/user_ta_entry.c:66
     800:	f9400280 	ldr	x0, [x20]
     804:	91000400 	add	x0, x0, #0x1
     808:	f9000280 	str	x0, [x20]
/home/fangjiang/workspace/optee-os/lib/libutee/arch/arm/user_ta_entry.c:68
     80c:	52800000 	mov	w0, #0x0                   	// #0
     810:	a94153f3 	ldp	x19, x20, [sp, #16]
     814:	a8c37bfd 	ldp	x29, x30, [sp], #48
     818:	d65f03c0 	ret

000000000000081c <__utee_call_elf_init_fn>:
__utee_call_elf_init_fn():
/home/fangjiang/workspace/optee-os/lib/libutee/arch/arm/user_ta_entry.c:102
     81c:	d101c3ff 	sub	sp, sp, #0x70
     820:	d0000060 	adrp	x0, e000 <_DYNAMIC>
     824:	a9027bfd 	stp	x29, x30, [sp, #32]
     828:	910083fd 	add	x29, sp, #0x20
     82c:	f9409800 	ldr	x0, [x0, #304]
     830:	a90353f3 	stp	x19, x20, [sp, #48]
/home/fangjiang/workspace/optee-os/lib/libutee/arch/arm/user_ta_entry.c:114
     834:	d0000074 	adrp	x20, e000 <_DYNAMIC>
/home/fangjiang/workspace/optee-os/lib/libutee/arch/arm/user_ta_entry.c:102
     838:	a9045bf5 	stp	x21, x22, [sp, #64]
/home/fangjiang/workspace/optee-os/lib/libutee/arch/arm/user_ta_entry.c:106
     83c:	d2800013 	mov	x19, #0x0                   	// #0
/home/fangjiang/workspace/optee-os/lib/libutee/arch/arm/user_ta_entry.c:102
     840:	a90563f7 	stp	x23, x24, [sp, #80]
/home/fangjiang/workspace/optee-os/lib/libutee/arch/arm/user_ta_entry.c:117
     844:	910043f8 	add	x24, sp, #0x10
/home/fangjiang/workspace/optee-os/lib/libutee/arch/arm/user_ta_entry.c:115
     848:	d0000077 	adrp	x23, e000 <_DYNAMIC>
/home/fangjiang/workspace/optee-os/lib/libutee/arch/arm/user_ta_entry.c:102
     84c:	f90033f9 	str	x25, [sp, #96]
/home/fangjiang/workspace/optee-os/lib/libutee/arch/arm/user_ta_entry.c:117
     850:	910003f9 	mov	x25, sp
/home/fangjiang/workspace/optee-os/lib/libutee/arch/arm/user_ta_entry.c:102
     854:	f9400001 	ldr	x1, [x0]
     858:	f9000fe1 	str	x1, [sp, #24]
     85c:	d2800001 	mov	x1, #0x0                   	// #0
/home/fangjiang/workspace/optee-os/lib/libutee/arch/arm/user_ta_entry.c:111
     860:	90000000 	adrp	x0, 0 <ta_head>
     864:	910023e1 	add	x1, sp, #0x8
     868:	911e2000 	add	x0, x0, #0x788
/home/fangjiang/workspace/optee-os/lib/libutee/arch/arm/user_ta_entry.c:104
     86c:	a9007fff 	stp	xzr, xzr, [sp]
/home/fangjiang/workspace/optee-os/lib/libutee/arch/arm/user_ta_entry.c:105
     870:	f9000bff 	str	xzr, [sp, #16]
/home/fangjiang/workspace/optee-os/lib/libutee/arch/arm/user_ta_entry.c:111
     874:	94000cee 	bl	3c2c <dl_iterate_phdr>
/home/fangjiang/workspace/optee-os/lib/libutee/arch/arm/user_ta_entry.c:114
     878:	910f2280 	add	x0, x20, #0x3c8
     87c:	f9400c00 	ldr	x0, [x0, #24]
     880:	f9400400 	ldr	x0, [x0, #8]
     884:	f9400015 	ldr	x21, [x0]
/home/fangjiang/workspace/optee-os/lib/libutee/arch/arm/user_ta_entry.c:115 (discriminator 1)
     888:	f9421ae1 	ldr	x1, [x23, #1072]
/home/fangjiang/workspace/optee-os/lib/libutee/arch/arm/user_ta_entry.c:114 (discriminator 1)
     88c:	b5000155 	cbnz	x21, 8b4 <__utee_call_elf_init_fn+0x98>
/home/fangjiang/workspace/optee-os/lib/libutee/arch/arm/user_ta_entry.c:127
     890:	910f2294 	add	x20, x20, #0x3c8
/home/fangjiang/workspace/optee-os/lib/libutee/arch/arm/user_ta_entry.c:125
     894:	8b010273 	add	x19, x19, x1
     898:	f9021af3 	str	x19, [x23, #1072]
/home/fangjiang/workspace/optee-os/lib/libutee/arch/arm/user_ta_entry.c:127
     89c:	f9400a80 	ldr	x0, [x20, #16]
/home/fangjiang/workspace/optee-os/lib/libutee/arch/arm/user_ta_entry.c:127 (discriminator 2)
     8a0:	b40004a0 	cbz	x0, 934 <__utee_call_elf_init_fn+0x118>
/home/fangjiang/workspace/optee-os/lib/libutee/arch/arm/user_ta_entry.c:128 (discriminator 3)
     8a4:	a9440413 	ldp	x19, x1, [x0, #64]
     8a8:	b50003b3 	cbnz	x19, 91c <__utee_call_elf_init_fn+0x100>
/home/fangjiang/workspace/optee-os/lib/libutee/arch/arm/user_ta_entry.c:128 (discriminator 2)
     8ac:	f9000e81 	str	x1, [x20, #24]
     8b0:	1400001c 	b	920 <__utee_call_elf_init_fn+0x104>
/home/fangjiang/workspace/optee-os/lib/libutee/arch/arm/user_ta_entry.c:115
     8b4:	f94007e0 	ldr	x0, [sp, #8]
     8b8:	cb010000 	sub	x0, x0, x1
     8bc:	eb13001f 	cmp	x0, x19
     8c0:	54fffe80 	b.eq	890 <__utee_call_elf_init_fn+0x74>  // b.none
/home/fangjiang/workspace/optee-os/lib/libutee/arch/arm/user_ta_entry.c:119
     8c4:	d2800016 	mov	x22, #0x0                   	// #0
/home/fangjiang/workspace/optee-os/lib/libutee/arch/arm/user_ta_entry.c:117
     8c8:	aa1803e4 	mov	x4, x24
     8cc:	aa1903e3 	mov	x3, x25
     8d0:	aa1503e0 	mov	x0, x21
     8d4:	52800362 	mov	w2, #0x1b                  	// #27
     8d8:	52800321 	mov	w1, #0x19                  	// #25
     8dc:	97ffff1b 	bl	548 <_get_fn_array>
/home/fangjiang/workspace/optee-os/lib/libutee/arch/arm/user_ta_entry.c:119 (discriminator 1)
     8e0:	f9400be0 	ldr	x0, [sp, #16]
     8e4:	eb16001f 	cmp	x0, x22
     8e8:	54000108 	b.hi	908 <__utee_call_elf_init_fn+0xec>  // b.pmore
/home/fangjiang/workspace/optee-os/lib/libutee/arch/arm/user_ta_entry.c:114 (discriminator 2)
     8ec:	f94026a0 	ldr	x0, [x21, #72]
/home/fangjiang/workspace/optee-os/lib/libutee/arch/arm/user_ta_entry.c:123 (discriminator 2)
     8f0:	91000673 	add	x19, x19, #0x1
/home/fangjiang/workspace/optee-os/lib/libutee/arch/arm/user_ta_entry.c:121 (discriminator 2)
     8f4:	f90003ff 	str	xzr, [sp]
/home/fangjiang/workspace/optee-os/lib/libutee/arch/arm/user_ta_entry.c:122 (discriminator 2)
     8f8:	f9000bff 	str	xzr, [sp, #16]
/home/fangjiang/workspace/optee-os/lib/libutee/arch/arm/user_ta_entry.c:114 (discriminator 2)
     8fc:	f9400400 	ldr	x0, [x0, #8]
     900:	f9400015 	ldr	x21, [x0]
     904:	17ffffe1 	b	888 <__utee_call_elf_init_fn+0x6c>
/home/fangjiang/workspace/optee-os/lib/libutee/arch/arm/user_ta_entry.c:120 (discriminator 3)
     908:	f94003e0 	ldr	x0, [sp]
     90c:	f8767800 	ldr	x0, [x0, x22, lsl #3]
/home/fangjiang/workspace/optee-os/lib/libutee/arch/arm/user_ta_entry.c:119 (discriminator 3)
     910:	910006d6 	add	x22, x22, #0x1
/home/fangjiang/workspace/optee-os/lib/libutee/arch/arm/user_ta_entry.c:120 (discriminator 3)
     914:	d63f0000 	blr	x0
/home/fangjiang/workspace/optee-os/lib/libutee/arch/arm/user_ta_entry.c:119 (discriminator 3)
     918:	17fffff2 	b	8e0 <__utee_call_elf_init_fn+0xc4>
/home/fangjiang/workspace/optee-os/lib/libutee/arch/arm/user_ta_entry.c:128 (discriminator 1)
     91c:	f9002661 	str	x1, [x19, #72]
/home/fangjiang/workspace/optee-os/lib/libutee/arch/arm/user_ta_entry.c:128 (discriminator 4)
     920:	f9402401 	ldr	x1, [x0, #72]
     924:	f9000033 	str	x19, [x1]
/home/fangjiang/workspace/optee-os/lib/libutee/arch/arm/user_ta_entry.c:129 (discriminator 4)
     928:	940020b2 	bl	8bf0 <free>
/home/fangjiang/workspace/optee-os/lib/libutee/arch/arm/user_ta_entry.c:127 (discriminator 4)
     92c:	aa1303e0 	mov	x0, x19
     930:	17ffffdc 	b	8a0 <__utee_call_elf_init_fn+0x84>
/home/fangjiang/workspace/optee-os/lib/libutee/arch/arm/user_ta_entry.c:131
     934:	d0000060 	adrp	x0, e000 <_DYNAMIC>
     938:	f9409800 	ldr	x0, [x0, #304]
     93c:	f9400fe2 	ldr	x2, [sp, #24]
     940:	f9400001 	ldr	x1, [x0]
     944:	eb010042 	subs	x2, x2, x1
     948:	d2800001 	mov	x1, #0x0                   	// #0
     94c:	54000040 	b.eq	954 <__utee_call_elf_init_fn+0x138>  // b.none
     950:	94002182 	bl	8f58 <__stack_chk_fail>
     954:	a9427bfd 	ldp	x29, x30, [sp, #32]
     958:	a94353f3 	ldp	x19, x20, [sp, #48]
     95c:	a9445bf5 	ldp	x21, x22, [sp, #64]
     960:	a94563f7 	ldp	x23, x24, [sp, #80]
     964:	f94033f9 	ldr	x25, [sp, #96]
     968:	9101c3ff 	add	sp, sp, #0x70
     96c:	d65f03c0 	ret

0000000000000970 <__utee_call_elf_fini_fn>:
__utee_call_elf_fini_fn():
/home/fangjiang/workspace/optee-os/lib/libutee/arch/arm/user_ta_entry.c:150
     970:	d2800001 	mov	x1, #0x0                   	// #0
     974:	90000000 	adrp	x0, 0 <ta_head>
     978:	9117e000 	add	x0, x0, #0x5f8
     97c:	14000cac 	b	3c2c <dl_iterate_phdr>

0000000000000980 <ta_header_remove_session>:
ta_header_remove_session():
/home/fangjiang/workspace/optee-os/lib/libutee/arch/arm/user_ta_entry.c:220
     980:	a9be7bfd 	stp	x29, x30, [sp, #-32]!
     984:	2a0003e2 	mov	w2, w0
     988:	910003fd 	mov	x29, sp
     98c:	f9000bf3 	str	x19, [sp, #16]
/home/fangjiang/workspace/optee-os/lib/libutee/arch/arm/user_ta_entry.c:224
     990:	d0000073 	adrp	x19, e000 <_DYNAMIC>
     994:	f941e660 	ldr	x0, [x19, #968]
/home/fangjiang/workspace/optee-os/lib/libutee/arch/arm/user_ta_entry.c:224 (discriminator 1)
     998:	b5000080 	cbnz	x0, 9a8 <ta_header_remove_session+0x28>
/home/fangjiang/workspace/optee-os/lib/libutee/arch/arm/user_ta_entry.c:238
     99c:	f9400bf3 	ldr	x19, [sp, #16]
     9a0:	a8c27bfd 	ldp	x29, x30, [sp], #32
     9a4:	d65f03c0 	ret
/home/fangjiang/workspace/optee-os/lib/libutee/arch/arm/user_ta_entry.c:225
     9a8:	b9400003 	ldr	w3, [x0]
/home/fangjiang/workspace/optee-os/lib/libutee/arch/arm/user_ta_entry.c:226
     9ac:	f9400801 	ldr	x1, [x0, #16]
/home/fangjiang/workspace/optee-os/lib/libutee/arch/arm/user_ta_entry.c:225
     9b0:	6b02007f 	cmp	w3, w2
     9b4:	540002c1 	b.ne	a0c <ta_header_remove_session+0x8c>  // b.any
/home/fangjiang/workspace/optee-os/lib/libutee/arch/arm/user_ta_entry.c:226
     9b8:	f9400c02 	ldr	x2, [x0, #24]
     9bc:	b4000221 	cbz	x1, a00 <ta_header_remove_session+0x80>
/home/fangjiang/workspace/optee-os/lib/libutee/arch/arm/user_ta_entry.c:226 (discriminator 1)
     9c0:	f9000c22 	str	x2, [x1, #24]
/home/fangjiang/workspace/optee-os/lib/libutee/arch/arm/user_ta_entry.c:226 (discriminator 4)
     9c4:	f9400c02 	ldr	x2, [x0, #24]
     9c8:	f9000041 	str	x1, [x2]
/home/fangjiang/workspace/optee-os/lib/libutee/arch/arm/user_ta_entry.c:227 (discriminator 4)
     9cc:	9400034f 	bl	1708 <TEE_Free>
/home/fangjiang/workspace/optee-os/lib/libutee/arch/arm/user_ta_entry.c:230 (discriminator 4)
     9d0:	d0000060 	adrp	x0, e000 <_DYNAMIC>
     9d4:	f940c800 	ldr	x0, [x0, #400]
     9d8:	f9400801 	ldr	x1, [x0, #16]
/home/fangjiang/workspace/optee-os/lib/libutee/arch/arm/user_ta_entry.c:232 (discriminator 4)
     9dc:	f941e660 	ldr	x0, [x19, #968]
     9e0:	b5fffde0 	cbnz	x0, 99c <ta_header_remove_session+0x1c>
/home/fangjiang/workspace/optee-os/lib/libutee/arch/arm/user_ta_entry.c:232 (discriminator 1)
     9e4:	d2c00280 	mov	x0, #0x1400000000          	// #85899345920
     9e8:	ea21001f 	bics	xzr, x0, x1
     9ec:	54fffd80 	b.eq	99c <ta_header_remove_session+0x1c>  // b.none
uninit_instance():
/home/fangjiang/workspace/optee-os/lib/libutee/arch/arm/user_ta_entry.c:167
     9f0:	97fffdf5 	bl	1c4 <TA_DestroyEntryPoint>
ta_header_remove_session():
/home/fangjiang/workspace/optee-os/lib/libutee/arch/arm/user_ta_entry.c:238
     9f4:	f9400bf3 	ldr	x19, [sp, #16]
     9f8:	a8c27bfd 	ldp	x29, x30, [sp], #32
uninit_instance():
/home/fangjiang/workspace/optee-os/lib/libutee/arch/arm/user_ta_entry.c:168
     9fc:	17ffffdd 	b	970 <__utee_call_elf_fini_fn>
ta_header_remove_session():
/home/fangjiang/workspace/optee-os/lib/libutee/arch/arm/user_ta_entry.c:226 (discriminator 2)
     a00:	910f2263 	add	x3, x19, #0x3c8
     a04:	f9000462 	str	x2, [x3, #8]
     a08:	17ffffef 	b	9c4 <ta_header_remove_session+0x44>
/home/fangjiang/workspace/optee-os/lib/libutee/arch/arm/user_ta_entry.c:226
     a0c:	aa0103e0 	mov	x0, x1
     a10:	17ffffe2 	b	998 <ta_header_remove_session+0x18>

0000000000000a14 <__utee_entry>:
__utee_entry():
/home/fangjiang/workspace/optee-os/lib/libutee/arch/arm/user_ta_entry.c:366
     a14:	d10243ff 	sub	sp, sp, #0x90
     a18:	d0000064 	adrp	x4, e000 <_DYNAMIC>
/home/fangjiang/workspace/optee-os/lib/libutee/arch/arm/user_ta_entry.c:369
     a1c:	f100041f 	cmp	x0, #0x1
/home/fangjiang/workspace/optee-os/lib/libutee/arch/arm/user_ta_entry.c:366
     a20:	a9057bfd 	stp	x29, x30, [sp, #80]
     a24:	910143fd 	add	x29, sp, #0x50
     a28:	a9075bf5 	stp	x21, x22, [sp, #112]
     a2c:	aa0103f5 	mov	x21, x1
     a30:	aa0203f6 	mov	x22, x2
     a34:	f9409881 	ldr	x1, [x4, #304]
     a38:	a90653f3 	stp	x19, x20, [sp, #96]
     a3c:	aa0403f4 	mov	x20, x4
     a40:	a90863f7 	stp	x23, x24, [sp, #128]
     a44:	f9400022 	ldr	x2, [x1]
     a48:	f90027e2 	str	x2, [sp, #72]
     a4c:	d2800002 	mov	x2, #0x0                   	// #0
/home/fangjiang/workspace/optee-os/lib/libutee/arch/arm/user_ta_entry.c:369
     a50:	54000a40 	b.eq	b98 <__utee_entry+0x184>  // b.none
     a54:	f100081f 	cmp	x0, #0x2
     a58:	54000b20 	b.eq	bbc <__utee_entry+0x1a8>  // b.none
     a5c:	b5000e80 	cbnz	x0, c2c <__utee_entry+0x218>
ta_header_add_session():
/home/fangjiang/workspace/optee-os/lib/libutee/arch/arm/user_ta_entry.c:195
     a60:	2a1503e0 	mov	w0, w21
     a64:	97ffff0b 	bl	690 <ta_header_get_session>
/home/fangjiang/workspace/optee-os/lib/libutee/arch/arm/user_ta_entry.c:198
     a68:	b50005e0 	cbnz	x0, b24 <__utee_entry+0x110>
/home/fangjiang/workspace/optee-os/lib/libutee/arch/arm/user_ta_entry.c:201
     a6c:	d0000060 	adrp	x0, e000 <_DYNAMIC>
     a70:	9110c000 	add	x0, x0, #0x430
     a74:	39402001 	ldrb	w1, [x0, #8]
     a78:	340000e1 	cbz	w1, a94 <__utee_entry+0x80>
/home/fangjiang/workspace/optee-os/lib/libutee/arch/arm/user_ta_entry.c:208
     a7c:	52b00001 	mov	w1, #0x80000000            	// #-2147483648
     a80:	52800400 	mov	w0, #0x20                  	// #32
     a84:	94000307 	bl	16a0 <TEE_Malloc>
/home/fangjiang/workspace/optee-os/lib/libutee/arch/arm/user_ta_entry.c:210
     a88:	b50003c0 	cbnz	x0, b00 <__utee_entry+0xec>
/home/fangjiang/workspace/optee-os/lib/libutee/arch/arm/user_ta_entry.c:211
     a8c:	129ffe73 	mov	w19, #0xffff000c            	// #-65524
     a90:	1400000f 	b	acc <__utee_entry+0xb8>
/home/fangjiang/workspace/optee-os/lib/libutee/arch/arm/user_ta_entry.c:202
     a94:	52800021 	mov	w1, #0x1                   	// #1
     a98:	39002001 	strb	w1, [x0, #8]
init_instance():
/home/fangjiang/workspace/optee-os/lib/libutee/arch/arm/user_ta_entry.c:155
     a9c:	97fffdfe 	bl	294 <tahead_get_trace_level>
     aa0:	940024d7 	bl	9dfc <trace_set_level>
/home/fangjiang/workspace/optee-os/lib/libutee/arch/arm/user_ta_entry.c:157
     aa4:	f9409e80 	ldr	x0, [x20, #312]
     aa8:	f9400001 	ldr	x1, [x0]
     aac:	f940b280 	ldr	x0, [x20, #352]
     ab0:	94002060 	bl	8c30 <malloc_add_pool>
/home/fangjiang/workspace/optee-os/lib/libutee/arch/arm/user_ta_entry.c:158
     ab4:	94000548 	bl	1fd4 <_TEE_MathAPI_Init>
/home/fangjiang/workspace/optee-os/lib/libutee/arch/arm/user_ta_entry.c:159
     ab8:	94000bc6 	bl	39d0 <__utee_tcb_init>
/home/fangjiang/workspace/optee-os/lib/libutee/arch/arm/user_ta_entry.c:160
     abc:	97ffff58 	bl	81c <__utee_call_elf_init_fn>
/home/fangjiang/workspace/optee-os/lib/libutee/arch/arm/user_ta_entry.c:161
     ac0:	97fffdbf 	bl	1bc <TA_CreateEntryPoint>
     ac4:	2a0003f3 	mov	w19, w0
ta_header_add_session():
/home/fangjiang/workspace/optee-os/lib/libutee/arch/arm/user_ta_entry.c:204
     ac8:	34fffda0 	cbz	w0, a7c <__utee_entry+0x68>
ta_header_save_params():
/home/fangjiang/workspace/optee-os/lib/libutee/arch/arm/user_ta_entry.c:174
     acc:	f940ba80 	ldr	x0, [x20, #368]
/home/fangjiang/workspace/optee-os/lib/libutee/arch/arm/user_ta_entry.c:179
     ad0:	4f000400 	movi	v0.4s, #0x0
/home/fangjiang/workspace/optee-os/lib/libutee/arch/arm/user_ta_entry.c:174
     ad4:	b900001f 	str	wzr, [x0]
/home/fangjiang/workspace/optee-os/lib/libutee/arch/arm/user_ta_entry.c:179
     ad8:	f940c280 	ldr	x0, [x20, #384]
__utee_entry():
/home/fangjiang/workspace/optee-os/lib/libutee/arch/arm/user_ta_entry.c:387
     adc:	f9409a94 	ldr	x20, [x20, #304]
ta_header_save_params():
/home/fangjiang/workspace/optee-os/lib/libutee/arch/arm/user_ta_entry.c:179
     ae0:	ad000000 	stp	q0, q0, [x0]
     ae4:	ad010000 	stp	q0, q0, [x0, #32]
__utee_entry():
/home/fangjiang/workspace/optee-os/lib/libutee/arch/arm/user_ta_entry.c:387
     ae8:	f94027e0 	ldr	x0, [sp, #72]
     aec:	f9400281 	ldr	x1, [x20]
     af0:	eb010000 	subs	x0, x0, x1
     af4:	d2800001 	mov	x1, #0x0                   	// #0
     af8:	54000a60 	b.eq	c44 <__utee_entry+0x230>  // b.none
     afc:	94002117 	bl	8f58 <__stack_chk_fail>
ta_header_add_session():
/home/fangjiang/workspace/optee-os/lib/libutee/arch/arm/user_ta_entry.c:214
     b00:	d0000061 	adrp	x1, e000 <_DYNAMIC>
     b04:	910f2021 	add	x1, x1, #0x3c8
     b08:	f9400422 	ldr	x2, [x1, #8]
/home/fangjiang/workspace/optee-os/lib/libutee/arch/arm/user_ta_entry.c:212
     b0c:	b9000015 	str	w21, [x0]
/home/fangjiang/workspace/optee-os/lib/libutee/arch/arm/user_ta_entry.c:214
     b10:	a900fc1f 	stp	xzr, xzr, [x0, #8]
     b14:	f9000c02 	str	x2, [x0, #24]
     b18:	f9000040 	str	x0, [x2]
     b1c:	91004000 	add	x0, x0, #0x10
     b20:	f9000420 	str	x0, [x1, #8]
entry_open_session():
/home/fangjiang/workspace/optee-os/lib/libutee/arch/arm/user_ta_entry.c:313
     b24:	2a1503e0 	mov	w0, w21
     b28:	97fffeda 	bl	690 <ta_header_get_session>
     b2c:	aa0003f3 	mov	x19, x0
/home/fangjiang/workspace/optee-os/lib/libutee/arch/arm/user_ta_entry.c:314
     b30:	b4000860 	cbz	x0, c3c <__utee_entry+0x228>
/home/fangjiang/workspace/optee-os/lib/libutee/arch/arm/user_ta_entry.c:317
     b34:	910023f7 	add	x23, sp, #0x8
     b38:	aa1603e2 	mov	x2, x22
     b3c:	910013e1 	add	x1, sp, #0x4
     b40:	aa1703e0 	mov	x0, x23
     b44:	97fffef9 	bl	728 <from_utee_params>
/home/fangjiang/workspace/optee-os/lib/libutee/arch/arm/user_ta_entry.c:318
     b48:	b94007f8 	ldr	w24, [sp, #4]
ta_header_save_params():
/home/fangjiang/workspace/optee-os/lib/libutee/arch/arm/user_ta_entry.c:174
     b4c:	f940ba80 	ldr	x0, [x20, #368]
/home/fangjiang/workspace/optee-os/lib/libutee/arch/arm/user_ta_entry.c:177
     b50:	aa1703e1 	mov	x1, x23
     b54:	d2800802 	mov	x2, #0x40                  	// #64
/home/fangjiang/workspace/optee-os/lib/libutee/arch/arm/user_ta_entry.c:174
     b58:	b9000018 	str	w24, [x0]
/home/fangjiang/workspace/optee-os/lib/libutee/arch/arm/user_ta_entry.c:177
     b5c:	f940c280 	ldr	x0, [x20, #384]
     b60:	97fffd30 	bl	20 <memcpy>
entry_open_session():
/home/fangjiang/workspace/optee-os/lib/libutee/arch/arm/user_ta_entry.c:320
     b64:	91002262 	add	x2, x19, #0x8
     b68:	aa1703e1 	mov	x1, x23
     b6c:	2a1803e0 	mov	w0, w24
     b70:	97fffd96 	bl	1c8 <TA_OpenSessionEntryPoint>
/home/fangjiang/workspace/optee-os/lib/libutee/arch/arm/user_ta_entry.c:323
     b74:	aa1703e2 	mov	x2, x23
/home/fangjiang/workspace/optee-os/lib/libutee/arch/arm/user_ta_entry.c:320
     b78:	2a0003f3 	mov	w19, w0
/home/fangjiang/workspace/optee-os/lib/libutee/arch/arm/user_ta_entry.c:323
     b7c:	2a1803e1 	mov	w1, w24
     b80:	aa1603e0 	mov	x0, x22
     b84:	97fffecd 	bl	6b8 <to_utee_params>
/home/fangjiang/workspace/optee-os/lib/libutee/arch/arm/user_ta_entry.c:325
     b88:	34fffa33 	cbz	w19, acc <__utee_entry+0xb8>
/home/fangjiang/workspace/optee-os/lib/libutee/arch/arm/user_ta_entry.c:326
     b8c:	2a1503e0 	mov	w0, w21
     b90:	97ffff7c 	bl	980 <ta_header_remove_session>
     b94:	17ffffce 	b	acc <__utee_entry+0xb8>
entry_close_session():
/home/fangjiang/workspace/optee-os/lib/libutee/arch/arm/user_ta_entry.c:332
     b98:	2a1503e0 	mov	w0, w21
     b9c:	97fffebd 	bl	690 <ta_header_get_session>
/home/fangjiang/workspace/optee-os/lib/libutee/arch/arm/user_ta_entry.c:334
     ba0:	b40004e0 	cbz	x0, c3c <__utee_entry+0x228>
/home/fangjiang/workspace/optee-os/lib/libutee/arch/arm/user_ta_entry.c:337
     ba4:	f9400400 	ldr	x0, [x0, #8]
/home/fangjiang/workspace/optee-os/lib/libutee/arch/arm/user_ta_entry.c:340
     ba8:	52800013 	mov	w19, #0x0                   	// #0
/home/fangjiang/workspace/optee-os/lib/libutee/arch/arm/user_ta_entry.c:337
     bac:	97fffd89 	bl	1d0 <TA_CloseSessionEntryPoint>
/home/fangjiang/workspace/optee-os/lib/libutee/arch/arm/user_ta_entry.c:339
     bb0:	2a1503e0 	mov	w0, w21
     bb4:	97ffff73 	bl	980 <ta_header_remove_session>
/home/fangjiang/workspace/optee-os/lib/libutee/arch/arm/user_ta_entry.c:340
     bb8:	17ffffc5 	b	acc <__utee_entry+0xb8>
entry_invoke_command():
/home/fangjiang/workspace/optee-os/lib/libutee/arch/arm/user_ta_entry.c:349
     bbc:	2a1503e0 	mov	w0, w21
     bc0:	97fffeb4 	bl	690 <ta_header_get_session>
     bc4:	aa0003f3 	mov	x19, x0
/home/fangjiang/workspace/optee-os/lib/libutee/arch/arm/user_ta_entry.c:351
     bc8:	b40003a0 	cbz	x0, c3c <__utee_entry+0x228>
/home/fangjiang/workspace/optee-os/lib/libutee/arch/arm/user_ta_entry.c:354
     bcc:	910023f5 	add	x21, sp, #0x8
     bd0:	aa0303f7 	mov	x23, x3
     bd4:	aa1603e2 	mov	x2, x22
     bd8:	910013e1 	add	x1, sp, #0x4
     bdc:	aa1503e0 	mov	x0, x21
     be0:	97fffed2 	bl	728 <from_utee_params>
ta_header_save_params():
/home/fangjiang/workspace/optee-os/lib/libutee/arch/arm/user_ta_entry.c:174
     be4:	f940ba80 	ldr	x0, [x20, #368]
/home/fangjiang/workspace/optee-os/lib/libutee/arch/arm/user_ta_entry.c:177
     be8:	aa1503e1 	mov	x1, x21
entry_invoke_command():
/home/fangjiang/workspace/optee-os/lib/libutee/arch/arm/user_ta_entry.c:355
     bec:	b94007f8 	ldr	w24, [sp, #4]
ta_header_save_params():
/home/fangjiang/workspace/optee-os/lib/libutee/arch/arm/user_ta_entry.c:177
     bf0:	d2800802 	mov	x2, #0x40                  	// #64
/home/fangjiang/workspace/optee-os/lib/libutee/arch/arm/user_ta_entry.c:174
     bf4:	b9000018 	str	w24, [x0]
/home/fangjiang/workspace/optee-os/lib/libutee/arch/arm/user_ta_entry.c:177
     bf8:	f940c280 	ldr	x0, [x20, #384]
     bfc:	97fffd09 	bl	20 <memcpy>
entry_invoke_command():
/home/fangjiang/workspace/optee-os/lib/libutee/arch/arm/user_ta_entry.c:357
     c00:	f9400660 	ldr	x0, [x19, #8]
     c04:	aa1503e3 	mov	x3, x21
     c08:	2a1803e2 	mov	w2, w24
     c0c:	2a1703e1 	mov	w1, w23
     c10:	97fffd71 	bl	1d4 <TA_InvokeCommandEntryPoint>
     c14:	2a0003f3 	mov	w19, w0
/home/fangjiang/workspace/optee-os/lib/libutee/arch/arm/user_ta_entry.c:360
     c18:	aa1503e2 	mov	x2, x21
     c1c:	2a1803e1 	mov	w1, w24
     c20:	aa1603e0 	mov	x0, x22
     c24:	97fffea5 	bl	6b8 <to_utee_params>
/home/fangjiang/workspace/optee-os/lib/libutee/arch/arm/user_ta_entry.c:361
     c28:	17ffffa9 	b	acc <__utee_entry+0xb8>
__utee_entry():
/home/fangjiang/workspace/optee-os/lib/libutee/arch/arm/user_ta_entry.c:381
     c2c:	52800000 	mov	w0, #0x0                   	// #0
/home/fangjiang/workspace/optee-os/lib/libutee/arch/arm/user_ta_entry.c:380
     c30:	12800013 	mov	w19, #0xffffffff            	// #-1
/home/fangjiang/workspace/optee-os/lib/libutee/arch/arm/user_ta_entry.c:381
     c34:	94000a60 	bl	35b4 <TEE_Panic>
/home/fangjiang/workspace/optee-os/lib/libutee/arch/arm/user_ta_entry.c:382
     c38:	17ffffa5 	b	acc <__utee_entry+0xb8>
entry_close_session():
/home/fangjiang/workspace/optee-os/lib/libutee/arch/arm/user_ta_entry.c:335
     c3c:	129fff13 	mov	w19, #0xffff0007            	// #-65529
     c40:	17ffffa3 	b	acc <__utee_entry+0xb8>
__utee_entry():
/home/fangjiang/workspace/optee-os/lib/libutee/arch/arm/user_ta_entry.c:387
     c44:	2a1303e0 	mov	w0, w19
     c48:	a9457bfd 	ldp	x29, x30, [sp, #80]
     c4c:	a94653f3 	ldp	x19, x20, [sp, #96]
     c50:	a9475bf5 	ldp	x21, x22, [sp, #112]
     c54:	a94863f7 	ldp	x23, x24, [sp, #128]
     c58:	910243ff 	add	sp, sp, #0x90
     c5c:	d65f03c0 	ret

0000000000000c60 <abort>:
abort():
/home/fangjiang/workspace/optee-os/lib/libutee/abort.c:12
     c60:	a9bf7bfd 	stp	x29, x30, [sp, #-16]!
/home/fangjiang/workspace/optee-os/lib/libutee/abort.c:13
     c64:	90000060 	adrp	x0, c000 <__text_end+0x1c98>
     c68:	911d2c00 	add	x0, x0, #0x74b
/home/fangjiang/workspace/optee-os/lib/libutee/abort.c:12
     c6c:	910003fd 	mov	x29, sp
/home/fangjiang/workspace/optee-os/lib/libutee/abort.c:13
     c70:	94000050 	bl	db0 <puts>
/home/fangjiang/workspace/optee-os/lib/libutee/abort.c:14
     c74:	d2800000 	mov	x0, #0x0                   	// #0
     c78:	97fffd89 	bl	29c <_utee_panic>
/home/fangjiang/workspace/optee-os/lib/libutee/abort.c:16 (discriminator 1)
     c7c:	14000000 	b	c7c <abort+0x1c>

0000000000000c80 <trace_ext_puts>:
trace_ext_puts():
/home/fangjiang/workspace/optee-os/lib/libutee/trace_ext.c:22
     c80:	a9be7bfd 	stp	x29, x30, [sp, #-32]!
     c84:	910003fd 	mov	x29, sp
     c88:	f9000bf3 	str	x19, [sp, #16]
     c8c:	aa0003f3 	mov	x19, x0
/home/fangjiang/workspace/optee-os/lib/libutee/trace_ext.c:26
     c90:	940020d1 	bl	8fd4 <strlen>
     c94:	aa0003e1 	mov	x1, x0
     c98:	aa1303e0 	mov	x0, x19
/home/fangjiang/workspace/optee-os/lib/libutee/trace_ext.c:28
     c9c:	f9400bf3 	ldr	x19, [sp, #16]
     ca0:	a8c27bfd 	ldp	x29, x30, [sp], #32
/home/fangjiang/workspace/optee-os/lib/libutee/trace_ext.c:26
     ca4:	17fffd84 	b	2b4 <_utee_log>

0000000000000ca8 <trace_ext_get_thread_id>:
trace_ext_get_thread_id():
/home/fangjiang/workspace/optee-os/lib/libutee/trace_ext.c:33
     ca8:	12800000 	mov	w0, #0xffffffff            	// #-1
     cac:	d65f03c0 	ret

0000000000000cb0 <printf>:
printf():
/home/fangjiang/workspace/optee-os/lib/libutee/trace_ext.c:41
     cb0:	d108c3ff 	sub	sp, sp, #0x230
     cb4:	a9157bfd 	stp	x29, x30, [sp, #336]
     cb8:	910543fd 	add	x29, sp, #0x150
     cbc:	a91653f3 	stp	x19, x20, [sp, #352]
     cc0:	aa0003f3 	mov	x19, x0
     cc4:	910823e0 	add	x0, sp, #0x208
     cc8:	a91f8be1 	stp	x1, x2, [sp, #504]
     ccc:	d0000061 	adrp	x1, e000 <_DYNAMIC>
     cd0:	3d805fe0 	str	q0, [sp, #368]
     cd4:	3d8063e1 	str	q1, [sp, #384]
     cd8:	3d8067e2 	str	q2, [sp, #400]
     cdc:	3d806be3 	str	q3, [sp, #416]
     ce0:	3d806fe4 	str	q4, [sp, #432]
     ce4:	3d8073e5 	str	q5, [sp, #448]
     ce8:	3d8077e6 	str	q6, [sp, #464]
     cec:	3d807be7 	str	q7, [sp, #480]
     cf0:	f9409821 	ldr	x1, [x1, #304]
     cf4:	a9001003 	stp	x3, x4, [x0]
     cf8:	a9011805 	stp	x5, x6, [x0, #16]
     cfc:	f90117e7 	str	x7, [sp, #552]
     d00:	f9400020 	ldr	x0, [x1]
     d04:	f900a7e0 	str	x0, [sp, #328]
     d08:	d2800000 	mov	x0, #0x0                   	// #0
/home/fangjiang/workspace/optee-os/lib/libutee/trace_ext.c:46
     d0c:	94002443 	bl	9e18 <trace_get_level>
     d10:	7100001f 	cmp	w0, #0x0
     d14:	5400040d 	b.le	d94 <printf+0xe4>
/home/fangjiang/workspace/optee-os/lib/libutee/trace_ext.c:49
     d18:	9108c3e0 	add	x0, sp, #0x230
/home/fangjiang/workspace/optee-os/lib/libutee/trace_ext.c:50
     d1c:	910003e3 	mov	x3, sp
/home/fangjiang/workspace/optee-os/lib/libutee/trace_ext.c:49
     d20:	a90283e0 	stp	x0, x0, [sp, #40]
     d24:	9107c3e0 	add	x0, sp, #0x1f0
/home/fangjiang/workspace/optee-os/lib/libutee/trace_ext.c:50
     d28:	9100a3e1 	add	x1, sp, #0x28
/home/fangjiang/workspace/optee-os/lib/libutee/trace_ext.c:49
     d2c:	f9001fe0 	str	x0, [sp, #56]
     d30:	128006e0 	mov	w0, #0xffffffc8            	// #-56
     d34:	b90043e0 	str	w0, [sp, #64]
     d38:	12800fe0 	mov	w0, #0xffffff80            	// #-128
/home/fangjiang/workspace/optee-os/lib/libutee/trace_ext.c:50
     d3c:	d2800402 	mov	x2, #0x20                  	// #32
     d40:	910123f4 	add	x20, sp, #0x48
/home/fangjiang/workspace/optee-os/lib/libutee/trace_ext.c:49
     d44:	b90047e0 	str	w0, [sp, #68]
/home/fangjiang/workspace/optee-os/lib/libutee/trace_ext.c:50
     d48:	aa0303e0 	mov	x0, x3
     d4c:	97fffcb5 	bl	20 <memcpy>
     d50:	aa0003e3 	mov	x3, x0
     d54:	aa1303e2 	mov	x2, x19
     d58:	aa1403e0 	mov	x0, x20
     d5c:	d2802001 	mov	x1, #0x100                 	// #256
     d60:	94002068 	bl	8f00 <vsnprintf>
     d64:	2a0003f3 	mov	w19, w0
/home/fangjiang/workspace/optee-os/lib/libutee/trace_ext.c:53
     d68:	37f80060 	tbnz	w0, #31, d74 <printf+0xc4>
/home/fangjiang/workspace/optee-os/lib/libutee/trace_ext.c:56
     d6c:	aa1403e0 	mov	x0, x20
     d70:	97ffffc4 	bl	c80 <trace_ext_puts>
/home/fangjiang/workspace/optee-os/lib/libutee/trace_ext.c:59
     d74:	d0000061 	adrp	x1, e000 <_DYNAMIC>
     d78:	f9409821 	ldr	x1, [x1, #304]
     d7c:	f940a7e0 	ldr	x0, [sp, #328]
     d80:	f9400022 	ldr	x2, [x1]
     d84:	eb020000 	subs	x0, x0, x2
     d88:	d2800002 	mov	x2, #0x0                   	// #0
     d8c:	54000080 	b.eq	d9c <printf+0xec>  // b.none
     d90:	94002072 	bl	8f58 <__stack_chk_fail>
/home/fangjiang/workspace/optee-os/lib/libutee/trace_ext.c:47
     d94:	52800013 	mov	w19, #0x0                   	// #0
     d98:	17fffff7 	b	d74 <printf+0xc4>
/home/fangjiang/workspace/optee-os/lib/libutee/trace_ext.c:59
     d9c:	2a1303e0 	mov	w0, w19
     da0:	a9557bfd 	ldp	x29, x30, [sp, #336]
     da4:	a95653f3 	ldp	x19, x20, [sp, #352]
     da8:	9108c3ff 	add	sp, sp, #0x230
     dac:	d65f03c0 	ret

0000000000000db0 <puts>:
puts():
/home/fangjiang/workspace/optee-os/lib/libutee/trace_ext.c:62
     db0:	a9be7bfd 	stp	x29, x30, [sp, #-32]!
     db4:	910003fd 	mov	x29, sp
     db8:	f9000bf3 	str	x19, [sp, #16]
     dbc:	aa0003f3 	mov	x19, x0
/home/fangjiang/workspace/optee-os/lib/libutee/trace_ext.c:63
     dc0:	94002416 	bl	9e18 <trace_get_level>
     dc4:	7100001f 	cmp	w0, #0x0
     dc8:	540000cd 	b.le	de0 <puts+0x30>
/home/fangjiang/workspace/optee-os/lib/libutee/trace_ext.c:64
     dcc:	aa1303e0 	mov	x0, x19
     dd0:	97ffffac 	bl	c80 <trace_ext_puts>
/home/fangjiang/workspace/optee-os/lib/libutee/trace_ext.c:65
     dd4:	90000060 	adrp	x0, c000 <__text_end+0x1c98>
     dd8:	913ba000 	add	x0, x0, #0xee8
     ddc:	97ffffa9 	bl	c80 <trace_ext_puts>
/home/fangjiang/workspace/optee-os/lib/libutee/trace_ext.c:68
     de0:	52800020 	mov	w0, #0x1                   	// #1
     de4:	f9400bf3 	ldr	x19, [sp, #16]
     de8:	a8c27bfd 	ldp	x29, x30, [sp], #32
     dec:	d65f03c0 	ret

0000000000000df0 <putchar>:
putchar():
/home/fangjiang/workspace/optee-os/lib/libutee/trace_ext.c:71
     df0:	d100c3ff 	sub	sp, sp, #0x30
     df4:	d0000061 	adrp	x1, e000 <_DYNAMIC>
     df8:	a9017bfd 	stp	x29, x30, [sp, #16]
     dfc:	910043fd 	add	x29, sp, #0x10
     e00:	f9409821 	ldr	x1, [x1, #304]
     e04:	f90013f3 	str	x19, [sp, #32]
     e08:	2a0003f3 	mov	w19, w0
     e0c:	f9400020 	ldr	x0, [x1]
     e10:	f90007e0 	str	x0, [sp, #8]
     e14:	d2800000 	mov	x0, #0x0                   	// #0
/home/fangjiang/workspace/optee-os/lib/libutee/trace_ext.c:72
     e18:	390003f3 	strb	w19, [sp]
     e1c:	390007ff 	strb	wzr, [sp, #1]
/home/fangjiang/workspace/optee-os/lib/libutee/trace_ext.c:74
     e20:	940023fe 	bl	9e18 <trace_get_level>
     e24:	7100001f 	cmp	w0, #0x0
     e28:	5400006d 	b.le	e34 <putchar+0x44>
/home/fangjiang/workspace/optee-os/lib/libutee/trace_ext.c:75
     e2c:	910003e0 	mov	x0, sp
     e30:	97ffff94 	bl	c80 <trace_ext_puts>
/home/fangjiang/workspace/optee-os/lib/libutee/trace_ext.c:82
     e34:	d0000061 	adrp	x1, e000 <_DYNAMIC>
/home/fangjiang/workspace/optee-os/lib/libutee/trace_ext.c:81
     e38:	12001e60 	and	w0, w19, #0xff
/home/fangjiang/workspace/optee-os/lib/libutee/trace_ext.c:82
     e3c:	f9409821 	ldr	x1, [x1, #304]
     e40:	f94007e3 	ldr	x3, [sp, #8]
     e44:	f9400022 	ldr	x2, [x1]
     e48:	eb020063 	subs	x3, x3, x2
     e4c:	d2800002 	mov	x2, #0x0                   	// #0
     e50:	54000040 	b.eq	e58 <putchar+0x68>  // b.none
     e54:	94002041 	bl	8f58 <__stack_chk_fail>
     e58:	a9417bfd 	ldp	x29, x30, [sp, #16]
     e5c:	f94013f3 	ldr	x19, [sp, #32]
     e60:	9100c3ff 	add	sp, sp, #0x30
     e64:	d65f03c0 	ret

0000000000000e68 <update_out_param>:
update_out_param():
/home/fangjiang/workspace/optee-os/lib/libutee/tee_api.c:121
     e68:	a9bc7bfd 	stp	x29, x30, [sp, #-64]!
     e6c:	910003fd 	mov	x29, sp
     e70:	a90153f3 	stp	x19, x20, [sp, #16]
/home/fangjiang/workspace/optee-os/lib/libutee/tee_api.c:123
     e74:	aa0203f4 	mov	x20, x2
     e78:	aa0003f3 	mov	x19, x0
/home/fangjiang/workspace/optee-os/lib/libutee/tee_api.c:121
     e7c:	a90363f7 	stp	x23, x24, [sp, #48]
     e80:	aa0103f8 	mov	x24, x1
/home/fangjiang/workspace/optee-os/lib/libutee/tee_api.c:123
     e84:	f8408697 	ldr	x23, [x20], #8
/home/fangjiang/workspace/optee-os/lib/libutee/tee_api.c:121
     e88:	a9025bf5 	stp	x21, x22, [sp, #32]
/home/fangjiang/workspace/optee-os/lib/libutee/tee_api.c:125
     e8c:	d2800015 	mov	x21, #0x0                   	// #0
/home/fangjiang/workspace/optee-os/lib/libutee/tee_api.c:129
     e90:	531e76a0 	lsl	w0, w21, #2
/home/fangjiang/workspace/optee-os/lib/libutee/tee_api.c:127
     e94:	a9405a82 	ldp	x2, x22, [x20]
/home/fangjiang/workspace/optee-os/lib/libutee/tee_api.c:129
     e98:	1ac026e0 	lsr	w0, w23, w0
     e9c:	12000c01 	and	w1, w0, #0xf
     ea0:	721e041f 	tst	w0, #0xc
     ea4:	540000a1 	b.ne	eb8 <update_out_param+0x50>  // b.any
     ea8:	721f081f 	tst	w0, #0xe
     eac:	540000c0 	b.eq	ec4 <update_out_param+0x5c>  // b.none
/home/fangjiang/workspace/optee-os/lib/libutee/tee_api.c:133
     eb0:	29005a62 	stp	w2, w22, [x19]
/home/fangjiang/workspace/optee-os/lib/libutee/tee_api.c:134
     eb4:	14000004 	b	ec4 <update_out_param+0x5c>
/home/fangjiang/workspace/optee-os/lib/libutee/tee_api.c:129
     eb8:	51001820 	sub	w0, w1, #0x6
     ebc:	7100041f 	cmp	w0, #0x1
     ec0:	54000169 	b.ls	eec <update_out_param+0x84>  // b.plast
/home/fangjiang/workspace/optee-os/lib/libutee/tee_api.c:125 (discriminator 2)
     ec4:	910006b5 	add	x21, x21, #0x1
     ec8:	91004294 	add	x20, x20, #0x10
     ecc:	91004273 	add	x19, x19, #0x10
     ed0:	f10012bf 	cmp	x21, #0x4
     ed4:	54fffde1 	b.ne	e90 <update_out_param+0x28>  // b.any
/home/fangjiang/workspace/optee-os/lib/libutee/tee_api.c:146
     ed8:	a94153f3 	ldp	x19, x20, [sp, #16]
     edc:	a9425bf5 	ldp	x21, x22, [sp, #32]
     ee0:	a94363f7 	ldp	x23, x24, [sp, #48]
     ee4:	a8c47bfd 	ldp	x29, x30, [sp], #64
     ee8:	d65f03c0 	ret
/home/fangjiang/workspace/optee-os/lib/libutee/tee_api.c:137
     eec:	f8757b01 	ldr	x1, [x24, x21, lsl #3]
     ef0:	b40000c1 	cbz	x1, f08 <update_out_param+0xa0>
/home/fangjiang/workspace/optee-os/lib/libutee/tee_api.c:139
     ef4:	b9400a62 	ldr	w2, [x19, #8]
/home/fangjiang/workspace/optee-os/lib/libutee/tee_api.c:138
     ef8:	f9400260 	ldr	x0, [x19]
/home/fangjiang/workspace/optee-os/lib/libutee/tee_api.c:139
     efc:	eb16005f 	cmp	x2, x22
/home/fangjiang/workspace/optee-os/lib/libutee/tee_api.c:138
     f00:	9a969042 	csel	x2, x2, x22, ls  // ls = plast
     f04:	97fffc47 	bl	20 <memcpy>
/home/fangjiang/workspace/optee-os/lib/libutee/tee_api.c:140
     f08:	b9000a76 	str	w22, [x19, #8]
/home/fangjiang/workspace/optee-os/lib/libutee/tee_api.c:141
     f0c:	17ffffee 	b	ec4 <update_out_param+0x5c>

0000000000000f10 <TEE_CloseTASession>:
TEE_CloseTASession():
/home/fangjiang/workspace/optee-os/lib/libutee/tee_api.c:196
     f10:	b4000120 	cbz	x0, f34 <TEE_CloseTASession+0x24>
/home/fangjiang/workspace/optee-os/lib/libutee/tee_api.c:195
     f14:	a9bf7bfd 	stp	x29, x30, [sp, #-16]!
     f18:	910003fd 	mov	x29, sp
/home/fangjiang/workspace/optee-os/lib/libutee/tee_api.c:197
     f1c:	97fffcf5 	bl	2f0 <_utee_close_ta_session>
/home/fangjiang/workspace/optee-os/lib/libutee/tee_api.c:199
     f20:	34000060 	cbz	w0, f2c <TEE_CloseTASession+0x1c>
/home/fangjiang/workspace/optee-os/lib/libutee/tee_api.c:202
     f24:	a8c17bfd 	ldp	x29, x30, [sp], #16
/home/fangjiang/workspace/optee-os/lib/libutee/tee_api.c:200
     f28:	140009a3 	b	35b4 <TEE_Panic>
/home/fangjiang/workspace/optee-os/lib/libutee/tee_api.c:202
     f2c:	a8c17bfd 	ldp	x29, x30, [sp], #16
     f30:	d65f03c0 	ret
     f34:	d65f03c0 	ret

0000000000000f38 <TEE_GetCancellationFlag>:
TEE_GetCancellationFlag():
/home/fangjiang/workspace/optee-os/lib/libutee/tee_api.c:257
     f38:	d10083ff 	sub	sp, sp, #0x20
     f3c:	d0000061 	adrp	x1, e000 <_DYNAMIC>
     f40:	a9017bfd 	stp	x29, x30, [sp, #16]
     f44:	910043fd 	add	x29, sp, #0x10
     f48:	f9409821 	ldr	x1, [x1, #304]
     f4c:	f9400020 	ldr	x0, [x1]
     f50:	f90007e0 	str	x0, [sp, #8]
     f54:	d2800000 	mov	x0, #0x0                   	// #0
/home/fangjiang/workspace/optee-os/lib/libutee/tee_api.c:259
     f58:	910013e0 	add	x0, sp, #0x4
     f5c:	97fffceb 	bl	308 <_utee_get_cancellation_flag>
/home/fangjiang/workspace/optee-os/lib/libutee/tee_api.c:261
     f60:	34000040 	cbz	w0, f68 <TEE_GetCancellationFlag+0x30>
/home/fangjiang/workspace/optee-os/lib/libutee/tee_api.c:262
     f64:	b90007ff 	str	wzr, [sp, #4]
/home/fangjiang/workspace/optee-os/lib/libutee/tee_api.c:264
     f68:	d0000061 	adrp	x1, e000 <_DYNAMIC>
/home/fangjiang/workspace/optee-os/lib/libutee/tee_api.c:263
     f6c:	b94007e0 	ldr	w0, [sp, #4]
/home/fangjiang/workspace/optee-os/lib/libutee/tee_api.c:264
     f70:	f9409821 	ldr	x1, [x1, #304]
/home/fangjiang/workspace/optee-os/lib/libutee/tee_api.c:263
     f74:	7100001f 	cmp	w0, #0x0
     f78:	1a9f07e0 	cset	w0, ne  // ne = any
/home/fangjiang/workspace/optee-os/lib/libutee/tee_api.c:264
     f7c:	f94007e3 	ldr	x3, [sp, #8]
     f80:	f9400022 	ldr	x2, [x1]
     f84:	eb020063 	subs	x3, x3, x2
     f88:	d2800002 	mov	x2, #0x0                   	// #0
     f8c:	54000040 	b.eq	f94 <TEE_GetCancellationFlag+0x5c>  // b.none
     f90:	94001ff2 	bl	8f58 <__stack_chk_fail>
     f94:	a9417bfd 	ldp	x29, x30, [sp, #16]
     f98:	910083ff 	add	sp, sp, #0x20
     f9c:	d65f03c0 	ret

0000000000000fa0 <TEE_UnmaskCancellation>:
TEE_UnmaskCancellation():
/home/fangjiang/workspace/optee-os/lib/libutee/tee_api.c:267
     fa0:	d10083ff 	sub	sp, sp, #0x20
     fa4:	d0000061 	adrp	x1, e000 <_DYNAMIC>
     fa8:	a9017bfd 	stp	x29, x30, [sp, #16]
     fac:	910043fd 	add	x29, sp, #0x10
     fb0:	f9409821 	ldr	x1, [x1, #304]
     fb4:	f9400020 	ldr	x0, [x1]
     fb8:	f90007e0 	str	x0, [sp, #8]
     fbc:	d2800000 	mov	x0, #0x0                   	// #0
/home/fangjiang/workspace/optee-os/lib/libutee/tee_api.c:269
     fc0:	910013e0 	add	x0, sp, #0x4
     fc4:	97fffcd7 	bl	320 <_utee_unmask_cancellation>
/home/fangjiang/workspace/optee-os/lib/libutee/tee_api.c:271
     fc8:	34000040 	cbz	w0, fd0 <TEE_UnmaskCancellation+0x30>
/home/fangjiang/workspace/optee-os/lib/libutee/tee_api.c:272
     fcc:	9400097a 	bl	35b4 <TEE_Panic>
/home/fangjiang/workspace/optee-os/lib/libutee/tee_api.c:274
     fd0:	d0000061 	adrp	x1, e000 <_DYNAMIC>
/home/fangjiang/workspace/optee-os/lib/libutee/tee_api.c:273
     fd4:	b94007e0 	ldr	w0, [sp, #4]
/home/fangjiang/workspace/optee-os/lib/libutee/tee_api.c:274
     fd8:	f9409821 	ldr	x1, [x1, #304]
/home/fangjiang/workspace/optee-os/lib/libutee/tee_api.c:273
     fdc:	7100001f 	cmp	w0, #0x0
     fe0:	1a9f07e0 	cset	w0, ne  // ne = any
/home/fangjiang/workspace/optee-os/lib/libutee/tee_api.c:274
     fe4:	f94007e3 	ldr	x3, [sp, #8]
     fe8:	f9400022 	ldr	x2, [x1]
     fec:	eb020063 	subs	x3, x3, x2
     ff0:	d2800002 	mov	x2, #0x0                   	// #0
     ff4:	54000040 	b.eq	ffc <TEE_UnmaskCancellation+0x5c>  // b.none
     ff8:	94001fd8 	bl	8f58 <__stack_chk_fail>
     ffc:	a9417bfd 	ldp	x29, x30, [sp, #16]
    1000:	910083ff 	add	sp, sp, #0x20
    1004:	d65f03c0 	ret

0000000000001008 <TEE_MaskCancellation>:
TEE_MaskCancellation():
/home/fangjiang/workspace/optee-os/lib/libutee/tee_api.c:277
    1008:	d10083ff 	sub	sp, sp, #0x20
    100c:	b0000061 	adrp	x1, e000 <_DYNAMIC>
    1010:	a9017bfd 	stp	x29, x30, [sp, #16]
    1014:	910043fd 	add	x29, sp, #0x10
    1018:	f9409821 	ldr	x1, [x1, #304]
    101c:	f9400020 	ldr	x0, [x1]
    1020:	f90007e0 	str	x0, [sp, #8]
    1024:	d2800000 	mov	x0, #0x0                   	// #0
/home/fangjiang/workspace/optee-os/lib/libutee/tee_api.c:279
    1028:	910013e0 	add	x0, sp, #0x4
    102c:	97fffcc0 	bl	32c <_utee_mask_cancellation>
/home/fangjiang/workspace/optee-os/lib/libutee/tee_api.c:281
    1030:	34000040 	cbz	w0, 1038 <TEE_MaskCancellation+0x30>
/home/fangjiang/workspace/optee-os/lib/libutee/tee_api.c:282
    1034:	94000960 	bl	35b4 <TEE_Panic>
/home/fangjiang/workspace/optee-os/lib/libutee/tee_api.c:284
    1038:	b0000061 	adrp	x1, e000 <_DYNAMIC>
/home/fangjiang/workspace/optee-os/lib/libutee/tee_api.c:283
    103c:	b94007e0 	ldr	w0, [sp, #4]
/home/fangjiang/workspace/optee-os/lib/libutee/tee_api.c:284
    1040:	f9409821 	ldr	x1, [x1, #304]
/home/fangjiang/workspace/optee-os/lib/libutee/tee_api.c:283
    1044:	7100001f 	cmp	w0, #0x0
    1048:	1a9f07e0 	cset	w0, ne  // ne = any
/home/fangjiang/workspace/optee-os/lib/libutee/tee_api.c:284
    104c:	f94007e3 	ldr	x3, [sp, #8]
    1050:	f9400022 	ldr	x2, [x1]
    1054:	eb020063 	subs	x3, x3, x2
    1058:	d2800002 	mov	x2, #0x0                   	// #0
    105c:	54000040 	b.eq	1064 <TEE_MaskCancellation+0x5c>  // b.none
    1060:	94001fbe 	bl	8f58 <__stack_chk_fail>
    1064:	a9417bfd 	ldp	x29, x30, [sp, #16]
    1068:	910083ff 	add	sp, sp, #0x20
    106c:	d65f03c0 	ret

0000000000001070 <TEE_CheckMemoryAccessRights>:
TEE_CheckMemoryAccessRights():
/home/fangjiang/workspace/optee-os/lib/libutee/tee_api.c:293
    1070:	34000062 	cbz	w2, 107c <TEE_CheckMemoryAccessRights+0xc>
/home/fangjiang/workspace/optee-os/lib/libutee/tee_api.c:297
    1074:	2a0203e2 	mov	w2, w2
    1078:	17fffca7 	b	314 <_utee_check_access_rights>
/home/fangjiang/workspace/optee-os/lib/libutee/tee_api.c:309
    107c:	52800000 	mov	w0, #0x0                   	// #0
    1080:	d65f03c0 	ret

0000000000001084 <copy_param>:
copy_param():
/home/fangjiang/workspace/optee-os/lib/libutee/tee_api.c:29
    1084:	d10203ff 	sub	sp, sp, #0x80
    1088:	b0000066 	adrp	x6, e000 <_DYNAMIC>
    108c:	a9027bfd 	stp	x29, x30, [sp, #32]
    1090:	910083fd 	add	x29, sp, #0x20
    1094:	f94098c6 	ldr	x6, [x6, #304]
    1098:	a90563f7 	stp	x23, x24, [sp, #80]
    109c:	aa0303f8 	mov	x24, x3
    10a0:	aa0403f7 	mov	x23, x4
    10a4:	a90353f3 	stp	x19, x20, [sp, #48]
/home/fangjiang/workspace/optee-os/lib/libutee/tee_api.c:66
    10a8:	910043e3 	add	x3, sp, #0x10
/home/fangjiang/workspace/optee-os/lib/libutee/tee_api.c:29
    10ac:	a9045bf5 	stp	x21, x22, [sp, #64]
    10b0:	aa0003f4 	mov	x20, x0
    10b4:	2a0103f5 	mov	w21, w1
    10b8:	a9066bf9 	stp	x25, x26, [sp, #96]
    10bc:	aa0503f6 	mov	x22, x5
    10c0:	aa0203f3 	mov	x19, x2
    10c4:	a90773fb 	stp	x27, x28, [sp, #112]
/home/fangjiang/workspace/optee-os/lib/libutee/tee_api.c:46
    10c8:	aa0203fc 	mov	x28, x2
/home/fangjiang/workspace/optee-os/lib/libutee/tee_api.c:32
    10cc:	d280001b 	mov	x27, #0x0                   	// #0
/home/fangjiang/workspace/optee-os/lib/libutee/tee_api.c:29
    10d0:	f94000c0 	ldr	x0, [x6]
    10d4:	f9000fe0 	str	x0, [sp, #24]
    10d8:	d2800000 	mov	x0, #0x0                   	// #0
/home/fangjiang/workspace/optee-os/lib/libutee/tee_api.c:45
    10dc:	f900031f 	str	xzr, [x24]
/home/fangjiang/workspace/optee-os/lib/libutee/tee_api.c:47
    10e0:	d2800019 	mov	x25, #0x0                   	// #0
/home/fangjiang/workspace/optee-os/lib/libutee/tee_api.c:66
    10e4:	52800024 	mov	w4, #0x1                   	// #1
/home/fangjiang/workspace/optee-os/lib/libutee/tee_api.c:46
    10e8:	f90002ff 	str	xzr, [x23]
/home/fangjiang/workspace/optee-os/lib/libutee/tee_api.c:34
    10ec:	b90013ff 	str	wzr, [sp, #16]
/home/fangjiang/workspace/optee-os/lib/libutee/tee_api.c:49
    10f0:	531e7720 	lsl	w0, w25, #2
/home/fangjiang/workspace/optee-os/lib/libutee/tee_api.c:48
    10f4:	f8397adf 	str	xzr, [x22, x25, lsl #3]
/home/fangjiang/workspace/optee-os/lib/libutee/tee_api.c:49
    10f8:	1ac026a0 	lsr	w0, w21, w0
    10fc:	12000c00 	and	w0, w0, #0xf
    1100:	51001400 	sub	w0, w0, #0x5
    1104:	7100081f 	cmp	w0, #0x2
    1108:	54000248 	b.hi	1150 <copy_param+0xcc>  // b.pmore
/home/fangjiang/workspace/optee-os/lib/libutee/tee_api.c:53
    110c:	f9400381 	ldr	x1, [x28]
/home/fangjiang/workspace/optee-os/lib/libutee/tee_api.c:54
    1110:	b9400b82 	ldr	w2, [x28, #8]
/home/fangjiang/workspace/optee-os/lib/libutee/tee_api.c:64
    1114:	f100003f 	cmp	x1, #0x0
/home/fangjiang/workspace/optee-os/lib/libutee/tee_api.c:54
    1118:	2a0203fa 	mov	w26, w2
/home/fangjiang/workspace/optee-os/lib/libutee/tee_api.c:64
    111c:	fa401b44 	ccmp	x26, #0x0, #0x4, ne  // ne = any
    1120:	54000180 	b.eq	1150 <copy_param+0xcc>  // b.none
/home/fangjiang/workspace/optee-os/lib/libutee/tee_api.c:65 (discriminator 1)
    1124:	52800020 	mov	w0, #0x1                   	// #1
    1128:	f90003e3 	str	x3, [sp]
    112c:	b9000fe4 	str	w4, [sp, #12]
    1130:	97ffffd0 	bl	1070 <TEE_CheckMemoryAccessRights>
/home/fangjiang/workspace/optee-os/lib/libutee/tee_api.c:64 (discriminator 1)
    1134:	b9400fe4 	ldr	w4, [sp, #12]
    1138:	f94003e3 	ldr	x3, [sp]
    113c:	350000a0 	cbnz	w0, 1150 <copy_param+0xcc>
/home/fangjiang/workspace/optee-os/lib/libutee/tee_api.c:67
    1140:	91003f5a 	add	x26, x26, #0xf
/home/fangjiang/workspace/optee-os/lib/libutee/tee_api.c:66
    1144:	38236b24 	strb	w4, [x25, x3]
/home/fangjiang/workspace/optee-os/lib/libutee/tee_api.c:67
    1148:	927cef5a 	and	x26, x26, #0xfffffffffffffff0
    114c:	8b1a037b 	add	x27, x27, x26
/home/fangjiang/workspace/optee-os/lib/libutee/tee_api.c:47 (discriminator 2)
    1150:	91000739 	add	x25, x25, #0x1
    1154:	9100439c 	add	x28, x28, #0x10
    1158:	f100133f 	cmp	x25, #0x4
    115c:	54fffca1 	b.ne	10f0 <copy_param+0x6c>  // b.any
/home/fangjiang/workspace/optee-os/lib/libutee/tee_api.c:75
    1160:	b400031b 	cbz	x27, 11c0 <copy_param+0x13c>
/home/fangjiang/workspace/optee-os/lib/libutee/tee_api.c:76
    1164:	2a1903e1 	mov	w1, w25
    1168:	aa1b03e0 	mov	x0, x27
    116c:	94000984 	bl	377c <tee_map_zi>
    1170:	aa0003e6 	mov	x6, x0
/home/fangjiang/workspace/optee-os/lib/libutee/tee_api.c:77
    1174:	b40007a0 	cbz	x0, 1268 <copy_param+0x1e4>
/home/fangjiang/workspace/optee-os/lib/libutee/tee_api.c:79
    1178:	f9000300 	str	x0, [x24]
/home/fangjiang/workspace/optee-os/lib/libutee/tee_api.c:80
    117c:	f90002fb 	str	x27, [x23]
/home/fangjiang/workspace/optee-os/lib/libutee/tee_api.c:95
    1180:	910043fa 	add	x26, sp, #0x10
/home/fangjiang/workspace/optee-os/lib/libutee/tee_api.c:83
    1184:	2a1503e0 	mov	w0, w21
/home/fangjiang/workspace/optee-os/lib/libutee/tee_api.c:84
    1188:	d2800017 	mov	x23, #0x0                   	// #0
/home/fangjiang/workspace/optee-os/lib/libutee/tee_api.c:83
    118c:	f8008680 	str	x0, [x20], #8
/home/fangjiang/workspace/optee-os/lib/libutee/tee_api.c:85
    1190:	531e76e1 	lsl	w1, w23, #2
    1194:	1ac126a1 	lsr	w1, w21, w1
    1198:	12000c20 	and	w0, w1, #0xf
    119c:	71000c1f 	cmp	w0, #0x3
    11a0:	540003c0 	b.eq	1218 <copy_param+0x194>  // b.none
    11a4:	721e043f 	tst	w1, #0xc
    11a8:	54000101 	b.ne	11c8 <copy_param+0x144>  // b.any
    11ac:	7100041f 	cmp	w0, #0x1
    11b0:	54000340 	b.eq	1218 <copy_param+0x194>  // b.none
/home/fangjiang/workspace/optee-os/lib/libutee/tee_api.c:111
    11b4:	d2800019 	mov	x25, #0x0                   	// #0
/home/fangjiang/workspace/optee-os/lib/libutee/tee_api.c:109
    11b8:	f900029f 	str	xzr, [x20]
/home/fangjiang/workspace/optee-os/lib/libutee/tee_api.c:111
    11bc:	14000019 	b	1220 <copy_param+0x19c>
/home/fangjiang/workspace/optee-os/lib/libutee/tee_api.c:31
    11c0:	d2800006 	mov	x6, #0x0                   	// #0
    11c4:	17ffffef 	b	1180 <copy_param+0xfc>
/home/fangjiang/workspace/optee-os/lib/libutee/tee_api.c:85
    11c8:	51001401 	sub	w1, w0, #0x5
    11cc:	7100083f 	cmp	w1, #0x2
    11d0:	54ffff28 	b.hi	11b4 <copy_param+0x130>  // b.pmore
/home/fangjiang/workspace/optee-os/lib/libutee/tee_api.c:95
    11d4:	387a6ae1 	ldrb	w1, [x23, x26]
/home/fangjiang/workspace/optee-os/lib/libutee/tee_api.c:94
    11d8:	b9400a79 	ldr	w25, [x19, #8]
/home/fangjiang/workspace/optee-os/lib/libutee/tee_api.c:95
    11dc:	34000401 	cbz	w1, 125c <copy_param+0x1d8>
/home/fangjiang/workspace/optee-os/lib/libutee/tee_api.c:98
    11e0:	91003f38 	add	x24, x25, #0xf
/home/fangjiang/workspace/optee-os/lib/libutee/tee_api.c:97
    11e4:	f8377ac6 	str	x6, [x22, x23, lsl #3]
/home/fangjiang/workspace/optee-os/lib/libutee/tee_api.c:98
    11e8:	927cef18 	and	x24, x24, #0xfffffffffffffff0
    11ec:	8b1800d8 	add	x24, x6, x24
/home/fangjiang/workspace/optee-os/lib/libutee/tee_api.c:99
    11f0:	7100181f 	cmp	w0, #0x6
    11f4:	540000c0 	b.eq	120c <copy_param+0x188>  // b.none
/home/fangjiang/workspace/optee-os/lib/libutee/tee_api.c:101
    11f8:	f9400261 	ldr	x1, [x19]
    11fc:	aa0603e0 	mov	x0, x6
    1200:	aa1903e2 	mov	x2, x25
    1204:	97fffb87 	bl	20 <memcpy>
    1208:	aa0003e6 	mov	x6, x0
/home/fangjiang/workspace/optee-os/lib/libutee/tee_api.c:105
    120c:	f9000286 	str	x6, [x20]
/home/fangjiang/workspace/optee-os/lib/libutee/tee_api.c:107
    1210:	aa1803e6 	mov	x6, x24
    1214:	14000003 	b	1220 <copy_param+0x19c>
/home/fangjiang/workspace/optee-os/lib/libutee/tee_api.c:89
    1218:	29406660 	ldp	w0, w25, [x19]
/home/fangjiang/workspace/optee-os/lib/libutee/tee_api.c:88
    121c:	f9000280 	str	x0, [x20]
/home/fangjiang/workspace/optee-os/lib/libutee/tee_api.c:84 (discriminator 2)
    1220:	910006f7 	add	x23, x23, #0x1
/home/fangjiang/workspace/optee-os/lib/libutee/tee_api.c:89 (discriminator 2)
    1224:	f9000699 	str	x25, [x20, #8]
/home/fangjiang/workspace/optee-os/lib/libutee/tee_api.c:84 (discriminator 2)
    1228:	91004273 	add	x19, x19, #0x10
    122c:	91004294 	add	x20, x20, #0x10
    1230:	f10012ff 	cmp	x23, #0x4
    1234:	54fffae1 	b.ne	1190 <copy_param+0x10c>  // b.any
/home/fangjiang/workspace/optee-os/lib/libutee/tee_api.c:115
    1238:	52800000 	mov	w0, #0x0                   	// #0
/home/fangjiang/workspace/optee-os/lib/libutee/tee_api.c:116
    123c:	b0000066 	adrp	x6, e000 <_DYNAMIC>
    1240:	f94098c6 	ldr	x6, [x6, #304]
    1244:	f9400fe1 	ldr	x1, [sp, #24]
    1248:	f94000c2 	ldr	x2, [x6]
    124c:	eb020021 	subs	x1, x1, x2
    1250:	d2800002 	mov	x2, #0x0                   	// #0
    1254:	540000e0 	b.eq	1270 <copy_param+0x1ec>  // b.none
    1258:	94001f40 	bl	8f58 <__stack_chk_fail>
/home/fangjiang/workspace/optee-os/lib/libutee/tee_api.c:103
    125c:	aa0603f8 	mov	x24, x6
    1260:	f9400266 	ldr	x6, [x19]
    1264:	17ffffea 	b	120c <copy_param+0x188>
/home/fangjiang/workspace/optee-os/lib/libutee/tee_api.c:78
    1268:	129ffe60 	mov	w0, #0xffff000c            	// #-65524
    126c:	17fffff4 	b	123c <copy_param+0x1b8>
/home/fangjiang/workspace/optee-os/lib/libutee/tee_api.c:116
    1270:	a9427bfd 	ldp	x29, x30, [sp, #32]
    1274:	a94353f3 	ldp	x19, x20, [sp, #48]
    1278:	a9445bf5 	ldp	x21, x22, [sp, #64]
    127c:	a94563f7 	ldp	x23, x24, [sp, #80]
    1280:	a9466bf9 	ldp	x25, x26, [sp, #96]
    1284:	a94773fb 	ldp	x27, x28, [sp, #112]
    1288:	910203ff 	add	sp, sp, #0x80
    128c:	d65f03c0 	ret

0000000000001290 <TEE_OpenTASession>:
TEE_OpenTASession():
/home/fangjiang/workspace/optee-os/lib/libutee/tee_api.c:154
    1290:	d10383ff 	sub	sp, sp, #0xe0
    1294:	b0000066 	adrp	x6, e000 <_DYNAMIC>
    1298:	a9097bfd 	stp	x29, x30, [sp, #144]
    129c:	910243fd 	add	x29, sp, #0x90
    12a0:	f94098c6 	ldr	x6, [x6, #304]
    12a4:	a90a53f3 	stp	x19, x20, [sp, #160]
    12a8:	2a0203f3 	mov	w19, w2
    12ac:	a90b5bf5 	stp	x21, x22, [sp, #176]
    12b0:	aa0303f4 	mov	x20, x3
    12b4:	aa0403f5 	mov	x21, x4
    12b8:	a90c63f7 	stp	x23, x24, [sp, #192]
    12bc:	aa0003f7 	mov	x23, x0
    12c0:	2a0103f8 	mov	w24, w1
    12c4:	a90d6bf9 	stp	x25, x26, [sp, #208]
    12c8:	aa0503f9 	mov	x25, x5
    12cc:	f94000c0 	ldr	x0, [x6]
    12d0:	f90047e0 	str	x0, [sp, #136]
    12d4:	d2800000 	mov	x0, #0x0                   	// #0
/home/fangjiang/workspace/optee-os/lib/libutee/tee_api.c:157
    12d8:	b9000fff 	str	wzr, [sp, #12]
/home/fangjiang/workspace/optee-os/lib/libutee/tee_api.c:159
    12dc:	a9017fff 	stp	xzr, xzr, [sp, #16]
/home/fangjiang/workspace/optee-os/lib/libutee/tee_api.c:160
    12e0:	a9027fff 	stp	xzr, xzr, [sp, #32]
    12e4:	a9037fff 	stp	xzr, xzr, [sp, #48]
/home/fangjiang/workspace/optee-os/lib/libutee/tee_api.c:162
    12e8:	34000082 	cbz	w2, 12f8 <TEE_OpenTASession+0x68>
/home/fangjiang/workspace/optee-os/lib/libutee/tee_api.c:163
    12ec:	aa0303e0 	mov	x0, x3
    12f0:	d2800801 	mov	x1, #0x40                  	// #64
    12f4:	940008f9 	bl	36d8 <__utee_check_inout_annotation>
/home/fangjiang/workspace/optee-os/lib/libutee/tee_api.c:166
    12f8:	aa1503e0 	mov	x0, x21
    12fc:	d2800101 	mov	x1, #0x8                   	// #8
/home/fangjiang/workspace/optee-os/lib/libutee/tee_api.c:168
    1300:	910083fa 	add	x26, sp, #0x20
/home/fangjiang/workspace/optee-os/lib/libutee/tee_api.c:166
    1304:	940008e4 	bl	3694 <__utee_check_out_annotation>
/home/fangjiang/workspace/optee-os/lib/libutee/tee_api.c:168
    1308:	910103f6 	add	x22, sp, #0x40
    130c:	2a1303e1 	mov	w1, w19
    1310:	aa1a03e5 	mov	x5, x26
    1314:	910063e4 	add	x4, sp, #0x18
    1318:	910043e3 	add	x3, sp, #0x10
    131c:	aa1403e2 	mov	x2, x20
    1320:	aa1603e0 	mov	x0, x22
    1324:	97ffff58 	bl	1084 <copy_param>
    1328:	2a0003f3 	mov	w19, w0
/home/fangjiang/workspace/optee-os/lib/libutee/tee_api.c:169
    132c:	35000260 	cbnz	w0, 1378 <TEE_OpenTASession+0xe8>
/home/fangjiang/workspace/optee-os/lib/libutee/tee_api.c:171
    1330:	aa1903e4 	mov	x4, x25
    1334:	910033e3 	add	x3, sp, #0xc
    1338:	aa1603e2 	mov	x2, x22
    133c:	2a1803e1 	mov	w1, w24
    1340:	aa1703e0 	mov	x0, x23
    1344:	97fffbe8 	bl	2e4 <_utee_open_ta_session>
/home/fangjiang/workspace/optee-os/lib/libutee/tee_api.c:173
    1348:	aa1603e2 	mov	x2, x22
/home/fangjiang/workspace/optee-os/lib/libutee/tee_api.c:171
    134c:	2a0003f3 	mov	w19, w0
/home/fangjiang/workspace/optee-os/lib/libutee/tee_api.c:173
    1350:	aa1a03e1 	mov	x1, x26
    1354:	aa1403e0 	mov	x0, x20
    1358:	97fffec4 	bl	e68 <update_out_param>
/home/fangjiang/workspace/optee-os/lib/libutee/tee_api.c:174
    135c:	f9400be0 	ldr	x0, [sp, #16]
    1360:	b40000a0 	cbz	x0, 1374 <TEE_OpenTASession+0xe4>
/home/fangjiang/workspace/optee-os/lib/libutee/tee_api.c:175
    1364:	f9400fe1 	ldr	x1, [sp, #24]
    1368:	9400092c 	bl	3818 <tee_unmap>
/home/fangjiang/workspace/optee-os/lib/libutee/tee_api.c:177
    136c:	34000040 	cbz	w0, 1374 <TEE_OpenTASession+0xe4>
/home/fangjiang/workspace/optee-os/lib/libutee/tee_api.c:178
    1370:	94000891 	bl	35b4 <TEE_Panic>
/home/fangjiang/workspace/optee-os/lib/libutee/tee_api.c:187
    1374:	34000053 	cbz	w19, 137c <TEE_OpenTASession+0xec>
/home/fangjiang/workspace/optee-os/lib/libutee/tee_api.c:188
    1378:	b9000fff 	str	wzr, [sp, #12]
/home/fangjiang/workspace/optee-os/lib/libutee/tee_api.c:192
    137c:	b0000066 	adrp	x6, e000 <_DYNAMIC>
/home/fangjiang/workspace/optee-os/lib/libutee/tee_api.c:190
    1380:	b9400fe0 	ldr	w0, [sp, #12]
    1384:	f90002a0 	str	x0, [x21]
/home/fangjiang/workspace/optee-os/lib/libutee/tee_api.c:192
    1388:	f94098c6 	ldr	x6, [x6, #304]
    138c:	f94047e0 	ldr	x0, [sp, #136]
    1390:	f94000c1 	ldr	x1, [x6]
    1394:	eb010000 	subs	x0, x0, x1
    1398:	d2800001 	mov	x1, #0x0                   	// #0
    139c:	54000040 	b.eq	13a4 <TEE_OpenTASession+0x114>  // b.none
    13a0:	94001eee 	bl	8f58 <__stack_chk_fail>
    13a4:	2a1303e0 	mov	w0, w19
    13a8:	a9497bfd 	ldp	x29, x30, [sp, #144]
    13ac:	a94a53f3 	ldp	x19, x20, [sp, #160]
    13b0:	a94b5bf5 	ldp	x21, x22, [sp, #176]
    13b4:	a94c63f7 	ldp	x23, x24, [sp, #192]
    13b8:	a94d6bf9 	ldp	x25, x26, [sp, #208]
    13bc:	910383ff 	add	sp, sp, #0xe0
    13c0:	d65f03c0 	ret

00000000000013c4 <TEE_InvokeTACommand>:
TEE_InvokeTACommand():
/home/fangjiang/workspace/optee-os/lib/libutee/tee_api.c:209
    13c4:	d10383ff 	sub	sp, sp, #0xe0
    13c8:	b0000066 	adrp	x6, e000 <_DYNAMIC>
    13cc:	a9097bfd 	stp	x29, x30, [sp, #144]
    13d0:	910243fd 	add	x29, sp, #0x90
    13d4:	f94098c6 	ldr	x6, [x6, #304]
    13d8:	a90a53f3 	stp	x19, x20, [sp, #160]
    13dc:	2a0303f3 	mov	w19, w3
    13e0:	a90b5bf5 	stp	x21, x22, [sp, #176]
    13e4:	aa0003f6 	mov	x22, x0
    13e8:	aa0403f5 	mov	x21, x4
    13ec:	a90c63f7 	stp	x23, x24, [sp, #192]
    13f0:	aa0503f4 	mov	x20, x5
    13f4:	2a0103f7 	mov	w23, w1
    13f8:	a90d6bf9 	stp	x25, x26, [sp, #208]
    13fc:	2a0203f8 	mov	w24, w2
    1400:	f94000c0 	ldr	x0, [x6]
    1404:	f90047e0 	str	x0, [sp, #136]
    1408:	d2800000 	mov	x0, #0x0                   	// #0
/home/fangjiang/workspace/optee-os/lib/libutee/tee_api.c:214
    140c:	a9017fff 	stp	xzr, xzr, [sp, #16]
/home/fangjiang/workspace/optee-os/lib/libutee/tee_api.c:211
    1410:	52800060 	mov	w0, #0x3                   	// #3
    1414:	b9000fe0 	str	w0, [sp, #12]
/home/fangjiang/workspace/optee-os/lib/libutee/tee_api.c:215
    1418:	a9027fff 	stp	xzr, xzr, [sp, #32]
    141c:	a9037fff 	stp	xzr, xzr, [sp, #48]
/home/fangjiang/workspace/optee-os/lib/libutee/tee_api.c:217
    1420:	34000083 	cbz	w3, 1430 <TEE_InvokeTACommand+0x6c>
/home/fangjiang/workspace/optee-os/lib/libutee/tee_api.c:218
    1424:	aa0403e0 	mov	x0, x4
    1428:	d2800801 	mov	x1, #0x40                  	// #64
    142c:	940008ab 	bl	36d8 <__utee_check_inout_annotation>
/home/fangjiang/workspace/optee-os/lib/libutee/tee_api.c:221
    1430:	b4000094 	cbz	x20, 1440 <TEE_InvokeTACommand+0x7c>
/home/fangjiang/workspace/optee-os/lib/libutee/tee_api.c:222
    1434:	aa1403e0 	mov	x0, x20
    1438:	d2800081 	mov	x1, #0x4                   	// #4
    143c:	94000896 	bl	3694 <__utee_check_out_annotation>
/home/fangjiang/workspace/optee-os/lib/libutee/tee_api.c:225
    1440:	910083fa 	add	x26, sp, #0x20
    1444:	910103f9 	add	x25, sp, #0x40
    1448:	2a1303e1 	mov	w1, w19
    144c:	aa1a03e5 	mov	x5, x26
    1450:	910063e4 	add	x4, sp, #0x18
    1454:	910043e3 	add	x3, sp, #0x10
    1458:	aa1503e2 	mov	x2, x21
    145c:	aa1903e0 	mov	x0, x25
    1460:	97ffff09 	bl	1084 <copy_param>
    1464:	2a0003f3 	mov	w19, w0
/home/fangjiang/workspace/optee-os/lib/libutee/tee_api.c:226
    1468:	35000240 	cbnz	w0, 14b0 <TEE_InvokeTACommand+0xec>
/home/fangjiang/workspace/optee-os/lib/libutee/tee_api.c:228
    146c:	910033e4 	add	x4, sp, #0xc
    1470:	aa1903e3 	mov	x3, x25
    1474:	2a1803e2 	mov	w2, w24
    1478:	2a1703e1 	mov	w1, w23
    147c:	aa1603e0 	mov	x0, x22
    1480:	97fffb9f 	bl	2fc <_utee_invoke_ta_command>
/home/fangjiang/workspace/optee-os/lib/libutee/tee_api.c:231
    1484:	aa1903e2 	mov	x2, x25
/home/fangjiang/workspace/optee-os/lib/libutee/tee_api.c:228
    1488:	2a0003f3 	mov	w19, w0
/home/fangjiang/workspace/optee-os/lib/libutee/tee_api.c:231
    148c:	aa1a03e1 	mov	x1, x26
    1490:	aa1503e0 	mov	x0, x21
    1494:	97fffe75 	bl	e68 <update_out_param>
/home/fangjiang/workspace/optee-os/lib/libutee/tee_api.c:232
    1498:	f9400be0 	ldr	x0, [sp, #16]
    149c:	b40000a0 	cbz	x0, 14b0 <TEE_InvokeTACommand+0xec>
/home/fangjiang/workspace/optee-os/lib/libutee/tee_api.c:233
    14a0:	f9400fe1 	ldr	x1, [sp, #24]
    14a4:	940008dd 	bl	3818 <tee_unmap>
/home/fangjiang/workspace/optee-os/lib/libutee/tee_api.c:235
    14a8:	34000040 	cbz	w0, 14b0 <TEE_InvokeTACommand+0xec>
/home/fangjiang/workspace/optee-os/lib/libutee/tee_api.c:236
    14ac:	94000842 	bl	35b4 <TEE_Panic>
/home/fangjiang/workspace/optee-os/lib/libutee/tee_api.c:241
    14b0:	b9400fe0 	ldr	w0, [sp, #12]
/home/fangjiang/workspace/optee-os/lib/libutee/tee_api.c:240
    14b4:	b4000054 	cbz	x20, 14bc <TEE_InvokeTACommand+0xf8>
/home/fangjiang/workspace/optee-os/lib/libutee/tee_api.c:241
    14b8:	b9000280 	str	w0, [x20]
/home/fangjiang/workspace/optee-os/lib/libutee/tee_api.c:243
    14bc:	7100101f 	cmp	w0, #0x4
    14c0:	54000140 	b.eq	14e8 <TEE_InvokeTACommand+0x124>  // b.none
/home/fangjiang/workspace/optee-os/lib/libutee/tee_api.c:246
    14c4:	7100027f 	cmp	w19, #0x0
    14c8:	129ffe60 	mov	w0, #0xffff000c            	// #-65524
    14cc:	7a401264 	ccmp	w19, w0, #0x4, ne  // ne = any
    14d0:	540000c0 	b.eq	14e8 <TEE_InvokeTACommand+0x124>  // b.none
/home/fangjiang/workspace/optee-os/lib/libutee/tee_api.c:247
    14d4:	1299fb60 	mov	w0, #0xffff3024            	// #-53212
    14d8:	6b00027f 	cmp	w19, w0
    14dc:	54000060 	b.eq	14e8 <TEE_InvokeTACommand+0x124>  // b.none
/home/fangjiang/workspace/optee-os/lib/libutee/tee_api.c:249
    14e0:	2a1303e0 	mov	w0, w19
    14e4:	94000834 	bl	35b4 <TEE_Panic>
/home/fangjiang/workspace/optee-os/lib/libutee/tee_api.c:252
    14e8:	b0000066 	adrp	x6, e000 <_DYNAMIC>
    14ec:	f94098c6 	ldr	x6, [x6, #304]
    14f0:	f94047e0 	ldr	x0, [sp, #136]
    14f4:	f94000c1 	ldr	x1, [x6]
    14f8:	eb010000 	subs	x0, x0, x1
    14fc:	d2800001 	mov	x1, #0x0                   	// #0
    1500:	54000040 	b.eq	1508 <TEE_InvokeTACommand+0x144>  // b.none
    1504:	94001e95 	bl	8f58 <__stack_chk_fail>
    1508:	2a1303e0 	mov	w0, w19
    150c:	a9497bfd 	ldp	x29, x30, [sp, #144]
    1510:	a94a53f3 	ldp	x19, x20, [sp, #160]
    1514:	a94b5bf5 	ldp	x21, x22, [sp, #176]
    1518:	a94c63f7 	ldp	x23, x24, [sp, #192]
    151c:	a94d6bf9 	ldp	x25, x26, [sp, #208]
    1520:	910383ff 	add	sp, sp, #0xe0
    1524:	d65f03c0 	ret

0000000000001528 <TEE_SetInstanceData>:
TEE_SetInstanceData():
/home/fangjiang/workspace/optee-os/lib/libutee/tee_api.c:313
    1528:	b0000061 	adrp	x1, e000 <_DYNAMIC>
    152c:	f9024c20 	str	x0, [x1, #1176]
/home/fangjiang/workspace/optee-os/lib/libutee/tee_api.c:314
    1530:	d65f03c0 	ret

0000000000001534 <TEE_GetInstanceData>:
TEE_GetInstanceData():
/home/fangjiang/workspace/optee-os/lib/libutee/tee_api.c:319
    1534:	b0000060 	adrp	x0, e000 <_DYNAMIC>
    1538:	f9424c00 	ldr	x0, [x0, #1176]
    153c:	d65f03c0 	ret

0000000000001540 <TEE_MemMove>:
TEE_MemMove():
/home/fangjiang/workspace/optee-os/lib/libutee/tee_api.c:323
    1540:	2a0203e2 	mov	w2, w2
    1544:	14001e86 	b	8f5c <memmove>

0000000000001548 <TEE_MemCompare>:
TEE_MemCompare():
/home/fangjiang/workspace/optee-os/lib/libutee/tee_api.c:328
    1548:	2a0203e2 	mov	w2, w2
    154c:	14002360 	b	a2cc <consttime_memcmp>

0000000000001550 <TEE_MemFill>:
TEE_MemFill():
/home/fangjiang/workspace/optee-os/lib/libutee/tee_api.c:333
    1550:	2a0203e2 	mov	w2, w2
    1554:	14001e99 	b	8fb8 <memset>

0000000000001558 <TEE_GetSystemTime>:
TEE_GetSystemTime():
/home/fangjiang/workspace/optee-os/lib/libutee/tee_api.c:339
    1558:	a9bf7bfd 	stp	x29, x30, [sp, #-16]!
/home/fangjiang/workspace/optee-os/lib/libutee/tee_api.c:340
    155c:	aa0003e1 	mov	x1, x0
    1560:	d2800000 	mov	x0, #0x0                   	// #0
/home/fangjiang/workspace/optee-os/lib/libutee/tee_api.c:339
    1564:	910003fd 	mov	x29, sp
/home/fangjiang/workspace/optee-os/lib/libutee/tee_api.c:340
    1568:	97fffb77 	bl	344 <_utee_get_time>
/home/fangjiang/workspace/optee-os/lib/libutee/tee_api.c:342
    156c:	34000060 	cbz	w0, 1578 <TEE_GetSystemTime+0x20>
/home/fangjiang/workspace/optee-os/lib/libutee/tee_api.c:344
    1570:	a8c17bfd 	ldp	x29, x30, [sp], #16
/home/fangjiang/workspace/optee-os/lib/libutee/tee_api.c:343
    1574:	14000810 	b	35b4 <TEE_Panic>
/home/fangjiang/workspace/optee-os/lib/libutee/tee_api.c:344
    1578:	a8c17bfd 	ldp	x29, x30, [sp], #16
    157c:	d65f03c0 	ret

0000000000001580 <TEE_Wait>:
TEE_Wait():
/home/fangjiang/workspace/optee-os/lib/libutee/tee_api.c:347
    1580:	a9be7bfd 	stp	x29, x30, [sp, #-32]!
/home/fangjiang/workspace/optee-os/lib/libutee/tee_api.c:348
    1584:	2a0003e0 	mov	w0, w0
/home/fangjiang/workspace/optee-os/lib/libutee/tee_api.c:347
    1588:	910003fd 	mov	x29, sp
    158c:	f9000bf3 	str	x19, [sp, #16]
/home/fangjiang/workspace/optee-os/lib/libutee/tee_api.c:348
    1590:	97fffb6a 	bl	338 <_utee_wait>
/home/fangjiang/workspace/optee-os/lib/libutee/tee_api.c:350
    1594:	7100001f 	cmp	w0, #0x0
    1598:	129fffa1 	mov	w1, #0xffff0002            	// #-65534
/home/fangjiang/workspace/optee-os/lib/libutee/tee_api.c:348
    159c:	2a0003f3 	mov	w19, w0
/home/fangjiang/workspace/optee-os/lib/libutee/tee_api.c:350
    15a0:	7a411004 	ccmp	w0, w1, #0x4, ne  // ne = any
    15a4:	54000040 	b.eq	15ac <TEE_Wait+0x2c>  // b.none
/home/fangjiang/workspace/optee-os/lib/libutee/tee_api.c:351
    15a8:	94000803 	bl	35b4 <TEE_Panic>
/home/fangjiang/workspace/optee-os/lib/libutee/tee_api.c:354
    15ac:	2a1303e0 	mov	w0, w19
    15b0:	f9400bf3 	ldr	x19, [sp, #16]
    15b4:	a8c27bfd 	ldp	x29, x30, [sp], #32
    15b8:	d65f03c0 	ret

00000000000015bc <TEE_GetTAPersistentTime>:
TEE_GetTAPersistentTime():
/home/fangjiang/workspace/optee-os/lib/libutee/tee_api.c:357
    15bc:	a9be7bfd 	stp	x29, x30, [sp, #-32]!
/home/fangjiang/workspace/optee-os/lib/libutee/tee_api.c:360
    15c0:	aa0003e1 	mov	x1, x0
/home/fangjiang/workspace/optee-os/lib/libutee/tee_api.c:357
    15c4:	910003fd 	mov	x29, sp
    15c8:	a90153f3 	stp	x19, x20, [sp, #16]
    15cc:	aa0003f4 	mov	x20, x0
/home/fangjiang/workspace/optee-os/lib/libutee/tee_api.c:360
    15d0:	d2800020 	mov	x0, #0x1                   	// #1
    15d4:	97fffb5c 	bl	344 <_utee_get_time>
/home/fangjiang/workspace/optee-os/lib/libutee/tee_api.c:362
    15d8:	7100001f 	cmp	w0, #0x0
/home/fangjiang/workspace/optee-os/lib/libutee/tee_api.c:360
    15dc:	2a0003f3 	mov	w19, w0
/home/fangjiang/workspace/optee-os/lib/libutee/tee_api.c:362
    15e0:	1a9f07e2 	cset	w2, ne  // ne = any
    15e4:	1299fe00 	mov	w0, #0xffff300f            	// #-53233
    15e8:	6b00027f 	cmp	w19, w0
    15ec:	1a9f07e0 	cset	w0, ne  // ne = any
    15f0:	6a000040 	ands	w0, w2, w0
    15f4:	54000040 	b.eq	15fc <TEE_GetTAPersistentTime+0x40>  // b.none
/home/fangjiang/workspace/optee-os/lib/libutee/tee_api.c:364
    15f8:	29007e9f 	stp	wzr, wzr, [x20]
/home/fangjiang/workspace/optee-os/lib/libutee/tee_api.c:368
    15fc:	11402e61 	add	w1, w19, #0xb, lsl #12
/home/fangjiang/workspace/optee-os/lib/libutee/tee_api.c:367
    1600:	7100005f 	cmp	w2, #0x0
    1604:	7a411820 	ccmp	w1, #0x1, #0x0, ne  // ne = any
    1608:	540000e9 	b.ls	1624 <TEE_GetTAPersistentTime+0x68>  // b.plast
/home/fangjiang/workspace/optee-os/lib/libutee/tee_api.c:369
    160c:	340000c0 	cbz	w0, 1624 <TEE_GetTAPersistentTime+0x68>
/home/fangjiang/workspace/optee-os/lib/libutee/tee_api.c:370
    1610:	129ffe60 	mov	w0, #0xffff000c            	// #-65524
    1614:	6b00027f 	cmp	w19, w0
    1618:	54000060 	b.eq	1624 <TEE_GetTAPersistentTime+0x68>  // b.none
/home/fangjiang/workspace/optee-os/lib/libutee/tee_api.c:372
    161c:	2a1303e0 	mov	w0, w19
    1620:	940007e5 	bl	35b4 <TEE_Panic>
/home/fangjiang/workspace/optee-os/lib/libutee/tee_api.c:375
    1624:	2a1303e0 	mov	w0, w19
    1628:	a94153f3 	ldp	x19, x20, [sp, #16]
    162c:	a8c27bfd 	ldp	x29, x30, [sp], #32
    1630:	d65f03c0 	ret

0000000000001634 <TEE_SetTAPersistentTime>:
TEE_SetTAPersistentTime():
/home/fangjiang/workspace/optee-os/lib/libutee/tee_api.c:378
    1634:	a9be7bfd 	stp	x29, x30, [sp, #-32]!
    1638:	910003fd 	mov	x29, sp
    163c:	f9000bf3 	str	x19, [sp, #16]
/home/fangjiang/workspace/optee-os/lib/libutee/tee_api.c:381
    1640:	97fffb44 	bl	350 <_utee_set_ta_time>
/home/fangjiang/workspace/optee-os/lib/libutee/tee_api.c:383
    1644:	7100001f 	cmp	w0, #0x0
    1648:	129ffe61 	mov	w1, #0xffff000c            	// #-65524
/home/fangjiang/workspace/optee-os/lib/libutee/tee_api.c:381
    164c:	2a0003f3 	mov	w19, w0
/home/fangjiang/workspace/optee-os/lib/libutee/tee_api.c:383
    1650:	7a411004 	ccmp	w0, w1, #0x4, ne  // ne = any
    1654:	540000a0 	b.eq	1668 <TEE_SetTAPersistentTime+0x34>  // b.none
/home/fangjiang/workspace/optee-os/lib/libutee/tee_api.c:384
    1658:	1299f7c1 	mov	w1, #0xffff3041            	// #-53183
    165c:	6b01001f 	cmp	w0, w1
    1660:	54000040 	b.eq	1668 <TEE_SetTAPersistentTime+0x34>  // b.none
/home/fangjiang/workspace/optee-os/lib/libutee/tee_api.c:386
    1664:	940007d4 	bl	35b4 <TEE_Panic>
/home/fangjiang/workspace/optee-os/lib/libutee/tee_api.c:389
    1668:	2a1303e0 	mov	w0, w19
    166c:	f9400bf3 	ldr	x19, [sp, #16]
    1670:	a8c27bfd 	ldp	x29, x30, [sp], #32
    1674:	d65f03c0 	ret

0000000000001678 <TEE_GetREETime>:
TEE_GetREETime():
/home/fangjiang/workspace/optee-os/lib/libutee/tee_api.c:392
    1678:	a9bf7bfd 	stp	x29, x30, [sp, #-16]!
/home/fangjiang/workspace/optee-os/lib/libutee/tee_api.c:393
    167c:	aa0003e1 	mov	x1, x0
    1680:	d2800040 	mov	x0, #0x2                   	// #2
/home/fangjiang/workspace/optee-os/lib/libutee/tee_api.c:392
    1684:	910003fd 	mov	x29, sp
/home/fangjiang/workspace/optee-os/lib/libutee/tee_api.c:393
    1688:	97fffb2f 	bl	344 <_utee_get_time>
/home/fangjiang/workspace/optee-os/lib/libutee/tee_api.c:395
    168c:	34000060 	cbz	w0, 1698 <TEE_GetREETime+0x20>
/home/fangjiang/workspace/optee-os/lib/libutee/tee_api.c:397
    1690:	a8c17bfd 	ldp	x29, x30, [sp], #16
/home/fangjiang/workspace/optee-os/lib/libutee/tee_api.c:396
    1694:	140007c8 	b	35b4 <TEE_Panic>
/home/fangjiang/workspace/optee-os/lib/libutee/tee_api.c:397
    1698:	a8c17bfd 	ldp	x29, x30, [sp], #16
    169c:	d65f03c0 	ret

00000000000016a0 <TEE_Malloc>:
TEE_Malloc():
/home/fangjiang/workspace/optee-os/lib/libutee/tee_api.c:401
    16a0:	34000300 	cbz	w0, 1700 <TEE_Malloc+0x60>
    16a4:	2a0103e5 	mov	w5, w1
/home/fangjiang/workspace/optee-os/lib/libutee/tee_api.c:404
    16a8:	35000081 	cbnz	w1, 16b8 <TEE_Malloc+0x18>
/home/fangjiang/workspace/optee-os/lib/libutee/tee_api.c:405
    16ac:	2a0003e1 	mov	w1, w0
    16b0:	d2800020 	mov	x0, #0x1                   	// #1
    16b4:	14001d3b 	b	8ba0 <calloc>
/home/fangjiang/workspace/optee-os/lib/libutee/tee_api.c:406
    16b8:	52b00001 	mov	w1, #0x80000000            	// #-2147483648
    16bc:	6b0100bf 	cmp	w5, w1
    16c0:	54000061 	b.ne	16cc <TEE_Malloc+0x2c>  // b.any
/home/fangjiang/workspace/optee-os/lib/libutee/tee_api.c:407
    16c4:	2a0003e0 	mov	w0, w0
    16c8:	14001d30 	b	8b88 <malloc>
/home/fangjiang/workspace/optee-os/lib/libutee/tee_api.c:400
    16cc:	a9bf7bfd 	stp	x29, x30, [sp, #-16]!
/home/fangjiang/workspace/optee-os/lib/libutee/tee_api.c:409
    16d0:	52800023 	mov	w3, #0x1                   	// #1
    16d4:	52800022 	mov	w2, #0x1                   	// #1
/home/fangjiang/workspace/optee-os/lib/libutee/tee_api.c:400
    16d8:	910003fd 	mov	x29, sp
/home/fangjiang/workspace/optee-os/lib/libutee/tee_api.c:409
    16dc:	52803321 	mov	w1, #0x199                 	// #409
    16e0:	f0000044 	adrp	x4, c000 <__text_end+0x1c98>
    16e4:	f0000040 	adrp	x0, c000 <__text_end+0x1c98>
    16e8:	911d4884 	add	x4, x4, #0x752
    16ec:	911d8c00 	add	x0, x0, #0x763
    16f0:	94002257 	bl	a04c <trace_printf>
/home/fangjiang/workspace/optee-os/lib/libutee/tee_api.c:411
    16f4:	d2800000 	mov	x0, #0x0                   	// #0
/home/fangjiang/workspace/optee-os/lib/libutee/tee_api.c:412
    16f8:	a8c17bfd 	ldp	x29, x30, [sp], #16
    16fc:	d65f03c0 	ret
/home/fangjiang/workspace/optee-os/lib/libutee/tee_api.c:402
    1700:	d2800020 	mov	x0, #0x1                   	// #1
/home/fangjiang/workspace/optee-os/lib/libutee/tee_api.c:412
    1704:	d65f03c0 	ret

0000000000001708 <TEE_Free>:
TEE_Free():
/home/fangjiang/workspace/optee-os/lib/libutee/tee_api.c:429
    1708:	f100041f 	cmp	x0, #0x1
    170c:	54000040 	b.eq	1714 <TEE_Free+0xc>  // b.none
/home/fangjiang/workspace/optee-os/lib/libutee/tee_api.c:430
    1710:	14001d38 	b	8bf0 <free>
/home/fangjiang/workspace/optee-os/lib/libutee/tee_api.c:431
    1714:	d65f03c0 	ret

0000000000001718 <TEE_Realloc>:
TEE_Realloc():
/home/fangjiang/workspace/optee-os/lib/libutee/tee_api.c:416
    1718:	340000c1 	cbz	w1, 1730 <TEE_Realloc+0x18>
/home/fangjiang/workspace/optee-os/lib/libutee/tee_api.c:422
    171c:	2a0103e1 	mov	w1, w1
/home/fangjiang/workspace/optee-os/lib/libutee/tee_api.c:421
    1720:	f100041f 	cmp	x0, #0x1
    1724:	54000041 	b.ne	172c <TEE_Realloc+0x14>  // b.any
/home/fangjiang/workspace/optee-os/lib/libutee/tee_api.c:422
    1728:	14001d1e 	b	8ba0 <calloc>
/home/fangjiang/workspace/optee-os/lib/libutee/tee_api.c:424
    172c:	14001d24 	b	8bbc <realloc>
/home/fangjiang/workspace/optee-os/lib/libutee/tee_api.c:415
    1730:	a9bf7bfd 	stp	x29, x30, [sp, #-16]!
    1734:	910003fd 	mov	x29, sp
/home/fangjiang/workspace/optee-os/lib/libutee/tee_api.c:417
    1738:	97fffff4 	bl	1708 <TEE_Free>
/home/fangjiang/workspace/optee-os/lib/libutee/tee_api.c:425
    173c:	d2800020 	mov	x0, #0x1                   	// #1
    1740:	a8c17bfd 	ldp	x29, x30, [sp], #16
    1744:	d65f03c0 	ret

0000000000001748 <TEE_CacheClean>:
TEE_CacheClean():
/home/fangjiang/workspace/optee-os/lib/libutee/tee_api.c:436
    1748:	d2800002 	mov	x2, #0x0                   	// #0
    174c:	17fffb7c 	b	53c <_utee_cache_operation>

0000000000001750 <TEE_CacheFlush>:
TEE_CacheFlush():
/home/fangjiang/workspace/optee-os/lib/libutee/tee_api.c:440
    1750:	d2800022 	mov	x2, #0x1                   	// #1
    1754:	17fffb7a 	b	53c <_utee_cache_operation>

0000000000001758 <TEE_CacheInvalidate>:
TEE_CacheInvalidate():
/home/fangjiang/workspace/optee-os/lib/libutee/tee_api.c:445
    1758:	d2800042 	mov	x2, #0x2                   	// #2
    175c:	17fffb78 	b	53c <_utee_cache_operation>

0000000000001760 <api_panic>:
api_panic():
/home/fangjiang/workspace/optee-os/lib/libutee/tee_api_arith_mpi.c:19
    1760:	a9bf7bfd 	stp	x29, x30, [sp, #-16]!
/home/fangjiang/workspace/optee-os/lib/libutee/tee_api_arith_mpi.c:20
    1764:	aa0203e3 	mov	x3, x2
    1768:	2a0103e2 	mov	w2, w1
    176c:	aa0003e1 	mov	x1, x0
/home/fangjiang/workspace/optee-os/lib/libutee/tee_api_arith_mpi.c:19
    1770:	910003fd 	mov	x29, sp
/home/fangjiang/workspace/optee-os/lib/libutee/tee_api_arith_mpi.c:20
    1774:	f0000040 	adrp	x0, c000 <__text_end+0x1c98>
    1778:	911db800 	add	x0, x0, #0x76e
    177c:	97fffd4d 	bl	cb0 <printf>
/home/fangjiang/workspace/optee-os/lib/libutee/tee_api_arith_mpi.c:21
    1780:	528c24e0 	mov	w0, #0x6127                	// #24871
    1784:	72a01620 	movk	w0, #0xb1, lsl #16
    1788:	9400078b 	bl	35b4 <TEE_Panic>
/home/fangjiang/workspace/optee-os/lib/libutee/tee_api_arith_mpi.c:22 (discriminator 1)
    178c:	14000000 	b	178c <api_panic+0x2c>

0000000000001790 <mpi_panic>:
mpi_panic():
/home/fangjiang/workspace/optee-os/lib/libutee/tee_api_arith_mpi.c:29
    1790:	a9bf7bfd 	stp	x29, x30, [sp, #-16]!
/home/fangjiang/workspace/optee-os/lib/libutee/tee_api_arith_mpi.c:30
    1794:	2a0203e3 	mov	w3, w2
    1798:	2a0103e2 	mov	w2, w1
    179c:	aa0003e1 	mov	x1, x0
/home/fangjiang/workspace/optee-os/lib/libutee/tee_api_arith_mpi.c:29
    17a0:	910003fd 	mov	x29, sp
/home/fangjiang/workspace/optee-os/lib/libutee/tee_api_arith_mpi.c:30
    17a4:	f0000040 	adrp	x0, c000 <__text_end+0x1c98>
    17a8:	911e3800 	add	x0, x0, #0x78e
    17ac:	97fffd41 	bl	cb0 <printf>
/home/fangjiang/workspace/optee-os/lib/libutee/tee_api_arith_mpi.c:31
    17b0:	528c24e0 	mov	w0, #0x6127                	// #24871
    17b4:	72a01620 	movk	w0, #0xb1, lsl #16
    17b8:	9400077f 	bl	35b4 <TEE_Panic>
/home/fangjiang/workspace/optee-os/lib/libutee/tee_api_arith_mpi.c:32 (discriminator 1)
    17bc:	14000000 	b	17bc <mpi_panic+0x2c>

00000000000017c0 <get_mpi>:
get_mpi():
/home/fangjiang/workspace/optee-os/lib/libutee/tee_api_arith_mpi.c:86
    17c0:	a9bd7bfd 	stp	x29, x30, [sp, #-48]!
    17c4:	910003fd 	mov	x29, sp
    17c8:	a90153f3 	stp	x19, x20, [sp, #16]
    17cc:	aa0103f3 	mov	x19, x1
    17d0:	a9025bf5 	stp	x21, x22, [sp, #32]
    17d4:	aa0003f5 	mov	x21, x0
/home/fangjiang/workspace/optee-os/lib/libutee/tee_api_arith_mpi.c:101
    17d8:	94000b73 	bl	45a4 <mbedtls_mpi_init_mempool>
/home/fangjiang/workspace/optee-os/lib/libutee/tee_api_arith_mpi.c:103
    17dc:	b4000373 	cbz	x19, 1848 <get_mpi+0x88>
/home/fangjiang/workspace/optee-os/lib/libutee/tee_api_arith_mpi.c:106
    17e0:	79400e74 	ldrh	w20, [x19, #6]
/home/fangjiang/workspace/optee-os/lib/libutee/tee_api_arith_mpi.c:105
    17e4:	91002276 	add	x22, x19, #0x8
/home/fangjiang/workspace/optee-os/lib/libutee/tee_api_arith_mpi.c:109
    17e8:	91001261 	add	x1, x19, #0x4
    17ec:	b4000074 	cbz	x20, 17f8 <get_mpi+0x38>
/home/fangjiang/workspace/optee-os/lib/libutee/tee_api_arith_mpi.c:109 (discriminator 1)
    17f0:	b8747820 	ldr	w0, [x1, x20, lsl #2]
    17f4:	34000140 	cbz	w0, 181c <get_mpi+0x5c>
/home/fangjiang/workspace/optee-os/lib/libutee/tee_api_arith_mpi.c:112
    17f8:	aa1403e1 	mov	x1, x20
    17fc:	aa1503e0 	mov	x0, x21
    1800:	94000b8e 	bl	4638 <mbedtls_mpi_grow>
    1804:	2a0003e2 	mov	w2, w0
    1808:	340000e0 	cbz	w0, 1824 <get_mpi+0x64>
/home/fangjiang/workspace/optee-os/lib/libutee/tee_api_arith_mpi.c:112 (discriminator 1)
    180c:	f0000040 	adrp	x0, c000 <__text_end+0x1c98>
    1810:	52800e01 	mov	w1, #0x70                  	// #112
    1814:	91209400 	add	x0, x0, #0x825
    1818:	97ffffde 	bl	1790 <mpi_panic>
/home/fangjiang/workspace/optee-os/lib/libutee/tee_api_arith_mpi.c:110
    181c:	d1000694 	sub	x20, x20, #0x1
    1820:	17fffff3 	b	17ec <get_mpi+0x2c>
/home/fangjiang/workspace/optee-os/lib/libutee/tee_api_arith_mpi.c:113 (discriminator 2)
    1824:	b9400260 	ldr	w0, [x19]
/home/fangjiang/workspace/optee-os/lib/libutee/tee_api_arith_mpi.c:114 (discriminator 2)
    1828:	d37ef682 	lsl	x2, x20, #2
/home/fangjiang/workspace/optee-os/lib/libutee/tee_api_arith_mpi.c:113 (discriminator 2)
    182c:	790002a0 	strh	w0, [x21]
/home/fangjiang/workspace/optee-os/lib/libutee/tee_api_arith_mpi.c:114 (discriminator 2)
    1830:	aa1603e1 	mov	x1, x22
/home/fangjiang/workspace/optee-os/lib/libutee/tee_api_arith_mpi.c:116 (discriminator 2)
    1834:	a94153f3 	ldp	x19, x20, [sp, #16]
/home/fangjiang/workspace/optee-os/lib/libutee/tee_api_arith_mpi.c:114 (discriminator 2)
    1838:	f9400aa0 	ldr	x0, [x21, #16]
/home/fangjiang/workspace/optee-os/lib/libutee/tee_api_arith_mpi.c:116 (discriminator 2)
    183c:	a9425bf5 	ldp	x21, x22, [sp, #32]
    1840:	a8c37bfd 	ldp	x29, x30, [sp], #48
/home/fangjiang/workspace/optee-os/lib/libutee/tee_api_arith_mpi.c:114 (discriminator 2)
    1844:	17fff9f7 	b	20 <memcpy>
/home/fangjiang/workspace/optee-os/lib/libutee/tee_api_arith_mpi.c:116
    1848:	a94153f3 	ldp	x19, x20, [sp, #16]
    184c:	a9425bf5 	ldp	x21, x22, [sp, #32]
    1850:	a8c37bfd 	ldp	x29, x30, [sp], #48
    1854:	d65f03c0 	ret

0000000000001858 <copy_mpi_to_bigint>:
copy_mpi_to_bigint():
/home/fangjiang/workspace/optee-os/lib/libutee/tee_api_arith_mpi.c:61
    1858:	aa0003e4 	mov	x4, x0
    185c:	aa0103e0 	mov	x0, x1
/home/fangjiang/workspace/optee-os/lib/libutee/tee_api_arith_mpi.c:66
    1860:	a9408482 	ldp	x2, x1, [x4, #8]
/home/fangjiang/workspace/optee-os/lib/libutee/tee_api_arith_mpi.c:63
    1864:	aa0203e3 	mov	x3, x2
/home/fangjiang/workspace/optee-os/lib/libutee/tee_api_arith_mpi.c:66
    1868:	b40000e3 	cbz	x3, 1884 <copy_mpi_to_bigint+0x2c>
/home/fangjiang/workspace/optee-os/lib/libutee/tee_api_arith_mpi.c:66 (discriminator 1)
    186c:	8b030825 	add	x5, x1, x3, lsl #2
    1870:	b85fc0a5 	ldur	w5, [x5, #-4]
    1874:	340001c5 	cbz	w5, 18ac <copy_mpi_to_bigint+0x54>
/home/fangjiang/workspace/optee-os/lib/libutee/tee_api_arith_mpi.c:69
    1878:	79400805 	ldrh	w5, [x0, #4]
    187c:	eb0300bf 	cmp	x5, x3
    1880:	540001a3 	b.cc	18b4 <copy_mpi_to_bigint+0x5c>  // b.lo, b.ul, b.last
/home/fangjiang/workspace/optee-os/lib/libutee/tee_api_arith_mpi.c:61
    1884:	a9bf7bfd 	stp	x29, x30, [sp, #-16]!
/home/fangjiang/workspace/optee-os/lib/libutee/tee_api_arith_mpi.c:74
    1888:	d37ef442 	lsl	x2, x2, #2
/home/fangjiang/workspace/optee-os/lib/libutee/tee_api_arith_mpi.c:61
    188c:	910003fd 	mov	x29, sp
/home/fangjiang/workspace/optee-os/lib/libutee/tee_api_arith_mpi.c:72
    1890:	79000c03 	strh	w3, [x0, #6]
/home/fangjiang/workspace/optee-os/lib/libutee/tee_api_arith_mpi.c:73
    1894:	79c00083 	ldrsh	w3, [x4]
    1898:	b8008403 	str	w3, [x0], #8
/home/fangjiang/workspace/optee-os/lib/libutee/tee_api_arith_mpi.c:74
    189c:	97fff9e1 	bl	20 <memcpy>
/home/fangjiang/workspace/optee-os/lib/libutee/tee_api_arith_mpi.c:76
    18a0:	52800000 	mov	w0, #0x0                   	// #0
/home/fangjiang/workspace/optee-os/lib/libutee/tee_api_arith_mpi.c:77
    18a4:	a8c17bfd 	ldp	x29, x30, [sp], #16
    18a8:	d65f03c0 	ret
/home/fangjiang/workspace/optee-os/lib/libutee/tee_api_arith_mpi.c:67
    18ac:	d1000463 	sub	x3, x3, #0x1
    18b0:	17ffffee 	b	1868 <copy_mpi_to_bigint+0x10>
/home/fangjiang/workspace/optee-os/lib/libutee/tee_api_arith_mpi.c:70
    18b4:	1299fe00 	mov	w0, #0xffff300f            	// #-53233
/home/fangjiang/workspace/optee-os/lib/libutee/tee_api_arith_mpi.c:77
    18b8:	d65f03c0 	ret

00000000000018bc <bigint_binary>:
bigint_binary():
/home/fangjiang/workspace/optee-os/lib/libutee/tee_api_arith_mpi.c:319
    18bc:	d10283ff 	sub	sp, sp, #0xa0
    18c0:	b0000064 	adrp	x4, e000 <_DYNAMIC>
    18c4:	a9057bfd 	stp	x29, x30, [sp, #80]
    18c8:	910143fd 	add	x29, sp, #0x50
    18cc:	f9409884 	ldr	x4, [x4, #304]
    18d0:	a90653f3 	stp	x19, x20, [sp, #96]
    18d4:	aa0003f4 	mov	x20, x0
    18d8:	a9075bf5 	stp	x21, x22, [sp, #112]
/home/fangjiang/workspace/optee-os/lib/libutee/tee_api_arith_mpi.c:326
    18dc:	910003f3 	mov	x19, sp
/home/fangjiang/workspace/optee-os/lib/libutee/tee_api_arith_mpi.c:319
    18e0:	aa0203f5 	mov	x21, x2
    18e4:	a90863f7 	stp	x23, x24, [sp, #128]
    18e8:	aa0103f7 	mov	x23, x1
/home/fangjiang/workspace/optee-os/lib/libutee/tee_api_arith_mpi.c:326
    18ec:	aa1403e1 	mov	x1, x20
/home/fangjiang/workspace/optee-os/lib/libutee/tee_api_arith_mpi.c:319
    18f0:	a9096bf9 	stp	x25, x26, [sp, #144]
    18f4:	aa0303f9 	mov	x25, x3
    18f8:	910063fa 	add	x26, sp, #0x18
    18fc:	f9400080 	ldr	x0, [x4]
    1900:	f90027e0 	str	x0, [sp, #72]
    1904:	d2800000 	mov	x0, #0x0                   	// #0
/home/fangjiang/workspace/optee-os/lib/libutee/tee_api_arith_mpi.c:326
    1908:	aa1303e0 	mov	x0, x19
    190c:	97ffffad 	bl	17c0 <get_mpi>
/home/fangjiang/workspace/optee-os/lib/libutee/tee_api_arith_mpi.c:328
    1910:	eb17029f 	cmp	x20, x23
    1914:	54000320 	b.eq	1978 <bigint_binary+0xbc>  // b.none
/home/fangjiang/workspace/optee-os/lib/libutee/tee_api_arith_mpi.c:323
    1918:	aa1a03f6 	mov	x22, x26
/home/fangjiang/workspace/optee-os/lib/libutee/tee_api_arith_mpi.c:331
    191c:	aa1703e1 	mov	x1, x23
    1920:	aa1a03e0 	mov	x0, x26
    1924:	97ffffa7 	bl	17c0 <get_mpi>
/home/fangjiang/workspace/optee-os/lib/libutee/tee_api_arith_mpi.c:333
    1928:	eb15029f 	cmp	x20, x21
    192c:	9100c3f8 	add	x24, sp, #0x30
    1930:	54000280 	b.eq	1980 <bigint_binary+0xc4>  // b.none
/home/fangjiang/workspace/optee-os/lib/libutee/tee_api_arith_mpi.c:335
    1934:	eb1502ff 	cmp	x23, x21
    1938:	54000280 	b.eq	1988 <bigint_binary+0xcc>  // b.none
/home/fangjiang/workspace/optee-os/lib/libutee/tee_api_arith_mpi.c:338
    193c:	aa1503e1 	mov	x1, x21
/home/fangjiang/workspace/optee-os/lib/libutee/tee_api_arith_mpi.c:324
    1940:	aa1803f5 	mov	x21, x24
/home/fangjiang/workspace/optee-os/lib/libutee/tee_api_arith_mpi.c:338
    1944:	aa1803e0 	mov	x0, x24
    1948:	97ffff9e 	bl	17c0 <get_mpi>
/home/fangjiang/workspace/optee-os/lib/libutee/tee_api_arith_mpi.c:340
    194c:	aa1503e2 	mov	x2, x21
    1950:	aa1603e1 	mov	x1, x22
    1954:	aa1303e0 	mov	x0, x19
    1958:	d63f0320 	blr	x25
    195c:	2a0003e2 	mov	w2, w0
    1960:	34000180 	cbz	w0, 1990 <bigint_binary+0xd4>
/home/fangjiang/workspace/optee-os/lib/libutee/tee_api_arith_mpi.c:340 (discriminator 1)
    1964:	52802a81 	mov	w1, #0x154                 	// #340
/home/fangjiang/workspace/optee-os/lib/libutee/tee_api_arith_mpi.c:342 (discriminator 1)
    1968:	f0000040 	adrp	x0, c000 <__text_end+0x1c98>
    196c:	91209400 	add	x0, x0, #0x825
    1970:	91002000 	add	x0, x0, #0x8
    1974:	97ffff87 	bl	1790 <mpi_panic>
/home/fangjiang/workspace/optee-os/lib/libutee/tee_api_arith_mpi.c:329
    1978:	aa1303f6 	mov	x22, x19
    197c:	17ffffeb 	b	1928 <bigint_binary+0x6c>
/home/fangjiang/workspace/optee-os/lib/libutee/tee_api_arith_mpi.c:334
    1980:	aa1303f5 	mov	x21, x19
    1984:	17fffff2 	b	194c <bigint_binary+0x90>
/home/fangjiang/workspace/optee-os/lib/libutee/tee_api_arith_mpi.c:336
    1988:	aa1603f5 	mov	x21, x22
    198c:	17fffff0 	b	194c <bigint_binary+0x90>
/home/fangjiang/workspace/optee-os/lib/libutee/tee_api_arith_mpi.c:342 (discriminator 2)
    1990:	aa1403e1 	mov	x1, x20
    1994:	aa1303e0 	mov	x0, x19
    1998:	97ffffb0 	bl	1858 <copy_mpi_to_bigint>
    199c:	2a0003e2 	mov	w2, w0
    19a0:	34000060 	cbz	w0, 19ac <bigint_binary+0xf0>
/home/fangjiang/workspace/optee-os/lib/libutee/tee_api_arith_mpi.c:342 (discriminator 1)
    19a4:	52802ac1 	mov	w1, #0x156                 	// #342
    19a8:	17fffff0 	b	1968 <bigint_binary+0xac>
/home/fangjiang/workspace/optee-os/lib/libutee/tee_api_arith_mpi.c:343 (discriminator 2)
    19ac:	aa1303e0 	mov	x0, x19
    19b0:	94000b07 	bl	45cc <mbedtls_mpi_free>
/home/fangjiang/workspace/optee-os/lib/libutee/tee_api_arith_mpi.c:344 (discriminator 2)
    19b4:	eb1a02df 	cmp	x22, x26
    19b8:	54000061 	b.ne	19c4 <bigint_binary+0x108>  // b.any
/home/fangjiang/workspace/optee-os/lib/libutee/tee_api_arith_mpi.c:345
    19bc:	aa1603e0 	mov	x0, x22
    19c0:	94000b03 	bl	45cc <mbedtls_mpi_free>
/home/fangjiang/workspace/optee-os/lib/libutee/tee_api_arith_mpi.c:346
    19c4:	eb1802bf 	cmp	x21, x24
    19c8:	54000061 	b.ne	19d4 <bigint_binary+0x118>  // b.any
/home/fangjiang/workspace/optee-os/lib/libutee/tee_api_arith_mpi.c:347
    19cc:	aa1503e0 	mov	x0, x21
    19d0:	94000aff 	bl	45cc <mbedtls_mpi_free>
/home/fangjiang/workspace/optee-os/lib/libutee/tee_api_arith_mpi.c:348
    19d4:	b0000064 	adrp	x4, e000 <_DYNAMIC>
    19d8:	f9409884 	ldr	x4, [x4, #304]
    19dc:	f94027e0 	ldr	x0, [sp, #72]
    19e0:	f9400081 	ldr	x1, [x4]
    19e4:	eb010000 	subs	x0, x0, x1
    19e8:	d2800001 	mov	x1, #0x0                   	// #0
    19ec:	54000040 	b.eq	19f4 <bigint_binary+0x138>  // b.none
    19f0:	94001d5a 	bl	8f58 <__stack_chk_fail>
    19f4:	a9457bfd 	ldp	x29, x30, [sp, #80]
    19f8:	a94653f3 	ldp	x19, x20, [sp, #96]
    19fc:	a9475bf5 	ldp	x21, x22, [sp, #112]
    1a00:	a94863f7 	ldp	x23, x24, [sp, #128]
    1a04:	a9496bf9 	ldp	x25, x26, [sp, #144]
    1a08:	910283ff 	add	sp, sp, #0xa0
    1a0c:	d65f03c0 	ret

0000000000001a10 <mpi_is_odd>:
mpi_is_odd():
/home/fangjiang/workspace/optee-os/lib/libutee/tee_api_arith_mpi.c:591
    1a10:	a9bf7bfd 	stp	x29, x30, [sp, #-16]!
/home/fangjiang/workspace/optee-os/lib/libutee/tee_api_arith_mpi.c:592
    1a14:	d2800001 	mov	x1, #0x0                   	// #0
/home/fangjiang/workspace/optee-os/lib/libutee/tee_api_arith_mpi.c:591
    1a18:	910003fd 	mov	x29, sp
/home/fangjiang/workspace/optee-os/lib/libutee/tee_api_arith_mpi.c:592
    1a1c:	94000c7d 	bl	4c10 <mbedtls_mpi_get_bit>
    1a20:	7100001f 	cmp	w0, #0x0
/home/fangjiang/workspace/optee-os/lib/libutee/tee_api_arith_mpi.c:593
    1a24:	1a9f07e0 	cset	w0, ne  // ne = any
    1a28:	a8c17bfd 	ldp	x29, x30, [sp], #16
    1a2c:	d65f03c0 	ret

0000000000001a30 <rng_read>:
rng_read():
/home/fangjiang/workspace/optee-os/lib/libutee/tee_api_arith_mpi.c:756
    1a30:	a9bf7bfd 	stp	x29, x30, [sp, #-16]!
    1a34:	aa0103e0 	mov	x0, x1
    1a38:	aa0203e1 	mov	x1, x2
    1a3c:	910003fd 	mov	x29, sp
/home/fangjiang/workspace/optee-os/lib/libutee/tee_api_arith_mpi.c:757
    1a40:	97fffa7d 	bl	434 <_utee_cryp_random_number_generate>
/home/fangjiang/workspace/optee-os/lib/libutee/tee_api_arith_mpi.c:758
    1a44:	7100001f 	cmp	w0, #0x0
/home/fangjiang/workspace/optee-os/lib/libutee/tee_api_arith_mpi.c:760
    1a48:	a8c17bfd 	ldp	x29, x30, [sp], #16
    1a4c:	12800020 	mov	w0, #0xfffffffe            	// #-2
    1a50:	1a9f1000 	csel	w0, w0, wzr, ne  // ne = any
    1a54:	d65f03c0 	ret

0000000000001a58 <mpi_egcd>:
mpi_egcd():
/home/fangjiang/workspace/optee-os/lib/libutee/tee_api_arith_mpi.c:606
    1a58:	d10483ff 	sub	sp, sp, #0x120
    1a5c:	a90c7bfd 	stp	x29, x30, [sp, #192]
    1a60:	910303fd 	add	x29, sp, #0xc0
    1a64:	a90e5bf5 	stp	x21, x22, [sp, #224]
    1a68:	aa0003f5 	mov	x21, x0
    1a6c:	b0000060 	adrp	x0, e000 <_DYNAMIC>
    1a70:	a90013e2 	stp	x2, x4, [sp]
get_mpi():
/home/fangjiang/workspace/optee-os/lib/libutee/tee_api_arith_mpi.c:101
    1a74:	910283f6 	add	x22, sp, #0xa0
mpi_egcd():
/home/fangjiang/workspace/optee-os/lib/libutee/tee_api_arith_mpi.c:606
    1a78:	f9409800 	ldr	x0, [x0, #304]
    1a7c:	a90d53f3 	stp	x19, x20, [sp, #208]
get_mpi():
/home/fangjiang/workspace/optee-os/lib/libutee/tee_api_arith_mpi.c:101
    1a80:	910103f4 	add	x20, sp, #0x40
mpi_egcd():
/home/fangjiang/workspace/optee-os/lib/libutee/tee_api_arith_mpi.c:606
    1a84:	a90f63f7 	stp	x23, x24, [sp, #240]
get_mpi():
/home/fangjiang/workspace/optee-os/lib/libutee/tee_api_arith_mpi.c:101
    1a88:	910043f8 	add	x24, sp, #0x10
    1a8c:	9100a3f7 	add	x23, sp, #0x28
mpi_egcd():
/home/fangjiang/workspace/optee-os/lib/libutee/tee_api_arith_mpi.c:606
    1a90:	a9106bf9 	stp	x25, x26, [sp, #256]
get_mpi():
/home/fangjiang/workspace/optee-os/lib/libutee/tee_api_arith_mpi.c:101
    1a94:	910163f3 	add	x19, sp, #0x58
    1a98:	9101c3fa 	add	x26, sp, #0x70
mpi_egcd():
/home/fangjiang/workspace/optee-os/lib/libutee/tee_api_arith_mpi.c:606
    1a9c:	a91173fb 	stp	x27, x28, [sp, #272]
    1aa0:	aa0103fb 	mov	x27, x1
    1aa4:	aa0303fc 	mov	x28, x3
    1aa8:	f9400001 	ldr	x1, [x0]
    1aac:	f9005fe1 	str	x1, [sp, #184]
    1ab0:	d2800001 	mov	x1, #0x0                   	// #0
get_mpi():
/home/fangjiang/workspace/optee-os/lib/libutee/tee_api_arith_mpi.c:101
    1ab4:	aa1803e0 	mov	x0, x24
    1ab8:	910223f9 	add	x25, sp, #0x88
    1abc:	94000aba 	bl	45a4 <mbedtls_mpi_init_mempool>
    1ac0:	aa1703e0 	mov	x0, x23
    1ac4:	94000ab8 	bl	45a4 <mbedtls_mpi_init_mempool>
    1ac8:	aa1403e0 	mov	x0, x20
    1acc:	94000ab6 	bl	45a4 <mbedtls_mpi_init_mempool>
    1ad0:	aa1303e0 	mov	x0, x19
    1ad4:	94000ab4 	bl	45a4 <mbedtls_mpi_init_mempool>
    1ad8:	aa1a03e0 	mov	x0, x26
    1adc:	94000ab2 	bl	45a4 <mbedtls_mpi_init_mempool>
    1ae0:	aa1903e0 	mov	x0, x25
    1ae4:	94000ab0 	bl	45a4 <mbedtls_mpi_init_mempool>
    1ae8:	aa1603e0 	mov	x0, x22
    1aec:	94000aae 	bl	45a4 <mbedtls_mpi_init_mempool>
mpi_egcd():
/home/fangjiang/workspace/optee-os/lib/libutee/tee_api_arith_mpi.c:625
    1af0:	f94007e0 	ldr	x0, [sp, #8]
    1af4:	52800001 	mov	w1, #0x0                   	// #0
    1af8:	94000e45 	bl	540c <mbedtls_mpi_cmp_int>
    1afc:	35000320 	cbnz	w0, 1b60 <mpi_egcd+0x108>
/home/fangjiang/workspace/optee-os/lib/libutee/tee_api_arith_mpi.c:626
    1b00:	aa1b03e0 	mov	x0, x27
    1b04:	52800021 	mov	w1, #0x1                   	// #1
    1b08:	94000c28 	bl	4ba8 <mbedtls_mpi_lset>
    1b0c:	2a0003e2 	mov	w2, w0
    1b10:	340000c0 	cbz	w0, 1b28 <mpi_egcd+0xd0>
/home/fangjiang/workspace/optee-os/lib/libutee/tee_api_arith_mpi.c:626 (discriminator 1)
    1b14:	52804e41 	mov	w1, #0x272                 	// #626
/home/fangjiang/workspace/optee-os/lib/libutee/tee_api_arith_mpi.c:627 (discriminator 1)
    1b18:	f0000040 	adrp	x0, c000 <__text_end+0x1c98>
    1b1c:	91209400 	add	x0, x0, #0x825
    1b20:	91005800 	add	x0, x0, #0x16
    1b24:	97ffff1b 	bl	1790 <mpi_panic>
/home/fangjiang/workspace/optee-os/lib/libutee/tee_api_arith_mpi.c:627 (discriminator 2)
    1b28:	f94003e0 	ldr	x0, [sp]
    1b2c:	52800001 	mov	w1, #0x0                   	// #0
    1b30:	94000c1e 	bl	4ba8 <mbedtls_mpi_lset>
    1b34:	2a0003e2 	mov	w2, w0
    1b38:	34000060 	cbz	w0, 1b44 <mpi_egcd+0xec>
/home/fangjiang/workspace/optee-os/lib/libutee/tee_api_arith_mpi.c:627 (discriminator 1)
    1b3c:	52804e61 	mov	w1, #0x273                 	// #627
    1b40:	17fffff6 	b	1b18 <mpi_egcd+0xc0>
/home/fangjiang/workspace/optee-os/lib/libutee/tee_api_arith_mpi.c:628 (discriminator 2)
    1b44:	aa1c03e1 	mov	x1, x28
    1b48:	aa1503e0 	mov	x0, x21
    1b4c:	94000b56 	bl	48a4 <mbedtls_mpi_copy>
    1b50:	2a0003e2 	mov	w2, w0
    1b54:	34002040 	cbz	w0, 1f5c <mpi_egcd+0x504>
/home/fangjiang/workspace/optee-os/lib/libutee/tee_api_arith_mpi.c:628 (discriminator 1)
    1b58:	52804e81 	mov	w1, #0x274                 	// #628
    1b5c:	17ffffef 	b	1b18 <mpi_egcd+0xc0>
/home/fangjiang/workspace/optee-os/lib/libutee/tee_api_arith_mpi.c:632
    1b60:	aa1c03e1 	mov	x1, x28
    1b64:	aa1a03e0 	mov	x0, x26
    1b68:	94000b4f 	bl	48a4 <mbedtls_mpi_copy>
    1b6c:	2a0003e2 	mov	w2, w0
    1b70:	34000060 	cbz	w0, 1b7c <mpi_egcd+0x124>
/home/fangjiang/workspace/optee-os/lib/libutee/tee_api_arith_mpi.c:632 (discriminator 1)
    1b74:	52804f01 	mov	w1, #0x278                 	// #632
    1b78:	17ffffe8 	b	1b18 <mpi_egcd+0xc0>
/home/fangjiang/workspace/optee-os/lib/libutee/tee_api_arith_mpi.c:633 (discriminator 2)
    1b7c:	f94007e1 	ldr	x1, [sp, #8]
    1b80:	aa1903e0 	mov	x0, x25
/home/fangjiang/workspace/optee-os/lib/libutee/tee_api_arith_mpi.c:635 (discriminator 2)
    1b84:	5280001c 	mov	w28, #0x0                   	// #0
/home/fangjiang/workspace/optee-os/lib/libutee/tee_api_arith_mpi.c:633 (discriminator 2)
    1b88:	94000b47 	bl	48a4 <mbedtls_mpi_copy>
    1b8c:	2a0003e2 	mov	w2, w0
    1b90:	34000140 	cbz	w0, 1bb8 <mpi_egcd+0x160>
/home/fangjiang/workspace/optee-os/lib/libutee/tee_api_arith_mpi.c:633 (discriminator 1)
    1b94:	52804f21 	mov	w1, #0x279                 	// #633
    1b98:	17ffffe0 	b	1b18 <mpi_egcd+0xc0>
/home/fangjiang/workspace/optee-os/lib/libutee/tee_api_arith_mpi.c:639 (discriminator 2)
    1b9c:	aa1903e0 	mov	x0, x25
    1ba0:	d2800021 	mov	x1, #0x1                   	// #1
    1ba4:	94000d5e 	bl	511c <mbedtls_mpi_shift_r>
    1ba8:	2a0003e2 	mov	w2, w0
    1bac:	34000060 	cbz	w0, 1bb8 <mpi_egcd+0x160>
/home/fangjiang/workspace/optee-os/lib/libutee/tee_api_arith_mpi.c:639 (discriminator 1)
    1bb0:	52804fe1 	mov	w1, #0x27f                 	// #639
    1bb4:	17ffffd9 	b	1b18 <mpi_egcd+0xc0>
mpi_is_even():
/home/fangjiang/workspace/optee-os/lib/libutee/tee_api_arith_mpi.c:597 (discriminator 2)
    1bb8:	aa1a03e0 	mov	x0, x26
    1bbc:	97ffff95 	bl	1a10 <mpi_is_odd>
mpi_egcd():
/home/fangjiang/workspace/optee-os/lib/libutee/tee_api_arith_mpi.c:636 (discriminator 2)
    1bc0:	72001c1f 	tst	w0, #0xff
    1bc4:	54000100 	b.eq	1be4 <mpi_egcd+0x18c>  // b.none
/home/fangjiang/workspace/optee-os/lib/libutee/tee_api_arith_mpi.c:642
    1bc8:	aa1a03e1 	mov	x1, x26
    1bcc:	aa1603e0 	mov	x0, x22
    1bd0:	94000b35 	bl	48a4 <mbedtls_mpi_copy>
    1bd4:	2a0003e2 	mov	w2, w0
    1bd8:	340001e0 	cbz	w0, 1c14 <mpi_egcd+0x1bc>
/home/fangjiang/workspace/optee-os/lib/libutee/tee_api_arith_mpi.c:642 (discriminator 1)
    1bdc:	52805041 	mov	w1, #0x282                 	// #642
    1be0:	17ffffce 	b	1b18 <mpi_egcd+0xc0>
mpi_is_even():
/home/fangjiang/workspace/optee-os/lib/libutee/tee_api_arith_mpi.c:597
    1be4:	aa1903e0 	mov	x0, x25
    1be8:	97ffff8a 	bl	1a10 <mpi_is_odd>
mpi_egcd():
/home/fangjiang/workspace/optee-os/lib/libutee/tee_api_arith_mpi.c:636
    1bec:	72001c1f 	tst	w0, #0xff
    1bf0:	54fffec1 	b.ne	1bc8 <mpi_egcd+0x170>  // b.any
/home/fangjiang/workspace/optee-os/lib/libutee/tee_api_arith_mpi.c:638
    1bf4:	aa1a03e0 	mov	x0, x26
    1bf8:	d2800021 	mov	x1, #0x1                   	// #1
/home/fangjiang/workspace/optee-os/lib/libutee/tee_api_arith_mpi.c:637
    1bfc:	1100079c 	add	w28, w28, #0x1
/home/fangjiang/workspace/optee-os/lib/libutee/tee_api_arith_mpi.c:638
    1c00:	94000d47 	bl	511c <mbedtls_mpi_shift_r>
    1c04:	2a0003e2 	mov	w2, w0
    1c08:	34fffca0 	cbz	w0, 1b9c <mpi_egcd+0x144>
/home/fangjiang/workspace/optee-os/lib/libutee/tee_api_arith_mpi.c:638 (discriminator 1)
    1c0c:	52804fc1 	mov	w1, #0x27e                 	// #638
    1c10:	17ffffc2 	b	1b18 <mpi_egcd+0xc0>
/home/fangjiang/workspace/optee-os/lib/libutee/tee_api_arith_mpi.c:643 (discriminator 2)
    1c14:	aa1903e1 	mov	x1, x25
    1c18:	aa1503e0 	mov	x0, x21
    1c1c:	94000b22 	bl	48a4 <mbedtls_mpi_copy>
    1c20:	2a0003e2 	mov	w2, w0
    1c24:	34000060 	cbz	w0, 1c30 <mpi_egcd+0x1d8>
/home/fangjiang/workspace/optee-os/lib/libutee/tee_api_arith_mpi.c:643 (discriminator 1)
    1c28:	52805061 	mov	w1, #0x283                 	// #643
    1c2c:	17ffffbb 	b	1b18 <mpi_egcd+0xc0>
/home/fangjiang/workspace/optee-os/lib/libutee/tee_api_arith_mpi.c:644 (discriminator 2)
    1c30:	aa1803e0 	mov	x0, x24
    1c34:	52800021 	mov	w1, #0x1                   	// #1
    1c38:	94000bdc 	bl	4ba8 <mbedtls_mpi_lset>
    1c3c:	2a0003e2 	mov	w2, w0
    1c40:	34000060 	cbz	w0, 1c4c <mpi_egcd+0x1f4>
/home/fangjiang/workspace/optee-os/lib/libutee/tee_api_arith_mpi.c:644 (discriminator 1)
    1c44:	52805081 	mov	w1, #0x284                 	// #644
    1c48:	17ffffb4 	b	1b18 <mpi_egcd+0xc0>
/home/fangjiang/workspace/optee-os/lib/libutee/tee_api_arith_mpi.c:645 (discriminator 2)
    1c4c:	aa1703e0 	mov	x0, x23
    1c50:	52800001 	mov	w1, #0x0                   	// #0
    1c54:	94000bd5 	bl	4ba8 <mbedtls_mpi_lset>
    1c58:	2a0003e2 	mov	w2, w0
    1c5c:	34000060 	cbz	w0, 1c68 <mpi_egcd+0x210>
/home/fangjiang/workspace/optee-os/lib/libutee/tee_api_arith_mpi.c:645 (discriminator 1)
    1c60:	528050a1 	mov	w1, #0x285                 	// #645
    1c64:	17ffffad 	b	1b18 <mpi_egcd+0xc0>
/home/fangjiang/workspace/optee-os/lib/libutee/tee_api_arith_mpi.c:646 (discriminator 2)
    1c68:	aa1403e0 	mov	x0, x20
    1c6c:	52800001 	mov	w1, #0x0                   	// #0
    1c70:	94000bce 	bl	4ba8 <mbedtls_mpi_lset>
    1c74:	2a0003e2 	mov	w2, w0
    1c78:	34000060 	cbz	w0, 1c84 <mpi_egcd+0x22c>
/home/fangjiang/workspace/optee-os/lib/libutee/tee_api_arith_mpi.c:646 (discriminator 1)
    1c7c:	528050c1 	mov	w1, #0x286                 	// #646
    1c80:	17ffffa6 	b	1b18 <mpi_egcd+0xc0>
/home/fangjiang/workspace/optee-os/lib/libutee/tee_api_arith_mpi.c:647 (discriminator 2)
    1c84:	aa1303e0 	mov	x0, x19
    1c88:	52800021 	mov	w1, #0x1                   	// #1
    1c8c:	94000bc7 	bl	4ba8 <mbedtls_mpi_lset>
    1c90:	2a0003e2 	mov	w2, w0
    1c94:	34001320 	cbz	w0, 1ef8 <mpi_egcd+0x4a0>
/home/fangjiang/workspace/optee-os/lib/libutee/tee_api_arith_mpi.c:647 (discriminator 1)
    1c98:	528050e1 	mov	w1, #0x287                 	// #647
    1c9c:	17ffff9f 	b	1b18 <mpi_egcd+0xc0>
/home/fangjiang/workspace/optee-os/lib/libutee/tee_api_arith_mpi.c:651
    1ca0:	aa1603e0 	mov	x0, x22
    1ca4:	d2800021 	mov	x1, #0x1                   	// #1
    1ca8:	94000d1d 	bl	511c <mbedtls_mpi_shift_r>
    1cac:	2a0003e2 	mov	w2, w0
    1cb0:	34000060 	cbz	w0, 1cbc <mpi_egcd+0x264>
/home/fangjiang/workspace/optee-os/lib/libutee/tee_api_arith_mpi.c:651 (discriminator 1)
    1cb4:	52805161 	mov	w1, #0x28b                 	// #651
    1cb8:	17ffff98 	b	1b18 <mpi_egcd+0xc0>
/home/fangjiang/workspace/optee-os/lib/libutee/tee_api_arith_mpi.c:652 (discriminator 2)
    1cbc:	aa1803e0 	mov	x0, x24
    1cc0:	97ffff54 	bl	1a10 <mpi_is_odd>
    1cc4:	72001c1f 	tst	w0, #0xff
    1cc8:	54000120 	b.eq	1cec <mpi_egcd+0x294>  // b.none
/home/fangjiang/workspace/optee-os/lib/libutee/tee_api_arith_mpi.c:653
    1ccc:	aa1903e2 	mov	x2, x25
    1cd0:	aa1803e1 	mov	x1, x24
    1cd4:	aa1803e0 	mov	x0, x24
    1cd8:	94000e8c 	bl	5708 <mbedtls_mpi_add_mpi>
    1cdc:	2a0003e2 	mov	w2, w0
    1ce0:	340001c0 	cbz	w0, 1d18 <mpi_egcd+0x2c0>
/home/fangjiang/workspace/optee-os/lib/libutee/tee_api_arith_mpi.c:653 (discriminator 1)
    1ce4:	528051a1 	mov	w1, #0x28d                 	// #653
    1ce8:	17ffff8c 	b	1b18 <mpi_egcd+0xc0>
/home/fangjiang/workspace/optee-os/lib/libutee/tee_api_arith_mpi.c:652 (discriminator 1)
    1cec:	aa1703e0 	mov	x0, x23
    1cf0:	97ffff48 	bl	1a10 <mpi_is_odd>
    1cf4:	72001c1f 	tst	w0, #0xff
    1cf8:	54fffea1 	b.ne	1ccc <mpi_egcd+0x274>  // b.any
/home/fangjiang/workspace/optee-os/lib/libutee/tee_api_arith_mpi.c:656
    1cfc:	aa1803e0 	mov	x0, x24
    1d00:	d2800021 	mov	x1, #0x1                   	// #1
    1d04:	94000d06 	bl	511c <mbedtls_mpi_shift_r>
    1d08:	2a0003e2 	mov	w2, w0
    1d0c:	34000160 	cbz	w0, 1d38 <mpi_egcd+0x2e0>
/home/fangjiang/workspace/optee-os/lib/libutee/tee_api_arith_mpi.c:656 (discriminator 1)
    1d10:	52805201 	mov	w1, #0x290                 	// #656
    1d14:	17ffff81 	b	1b18 <mpi_egcd+0xc0>
/home/fangjiang/workspace/optee-os/lib/libutee/tee_api_arith_mpi.c:654 (discriminator 2)
    1d18:	aa1a03e2 	mov	x2, x26
    1d1c:	aa1703e1 	mov	x1, x23
    1d20:	aa1703e0 	mov	x0, x23
    1d24:	94000e9b 	bl	5790 <mbedtls_mpi_sub_mpi>
    1d28:	2a0003e2 	mov	w2, w0
    1d2c:	34fffe80 	cbz	w0, 1cfc <mpi_egcd+0x2a4>
/home/fangjiang/workspace/optee-os/lib/libutee/tee_api_arith_mpi.c:654 (discriminator 1)
    1d30:	528051c1 	mov	w1, #0x28e                 	// #654
    1d34:	17ffff79 	b	1b18 <mpi_egcd+0xc0>
/home/fangjiang/workspace/optee-os/lib/libutee/tee_api_arith_mpi.c:657 (discriminator 2)
    1d38:	aa1703e0 	mov	x0, x23
    1d3c:	d2800021 	mov	x1, #0x1                   	// #1
    1d40:	94000cf7 	bl	511c <mbedtls_mpi_shift_r>
    1d44:	2a0003e2 	mov	w2, w0
    1d48:	34000060 	cbz	w0, 1d54 <mpi_egcd+0x2fc>
/home/fangjiang/workspace/optee-os/lib/libutee/tee_api_arith_mpi.c:657 (discriminator 1)
    1d4c:	52805221 	mov	w1, #0x291                 	// #657
    1d50:	17ffff72 	b	1b18 <mpi_egcd+0xc0>
mpi_is_even():
/home/fangjiang/workspace/optee-os/lib/libutee/tee_api_arith_mpi.c:597 (discriminator 2)
    1d54:	aa1603e0 	mov	x0, x22
    1d58:	97ffff2e 	bl	1a10 <mpi_is_odd>
mpi_egcd():
/home/fangjiang/workspace/optee-os/lib/libutee/tee_api_arith_mpi.c:650 (discriminator 2)
    1d5c:	72001c1f 	tst	w0, #0xff
    1d60:	54fffa00 	b.eq	1ca0 <mpi_egcd+0x248>  // b.none
mpi_is_even():
/home/fangjiang/workspace/optee-os/lib/libutee/tee_api_arith_mpi.c:597 (discriminator 2)
    1d64:	aa1503e0 	mov	x0, x21
    1d68:	97ffff2a 	bl	1a10 <mpi_is_odd>
mpi_egcd():
/home/fangjiang/workspace/optee-os/lib/libutee/tee_api_arith_mpi.c:660 (discriminator 2)
    1d6c:	72001c1f 	tst	w0, #0xff
    1d70:	540001a0 	b.eq	1da4 <mpi_egcd+0x34c>  // b.none
/home/fangjiang/workspace/optee-os/lib/libutee/tee_api_arith_mpi.c:671
    1d74:	aa1503e1 	mov	x1, x21
    1d78:	aa1603e0 	mov	x0, x22
    1d7c:	94000d3f 	bl	5278 <mbedtls_mpi_cmp_mpi>
    1d80:	37f808c0 	tbnz	w0, #31, 1e98 <mpi_egcd+0x440>
/home/fangjiang/workspace/optee-os/lib/libutee/tee_api_arith_mpi.c:672
    1d84:	aa1503e2 	mov	x2, x21
    1d88:	aa1603e1 	mov	x1, x22
    1d8c:	aa1603e0 	mov	x0, x22
    1d90:	94000e80 	bl	5790 <mbedtls_mpi_sub_mpi>
    1d94:	2a0003e2 	mov	w2, w0
    1d98:	34000600 	cbz	w0, 1e58 <mpi_egcd+0x400>
/home/fangjiang/workspace/optee-os/lib/libutee/tee_api_arith_mpi.c:672 (discriminator 1)
    1d9c:	52805401 	mov	w1, #0x2a0                 	// #672
    1da0:	17ffff5e 	b	1b18 <mpi_egcd+0xc0>
/home/fangjiang/workspace/optee-os/lib/libutee/tee_api_arith_mpi.c:661
    1da4:	aa1503e0 	mov	x0, x21
    1da8:	d2800021 	mov	x1, #0x1                   	// #1
    1dac:	94000cdc 	bl	511c <mbedtls_mpi_shift_r>
    1db0:	2a0003e2 	mov	w2, w0
    1db4:	34000060 	cbz	w0, 1dc0 <mpi_egcd+0x368>
/home/fangjiang/workspace/optee-os/lib/libutee/tee_api_arith_mpi.c:661 (discriminator 1)
    1db8:	528052a1 	mov	w1, #0x295                 	// #661
    1dbc:	17ffff57 	b	1b18 <mpi_egcd+0xc0>
/home/fangjiang/workspace/optee-os/lib/libutee/tee_api_arith_mpi.c:662 (discriminator 2)
    1dc0:	aa1403e0 	mov	x0, x20
    1dc4:	97ffff13 	bl	1a10 <mpi_is_odd>
    1dc8:	72001c1f 	tst	w0, #0xff
    1dcc:	54000120 	b.eq	1df0 <mpi_egcd+0x398>  // b.none
/home/fangjiang/workspace/optee-os/lib/libutee/tee_api_arith_mpi.c:663
    1dd0:	aa1903e2 	mov	x2, x25
    1dd4:	aa1403e1 	mov	x1, x20
    1dd8:	aa1403e0 	mov	x0, x20
    1ddc:	94000e4b 	bl	5708 <mbedtls_mpi_add_mpi>
    1de0:	2a0003e2 	mov	w2, w0
    1de4:	340001c0 	cbz	w0, 1e1c <mpi_egcd+0x3c4>
/home/fangjiang/workspace/optee-os/lib/libutee/tee_api_arith_mpi.c:663 (discriminator 1)
    1de8:	528052e1 	mov	w1, #0x297                 	// #663
    1dec:	17ffff4b 	b	1b18 <mpi_egcd+0xc0>
/home/fangjiang/workspace/optee-os/lib/libutee/tee_api_arith_mpi.c:662 (discriminator 1)
    1df0:	aa1303e0 	mov	x0, x19
    1df4:	97ffff07 	bl	1a10 <mpi_is_odd>
    1df8:	72001c1f 	tst	w0, #0xff
    1dfc:	54fffea1 	b.ne	1dd0 <mpi_egcd+0x378>  // b.any
/home/fangjiang/workspace/optee-os/lib/libutee/tee_api_arith_mpi.c:666
    1e00:	aa1403e0 	mov	x0, x20
    1e04:	d2800021 	mov	x1, #0x1                   	// #1
    1e08:	94000cc5 	bl	511c <mbedtls_mpi_shift_r>
    1e0c:	2a0003e2 	mov	w2, w0
    1e10:	34000160 	cbz	w0, 1e3c <mpi_egcd+0x3e4>
/home/fangjiang/workspace/optee-os/lib/libutee/tee_api_arith_mpi.c:666 (discriminator 1)
    1e14:	52805341 	mov	w1, #0x29a                 	// #666
    1e18:	17ffff40 	b	1b18 <mpi_egcd+0xc0>
/home/fangjiang/workspace/optee-os/lib/libutee/tee_api_arith_mpi.c:664 (discriminator 2)
    1e1c:	aa1a03e2 	mov	x2, x26
    1e20:	aa1303e1 	mov	x1, x19
    1e24:	aa1303e0 	mov	x0, x19
    1e28:	94000e5a 	bl	5790 <mbedtls_mpi_sub_mpi>
    1e2c:	2a0003e2 	mov	w2, w0
    1e30:	34fffe80 	cbz	w0, 1e00 <mpi_egcd+0x3a8>
/home/fangjiang/workspace/optee-os/lib/libutee/tee_api_arith_mpi.c:664 (discriminator 1)
    1e34:	52805301 	mov	w1, #0x298                 	// #664
    1e38:	17ffff38 	b	1b18 <mpi_egcd+0xc0>
/home/fangjiang/workspace/optee-os/lib/libutee/tee_api_arith_mpi.c:667 (discriminator 2)
    1e3c:	aa1303e0 	mov	x0, x19
    1e40:	d2800021 	mov	x1, #0x1                   	// #1
    1e44:	94000cb6 	bl	511c <mbedtls_mpi_shift_r>
    1e48:	2a0003e2 	mov	w2, w0
    1e4c:	34fff8c0 	cbz	w0, 1d64 <mpi_egcd+0x30c>
/home/fangjiang/workspace/optee-os/lib/libutee/tee_api_arith_mpi.c:667 (discriminator 1)
    1e50:	52805361 	mov	w1, #0x29b                 	// #667
    1e54:	17ffff31 	b	1b18 <mpi_egcd+0xc0>
/home/fangjiang/workspace/optee-os/lib/libutee/tee_api_arith_mpi.c:673 (discriminator 2)
    1e58:	aa1403e2 	mov	x2, x20
    1e5c:	aa1803e1 	mov	x1, x24
    1e60:	aa1803e0 	mov	x0, x24
    1e64:	94000e4b 	bl	5790 <mbedtls_mpi_sub_mpi>
    1e68:	2a0003e2 	mov	w2, w0
    1e6c:	34000060 	cbz	w0, 1e78 <mpi_egcd+0x420>
/home/fangjiang/workspace/optee-os/lib/libutee/tee_api_arith_mpi.c:673 (discriminator 1)
    1e70:	52805421 	mov	w1, #0x2a1                 	// #673
    1e74:	17ffff29 	b	1b18 <mpi_egcd+0xc0>
/home/fangjiang/workspace/optee-os/lib/libutee/tee_api_arith_mpi.c:674 (discriminator 2)
    1e78:	aa1303e2 	mov	x2, x19
    1e7c:	aa1703e1 	mov	x1, x23
    1e80:	aa1703e0 	mov	x0, x23
    1e84:	94000e43 	bl	5790 <mbedtls_mpi_sub_mpi>
    1e88:	2a0003e2 	mov	w2, w0
    1e8c:	34000360 	cbz	w0, 1ef8 <mpi_egcd+0x4a0>
/home/fangjiang/workspace/optee-os/lib/libutee/tee_api_arith_mpi.c:674 (discriminator 1)
    1e90:	52805441 	mov	w1, #0x2a2                 	// #674
    1e94:	17ffff21 	b	1b18 <mpi_egcd+0xc0>
/home/fangjiang/workspace/optee-os/lib/libutee/tee_api_arith_mpi.c:676
    1e98:	aa1603e2 	mov	x2, x22
    1e9c:	aa1503e1 	mov	x1, x21
    1ea0:	aa1503e0 	mov	x0, x21
    1ea4:	94000e3b 	bl	5790 <mbedtls_mpi_sub_mpi>
    1ea8:	2a0003e2 	mov	w2, w0
    1eac:	34000060 	cbz	w0, 1eb8 <mpi_egcd+0x460>
/home/fangjiang/workspace/optee-os/lib/libutee/tee_api_arith_mpi.c:676 (discriminator 1)
    1eb0:	52805481 	mov	w1, #0x2a4                 	// #676
    1eb4:	17ffff19 	b	1b18 <mpi_egcd+0xc0>
/home/fangjiang/workspace/optee-os/lib/libutee/tee_api_arith_mpi.c:677 (discriminator 2)
    1eb8:	aa1803e2 	mov	x2, x24
    1ebc:	aa1403e1 	mov	x1, x20
    1ec0:	aa1403e0 	mov	x0, x20
    1ec4:	94000e33 	bl	5790 <mbedtls_mpi_sub_mpi>
    1ec8:	2a0003e2 	mov	w2, w0
    1ecc:	34000060 	cbz	w0, 1ed8 <mpi_egcd+0x480>
/home/fangjiang/workspace/optee-os/lib/libutee/tee_api_arith_mpi.c:677 (discriminator 1)
    1ed0:	528054a1 	mov	w1, #0x2a5                 	// #677
    1ed4:	17ffff11 	b	1b18 <mpi_egcd+0xc0>
/home/fangjiang/workspace/optee-os/lib/libutee/tee_api_arith_mpi.c:678 (discriminator 2)
    1ed8:	aa1703e2 	mov	x2, x23
    1edc:	aa1303e1 	mov	x1, x19
    1ee0:	aa1303e0 	mov	x0, x19
    1ee4:	94000e2b 	bl	5790 <mbedtls_mpi_sub_mpi>
    1ee8:	2a0003e2 	mov	w2, w0
    1eec:	34000060 	cbz	w0, 1ef8 <mpi_egcd+0x4a0>
/home/fangjiang/workspace/optee-os/lib/libutee/tee_api_arith_mpi.c:678 (discriminator 1)
    1ef0:	528054c1 	mov	w1, #0x2a6                 	// #678
    1ef4:	17ffff09 	b	1b18 <mpi_egcd+0xc0>
/home/fangjiang/workspace/optee-os/lib/libutee/tee_api_arith_mpi.c:649 (discriminator 2)
    1ef8:	aa1603e0 	mov	x0, x22
    1efc:	52800001 	mov	w1, #0x0                   	// #0
    1f00:	94000d43 	bl	540c <mbedtls_mpi_cmp_int>
    1f04:	35fff280 	cbnz	w0, 1d54 <mpi_egcd+0x2fc>
/home/fangjiang/workspace/optee-os/lib/libutee/tee_api_arith_mpi.c:682
    1f08:	aa1403e1 	mov	x1, x20
    1f0c:	aa1b03e0 	mov	x0, x27
    1f10:	94000a65 	bl	48a4 <mbedtls_mpi_copy>
    1f14:	2a0003e2 	mov	w2, w0
    1f18:	34000060 	cbz	w0, 1f24 <mpi_egcd+0x4cc>
/home/fangjiang/workspace/optee-os/lib/libutee/tee_api_arith_mpi.c:682 (discriminator 1)
    1f1c:	52805541 	mov	w1, #0x2aa                 	// #682
    1f20:	17fffefe 	b	1b18 <mpi_egcd+0xc0>
/home/fangjiang/workspace/optee-os/lib/libutee/tee_api_arith_mpi.c:683 (discriminator 2)
    1f24:	f94003e0 	ldr	x0, [sp]
    1f28:	aa1303e1 	mov	x1, x19
    1f2c:	94000a5e 	bl	48a4 <mbedtls_mpi_copy>
    1f30:	2a0003e2 	mov	w2, w0
    1f34:	34000060 	cbz	w0, 1f40 <mpi_egcd+0x4e8>
/home/fangjiang/workspace/optee-os/lib/libutee/tee_api_arith_mpi.c:683 (discriminator 1)
    1f38:	52805561 	mov	w1, #0x2ab                 	// #683
    1f3c:	17fffef7 	b	1b18 <mpi_egcd+0xc0>
/home/fangjiang/workspace/optee-os/lib/libutee/tee_api_arith_mpi.c:684 (discriminator 2)
    1f40:	2a1c03e1 	mov	w1, w28
    1f44:	aa1503e0 	mov	x0, x21
    1f48:	94000c31 	bl	500c <mbedtls_mpi_shift_l>
    1f4c:	2a0003e2 	mov	w2, w0
    1f50:	34000060 	cbz	w0, 1f5c <mpi_egcd+0x504>
/home/fangjiang/workspace/optee-os/lib/libutee/tee_api_arith_mpi.c:684 (discriminator 1)
    1f54:	52805581 	mov	w1, #0x2ac                 	// #684
    1f58:	17fffef0 	b	1b18 <mpi_egcd+0xc0>
/home/fangjiang/workspace/optee-os/lib/libutee/tee_api_arith_mpi.c:687
    1f5c:	aa1803e0 	mov	x0, x24
    1f60:	9400099b 	bl	45cc <mbedtls_mpi_free>
/home/fangjiang/workspace/optee-os/lib/libutee/tee_api_arith_mpi.c:688
    1f64:	aa1703e0 	mov	x0, x23
    1f68:	94000999 	bl	45cc <mbedtls_mpi_free>
/home/fangjiang/workspace/optee-os/lib/libutee/tee_api_arith_mpi.c:689
    1f6c:	aa1403e0 	mov	x0, x20
    1f70:	94000997 	bl	45cc <mbedtls_mpi_free>
/home/fangjiang/workspace/optee-os/lib/libutee/tee_api_arith_mpi.c:690
    1f74:	aa1303e0 	mov	x0, x19
    1f78:	94000995 	bl	45cc <mbedtls_mpi_free>
/home/fangjiang/workspace/optee-os/lib/libutee/tee_api_arith_mpi.c:691
    1f7c:	aa1a03e0 	mov	x0, x26
    1f80:	94000993 	bl	45cc <mbedtls_mpi_free>
/home/fangjiang/workspace/optee-os/lib/libutee/tee_api_arith_mpi.c:692
    1f84:	aa1903e0 	mov	x0, x25
    1f88:	94000991 	bl	45cc <mbedtls_mpi_free>
/home/fangjiang/workspace/optee-os/lib/libutee/tee_api_arith_mpi.c:693
    1f8c:	aa1603e0 	mov	x0, x22
    1f90:	9400098f 	bl	45cc <mbedtls_mpi_free>
/home/fangjiang/workspace/optee-os/lib/libutee/tee_api_arith_mpi.c:694
    1f94:	b0000060 	adrp	x0, e000 <_DYNAMIC>
    1f98:	f9409800 	ldr	x0, [x0, #304]
    1f9c:	f9405fe2 	ldr	x2, [sp, #184]
    1fa0:	f9400001 	ldr	x1, [x0]
    1fa4:	eb010042 	subs	x2, x2, x1
    1fa8:	d2800001 	mov	x1, #0x0                   	// #0
    1fac:	54000040 	b.eq	1fb4 <mpi_egcd+0x55c>  // b.none
    1fb0:	94001bea 	bl	8f58 <__stack_chk_fail>
    1fb4:	a94c7bfd 	ldp	x29, x30, [sp, #192]
    1fb8:	a94d53f3 	ldp	x19, x20, [sp, #208]
    1fbc:	a94e5bf5 	ldp	x21, x22, [sp, #224]
    1fc0:	a94f63f7 	ldp	x23, x24, [sp, #240]
    1fc4:	a9506bf9 	ldp	x25, x26, [sp, #256]
    1fc8:	a95173fb 	ldp	x27, x28, [sp, #272]
    1fcc:	910483ff 	add	sp, sp, #0x120
    1fd0:	d65f03c0 	ret

0000000000001fd4 <_TEE_MathAPI_Init>:
_TEE_MathAPI_Init():
/home/fangjiang/workspace/optee-os/lib/libutee/tee_api_arith_mpi.c:44
    1fd4:	a9bf7bfd 	stp	x29, x30, [sp, #-16]!
/home/fangjiang/workspace/optee-os/lib/libutee/tee_api_arith_mpi.c:47
    1fd8:	d2860001 	mov	x1, #0x3000                	// #12288
    1fdc:	d2800002 	mov	x2, #0x0                   	// #0
/home/fangjiang/workspace/optee-os/lib/libutee/tee_api_arith_mpi.c:44
    1fe0:	910003fd 	mov	x29, sp
/home/fangjiang/workspace/optee-os/lib/libutee/tee_api_arith_mpi.c:47
    1fe4:	b0000060 	adrp	x0, e000 <_DYNAMIC>
    1fe8:	91128000 	add	x0, x0, #0x4a0
    1fec:	94002054 	bl	a13c <mempool_alloc_pool>
    1ff0:	b0000061 	adrp	x1, e000 <_DYNAMIC>
    1ff4:	f940cc21 	ldr	x1, [x1, #408]
    1ff8:	f9000020 	str	x0, [x1]
/home/fangjiang/workspace/optee-os/lib/libutee/tee_api_arith_mpi.c:48
    1ffc:	b5000100 	cbnz	x0, 201c <_TEE_MathAPI_Init+0x48>
/home/fangjiang/workspace/optee-os/lib/libutee/tee_api_arith_mpi.c:49
    2000:	d0000040 	adrp	x0, c000 <__text_end+0x1c98>
    2004:	91209400 	add	x0, x0, #0x825
    2008:	d0000042 	adrp	x2, c000 <__text_end+0x1c98>
    200c:	91007c00 	add	x0, x0, #0x1f
    2010:	911ecc42 	add	x2, x2, #0x7b3
    2014:	52800621 	mov	w1, #0x31                  	// #49
    2018:	97fffdd2 	bl	1760 <api_panic>
/home/fangjiang/workspace/optee-os/lib/libutee/tee_api_arith_mpi.c:50
    201c:	a8c17bfd 	ldp	x29, x30, [sp], #16
    2020:	d65f03c0 	ret

0000000000002024 <TEE_BigIntInit>:
TEE_BigIntInit():
/home/fangjiang/workspace/optee-os/lib/libutee/tee_api_arith_mpi.c:119
    2024:	a9be7bfd 	stp	x29, x30, [sp, #-32]!
    2028:	910003fd 	mov	x29, sp
    202c:	a90153f3 	stp	x19, x20, [sp, #16]
    2030:	2a0103f3 	mov	w19, w1
    2034:	aa0003f4 	mov	x20, x0
/home/fangjiang/workspace/optee-os/lib/libutee/tee_api_arith_mpi.c:122
    2038:	d37e7e62 	ubfiz	x2, x19, #2, #32
    203c:	52800001 	mov	w1, #0x0                   	// #0
    2040:	94001bde 	bl	8fb8 <memset>
/home/fangjiang/workspace/optee-os/lib/libutee/tee_api_arith_mpi.c:124
    2044:	51000a73 	sub	w19, w19, #0x2
/home/fangjiang/workspace/optee-os/lib/libutee/tee_api_arith_mpi.c:123
    2048:	52800020 	mov	w0, #0x1                   	// #1
    204c:	b9000280 	str	w0, [x20]
/home/fangjiang/workspace/optee-os/lib/libutee/tee_api_arith_mpi.c:124
    2050:	5284e200 	mov	w0, #0x2710                	// #10000
    2054:	6b00027f 	cmp	w19, w0
    2058:	54000109 	b.ls	2078 <TEE_BigIntInit+0x54>  // b.plast
/home/fangjiang/workspace/optee-os/lib/libutee/tee_api_arith_mpi.c:125
    205c:	d0000040 	adrp	x0, c000 <__text_end+0x1c98>
    2060:	91209400 	add	x0, x0, #0x825
    2064:	d0000042 	adrp	x2, c000 <__text_end+0x1c98>
    2068:	9100c400 	add	x0, x0, #0x31
    206c:	911f5042 	add	x2, x2, #0x7d4
    2070:	52800fa1 	mov	w1, #0x7d                  	// #125
    2074:	97fffdbb 	bl	1760 <api_panic>
/home/fangjiang/workspace/optee-os/lib/libutee/tee_api_arith_mpi.c:126
    2078:	79000a93 	strh	w19, [x20, #4]
/home/fangjiang/workspace/optee-os/lib/libutee/tee_api_arith_mpi.c:127
    207c:	a94153f3 	ldp	x19, x20, [sp, #16]
    2080:	a8c27bfd 	ldp	x29, x30, [sp], #32
    2084:	d65f03c0 	ret

0000000000002088 <TEE_BigIntConvertFromOctetString>:
TEE_BigIntConvertFromOctetString():
/home/fangjiang/workspace/optee-os/lib/libutee/tee_api_arith_mpi.c:132
    2088:	d10183ff 	sub	sp, sp, #0x60
    208c:	90000064 	adrp	x4, e000 <_DYNAMIC>
    2090:	a9027bfd 	stp	x29, x30, [sp, #32]
    2094:	910083fd 	add	x29, sp, #0x20
    2098:	f9409884 	ldr	x4, [x4, #304]
    209c:	a90353f3 	stp	x19, x20, [sp, #48]
get_mpi():
/home/fangjiang/workspace/optee-os/lib/libutee/tee_api_arith_mpi.c:101
    20a0:	910003f4 	mov	x20, sp
TEE_BigIntConvertFromOctetString():
/home/fangjiang/workspace/optee-os/lib/libutee/tee_api_arith_mpi.c:132
    20a4:	a9045bf5 	stp	x21, x22, [sp, #64]
    20a8:	aa0003f5 	mov	x21, x0
    20ac:	aa0103f6 	mov	x22, x1
    20b0:	f9002bf7 	str	x23, [sp, #80]
    20b4:	2a0303f3 	mov	w19, w3
    20b8:	2a0203f7 	mov	w23, w2
    20bc:	f9400080 	ldr	x0, [x4]
    20c0:	f9000fe0 	str	x0, [sp, #24]
    20c4:	d2800000 	mov	x0, #0x0                   	// #0
get_mpi():
/home/fangjiang/workspace/optee-os/lib/libutee/tee_api_arith_mpi.c:101
    20c8:	aa1403e0 	mov	x0, x20
    20cc:	94000936 	bl	45a4 <mbedtls_mpi_init_mempool>
TEE_BigIntConvertFromOctetString():
/home/fangjiang/workspace/optee-os/lib/libutee/tee_api_arith_mpi.c:138
    20d0:	2a1703e2 	mov	w2, w23
    20d4:	aa1603e1 	mov	x1, x22
    20d8:	aa1403e0 	mov	x0, x20
    20dc:	94000b4c 	bl	4e0c <mbedtls_mpi_read_binary>
    20e0:	35000240 	cbnz	w0, 2128 <TEE_BigIntConvertFromOctetString+0xa0>
/home/fangjiang/workspace/optee-os/lib/libutee/tee_api_arith_mpi.c:143
    20e4:	36f80073 	tbz	w19, #31, 20f0 <TEE_BigIntConvertFromOctetString+0x68>
/home/fangjiang/workspace/optee-os/lib/libutee/tee_api_arith_mpi.c:144
    20e8:	12800000 	mov	w0, #0xffffffff            	// #-1
    20ec:	790003e0 	strh	w0, [sp]
/home/fangjiang/workspace/optee-os/lib/libutee/tee_api_arith_mpi.c:147
    20f0:	aa1503e1 	mov	x1, x21
    20f4:	aa1403e0 	mov	x0, x20
    20f8:	97fffdd8 	bl	1858 <copy_mpi_to_bigint>
    20fc:	2a0003f3 	mov	w19, w0
/home/fangjiang/workspace/optee-os/lib/libutee/tee_api_arith_mpi.c:149
    2100:	aa1403e0 	mov	x0, x20
    2104:	94000932 	bl	45cc <mbedtls_mpi_free>
/home/fangjiang/workspace/optee-os/lib/libutee/tee_api_arith_mpi.c:152
    2108:	90000064 	adrp	x4, e000 <_DYNAMIC>
    210c:	f9409884 	ldr	x4, [x4, #304]
    2110:	f9400fe0 	ldr	x0, [sp, #24]
    2114:	f9400081 	ldr	x1, [x4]
    2118:	eb010000 	subs	x0, x0, x1
    211c:	d2800001 	mov	x1, #0x0                   	// #0
    2120:	540000e0 	b.eq	213c <TEE_BigIntConvertFromOctetString+0xb4>  // b.none
    2124:	94001b8d 	bl	8f58 <__stack_chk_fail>
/home/fangjiang/workspace/optee-os/lib/libutee/tee_api_arith_mpi.c:143
    2128:	36f80073 	tbz	w19, #31, 2134 <TEE_BigIntConvertFromOctetString+0xac>
/home/fangjiang/workspace/optee-os/lib/libutee/tee_api_arith_mpi.c:144
    212c:	12800000 	mov	w0, #0xffffffff            	// #-1
    2130:	790003e0 	strh	w0, [sp]
/home/fangjiang/workspace/optee-os/lib/libutee/tee_api_arith_mpi.c:143
    2134:	1299fe13 	mov	w19, #0xffff300f            	// #-53233
    2138:	17fffff2 	b	2100 <TEE_BigIntConvertFromOctetString+0x78>
/home/fangjiang/workspace/optee-os/lib/libutee/tee_api_arith_mpi.c:152
    213c:	2a1303e0 	mov	w0, w19
    2140:	a9427bfd 	ldp	x29, x30, [sp, #32]
    2144:	a94353f3 	ldp	x19, x20, [sp, #48]
    2148:	a9445bf5 	ldp	x21, x22, [sp, #64]
    214c:	f9402bf7 	ldr	x23, [sp, #80]
    2150:	910183ff 	add	sp, sp, #0x60
    2154:	d65f03c0 	ret

0000000000002158 <TEE_BigIntConvertToOctetString>:
TEE_BigIntConvertToOctetString():
/home/fangjiang/workspace/optee-os/lib/libutee/tee_api_arith_mpi.c:156
    2158:	d10143ff 	sub	sp, sp, #0x50
    215c:	90000063 	adrp	x3, e000 <_DYNAMIC>
    2160:	a9027bfd 	stp	x29, x30, [sp, #32]
    2164:	910083fd 	add	x29, sp, #0x20
    2168:	f9409863 	ldr	x3, [x3, #304]
    216c:	a90353f3 	stp	x19, x20, [sp, #48]
/home/fangjiang/workspace/optee-os/lib/libutee/tee_api_arith_mpi.c:161
    2170:	910003f4 	mov	x20, sp
/home/fangjiang/workspace/optee-os/lib/libutee/tee_api_arith_mpi.c:156
    2174:	a9045bf5 	stp	x21, x22, [sp, #64]
    2178:	aa0103f5 	mov	x21, x1
    217c:	aa0203e1 	mov	x1, x2
    2180:	aa0003f6 	mov	x22, x0
    2184:	f9400060 	ldr	x0, [x3]
    2188:	f9000fe0 	str	x0, [sp, #24]
    218c:	d2800000 	mov	x0, #0x0                   	// #0
/home/fangjiang/workspace/optee-os/lib/libutee/tee_api_arith_mpi.c:161
    2190:	aa1403e0 	mov	x0, x20
    2194:	97fffd8b 	bl	17c0 <get_mpi>
/home/fangjiang/workspace/optee-os/lib/libutee/tee_api_arith_mpi.c:163
    2198:	aa1403e0 	mov	x0, x20
    219c:	94000af7 	bl	4d78 <mbedtls_mpi_size>
    21a0:	aa0003f3 	mov	x19, x0
/home/fangjiang/workspace/optee-os/lib/libutee/tee_api_arith_mpi.c:164
    21a4:	b94002a0 	ldr	w0, [x21]
    21a8:	eb13001f 	cmp	x0, x19
    21ac:	540001a3 	b.cc	21e0 <TEE_BigIntConvertToOctetString+0x88>  // b.lo, b.ul, b.last
/home/fangjiang/workspace/optee-os/lib/libutee/tee_api_arith_mpi.c:165
    21b0:	aa1303e2 	mov	x2, x19
    21b4:	aa1603e1 	mov	x1, x22
    21b8:	aa1403e0 	mov	x0, x20
/home/fangjiang/workspace/optee-os/lib/libutee/tee_api_arith_mpi.c:157
    21bc:	52800016 	mov	w22, #0x0                   	// #0
/home/fangjiang/workspace/optee-os/lib/libutee/tee_api_arith_mpi.c:165
    21c0:	94000b62 	bl	4f48 <mbedtls_mpi_write_binary>
    21c4:	2a0003e2 	mov	w2, w0
    21c8:	340000e0 	cbz	w0, 21e4 <TEE_BigIntConvertToOctetString+0x8c>
/home/fangjiang/workspace/optee-os/lib/libutee/tee_api_arith_mpi.c:165 (discriminator 1)
    21cc:	d0000040 	adrp	x0, c000 <__text_end+0x1c98>
    21d0:	91209400 	add	x0, x0, #0x825
    21d4:	91010000 	add	x0, x0, #0x40
    21d8:	528014a1 	mov	w1, #0xa5                  	// #165
    21dc:	97fffd6d 	bl	1790 <mpi_panic>
/home/fangjiang/workspace/optee-os/lib/libutee/tee_api_arith_mpi.c:167
    21e0:	129ffdf6 	mov	w22, #0xffff0010            	// #-65520
/home/fangjiang/workspace/optee-os/lib/libutee/tee_api_arith_mpi.c:169
    21e4:	b90002b3 	str	w19, [x21]
/home/fangjiang/workspace/optee-os/lib/libutee/tee_api_arith_mpi.c:171
    21e8:	aa1403e0 	mov	x0, x20
    21ec:	940008f8 	bl	45cc <mbedtls_mpi_free>
/home/fangjiang/workspace/optee-os/lib/libutee/tee_api_arith_mpi.c:174
    21f0:	90000063 	adrp	x3, e000 <_DYNAMIC>
    21f4:	f9409863 	ldr	x3, [x3, #304]
    21f8:	f9400fe0 	ldr	x0, [sp, #24]
    21fc:	f9400061 	ldr	x1, [x3]
    2200:	eb010000 	subs	x0, x0, x1
    2204:	d2800001 	mov	x1, #0x0                   	// #0
    2208:	54000040 	b.eq	2210 <TEE_BigIntConvertToOctetString+0xb8>  // b.none
    220c:	94001b53 	bl	8f58 <__stack_chk_fail>
    2210:	2a1603e0 	mov	w0, w22
    2214:	a9427bfd 	ldp	x29, x30, [sp, #32]
    2218:	a94353f3 	ldp	x19, x20, [sp, #48]
    221c:	a9445bf5 	ldp	x21, x22, [sp, #64]
    2220:	910143ff 	add	sp, sp, #0x50
    2224:	d65f03c0 	ret

0000000000002228 <TEE_BigIntConvertFromS32>:
TEE_BigIntConvertFromS32():
/home/fangjiang/workspace/optee-os/lib/libutee/tee_api_arith_mpi.c:177
    2228:	d10143ff 	sub	sp, sp, #0x50
    222c:	a9027bfd 	stp	x29, x30, [sp, #32]
    2230:	910083fd 	add	x29, sp, #0x20
    2234:	a90353f3 	stp	x19, x20, [sp, #48]
    2238:	90000073 	adrp	x19, e000 <_DYNAMIC>
/home/fangjiang/workspace/optee-os/lib/libutee/tee_api_arith_mpi.c:180
    223c:	910003f4 	mov	x20, sp
/home/fangjiang/workspace/optee-os/lib/libutee/tee_api_arith_mpi.c:177
    2240:	a9045bf5 	stp	x21, x22, [sp, #64]
    2244:	aa0003f5 	mov	x21, x0
    2248:	2a0103f6 	mov	w22, w1
    224c:	f9409a60 	ldr	x0, [x19, #304]
    2250:	f9400001 	ldr	x1, [x0]
    2254:	f9000fe1 	str	x1, [sp, #24]
    2258:	d2800001 	mov	x1, #0x0                   	// #0
/home/fangjiang/workspace/optee-os/lib/libutee/tee_api_arith_mpi.c:180
    225c:	aa1403e0 	mov	x0, x20
    2260:	aa1503e1 	mov	x1, x21
    2264:	97fffd57 	bl	17c0 <get_mpi>
/home/fangjiang/workspace/optee-os/lib/libutee/tee_api_arith_mpi.c:182
    2268:	2a1603e1 	mov	w1, w22
    226c:	aa1403e0 	mov	x0, x20
    2270:	94000a4e 	bl	4ba8 <mbedtls_mpi_lset>
    2274:	340000e0 	cbz	w0, 2290 <TEE_BigIntConvertFromS32+0x68>
    2278:	2a0003e2 	mov	w2, w0
/home/fangjiang/workspace/optee-os/lib/libutee/tee_api_arith_mpi.c:182 (discriminator 1)
    227c:	528016c1 	mov	w1, #0xb6                  	// #182
/home/fangjiang/workspace/optee-os/lib/libutee/tee_api_arith_mpi.c:184 (discriminator 1)
    2280:	d0000040 	adrp	x0, c000 <__text_end+0x1c98>
    2284:	91209400 	add	x0, x0, #0x825
    2288:	91017c00 	add	x0, x0, #0x5f
    228c:	97fffd41 	bl	1790 <mpi_panic>
/home/fangjiang/workspace/optee-os/lib/libutee/tee_api_arith_mpi.c:184 (discriminator 2)
    2290:	aa1503e1 	mov	x1, x21
    2294:	aa1403e0 	mov	x0, x20
    2298:	97fffd70 	bl	1858 <copy_mpi_to_bigint>
    229c:	2a0003e2 	mov	w2, w0
    22a0:	34000060 	cbz	w0, 22ac <TEE_BigIntConvertFromS32+0x84>
/home/fangjiang/workspace/optee-os/lib/libutee/tee_api_arith_mpi.c:184 (discriminator 1)
    22a4:	52801701 	mov	w1, #0xb8                  	// #184
    22a8:	17fffff6 	b	2280 <TEE_BigIntConvertFromS32+0x58>
/home/fangjiang/workspace/optee-os/lib/libutee/tee_api_arith_mpi.c:185 (discriminator 2)
    22ac:	aa1403e0 	mov	x0, x20
    22b0:	940008c7 	bl	45cc <mbedtls_mpi_free>
/home/fangjiang/workspace/optee-os/lib/libutee/tee_api_arith_mpi.c:186 (discriminator 2)
    22b4:	f9409a73 	ldr	x19, [x19, #304]
    22b8:	f9400fe0 	ldr	x0, [sp, #24]
    22bc:	f9400261 	ldr	x1, [x19]
    22c0:	eb010000 	subs	x0, x0, x1
    22c4:	d2800001 	mov	x1, #0x0                   	// #0
    22c8:	54000040 	b.eq	22d0 <TEE_BigIntConvertFromS32+0xa8>  // b.none
/home/fangjiang/workspace/optee-os/lib/libutee/tee_api_arith_mpi.c:186
    22cc:	94001b23 	bl	8f58 <__stack_chk_fail>
    22d0:	a9427bfd 	ldp	x29, x30, [sp, #32]
    22d4:	a94353f3 	ldp	x19, x20, [sp, #48]
    22d8:	a9445bf5 	ldp	x21, x22, [sp, #64]
    22dc:	910143ff 	add	sp, sp, #0x50
    22e0:	d65f03c0 	ret

00000000000022e4 <TEE_BigIntConvertToS32>:
TEE_BigIntConvertToS32():
/home/fangjiang/workspace/optee-os/lib/libutee/tee_api_arith_mpi.c:189
    22e4:	d10143ff 	sub	sp, sp, #0x50
    22e8:	90000062 	adrp	x2, e000 <_DYNAMIC>
    22ec:	a9037bfd 	stp	x29, x30, [sp, #48]
    22f0:	9100c3fd 	add	x29, sp, #0x30
    22f4:	f9409842 	ldr	x2, [x2, #304]
    22f8:	a90453f3 	stp	x19, x20, [sp, #64]
/home/fangjiang/workspace/optee-os/lib/libutee/tee_api_arith_mpi.c:194
    22fc:	910043f4 	add	x20, sp, #0x10
/home/fangjiang/workspace/optee-os/lib/libutee/tee_api_arith_mpi.c:189
    2300:	aa0003f3 	mov	x19, x0
    2304:	f9400040 	ldr	x0, [x2]
    2308:	f90017e0 	str	x0, [sp, #40]
    230c:	d2800000 	mov	x0, #0x0                   	// #0
/home/fangjiang/workspace/optee-os/lib/libutee/tee_api_arith_mpi.c:194
    2310:	aa1403e0 	mov	x0, x20
    2314:	97fffd2b 	bl	17c0 <get_mpi>
/home/fangjiang/workspace/optee-os/lib/libutee/tee_api_arith_mpi.c:196
    2318:	910033e1 	add	x1, sp, #0xc
    231c:	aa1403e0 	mov	x0, x20
    2320:	d2800082 	mov	x2, #0x4                   	// #4
    2324:	94000b09 	bl	4f48 <mbedtls_mpi_write_binary>
    2328:	34000180 	cbz	w0, 2358 <TEE_BigIntConvertToS32+0x74>
/home/fangjiang/workspace/optee-os/lib/libutee/tee_api_arith_mpi.c:197
    232c:	1299fe13 	mov	w19, #0xffff300f            	// #-53233
/home/fangjiang/workspace/optee-os/lib/libutee/tee_api_arith_mpi.c:210
    2330:	aa1403e0 	mov	x0, x20
    2334:	940008a6 	bl	45cc <mbedtls_mpi_free>
/home/fangjiang/workspace/optee-os/lib/libutee/tee_api_arith_mpi.c:213
    2338:	90000062 	adrp	x2, e000 <_DYNAMIC>
    233c:	f9409842 	ldr	x2, [x2, #304]
    2340:	f94017e0 	ldr	x0, [sp, #40]
    2344:	f9400041 	ldr	x1, [x2]
    2348:	eb010000 	subs	x0, x0, x1
    234c:	d2800001 	mov	x1, #0x0                   	// #0
    2350:	54000220 	b.eq	2394 <TEE_BigIntConvertToS32+0xb0>  // b.none
    2354:	94001b01 	bl	8f58 <__stack_chk_fail>
/home/fangjiang/workspace/optee-os/lib/libutee/tee_api_arith_mpi.c:202
    2358:	b9400fe1 	ldr	w1, [sp, #12]
/home/fangjiang/workspace/optee-os/lib/libutee/tee_api_arith_mpi.c:201
    235c:	79c023e2 	ldrsh	w2, [sp, #16]
/home/fangjiang/workspace/optee-os/lib/libutee/tee_api_arith_mpi.c:202
    2360:	5ac00820 	rev	w0, w1
    2364:	5ac00821 	rev	w1, w1
/home/fangjiang/workspace/optee-os/lib/libutee/tee_api_arith_mpi.c:201
    2368:	7100005f 	cmp	w2, #0x0
    236c:	540000cd 	b.le	2384 <TEE_BigIntConvertToS32+0xa0>
/home/fangjiang/workspace/optee-os/lib/libutee/tee_api_arith_mpi.c:202
    2370:	eb20c03f 	cmp	x1, w0, sxtw
    2374:	b9000260 	str	w0, [x19]
/home/fangjiang/workspace/optee-os/lib/libutee/tee_api_arith_mpi.c:205
    2378:	54fffda1 	b.ne	232c <TEE_BigIntConvertToS32+0x48>  // b.any
/home/fangjiang/workspace/optee-os/lib/libutee/tee_api_arith_mpi.c:190
    237c:	52800013 	mov	w19, #0x0                   	// #0
    2380:	17ffffec 	b	2330 <TEE_BigIntConvertToS32+0x4c>
/home/fangjiang/workspace/optee-os/lib/libutee/tee_api_arith_mpi.c:205
    2384:	cb0103e1 	neg	x1, x1
    2388:	b9000261 	str	w1, [x19]
    238c:	eb21c03f 	cmp	x1, w1, sxtw
    2390:	17fffffa 	b	2378 <TEE_BigIntConvertToS32+0x94>
/home/fangjiang/workspace/optee-os/lib/libutee/tee_api_arith_mpi.c:213
    2394:	2a1303e0 	mov	w0, w19
    2398:	a9437bfd 	ldp	x29, x30, [sp, #48]
    239c:	a94453f3 	ldp	x19, x20, [sp, #64]
    23a0:	910143ff 	add	sp, sp, #0x50
    23a4:	d65f03c0 	ret

00000000000023a8 <TEE_BigIntCmp>:
TEE_BigIntCmp():
/home/fangjiang/workspace/optee-os/lib/libutee/tee_api_arith_mpi.c:216
    23a8:	d101c3ff 	sub	sp, sp, #0x70
    23ac:	a9047bfd 	stp	x29, x30, [sp, #64]
    23b0:	910103fd 	add	x29, sp, #0x40
    23b4:	a9065bf5 	stp	x21, x22, [sp, #96]
    23b8:	90000075 	adrp	x21, e000 <_DYNAMIC>
    23bc:	aa0103f6 	mov	x22, x1
    23c0:	f9409aa1 	ldr	x1, [x21, #304]
    23c4:	a90553f3 	stp	x19, x20, [sp, #80]
/home/fangjiang/workspace/optee-os/lib/libutee/tee_api_arith_mpi.c:221
    23c8:	910023f4 	add	x20, sp, #0x8
/home/fangjiang/workspace/optee-os/lib/libutee/tee_api_arith_mpi.c:216
    23cc:	f9400022 	ldr	x2, [x1]
    23d0:	f9001fe2 	str	x2, [sp, #56]
    23d4:	d2800002 	mov	x2, #0x0                   	// #0
/home/fangjiang/workspace/optee-os/lib/libutee/tee_api_arith_mpi.c:222
    23d8:	910083f3 	add	x19, sp, #0x20
/home/fangjiang/workspace/optee-os/lib/libutee/tee_api_arith_mpi.c:221
    23dc:	aa0003e1 	mov	x1, x0
    23e0:	aa1403e0 	mov	x0, x20
    23e4:	97fffcf7 	bl	17c0 <get_mpi>
/home/fangjiang/workspace/optee-os/lib/libutee/tee_api_arith_mpi.c:222
    23e8:	aa1603e1 	mov	x1, x22
    23ec:	aa1303e0 	mov	x0, x19
    23f0:	97fffcf4 	bl	17c0 <get_mpi>
/home/fangjiang/workspace/optee-os/lib/libutee/tee_api_arith_mpi.c:224
    23f4:	aa1303e1 	mov	x1, x19
    23f8:	aa1403e0 	mov	x0, x20
    23fc:	94000b9f 	bl	5278 <mbedtls_mpi_cmp_mpi>
    2400:	2a0003f6 	mov	w22, w0
/home/fangjiang/workspace/optee-os/lib/libutee/tee_api_arith_mpi.c:226
    2404:	aa1403e0 	mov	x0, x20
    2408:	94000871 	bl	45cc <mbedtls_mpi_free>
/home/fangjiang/workspace/optee-os/lib/libutee/tee_api_arith_mpi.c:227
    240c:	aa1303e0 	mov	x0, x19
    2410:	9400086f 	bl	45cc <mbedtls_mpi_free>
/home/fangjiang/workspace/optee-os/lib/libutee/tee_api_arith_mpi.c:230
    2414:	f9409ab5 	ldr	x21, [x21, #304]
    2418:	f9401fe0 	ldr	x0, [sp, #56]
    241c:	f94002a1 	ldr	x1, [x21]
    2420:	eb010000 	subs	x0, x0, x1
    2424:	d2800001 	mov	x1, #0x0                   	// #0
    2428:	54000040 	b.eq	2430 <TEE_BigIntCmp+0x88>  // b.none
    242c:	94001acb 	bl	8f58 <__stack_chk_fail>
    2430:	2a1603e0 	mov	w0, w22
    2434:	a9447bfd 	ldp	x29, x30, [sp, #64]
    2438:	a94553f3 	ldp	x19, x20, [sp, #80]
    243c:	a9465bf5 	ldp	x21, x22, [sp, #96]
    2440:	9101c3ff 	add	sp, sp, #0x70
    2444:	d65f03c0 	ret

0000000000002448 <TEE_BigIntCmpS32>:
TEE_BigIntCmpS32():
/home/fangjiang/workspace/optee-os/lib/libutee/tee_api_arith_mpi.c:233
    2448:	d10143ff 	sub	sp, sp, #0x50
    244c:	a9027bfd 	stp	x29, x30, [sp, #32]
    2450:	910083fd 	add	x29, sp, #0x20
    2454:	a90353f3 	stp	x19, x20, [sp, #48]
    2458:	90000074 	adrp	x20, e000 <_DYNAMIC>
/home/fangjiang/workspace/optee-os/lib/libutee/tee_api_arith_mpi.c:237
    245c:	910003f3 	mov	x19, sp
/home/fangjiang/workspace/optee-os/lib/libutee/tee_api_arith_mpi.c:233
    2460:	f90023f5 	str	x21, [sp, #64]
    2464:	2a0103f5 	mov	w21, w1
    2468:	f9409a81 	ldr	x1, [x20, #304]
    246c:	f9400022 	ldr	x2, [x1]
    2470:	f9000fe2 	str	x2, [sp, #24]
    2474:	d2800002 	mov	x2, #0x0                   	// #0
/home/fangjiang/workspace/optee-os/lib/libutee/tee_api_arith_mpi.c:237
    2478:	aa0003e1 	mov	x1, x0
    247c:	aa1303e0 	mov	x0, x19
    2480:	97fffcd0 	bl	17c0 <get_mpi>
/home/fangjiang/workspace/optee-os/lib/libutee/tee_api_arith_mpi.c:239
    2484:	2a1503e1 	mov	w1, w21
    2488:	aa1303e0 	mov	x0, x19
    248c:	94000be0 	bl	540c <mbedtls_mpi_cmp_int>
    2490:	2a0003f5 	mov	w21, w0
/home/fangjiang/workspace/optee-os/lib/libutee/tee_api_arith_mpi.c:241
    2494:	aa1303e0 	mov	x0, x19
    2498:	9400084d 	bl	45cc <mbedtls_mpi_free>
/home/fangjiang/workspace/optee-os/lib/libutee/tee_api_arith_mpi.c:244
    249c:	f9409a94 	ldr	x20, [x20, #304]
    24a0:	f9400fe0 	ldr	x0, [sp, #24]
    24a4:	f9400281 	ldr	x1, [x20]
    24a8:	eb010000 	subs	x0, x0, x1
    24ac:	d2800001 	mov	x1, #0x0                   	// #0
    24b0:	54000040 	b.eq	24b8 <TEE_BigIntCmpS32+0x70>  // b.none
    24b4:	94001aa9 	bl	8f58 <__stack_chk_fail>
    24b8:	2a1503e0 	mov	w0, w21
    24bc:	a9427bfd 	ldp	x29, x30, [sp, #32]
    24c0:	a94353f3 	ldp	x19, x20, [sp, #48]
    24c4:	f94023f5 	ldr	x21, [sp, #64]
    24c8:	910143ff 	add	sp, sp, #0x50
    24cc:	d65f03c0 	ret

00000000000024d0 <bigint_binary_mod>:
bigint_binary_mod():
/home/fangjiang/workspace/optee-os/lib/libutee/tee_api_arith_mpi.c:354
    24d0:	d10383ff 	sub	sp, sp, #0xe0
    24d4:	90000065 	adrp	x5, e000 <_DYNAMIC>
    24d8:	a9087bfd 	stp	x29, x30, [sp, #128]
    24dc:	910203fd 	add	x29, sp, #0x80
    24e0:	f94098a5 	ldr	x5, [x5, #304]
    24e4:	a90953f3 	stp	x19, x20, [sp, #144]
    24e8:	aa0003f4 	mov	x20, x0
    24ec:	a90a5bf5 	stp	x21, x22, [sp, #160]
    24f0:	aa0203f5 	mov	x21, x2
    24f4:	aa0303f6 	mov	x22, x3
    24f8:	a90b63f7 	stp	x23, x24, [sp, #176]
    24fc:	aa0103f7 	mov	x23, x1
/home/fangjiang/workspace/optee-os/lib/libutee/tee_api_arith_mpi.c:363
    2500:	52800041 	mov	w1, #0x2                   	// #2
/home/fangjiang/workspace/optee-os/lib/libutee/tee_api_arith_mpi.c:354
    2504:	a90c6bf9 	stp	x25, x26, [sp, #192]
    2508:	aa0403f9 	mov	x25, x4
    250c:	f9006bfb 	str	x27, [sp, #208]
    2510:	f94000a0 	ldr	x0, [x5]
    2514:	f9003fe0 	str	x0, [sp, #120]
    2518:	d2800000 	mov	x0, #0x0                   	// #0
/home/fangjiang/workspace/optee-os/lib/libutee/tee_api_arith_mpi.c:363
    251c:	aa0303e0 	mov	x0, x3
    2520:	97ffffca 	bl	2448 <TEE_BigIntCmpS32>
    2524:	36f80100 	tbz	w0, #31, 2544 <bigint_binary_mod+0x74>
/home/fangjiang/workspace/optee-os/lib/libutee/tee_api_arith_mpi.c:364
    2528:	d0000040 	adrp	x0, c000 <__text_end+0x1c98>
    252c:	91209400 	add	x0, x0, #0x825
    2530:	d0000042 	adrp	x2, c000 <__text_end+0x1c98>
    2534:	9101e000 	add	x0, x0, #0x78
    2538:	911f9442 	add	x2, x2, #0x7e5
    253c:	52802d81 	mov	w1, #0x16c                 	// #364
    2540:	97fffc88 	bl	1760 <api_panic>
/home/fangjiang/workspace/optee-os/lib/libutee/tee_api_arith_mpi.c:366
    2544:	910003f3 	mov	x19, sp
    2548:	aa1403e1 	mov	x1, x20
    254c:	aa1303e0 	mov	x0, x19
/home/fangjiang/workspace/optee-os/lib/libutee/tee_api_arith_mpi.c:367
    2550:	910123f8 	add	x24, sp, #0x48
/home/fangjiang/workspace/optee-os/lib/libutee/tee_api_arith_mpi.c:366
    2554:	97fffc9b 	bl	17c0 <get_mpi>
/home/fangjiang/workspace/optee-os/lib/libutee/tee_api_arith_mpi.c:367
    2558:	910063fb 	add	x27, sp, #0x18
    255c:	aa1603e1 	mov	x1, x22
    2560:	aa1803e0 	mov	x0, x24
    2564:	97fffc97 	bl	17c0 <get_mpi>
/home/fangjiang/workspace/optee-os/lib/libutee/tee_api_arith_mpi.c:369
    2568:	eb17029f 	cmp	x20, x23
    256c:	54000380 	b.eq	25dc <bigint_binary_mod+0x10c>  // b.none
/home/fangjiang/workspace/optee-os/lib/libutee/tee_api_arith_mpi.c:359
    2570:	aa1b03f6 	mov	x22, x27
/home/fangjiang/workspace/optee-os/lib/libutee/tee_api_arith_mpi.c:372
    2574:	aa1703e1 	mov	x1, x23
    2578:	aa1b03e0 	mov	x0, x27
    257c:	97fffc91 	bl	17c0 <get_mpi>
/home/fangjiang/workspace/optee-os/lib/libutee/tee_api_arith_mpi.c:374
    2580:	eb15029f 	cmp	x20, x21
    2584:	9100c3fa 	add	x26, sp, #0x30
    2588:	540002e0 	b.eq	25e4 <bigint_binary_mod+0x114>  // b.none
/home/fangjiang/workspace/optee-os/lib/libutee/tee_api_arith_mpi.c:376
    258c:	eb1502ff 	cmp	x23, x21
    2590:	540002e0 	b.eq	25ec <bigint_binary_mod+0x11c>  // b.none
/home/fangjiang/workspace/optee-os/lib/libutee/tee_api_arith_mpi.c:379
    2594:	aa1503e1 	mov	x1, x21
/home/fangjiang/workspace/optee-os/lib/libutee/tee_api_arith_mpi.c:360
    2598:	aa1a03f5 	mov	x21, x26
/home/fangjiang/workspace/optee-os/lib/libutee/tee_api_arith_mpi.c:379
    259c:	aa1a03e0 	mov	x0, x26
    25a0:	97fffc88 	bl	17c0 <get_mpi>
get_mpi():
/home/fangjiang/workspace/optee-os/lib/libutee/tee_api_arith_mpi.c:101
    25a4:	910183f7 	add	x23, sp, #0x60
    25a8:	aa1703e0 	mov	x0, x23
    25ac:	940007fe 	bl	45a4 <mbedtls_mpi_init_mempool>
bigint_binary_mod():
/home/fangjiang/workspace/optee-os/lib/libutee/tee_api_arith_mpi.c:383
    25b0:	aa1503e2 	mov	x2, x21
    25b4:	aa1603e1 	mov	x1, x22
    25b8:	aa1703e0 	mov	x0, x23
    25bc:	d63f0320 	blr	x25
    25c0:	2a0003e2 	mov	w2, w0
    25c4:	34000180 	cbz	w0, 25f4 <bigint_binary_mod+0x124>
/home/fangjiang/workspace/optee-os/lib/libutee/tee_api_arith_mpi.c:383 (discriminator 1)
    25c8:	52802fe1 	mov	w1, #0x17f                 	// #383
/home/fangjiang/workspace/optee-os/lib/libutee/tee_api_arith_mpi.c:384 (discriminator 1)
    25cc:	d0000040 	adrp	x0, c000 <__text_end+0x1c98>
    25d0:	91209400 	add	x0, x0, #0x825
    25d4:	9101e000 	add	x0, x0, #0x78
    25d8:	97fffc6e 	bl	1790 <mpi_panic>
/home/fangjiang/workspace/optee-os/lib/libutee/tee_api_arith_mpi.c:370
    25dc:	aa1303f6 	mov	x22, x19
    25e0:	17ffffe8 	b	2580 <bigint_binary_mod+0xb0>
/home/fangjiang/workspace/optee-os/lib/libutee/tee_api_arith_mpi.c:375
    25e4:	aa1303f5 	mov	x21, x19
    25e8:	17ffffef 	b	25a4 <bigint_binary_mod+0xd4>
/home/fangjiang/workspace/optee-os/lib/libutee/tee_api_arith_mpi.c:377
    25ec:	aa1603f5 	mov	x21, x22
    25f0:	17ffffed 	b	25a4 <bigint_binary_mod+0xd4>
/home/fangjiang/workspace/optee-os/lib/libutee/tee_api_arith_mpi.c:384 (discriminator 2)
    25f4:	aa1803e2 	mov	x2, x24
    25f8:	aa1703e1 	mov	x1, x23
    25fc:	aa1303e0 	mov	x0, x19
    2600:	94000f4d 	bl	6334 <mbedtls_mpi_mod_mpi>
    2604:	2a0003e2 	mov	w2, w0
    2608:	34000060 	cbz	w0, 2614 <bigint_binary_mod+0x144>
/home/fangjiang/workspace/optee-os/lib/libutee/tee_api_arith_mpi.c:384 (discriminator 1)
    260c:	52803001 	mov	w1, #0x180                 	// #384
    2610:	17ffffef 	b	25cc <bigint_binary_mod+0xfc>
/home/fangjiang/workspace/optee-os/lib/libutee/tee_api_arith_mpi.c:386 (discriminator 2)
    2614:	aa1403e1 	mov	x1, x20
    2618:	aa1303e0 	mov	x0, x19
    261c:	97fffc8f 	bl	1858 <copy_mpi_to_bigint>
    2620:	2a0003e2 	mov	w2, w0
    2624:	34000060 	cbz	w0, 2630 <bigint_binary_mod+0x160>
/home/fangjiang/workspace/optee-os/lib/libutee/tee_api_arith_mpi.c:386 (discriminator 1)
    2628:	52803041 	mov	w1, #0x182                 	// #386
    262c:	17ffffe8 	b	25cc <bigint_binary_mod+0xfc>
/home/fangjiang/workspace/optee-os/lib/libutee/tee_api_arith_mpi.c:387 (discriminator 2)
    2630:	aa1303e0 	mov	x0, x19
    2634:	940007e6 	bl	45cc <mbedtls_mpi_free>
/home/fangjiang/workspace/optee-os/lib/libutee/tee_api_arith_mpi.c:388 (discriminator 2)
    2638:	eb1b02df 	cmp	x22, x27
    263c:	54000061 	b.ne	2648 <bigint_binary_mod+0x178>  // b.any
/home/fangjiang/workspace/optee-os/lib/libutee/tee_api_arith_mpi.c:389
    2640:	aa1603e0 	mov	x0, x22
    2644:	940007e2 	bl	45cc <mbedtls_mpi_free>
/home/fangjiang/workspace/optee-os/lib/libutee/tee_api_arith_mpi.c:390
    2648:	eb1a02bf 	cmp	x21, x26
    264c:	54000061 	b.ne	2658 <bigint_binary_mod+0x188>  // b.any
/home/fangjiang/workspace/optee-os/lib/libutee/tee_api_arith_mpi.c:391
    2650:	aa1503e0 	mov	x0, x21
    2654:	940007de 	bl	45cc <mbedtls_mpi_free>
/home/fangjiang/workspace/optee-os/lib/libutee/tee_api_arith_mpi.c:392
    2658:	aa1703e0 	mov	x0, x23
    265c:	940007dc 	bl	45cc <mbedtls_mpi_free>
/home/fangjiang/workspace/optee-os/lib/libutee/tee_api_arith_mpi.c:393
    2660:	aa1803e0 	mov	x0, x24
    2664:	940007da 	bl	45cc <mbedtls_mpi_free>
/home/fangjiang/workspace/optee-os/lib/libutee/tee_api_arith_mpi.c:394
    2668:	90000065 	adrp	x5, e000 <_DYNAMIC>
    266c:	f94098a5 	ldr	x5, [x5, #304]
    2670:	f9403fe0 	ldr	x0, [sp, #120]
    2674:	f94000a1 	ldr	x1, [x5]
    2678:	eb010000 	subs	x0, x0, x1
    267c:	d2800001 	mov	x1, #0x0                   	// #0
    2680:	54000040 	b.eq	2688 <bigint_binary_mod+0x1b8>  // b.none
    2684:	94001a35 	bl	8f58 <__stack_chk_fail>
    2688:	a9487bfd 	ldp	x29, x30, [sp, #128]
    268c:	a94953f3 	ldp	x19, x20, [sp, #144]
    2690:	a94a5bf5 	ldp	x21, x22, [sp, #160]
    2694:	a94b63f7 	ldp	x23, x24, [sp, #176]
    2698:	a94c6bf9 	ldp	x25, x26, [sp, #192]
    269c:	f9406bfb 	ldr	x27, [sp, #208]
    26a0:	910383ff 	add	sp, sp, #0xe0
    26a4:	d65f03c0 	ret

00000000000026a8 <TEE_BigIntShiftRight>:
TEE_BigIntShiftRight():
/home/fangjiang/workspace/optee-os/lib/libutee/tee_api_arith_mpi.c:247
    26a8:	d10243ff 	sub	sp, sp, #0x90
    26ac:	90000063 	adrp	x3, e000 <_DYNAMIC>
    26b0:	a9057bfd 	stp	x29, x30, [sp, #80]
    26b4:	910143fd 	add	x29, sp, #0x50
    26b8:	f9409863 	ldr	x3, [x3, #304]
    26bc:	a90653f3 	stp	x19, x20, [sp, #96]
    26c0:	aa0003f4 	mov	x20, x0
    26c4:	a9075bf5 	stp	x21, x22, [sp, #112]
/home/fangjiang/workspace/optee-os/lib/libutee/tee_api_arith_mpi.c:251
    26c8:	910003f3 	mov	x19, sp
/home/fangjiang/workspace/optee-os/lib/libutee/tee_api_arith_mpi.c:247
    26cc:	aa0103f6 	mov	x22, x1
    26d0:	f90043f7 	str	x23, [sp, #128]
/home/fangjiang/workspace/optee-os/lib/libutee/tee_api_arith_mpi.c:251
    26d4:	aa0003e1 	mov	x1, x0
/home/fangjiang/workspace/optee-os/lib/libutee/tee_api_arith_mpi.c:247
    26d8:	aa0203f7 	mov	x23, x2
    26dc:	f9400060 	ldr	x0, [x3]
    26e0:	f90027e0 	str	x0, [sp, #72]
    26e4:	d2800000 	mov	x0, #0x0                   	// #0
/home/fangjiang/workspace/optee-os/lib/libutee/tee_api_arith_mpi.c:251
    26e8:	aa1303e0 	mov	x0, x19
    26ec:	97fffc35 	bl	17c0 <get_mpi>
/home/fangjiang/workspace/optee-os/lib/libutee/tee_api_arith_mpi.c:253
    26f0:	eb16029f 	cmp	x20, x22
    26f4:	54000161 	b.ne	2720 <TEE_BigIntShiftRight+0x78>  // b.any
/home/fangjiang/workspace/optee-os/lib/libutee/tee_api_arith_mpi.c:254
    26f8:	aa1703e1 	mov	x1, x23
    26fc:	aa1303e0 	mov	x0, x19
    2700:	94000a87 	bl	511c <mbedtls_mpi_shift_r>
    2704:	2a0003e2 	mov	w2, w0
    2708:	34000760 	cbz	w0, 27f4 <TEE_BigIntShiftRight+0x14c>
/home/fangjiang/workspace/optee-os/lib/libutee/tee_api_arith_mpi.c:254 (discriminator 1)
    270c:	52801fc1 	mov	w1, #0xfe                  	// #254
/home/fangjiang/workspace/optee-os/lib/libutee/tee_api_arith_mpi.c:261 (discriminator 1)
    2710:	d0000040 	adrp	x0, c000 <__text_end+0x1c98>
    2714:	91209400 	add	x0, x0, #0x825
    2718:	91022800 	add	x0, x0, #0x8a
    271c:	97fffc1d 	bl	1790 <mpi_panic>
/home/fangjiang/workspace/optee-os/lib/libutee/tee_api_arith_mpi.c:258
    2720:	aa1603e1 	mov	x1, x22
    2724:	910063f5 	add	x21, sp, #0x18
    2728:	aa1503e0 	mov	x0, x21
    272c:	97fffc25 	bl	17c0 <get_mpi>
/home/fangjiang/workspace/optee-os/lib/libutee/tee_api_arith_mpi.c:260
    2730:	aa1303e0 	mov	x0, x19
    2734:	94000991 	bl	4d78 <mbedtls_mpi_size>
    2738:	aa0003f6 	mov	x22, x0
    273c:	aa1503e0 	mov	x0, x21
    2740:	9400098e 	bl	4d78 <mbedtls_mpi_size>
    2744:	eb0002df 	cmp	x22, x0
    2748:	540001e3 	b.cc	2784 <TEE_BigIntShiftRight+0xdc>  // b.lo, b.ul, b.last
/home/fangjiang/workspace/optee-os/lib/libutee/tee_api_arith_mpi.c:261
    274c:	aa1503e1 	mov	x1, x21
    2750:	aa1303e0 	mov	x0, x19
    2754:	94000854 	bl	48a4 <mbedtls_mpi_copy>
    2758:	2a0003e2 	mov	w2, w0
    275c:	34000060 	cbz	w0, 2768 <TEE_BigIntShiftRight+0xc0>
/home/fangjiang/workspace/optee-os/lib/libutee/tee_api_arith_mpi.c:261 (discriminator 1)
    2760:	528020a1 	mov	w1, #0x105                 	// #261
    2764:	17ffffeb 	b	2710 <TEE_BigIntShiftRight+0x68>
/home/fangjiang/workspace/optee-os/lib/libutee/tee_api_arith_mpi.c:262 (discriminator 2)
    2768:	aa1703e1 	mov	x1, x23
    276c:	aa1303e0 	mov	x0, x19
    2770:	94000a6b 	bl	511c <mbedtls_mpi_shift_r>
    2774:	2a0003e2 	mov	w2, w0
    2778:	340003a0 	cbz	w0, 27ec <TEE_BigIntShiftRight+0x144>
/home/fangjiang/workspace/optee-os/lib/libutee/tee_api_arith_mpi.c:262 (discriminator 1)
    277c:	528020c1 	mov	w1, #0x106                 	// #262
    2780:	17ffffe4 	b	2710 <TEE_BigIntShiftRight+0x68>
get_mpi():
/home/fangjiang/workspace/optee-os/lib/libutee/tee_api_arith_mpi.c:101
    2784:	9100c3f6 	add	x22, sp, #0x30
    2788:	aa1603e0 	mov	x0, x22
    278c:	94000786 	bl	45a4 <mbedtls_mpi_init_mempool>
TEE_BigIntShiftRight():
/home/fangjiang/workspace/optee-os/lib/libutee/tee_api_arith_mpi.c:273
    2790:	aa1503e1 	mov	x1, x21
    2794:	aa1603e0 	mov	x0, x22
    2798:	94000843 	bl	48a4 <mbedtls_mpi_copy>
    279c:	2a0003e2 	mov	w2, w0
    27a0:	34000060 	cbz	w0, 27ac <TEE_BigIntShiftRight+0x104>
/home/fangjiang/workspace/optee-os/lib/libutee/tee_api_arith_mpi.c:273 (discriminator 1)
    27a4:	52802221 	mov	w1, #0x111                 	// #273
    27a8:	17ffffda 	b	2710 <TEE_BigIntShiftRight+0x68>
/home/fangjiang/workspace/optee-os/lib/libutee/tee_api_arith_mpi.c:274 (discriminator 2)
    27ac:	aa1703e1 	mov	x1, x23
    27b0:	aa1603e0 	mov	x0, x22
    27b4:	94000a5a 	bl	511c <mbedtls_mpi_shift_r>
    27b8:	2a0003e2 	mov	w2, w0
    27bc:	34000060 	cbz	w0, 27c8 <TEE_BigIntShiftRight+0x120>
/home/fangjiang/workspace/optee-os/lib/libutee/tee_api_arith_mpi.c:274 (discriminator 1)
    27c0:	52802241 	mov	w1, #0x112                 	// #274
    27c4:	17ffffd3 	b	2710 <TEE_BigIntShiftRight+0x68>
/home/fangjiang/workspace/optee-os/lib/libutee/tee_api_arith_mpi.c:275 (discriminator 2)
    27c8:	aa1603e1 	mov	x1, x22
    27cc:	aa1303e0 	mov	x0, x19
    27d0:	94000835 	bl	48a4 <mbedtls_mpi_copy>
    27d4:	2a0003e2 	mov	w2, w0
    27d8:	34000060 	cbz	w0, 27e4 <TEE_BigIntShiftRight+0x13c>
/home/fangjiang/workspace/optee-os/lib/libutee/tee_api_arith_mpi.c:275 (discriminator 1)
    27dc:	52802261 	mov	w1, #0x113                 	// #275
    27e0:	17ffffcc 	b	2710 <TEE_BigIntShiftRight+0x68>
/home/fangjiang/workspace/optee-os/lib/libutee/tee_api_arith_mpi.c:277 (discriminator 2)
    27e4:	aa1603e0 	mov	x0, x22
    27e8:	94000779 	bl	45cc <mbedtls_mpi_free>
/home/fangjiang/workspace/optee-os/lib/libutee/tee_api_arith_mpi.c:280
    27ec:	aa1503e0 	mov	x0, x21
    27f0:	94000777 	bl	45cc <mbedtls_mpi_free>
/home/fangjiang/workspace/optee-os/lib/libutee/tee_api_arith_mpi.c:283
    27f4:	aa1403e1 	mov	x1, x20
    27f8:	aa1303e0 	mov	x0, x19
    27fc:	97fffc17 	bl	1858 <copy_mpi_to_bigint>
    2800:	2a0003e2 	mov	w2, w0
    2804:	34000060 	cbz	w0, 2810 <TEE_BigIntShiftRight+0x168>
/home/fangjiang/workspace/optee-os/lib/libutee/tee_api_arith_mpi.c:283 (discriminator 1)
    2808:	52802361 	mov	w1, #0x11b                 	// #283
    280c:	17ffffc1 	b	2710 <TEE_BigIntShiftRight+0x68>
/home/fangjiang/workspace/optee-os/lib/libutee/tee_api_arith_mpi.c:284 (discriminator 2)
    2810:	aa1303e0 	mov	x0, x19
    2814:	9400076e 	bl	45cc <mbedtls_mpi_free>
/home/fangjiang/workspace/optee-os/lib/libutee/tee_api_arith_mpi.c:285 (discriminator 2)
    2818:	90000063 	adrp	x3, e000 <_DYNAMIC>
    281c:	f9409863 	ldr	x3, [x3, #304]
    2820:	f94027e0 	ldr	x0, [sp, #72]
    2824:	f9400061 	ldr	x1, [x3]
    2828:	eb010000 	subs	x0, x0, x1
    282c:	d2800001 	mov	x1, #0x0                   	// #0
    2830:	54000040 	b.eq	2838 <TEE_BigIntShiftRight+0x190>  // b.none
/home/fangjiang/workspace/optee-os/lib/libutee/tee_api_arith_mpi.c:285
    2834:	940019c9 	bl	8f58 <__stack_chk_fail>
    2838:	a9457bfd 	ldp	x29, x30, [sp, #80]
    283c:	a94653f3 	ldp	x19, x20, [sp, #96]
    2840:	a9475bf5 	ldp	x21, x22, [sp, #112]
    2844:	f94043f7 	ldr	x23, [sp, #128]
    2848:	910243ff 	add	sp, sp, #0x90
    284c:	d65f03c0 	ret

0000000000002850 <TEE_BigIntGetBit>:
TEE_BigIntGetBit():
/home/fangjiang/workspace/optee-os/lib/libutee/tee_api_arith_mpi.c:288
    2850:	d10143ff 	sub	sp, sp, #0x50
    2854:	a9027bfd 	stp	x29, x30, [sp, #32]
    2858:	910083fd 	add	x29, sp, #0x20
    285c:	a90353f3 	stp	x19, x20, [sp, #48]
    2860:	90000074 	adrp	x20, e000 <_DYNAMIC>
/home/fangjiang/workspace/optee-os/lib/libutee/tee_api_arith_mpi.c:292
    2864:	910003f3 	mov	x19, sp
/home/fangjiang/workspace/optee-os/lib/libutee/tee_api_arith_mpi.c:288
    2868:	f90023f5 	str	x21, [sp, #64]
    286c:	2a0103f5 	mov	w21, w1
    2870:	f9409a81 	ldr	x1, [x20, #304]
    2874:	f9400022 	ldr	x2, [x1]
    2878:	f9000fe2 	str	x2, [sp, #24]
    287c:	d2800002 	mov	x2, #0x0                   	// #0
/home/fangjiang/workspace/optee-os/lib/libutee/tee_api_arith_mpi.c:292
    2880:	aa0003e1 	mov	x1, x0
    2884:	aa1303e0 	mov	x0, x19
    2888:	97fffbce 	bl	17c0 <get_mpi>
/home/fangjiang/workspace/optee-os/lib/libutee/tee_api_arith_mpi.c:294
    288c:	2a1503e1 	mov	w1, w21
    2890:	aa1303e0 	mov	x0, x19
    2894:	940008df 	bl	4c10 <mbedtls_mpi_get_bit>
    2898:	2a0003f5 	mov	w21, w0
/home/fangjiang/workspace/optee-os/lib/libutee/tee_api_arith_mpi.c:296
    289c:	aa1303e0 	mov	x0, x19
    28a0:	9400074b 	bl	45cc <mbedtls_mpi_free>
/home/fangjiang/workspace/optee-os/lib/libutee/tee_api_arith_mpi.c:299
    28a4:	f9409a94 	ldr	x20, [x20, #304]
/home/fangjiang/workspace/optee-os/lib/libutee/tee_api_arith_mpi.c:294
    28a8:	710002bf 	cmp	w21, #0x0
    28ac:	1a9f07e0 	cset	w0, ne  // ne = any
/home/fangjiang/workspace/optee-os/lib/libutee/tee_api_arith_mpi.c:299
    28b0:	f9400fe1 	ldr	x1, [sp, #24]
    28b4:	f9400282 	ldr	x2, [x20]
    28b8:	eb020021 	subs	x1, x1, x2
    28bc:	d2800002 	mov	x2, #0x0                   	// #0
    28c0:	54000040 	b.eq	28c8 <TEE_BigIntGetBit+0x78>  // b.none
    28c4:	940019a5 	bl	8f58 <__stack_chk_fail>
    28c8:	a9427bfd 	ldp	x29, x30, [sp, #32]
    28cc:	a94353f3 	ldp	x19, x20, [sp, #48]
    28d0:	f94023f5 	ldr	x21, [sp, #64]
    28d4:	910143ff 	add	sp, sp, #0x50
    28d8:	d65f03c0 	ret

00000000000028dc <TEE_BigIntGetBitCount>:
TEE_BigIntGetBitCount():
/home/fangjiang/workspace/optee-os/lib/libutee/tee_api_arith_mpi.c:302
    28dc:	d10143ff 	sub	sp, sp, #0x50
    28e0:	a9027bfd 	stp	x29, x30, [sp, #32]
    28e4:	910083fd 	add	x29, sp, #0x20
    28e8:	a90353f3 	stp	x19, x20, [sp, #48]
    28ec:	90000074 	adrp	x20, e000 <_DYNAMIC>
/home/fangjiang/workspace/optee-os/lib/libutee/tee_api_arith_mpi.c:306
    28f0:	910003f3 	mov	x19, sp
/home/fangjiang/workspace/optee-os/lib/libutee/tee_api_arith_mpi.c:302
    28f4:	f9409a81 	ldr	x1, [x20, #304]
    28f8:	f90023f5 	str	x21, [sp, #64]
    28fc:	f9400022 	ldr	x2, [x1]
    2900:	f9000fe2 	str	x2, [sp, #24]
    2904:	d2800002 	mov	x2, #0x0                   	// #0
/home/fangjiang/workspace/optee-os/lib/libutee/tee_api_arith_mpi.c:306
    2908:	aa0003e1 	mov	x1, x0
    290c:	aa1303e0 	mov	x0, x19
    2910:	97fffbac 	bl	17c0 <get_mpi>
/home/fangjiang/workspace/optee-os/lib/libutee/tee_api_arith_mpi.c:308
    2914:	aa1303e0 	mov	x0, x19
    2918:	94000901 	bl	4d1c <mbedtls_mpi_bitlen>
    291c:	aa0003f5 	mov	x21, x0
/home/fangjiang/workspace/optee-os/lib/libutee/tee_api_arith_mpi.c:310
    2920:	aa1303e0 	mov	x0, x19
    2924:	9400072a 	bl	45cc <mbedtls_mpi_free>
/home/fangjiang/workspace/optee-os/lib/libutee/tee_api_arith_mpi.c:313
    2928:	f9409a94 	ldr	x20, [x20, #304]
    292c:	f9400fe0 	ldr	x0, [sp, #24]
    2930:	f9400281 	ldr	x1, [x20]
    2934:	eb010000 	subs	x0, x0, x1
    2938:	d2800001 	mov	x1, #0x0                   	// #0
    293c:	54000040 	b.eq	2944 <TEE_BigIntGetBitCount+0x68>  // b.none
    2940:	94001986 	bl	8f58 <__stack_chk_fail>
    2944:	2a1503e0 	mov	w0, w21
    2948:	a9427bfd 	ldp	x29, x30, [sp, #32]
    294c:	a94353f3 	ldp	x19, x20, [sp, #48]
    2950:	f94023f5 	ldr	x21, [sp, #64]
    2954:	910143ff 	add	sp, sp, #0x50
    2958:	d65f03c0 	ret

000000000000295c <TEE_BigIntAdd>:
TEE_BigIntAdd():
/home/fangjiang/workspace/optee-os/lib/libutee/tee_api_arith_mpi.c:399
    295c:	90000063 	adrp	x3, e000 <_DYNAMIC>
    2960:	f940ac63 	ldr	x3, [x3, #344]
    2964:	17fffbd6 	b	18bc <bigint_binary>

0000000000002968 <TEE_BigIntSub>:
TEE_BigIntSub():
/home/fangjiang/workspace/optee-os/lib/libutee/tee_api_arith_mpi.c:405
    2968:	90000063 	adrp	x3, e000 <_DYNAMIC>
    296c:	f940b463 	ldr	x3, [x3, #360]
    2970:	17fffbd3 	b	18bc <bigint_binary>

0000000000002974 <TEE_BigIntNeg>:
TEE_BigIntNeg():
/home/fangjiang/workspace/optee-os/lib/libutee/tee_api_arith_mpi.c:409
    2974:	d101c3ff 	sub	sp, sp, #0x70
    2978:	90000062 	adrp	x2, e000 <_DYNAMIC>
    297c:	a9047bfd 	stp	x29, x30, [sp, #64]
    2980:	910103fd 	add	x29, sp, #0x40
    2984:	f9409842 	ldr	x2, [x2, #304]
    2988:	a90553f3 	stp	x19, x20, [sp, #80]
    298c:	aa0003f3 	mov	x19, x0
    2990:	a9065bf5 	stp	x21, x22, [sp, #96]
/home/fangjiang/workspace/optee-os/lib/libutee/tee_api_arith_mpi.c:412
    2994:	910023f4 	add	x20, sp, #0x8
/home/fangjiang/workspace/optee-os/lib/libutee/tee_api_arith_mpi.c:409
    2998:	aa0103f5 	mov	x21, x1
    299c:	f9400040 	ldr	x0, [x2]
    29a0:	f9001fe0 	str	x0, [sp, #56]
    29a4:	d2800000 	mov	x0, #0x0                   	// #0
/home/fangjiang/workspace/optee-os/lib/libutee/tee_api_arith_mpi.c:412
    29a8:	aa1303e1 	mov	x1, x19
    29ac:	aa1403e0 	mov	x0, x20
    29b0:	97fffb84 	bl	17c0 <get_mpi>
/home/fangjiang/workspace/optee-os/lib/libutee/tee_api_arith_mpi.c:414
    29b4:	eb15027f 	cmp	x19, x21
    29b8:	54000220 	b.eq	29fc <TEE_BigIntNeg+0x88>  // b.none
/home/fangjiang/workspace/optee-os/lib/libutee/tee_api_arith_mpi.c:417
    29bc:	910083f6 	add	x22, sp, #0x20
    29c0:	aa1503e1 	mov	x1, x21
    29c4:	aa1603e0 	mov	x0, x22
    29c8:	97fffb7e 	bl	17c0 <get_mpi>
/home/fangjiang/workspace/optee-os/lib/libutee/tee_api_arith_mpi.c:419
    29cc:	aa1603e1 	mov	x1, x22
    29d0:	aa1403e0 	mov	x0, x20
    29d4:	940007b4 	bl	48a4 <mbedtls_mpi_copy>
    29d8:	2a0003e2 	mov	w2, w0
    29dc:	340000c0 	cbz	w0, 29f4 <TEE_BigIntNeg+0x80>
/home/fangjiang/workspace/optee-os/lib/libutee/tee_api_arith_mpi.c:419 (discriminator 1)
    29e0:	52803461 	mov	w1, #0x1a3                 	// #419
/home/fangjiang/workspace/optee-os/lib/libutee/tee_api_arith_mpi.c:426 (discriminator 1)
    29e4:	d0000040 	adrp	x0, c000 <__text_end+0x1c98>
    29e8:	91209400 	add	x0, x0, #0x825
    29ec:	91027c00 	add	x0, x0, #0x9f
    29f0:	97fffb68 	bl	1790 <mpi_panic>
/home/fangjiang/workspace/optee-os/lib/libutee/tee_api_arith_mpi.c:421 (discriminator 2)
    29f4:	aa1603e0 	mov	x0, x22
    29f8:	940006f5 	bl	45cc <mbedtls_mpi_free>
/home/fangjiang/workspace/optee-os/lib/libutee/tee_api_arith_mpi.c:424
    29fc:	794013e0 	ldrh	w0, [sp, #8]
/home/fangjiang/workspace/optee-os/lib/libutee/tee_api_arith_mpi.c:426
    2a00:	aa1303e1 	mov	x1, x19
/home/fangjiang/workspace/optee-os/lib/libutee/tee_api_arith_mpi.c:424
    2a04:	4b0003e0 	neg	w0, w0
    2a08:	790013e0 	strh	w0, [sp, #8]
/home/fangjiang/workspace/optee-os/lib/libutee/tee_api_arith_mpi.c:426
    2a0c:	aa1403e0 	mov	x0, x20
    2a10:	97fffb92 	bl	1858 <copy_mpi_to_bigint>
    2a14:	2a0003e2 	mov	w2, w0
    2a18:	34000060 	cbz	w0, 2a24 <TEE_BigIntNeg+0xb0>
/home/fangjiang/workspace/optee-os/lib/libutee/tee_api_arith_mpi.c:426 (discriminator 1)
    2a1c:	52803541 	mov	w1, #0x1aa                 	// #426
    2a20:	17fffff1 	b	29e4 <TEE_BigIntNeg+0x70>
/home/fangjiang/workspace/optee-os/lib/libutee/tee_api_arith_mpi.c:427 (discriminator 2)
    2a24:	aa1403e0 	mov	x0, x20
    2a28:	940006e9 	bl	45cc <mbedtls_mpi_free>
/home/fangjiang/workspace/optee-os/lib/libutee/tee_api_arith_mpi.c:428 (discriminator 2)
    2a2c:	90000062 	adrp	x2, e000 <_DYNAMIC>
    2a30:	f9409842 	ldr	x2, [x2, #304]
    2a34:	f9401fe0 	ldr	x0, [sp, #56]
    2a38:	f9400041 	ldr	x1, [x2]
    2a3c:	eb010000 	subs	x0, x0, x1
    2a40:	d2800001 	mov	x1, #0x0                   	// #0
    2a44:	54000040 	b.eq	2a4c <TEE_BigIntNeg+0xd8>  // b.none
/home/fangjiang/workspace/optee-os/lib/libutee/tee_api_arith_mpi.c:428
    2a48:	94001944 	bl	8f58 <__stack_chk_fail>
    2a4c:	a9447bfd 	ldp	x29, x30, [sp, #64]
    2a50:	a94553f3 	ldp	x19, x20, [sp, #80]
    2a54:	a9465bf5 	ldp	x21, x22, [sp, #96]
    2a58:	9101c3ff 	add	sp, sp, #0x70
    2a5c:	d65f03c0 	ret

0000000000002a60 <TEE_BigIntMul>:
TEE_BigIntMul():
/home/fangjiang/workspace/optee-os/lib/libutee/tee_api_arith_mpi.c:432
    2a60:	d101c3ff 	sub	sp, sp, #0x70
    2a64:	a9027bfd 	stp	x29, x30, [sp, #32]
    2a68:	910083fd 	add	x29, sp, #0x20
    2a6c:	f90033f9 	str	x25, [sp, #96]
    2a70:	90000079 	adrp	x25, e000 <_DYNAMIC>
    2a74:	a90563f7 	stp	x23, x24, [sp, #80]
    2a78:	aa0003f7 	mov	x23, x0
    2a7c:	aa1903f8 	mov	x24, x25
    2a80:	f9409b20 	ldr	x0, [x25, #304]
    2a84:	a90353f3 	stp	x19, x20, [sp, #48]
    2a88:	a9045bf5 	stp	x21, x22, [sp, #64]
    2a8c:	aa0103f5 	mov	x21, x1
    2a90:	aa0203f6 	mov	x22, x2
    2a94:	f9400001 	ldr	x1, [x0]
    2a98:	f9000fe1 	str	x1, [sp, #24]
    2a9c:	d2800001 	mov	x1, #0x0                   	// #0
/home/fangjiang/workspace/optee-os/lib/libutee/tee_api_arith_mpi.c:433
    2aa0:	aa1503e0 	mov	x0, x21
    2aa4:	97ffff8e 	bl	28dc <TEE_BigIntGetBitCount>
    2aa8:	2a0003f3 	mov	w19, w0
/home/fangjiang/workspace/optee-os/lib/libutee/tee_api_arith_mpi.c:434
    2aac:	aa1603e0 	mov	x0, x22
    2ab0:	97ffff8b 	bl	28dc <TEE_BigIntGetBitCount>
    2ab4:	2a0003e0 	mov	w0, w0
/home/fangjiang/workspace/optee-os/lib/libutee/tee_api_arith_mpi.c:435
    2ab8:	91007e73 	add	x19, x19, #0x1f
    2abc:	91007c00 	add	x0, x0, #0x1f
/home/fangjiang/workspace/optee-os/lib/libutee/tee_api_arith_mpi.c:436
    2ac0:	f90007ff 	str	xzr, [sp, #8]
    2ac4:	b90013ff 	str	wzr, [sp, #16]
/home/fangjiang/workspace/optee-os/lib/libutee/tee_api_arith_mpi.c:435
    2ac8:	d345fc00 	lsr	x0, x0, #5
    2acc:	8b531413 	add	x19, x0, x19, lsr #5
/home/fangjiang/workspace/optee-os/lib/libutee/tee_api_arith_mpi.c:439
    2ad0:	f940cf20 	ldr	x0, [x25, #408]
/home/fangjiang/workspace/optee-os/lib/libutee/tee_api_arith_mpi.c:435
    2ad4:	91001273 	add	x19, x19, #0x4
/home/fangjiang/workspace/optee-os/lib/libutee/tee_api_arith_mpi.c:439
    2ad8:	d37ef661 	lsl	x1, x19, #2
    2adc:	f9400000 	ldr	x0, [x0]
    2ae0:	94001dc9 	bl	a204 <mempool_alloc>
    2ae4:	aa0003f4 	mov	x20, x0
/home/fangjiang/workspace/optee-os/lib/libutee/tee_api_arith_mpi.c:440
    2ae8:	b5000060 	cbnz	x0, 2af4 <TEE_BigIntMul+0x94>
/home/fangjiang/workspace/optee-os/lib/libutee/tee_api_arith_mpi.c:441
    2aec:	129ffe60 	mov	w0, #0xffff000c            	// #-65524
    2af0:	940002b1 	bl	35b4 <TEE_Panic>
/home/fangjiang/workspace/optee-os/lib/libutee/tee_api_arith_mpi.c:443
    2af4:	2a1303e1 	mov	w1, w19
    2af8:	aa1403e0 	mov	x0, x20
/home/fangjiang/workspace/optee-os/lib/libutee/tee_api_arith_mpi.c:444
    2afc:	910023f3 	add	x19, sp, #0x8
/home/fangjiang/workspace/optee-os/lib/libutee/tee_api_arith_mpi.c:443
    2b00:	97fffd49 	bl	2024 <TEE_BigIntInit>
/home/fangjiang/workspace/optee-os/lib/libutee/tee_api_arith_mpi.c:444
    2b04:	aa1303e0 	mov	x0, x19
    2b08:	52800061 	mov	w1, #0x3                   	// #3
    2b0c:	97fffd46 	bl	2024 <TEE_BigIntInit>
/home/fangjiang/workspace/optee-os/lib/libutee/tee_api_arith_mpi.c:446
    2b10:	f940ab03 	ldr	x3, [x24, #336]
    2b14:	aa1603e2 	mov	x2, x22
    2b18:	aa1503e1 	mov	x1, x21
    2b1c:	aa1403e0 	mov	x0, x20
    2b20:	97fffb67 	bl	18bc <bigint_binary>
/home/fangjiang/workspace/optee-os/lib/libutee/tee_api_arith_mpi.c:448
    2b24:	aa1303e2 	mov	x2, x19
    2b28:	aa1403e1 	mov	x1, x20
    2b2c:	aa1703e0 	mov	x0, x23
    2b30:	97ffff8b 	bl	295c <TEE_BigIntAdd>
/home/fangjiang/workspace/optee-os/lib/libutee/tee_api_arith_mpi.c:450
    2b34:	f940cf00 	ldr	x0, [x24, #408]
    2b38:	aa1403e1 	mov	x1, x20
    2b3c:	f9400000 	ldr	x0, [x0]
    2b40:	94001dde 	bl	a2b8 <mempool_free>
/home/fangjiang/workspace/optee-os/lib/libutee/tee_api_arith_mpi.c:451
    2b44:	f9409b18 	ldr	x24, [x24, #304]
    2b48:	f9400fe0 	ldr	x0, [sp, #24]
    2b4c:	f9400301 	ldr	x1, [x24]
    2b50:	eb010000 	subs	x0, x0, x1
    2b54:	d2800001 	mov	x1, #0x0                   	// #0
    2b58:	54000040 	b.eq	2b60 <TEE_BigIntMul+0x100>  // b.none
    2b5c:	940018ff 	bl	8f58 <__stack_chk_fail>
    2b60:	a9427bfd 	ldp	x29, x30, [sp, #32]
    2b64:	a94353f3 	ldp	x19, x20, [sp, #48]
    2b68:	a9445bf5 	ldp	x21, x22, [sp, #64]
    2b6c:	a94563f7 	ldp	x23, x24, [sp, #80]
    2b70:	f94033f9 	ldr	x25, [sp, #96]
    2b74:	9101c3ff 	add	sp, sp, #0x70
    2b78:	d65f03c0 	ret

0000000000002b7c <TEE_BigIntSquare>:
TEE_BigIntSquare():
/home/fangjiang/workspace/optee-os/lib/libutee/tee_api_arith_mpi.c:454
    2b7c:	aa0103e2 	mov	x2, x1
/home/fangjiang/workspace/optee-os/lib/libutee/tee_api_arith_mpi.c:455
    2b80:	17ffffb8 	b	2a60 <TEE_BigIntMul>

0000000000002b84 <TEE_BigIntDiv>:
TEE_BigIntDiv():
/home/fangjiang/workspace/optee-os/lib/libutee/tee_api_arith_mpi.c:460
    2b84:	d10343ff 	sub	sp, sp, #0xd0
    2b88:	90000064 	adrp	x4, e000 <_DYNAMIC>
    2b8c:	a9077bfd 	stp	x29, x30, [sp, #112]
    2b90:	9101c3fd 	add	x29, sp, #0x70
    2b94:	f9409884 	ldr	x4, [x4, #304]
    2b98:	a90853f3 	stp	x19, x20, [sp, #128]
    2b9c:	aa0003f4 	mov	x20, x0
    2ba0:	a9095bf5 	stp	x21, x22, [sp, #144]
    2ba4:	aa0103f3 	mov	x19, x1
/home/fangjiang/workspace/optee-os/lib/libutee/tee_api_arith_mpi.c:468
    2ba8:	aa0003e1 	mov	x1, x0
/home/fangjiang/workspace/optee-os/lib/libutee/tee_api_arith_mpi.c:460
    2bac:	a90a63f7 	stp	x23, x24, [sp, #160]
/home/fangjiang/workspace/optee-os/lib/libutee/tee_api_arith_mpi.c:468
    2bb0:	910023f8 	add	x24, sp, #0x8
/home/fangjiang/workspace/optee-os/lib/libutee/tee_api_arith_mpi.c:460
    2bb4:	aa0303f5 	mov	x21, x3
    2bb8:	a90b6bf9 	stp	x25, x26, [sp, #176]
/home/fangjiang/workspace/optee-os/lib/libutee/tee_api_arith_mpi.c:469
    2bbc:	910083f7 	add	x23, sp, #0x20
/home/fangjiang/workspace/optee-os/lib/libutee/tee_api_arith_mpi.c:460
    2bc0:	aa0203f9 	mov	x25, x2
    2bc4:	f90063fb 	str	x27, [sp, #192]
    2bc8:	9100e3fb 	add	x27, sp, #0x38
    2bcc:	f9400080 	ldr	x0, [x4]
    2bd0:	f90037e0 	str	x0, [sp, #104]
    2bd4:	d2800000 	mov	x0, #0x0                   	// #0
/home/fangjiang/workspace/optee-os/lib/libutee/tee_api_arith_mpi.c:468
    2bd8:	aa1803e0 	mov	x0, x24
    2bdc:	97fffaf9 	bl	17c0 <get_mpi>
/home/fangjiang/workspace/optee-os/lib/libutee/tee_api_arith_mpi.c:469
    2be0:	aa1303e1 	mov	x1, x19
    2be4:	aa1703e0 	mov	x0, x23
    2be8:	97fffaf6 	bl	17c0 <get_mpi>
/home/fangjiang/workspace/optee-os/lib/libutee/tee_api_arith_mpi.c:471
    2bec:	eb19029f 	cmp	x20, x25
    2bf0:	540003c0 	b.eq	2c68 <TEE_BigIntDiv+0xe4>  // b.none
/home/fangjiang/workspace/optee-os/lib/libutee/tee_api_arith_mpi.c:473
    2bf4:	eb19027f 	cmp	x19, x25
    2bf8:	540003c0 	b.eq	2c70 <TEE_BigIntDiv+0xec>  // b.none
/home/fangjiang/workspace/optee-os/lib/libutee/tee_api_arith_mpi.c:465
    2bfc:	aa1b03f6 	mov	x22, x27
/home/fangjiang/workspace/optee-os/lib/libutee/tee_api_arith_mpi.c:476
    2c00:	aa1903e1 	mov	x1, x25
    2c04:	aa1b03e0 	mov	x0, x27
    2c08:	97fffaee 	bl	17c0 <get_mpi>
/home/fangjiang/workspace/optee-os/lib/libutee/tee_api_arith_mpi.c:478
    2c0c:	eb15029f 	cmp	x20, x21
    2c10:	910143fa 	add	x26, sp, #0x50
    2c14:	54000320 	b.eq	2c78 <TEE_BigIntDiv+0xf4>  // b.none
/home/fangjiang/workspace/optee-os/lib/libutee/tee_api_arith_mpi.c:480
    2c18:	eb15027f 	cmp	x19, x21
    2c1c:	54000320 	b.eq	2c80 <TEE_BigIntDiv+0xfc>  // b.none
/home/fangjiang/workspace/optee-os/lib/libutee/tee_api_arith_mpi.c:482
    2c20:	eb15033f 	cmp	x25, x21
    2c24:	54000320 	b.eq	2c88 <TEE_BigIntDiv+0x104>  // b.none
/home/fangjiang/workspace/optee-os/lib/libutee/tee_api_arith_mpi.c:485
    2c28:	aa1503e1 	mov	x1, x21
/home/fangjiang/workspace/optee-os/lib/libutee/tee_api_arith_mpi.c:466
    2c2c:	aa1a03f5 	mov	x21, x26
/home/fangjiang/workspace/optee-os/lib/libutee/tee_api_arith_mpi.c:485
    2c30:	aa1a03e0 	mov	x0, x26
    2c34:	97fffae3 	bl	17c0 <get_mpi>
/home/fangjiang/workspace/optee-os/lib/libutee/tee_api_arith_mpi.c:487
    2c38:	aa1603e2 	mov	x2, x22
    2c3c:	aa1503e3 	mov	x3, x21
    2c40:	aa1703e1 	mov	x1, x23
    2c44:	aa1803e0 	mov	x0, x24
    2c48:	94000c51 	bl	5d8c <mbedtls_mpi_div_mpi>
    2c4c:	2a0003e2 	mov	w2, w0
    2c50:	34000200 	cbz	w0, 2c90 <TEE_BigIntDiv+0x10c>
/home/fangjiang/workspace/optee-os/lib/libutee/tee_api_arith_mpi.c:487 (discriminator 1)
    2c54:	52803ce1 	mov	w1, #0x1e7                 	// #487
/home/fangjiang/workspace/optee-os/lib/libutee/tee_api_arith_mpi.c:490 (discriminator 1)
    2c58:	d0000040 	adrp	x0, c000 <__text_end+0x1c98>
    2c5c:	91209400 	add	x0, x0, #0x825
    2c60:	9102b400 	add	x0, x0, #0xad
    2c64:	97fffacb 	bl	1790 <mpi_panic>
/home/fangjiang/workspace/optee-os/lib/libutee/tee_api_arith_mpi.c:472
    2c68:	aa1803f6 	mov	x22, x24
    2c6c:	17ffffe8 	b	2c0c <TEE_BigIntDiv+0x88>
/home/fangjiang/workspace/optee-os/lib/libutee/tee_api_arith_mpi.c:474
    2c70:	aa1703f6 	mov	x22, x23
    2c74:	17ffffe6 	b	2c0c <TEE_BigIntDiv+0x88>
/home/fangjiang/workspace/optee-os/lib/libutee/tee_api_arith_mpi.c:479
    2c78:	aa1803f5 	mov	x21, x24
    2c7c:	17ffffef 	b	2c38 <TEE_BigIntDiv+0xb4>
/home/fangjiang/workspace/optee-os/lib/libutee/tee_api_arith_mpi.c:481
    2c80:	aa1703f5 	mov	x21, x23
    2c84:	17ffffed 	b	2c38 <TEE_BigIntDiv+0xb4>
/home/fangjiang/workspace/optee-os/lib/libutee/tee_api_arith_mpi.c:483
    2c88:	aa1603f5 	mov	x21, x22
    2c8c:	17ffffeb 	b	2c38 <TEE_BigIntDiv+0xb4>
/home/fangjiang/workspace/optee-os/lib/libutee/tee_api_arith_mpi.c:489 (discriminator 2)
    2c90:	b4000114 	cbz	x20, 2cb0 <TEE_BigIntDiv+0x12c>
/home/fangjiang/workspace/optee-os/lib/libutee/tee_api_arith_mpi.c:490
    2c94:	aa1403e1 	mov	x1, x20
    2c98:	aa1803e0 	mov	x0, x24
    2c9c:	97fffaef 	bl	1858 <copy_mpi_to_bigint>
    2ca0:	2a0003e2 	mov	w2, w0
    2ca4:	34000060 	cbz	w0, 2cb0 <TEE_BigIntDiv+0x12c>
/home/fangjiang/workspace/optee-os/lib/libutee/tee_api_arith_mpi.c:490 (discriminator 1)
    2ca8:	52803d41 	mov	w1, #0x1ea                 	// #490
    2cac:	17ffffeb 	b	2c58 <TEE_BigIntDiv+0xd4>
/home/fangjiang/workspace/optee-os/lib/libutee/tee_api_arith_mpi.c:491
    2cb0:	b4000113 	cbz	x19, 2cd0 <TEE_BigIntDiv+0x14c>
/home/fangjiang/workspace/optee-os/lib/libutee/tee_api_arith_mpi.c:492
    2cb4:	aa1303e1 	mov	x1, x19
    2cb8:	aa1703e0 	mov	x0, x23
    2cbc:	97fffae7 	bl	1858 <copy_mpi_to_bigint>
    2cc0:	2a0003e2 	mov	w2, w0
    2cc4:	34000060 	cbz	w0, 2cd0 <TEE_BigIntDiv+0x14c>
/home/fangjiang/workspace/optee-os/lib/libutee/tee_api_arith_mpi.c:492 (discriminator 1)
    2cc8:	52803d81 	mov	w1, #0x1ec                 	// #492
    2ccc:	17ffffe3 	b	2c58 <TEE_BigIntDiv+0xd4>
/home/fangjiang/workspace/optee-os/lib/libutee/tee_api_arith_mpi.c:493
    2cd0:	aa1803e0 	mov	x0, x24
    2cd4:	9400063e 	bl	45cc <mbedtls_mpi_free>
/home/fangjiang/workspace/optee-os/lib/libutee/tee_api_arith_mpi.c:494
    2cd8:	aa1703e0 	mov	x0, x23
    2cdc:	9400063c 	bl	45cc <mbedtls_mpi_free>
/home/fangjiang/workspace/optee-os/lib/libutee/tee_api_arith_mpi.c:495
    2ce0:	eb1b02df 	cmp	x22, x27
    2ce4:	54000061 	b.ne	2cf0 <TEE_BigIntDiv+0x16c>  // b.any
/home/fangjiang/workspace/optee-os/lib/libutee/tee_api_arith_mpi.c:496
    2ce8:	aa1603e0 	mov	x0, x22
    2cec:	94000638 	bl	45cc <mbedtls_mpi_free>
/home/fangjiang/workspace/optee-os/lib/libutee/tee_api_arith_mpi.c:497
    2cf0:	eb1a02bf 	cmp	x21, x26
    2cf4:	54000061 	b.ne	2d00 <TEE_BigIntDiv+0x17c>  // b.any
/home/fangjiang/workspace/optee-os/lib/libutee/tee_api_arith_mpi.c:498
    2cf8:	aa1503e0 	mov	x0, x21
    2cfc:	94000634 	bl	45cc <mbedtls_mpi_free>
/home/fangjiang/workspace/optee-os/lib/libutee/tee_api_arith_mpi.c:499
    2d00:	90000064 	adrp	x4, e000 <_DYNAMIC>
    2d04:	f9409884 	ldr	x4, [x4, #304]
    2d08:	f94037e0 	ldr	x0, [sp, #104]
    2d0c:	f9400081 	ldr	x1, [x4]
    2d10:	eb010000 	subs	x0, x0, x1
    2d14:	d2800001 	mov	x1, #0x0                   	// #0
    2d18:	54000040 	b.eq	2d20 <TEE_BigIntDiv+0x19c>  // b.none
    2d1c:	9400188f 	bl	8f58 <__stack_chk_fail>
    2d20:	a9477bfd 	ldp	x29, x30, [sp, #112]
    2d24:	a94853f3 	ldp	x19, x20, [sp, #128]
    2d28:	a9495bf5 	ldp	x21, x22, [sp, #144]
    2d2c:	a94a63f7 	ldp	x23, x24, [sp, #160]
    2d30:	a94b6bf9 	ldp	x25, x26, [sp, #176]
    2d34:	f94063fb 	ldr	x27, [sp, #192]
    2d38:	910343ff 	add	sp, sp, #0xd0
    2d3c:	d65f03c0 	ret

0000000000002d40 <TEE_BigIntMod>:
TEE_BigIntMod():
/home/fangjiang/workspace/optee-os/lib/libutee/tee_api_arith_mpi.c:502
    2d40:	a9bd7bfd 	stp	x29, x30, [sp, #-48]!
    2d44:	910003fd 	mov	x29, sp
    2d48:	a90153f3 	stp	x19, x20, [sp, #16]
    2d4c:	aa0003f4 	mov	x20, x0
    2d50:	aa0203f3 	mov	x19, x2
/home/fangjiang/workspace/optee-os/lib/libutee/tee_api_arith_mpi.c:503
    2d54:	aa0203e0 	mov	x0, x2
/home/fangjiang/workspace/optee-os/lib/libutee/tee_api_arith_mpi.c:502
    2d58:	f90013f5 	str	x21, [sp, #32]
    2d5c:	aa0103f5 	mov	x21, x1
/home/fangjiang/workspace/optee-os/lib/libutee/tee_api_arith_mpi.c:503
    2d60:	52800041 	mov	w1, #0x2                   	// #2
    2d64:	97fffdb9 	bl	2448 <TEE_BigIntCmpS32>
    2d68:	36f80100 	tbz	w0, #31, 2d88 <TEE_BigIntMod+0x48>
/home/fangjiang/workspace/optee-os/lib/libutee/tee_api_arith_mpi.c:504
    2d6c:	d0000040 	adrp	x0, c000 <__text_end+0x1c98>
    2d70:	91209400 	add	x0, x0, #0x825
    2d74:	d0000042 	adrp	x2, c000 <__text_end+0x1c98>
    2d78:	9102ec00 	add	x0, x0, #0xbb
    2d7c:	911f9442 	add	x2, x2, #0x7e5
    2d80:	52803f01 	mov	w1, #0x1f8                 	// #504
    2d84:	97fffa77 	bl	1760 <api_panic>
/home/fangjiang/workspace/optee-os/lib/libutee/tee_api_arith_mpi.c:506
    2d88:	aa1303e2 	mov	x2, x19
    2d8c:	aa1503e1 	mov	x1, x21
    2d90:	aa1403e0 	mov	x0, x20
    2d94:	90000063 	adrp	x3, e000 <_DYNAMIC>
/home/fangjiang/workspace/optee-os/lib/libutee/tee_api_arith_mpi.c:507
    2d98:	a94153f3 	ldp	x19, x20, [sp, #16]
    2d9c:	f94013f5 	ldr	x21, [sp, #32]
    2da0:	a8c37bfd 	ldp	x29, x30, [sp], #48
/home/fangjiang/workspace/optee-os/lib/libutee/tee_api_arith_mpi.c:506
    2da4:	f940bc63 	ldr	x3, [x3, #376]
    2da8:	17fffac5 	b	18bc <bigint_binary>

0000000000002dac <TEE_BigIntAddMod>:
TEE_BigIntAddMod():
/home/fangjiang/workspace/optee-os/lib/libutee/tee_api_arith_mpi.c:512
    2dac:	90000064 	adrp	x4, e000 <_DYNAMIC>
    2db0:	f940ac84 	ldr	x4, [x4, #344]
    2db4:	17fffdc7 	b	24d0 <bigint_binary_mod>

0000000000002db8 <TEE_BigIntSubMod>:
TEE_BigIntSubMod():
/home/fangjiang/workspace/optee-os/lib/libutee/tee_api_arith_mpi.c:518
    2db8:	90000064 	adrp	x4, e000 <_DYNAMIC>
    2dbc:	f940b484 	ldr	x4, [x4, #360]
    2dc0:	17fffdc4 	b	24d0 <bigint_binary_mod>

0000000000002dc4 <TEE_BigIntMulMod>:
TEE_BigIntMulMod():
/home/fangjiang/workspace/optee-os/lib/libutee/tee_api_arith_mpi.c:524
    2dc4:	90000064 	adrp	x4, e000 <_DYNAMIC>
    2dc8:	f940a884 	ldr	x4, [x4, #336]
    2dcc:	17fffdc1 	b	24d0 <bigint_binary_mod>

0000000000002dd0 <TEE_BigIntSquareMod>:
TEE_BigIntSquareMod():
/home/fangjiang/workspace/optee-os/lib/libutee/tee_api_arith_mpi.c:530
    2dd0:	aa0203e3 	mov	x3, x2
    2dd4:	aa0103e2 	mov	x2, x1
    2dd8:	17fffffb 	b	2dc4 <TEE_BigIntMulMod>

0000000000002ddc <TEE_BigIntInvMod>:
TEE_BigIntInvMod():
/home/fangjiang/workspace/optee-os/lib/libutee/tee_api_arith_mpi.c:535
    2ddc:	d10243ff 	sub	sp, sp, #0x90
    2de0:	90000063 	adrp	x3, e000 <_DYNAMIC>
    2de4:	a9057bfd 	stp	x29, x30, [sp, #80]
    2de8:	910143fd 	add	x29, sp, #0x50
    2dec:	f9409863 	ldr	x3, [x3, #304]
    2df0:	a90653f3 	stp	x19, x20, [sp, #96]
    2df4:	aa0003f4 	mov	x20, x0
    2df8:	a9075bf5 	stp	x21, x22, [sp, #112]
    2dfc:	aa0103f5 	mov	x21, x1
    2e00:	aa0203f6 	mov	x22, x2
    2e04:	f90043f7 	str	x23, [sp, #128]
/home/fangjiang/workspace/optee-os/lib/libutee/tee_api_arith_mpi.c:541
    2e08:	52800041 	mov	w1, #0x2                   	// #2
/home/fangjiang/workspace/optee-os/lib/libutee/tee_api_arith_mpi.c:535
    2e0c:	f9400060 	ldr	x0, [x3]
    2e10:	f90027e0 	str	x0, [sp, #72]
    2e14:	d2800000 	mov	x0, #0x0                   	// #0
/home/fangjiang/workspace/optee-os/lib/libutee/tee_api_arith_mpi.c:541
    2e18:	aa0203e0 	mov	x0, x2
    2e1c:	97fffd8b 	bl	2448 <TEE_BigIntCmpS32>
    2e20:	36f80100 	tbz	w0, #31, 2e40 <TEE_BigIntInvMod+0x64>
/home/fangjiang/workspace/optee-os/lib/libutee/tee_api_arith_mpi.c:542
    2e24:	d0000040 	adrp	x0, c000 <__text_end+0x1c98>
    2e28:	91209400 	add	x0, x0, #0x825
    2e2c:	d0000042 	adrp	x2, c000 <__text_end+0x1c98>
    2e30:	91032400 	add	x0, x0, #0xc9
    2e34:	911fe842 	add	x2, x2, #0x7fa
    2e38:	528043c1 	mov	w1, #0x21e                 	// #542
    2e3c:	97fffa49 	bl	1760 <api_panic>
/home/fangjiang/workspace/optee-os/lib/libutee/tee_api_arith_mpi.c:541 (discriminator 1)
    2e40:	aa1503e0 	mov	x0, x21
    2e44:	52800001 	mov	w1, #0x0                   	// #0
    2e48:	97fffd80 	bl	2448 <TEE_BigIntCmpS32>
    2e4c:	34fffec0 	cbz	w0, 2e24 <TEE_BigIntInvMod+0x48>
/home/fangjiang/workspace/optee-os/lib/libutee/tee_api_arith_mpi.c:544
    2e50:	910003f3 	mov	x19, sp
    2e54:	aa1403e1 	mov	x1, x20
    2e58:	aa1303e0 	mov	x0, x19
/home/fangjiang/workspace/optee-os/lib/libutee/tee_api_arith_mpi.c:545
    2e5c:	9100c3f7 	add	x23, sp, #0x30
/home/fangjiang/workspace/optee-os/lib/libutee/tee_api_arith_mpi.c:544
    2e60:	97fffa58 	bl	17c0 <get_mpi>
/home/fangjiang/workspace/optee-os/lib/libutee/tee_api_arith_mpi.c:545
    2e64:	aa1603e1 	mov	x1, x22
    2e68:	aa1703e0 	mov	x0, x23
    2e6c:	97fffa55 	bl	17c0 <get_mpi>
/home/fangjiang/workspace/optee-os/lib/libutee/tee_api_arith_mpi.c:547
    2e70:	910063f6 	add	x22, sp, #0x18
    2e74:	eb1402bf 	cmp	x21, x20
    2e78:	54000200 	b.eq	2eb8 <TEE_BigIntInvMod+0xdc>  // b.none
/home/fangjiang/workspace/optee-os/lib/libutee/tee_api_arith_mpi.c:550
    2e7c:	aa1503e1 	mov	x1, x21
/home/fangjiang/workspace/optee-os/lib/libutee/tee_api_arith_mpi.c:539
    2e80:	aa1603f5 	mov	x21, x22
/home/fangjiang/workspace/optee-os/lib/libutee/tee_api_arith_mpi.c:550
    2e84:	aa1603e0 	mov	x0, x22
    2e88:	97fffa4e 	bl	17c0 <get_mpi>
/home/fangjiang/workspace/optee-os/lib/libutee/tee_api_arith_mpi.c:552
    2e8c:	aa1703e2 	mov	x2, x23
    2e90:	aa1503e1 	mov	x1, x21
    2e94:	aa1303e0 	mov	x0, x19
    2e98:	940011b6 	bl	7570 <mbedtls_mpi_inv_mod>
    2e9c:	2a0003e2 	mov	w2, w0
    2ea0:	34000100 	cbz	w0, 2ec0 <TEE_BigIntInvMod+0xe4>
/home/fangjiang/workspace/optee-os/lib/libutee/tee_api_arith_mpi.c:552 (discriminator 1)
    2ea4:	52804501 	mov	w1, #0x228                 	// #552
/home/fangjiang/workspace/optee-os/lib/libutee/tee_api_arith_mpi.c:554 (discriminator 1)
    2ea8:	d0000040 	adrp	x0, c000 <__text_end+0x1c98>
    2eac:	91209400 	add	x0, x0, #0x825
    2eb0:	91032400 	add	x0, x0, #0xc9
    2eb4:	97fffa37 	bl	1790 <mpi_panic>
/home/fangjiang/workspace/optee-os/lib/libutee/tee_api_arith_mpi.c:548
    2eb8:	aa1303f5 	mov	x21, x19
    2ebc:	17fffff4 	b	2e8c <TEE_BigIntInvMod+0xb0>
/home/fangjiang/workspace/optee-os/lib/libutee/tee_api_arith_mpi.c:554 (discriminator 2)
    2ec0:	aa1403e1 	mov	x1, x20
    2ec4:	aa1303e0 	mov	x0, x19
    2ec8:	97fffa64 	bl	1858 <copy_mpi_to_bigint>
    2ecc:	2a0003e2 	mov	w2, w0
    2ed0:	34000060 	cbz	w0, 2edc <TEE_BigIntInvMod+0x100>
/home/fangjiang/workspace/optee-os/lib/libutee/tee_api_arith_mpi.c:554 (discriminator 1)
    2ed4:	52804541 	mov	w1, #0x22a                 	// #554
    2ed8:	17fffff4 	b	2ea8 <TEE_BigIntInvMod+0xcc>
/home/fangjiang/workspace/optee-os/lib/libutee/tee_api_arith_mpi.c:555 (discriminator 2)
    2edc:	aa1303e0 	mov	x0, x19
    2ee0:	940005bb 	bl	45cc <mbedtls_mpi_free>
/home/fangjiang/workspace/optee-os/lib/libutee/tee_api_arith_mpi.c:556 (discriminator 2)
    2ee4:	aa1703e0 	mov	x0, x23
    2ee8:	940005b9 	bl	45cc <mbedtls_mpi_free>
/home/fangjiang/workspace/optee-os/lib/libutee/tee_api_arith_mpi.c:557 (discriminator 2)
    2eec:	eb1602bf 	cmp	x21, x22
    2ef0:	54000061 	b.ne	2efc <TEE_BigIntInvMod+0x120>  // b.any
/home/fangjiang/workspace/optee-os/lib/libutee/tee_api_arith_mpi.c:558
    2ef4:	aa1503e0 	mov	x0, x21
    2ef8:	940005b5 	bl	45cc <mbedtls_mpi_free>
/home/fangjiang/workspace/optee-os/lib/libutee/tee_api_arith_mpi.c:559
    2efc:	90000063 	adrp	x3, e000 <_DYNAMIC>
    2f00:	f9409863 	ldr	x3, [x3, #304]
